ARM GAS  C:\Users\Intern\AppData\Local\Temp\ccEf3MFe.s 			page 1


   1              		.syntax unified
   2              		.cpu cortex-m0
   3              		.fpu softvfp
   4              		.eabi_attribute 20, 1
   5              		.eabi_attribute 21, 1
   6              		.eabi_attribute 23, 3
   7              		.eabi_attribute 24, 1
   8              		.eabi_attribute 25, 1
   9              		.eabi_attribute 26, 1
  10              		.eabi_attribute 30, 1
  11              		.eabi_attribute 34, 0
  12              		.eabi_attribute 18, 4
  13              		.thumb
  14              		.syntax unified
  15              		.file	"adafruit_guva.c"
  16              		.text
  17              	.Ltext0:
  18              		.cfi_sections	.debug_frame
  19              		.global	__aeabi_ui2f
  20              		.global	__aeabi_fmul
  21              		.section	.text.adafruit_guva_measure,"ax",%progbits
  22              		.align	2
  23              		.global	adafruit_guva_measure
  24              		.code	16
  25              		.thumb_func
  26              		.type	adafruit_guva_measure, %function
  27              	adafruit_guva_measure:
  28              	.LFB36:
  29              		.file 1 "adafruit_guva.c"
   1:adafruit_guva.c **** #include "adafruit_guva.h"
   2:adafruit_guva.c **** #include "system.h"
   3:adafruit_guva.c **** 
   4:adafruit_guva.c **** float adafruit_guva_measure()
   5:adafruit_guva.c **** {
  30              		.loc 1 5 0
  31              		.cfi_startproc
  32              		@ args = 0, pretend = 0, frame = 0
  33              		@ frame_needed = 0, uses_anonymous_args = 0
  34 0000 10B5     		push	{r4, lr}
  35              		.cfi_def_cfa_offset 8
  36              		.cfi_offset 4, -8
  37              		.cfi_offset 14, -4
  38              	.LVL0:
   6:adafruit_guva.c ****     uint32 pd_channel = 1;
   7:adafruit_guva.c **** 
   8:adafruit_guva.c ****     float adc_counts_float = (float) adc_acquire_channel(pd_channel);
  39              		.loc 1 8 0
  40 0002 0120     		movs	r0, #1
  41 0004 FFF7FEFF 		bl	adc_acquire_channel
  42              	.LVL1:
  43 0008 FFF7FEFF 		bl	__aeabi_ui2f
  44              	.LVL2:
   9:adafruit_guva.c ****     float milli_volts = (adc_counts_float*vdd_calibration)/2048; 
  45              		.loc 1 9 0
  46 000c 044B     		ldr	r3, .L2
  47 000e 1968     		ldr	r1, [r3]
  48 0010 FFF7FEFF 		bl	__aeabi_fmul
ARM GAS  C:\Users\Intern\AppData\Local\Temp\ccEf3MFe.s 			page 2


  49              	.LVL3:
  50 0014 E821     		movs	r1, #232
  51 0016 8905     		lsls	r1, r1, #22
  52 0018 FFF7FEFF 		bl	__aeabi_fmul
  53              	.LVL4:
  10:adafruit_guva.c ****     return milli_volts;
  11:adafruit_guva.c **** }
  54              		.loc 1 11 0
  55              		@ sp needed
  56 001c 10BD     		pop	{r4, pc}
  57              	.L3:
  58 001e C046     		.align	2
  59              	.L2:
  60 0020 00000000 		.word	vdd_calibration
  61              		.cfi_endproc
  62              	.LFE36:
  63              		.size	adafruit_guva_measure, .-adafruit_guva_measure
  64              		.global	__aeabi_f2d
  65              		.global	__aeabi_ddiv
  66              		.global	__aeabi_d2f
  67              		.global	__aeabi_fdiv
  68              		.section	.text.adafruit_guva_get_pd,"ax",%progbits
  69              		.align	2
  70              		.global	adafruit_guva_get_pd
  71              		.code	16
  72              		.thumb_func
  73              		.type	adafruit_guva_get_pd, %function
  74              	adafruit_guva_get_pd:
  75              	.LFB37:
  12:adafruit_guva.c **** 
  13:adafruit_guva.c **** float adafruit_guva_get_pd()
  14:adafruit_guva.c **** {
  76              		.loc 1 14 0
  77              		.cfi_startproc
  78              		@ args = 0, pretend = 0, frame = 0
  79              		@ frame_needed = 0, uses_anonymous_args = 0
  80 0000 10B5     		push	{r4, lr}
  81              		.cfi_def_cfa_offset 8
  82              		.cfi_offset 4, -8
  83              		.cfi_offset 14, -4
  15:adafruit_guva.c ****     float adafruit_guva_mv = adafruit_guva_measure(); //Measure Raw ADC value from Port
  84              		.loc 1 15 0
  85 0002 FFF7FEFF 		bl	adafruit_guva_measure
  86              	.LVL5:
  16:adafruit_guva.c ****     float adafruit_guva_current = adafruit_guva_mv/4.30; //Getting PhotoDiode Current from PhotoDio
  87              		.loc 1 16 0
  88 0006 FFF7FEFF 		bl	__aeabi_f2d
  89              	.LVL6:
  90 000a 054A     		ldr	r2, .L5
  91 000c 054B     		ldr	r3, .L5+4
  92 000e FFF7FEFF 		bl	__aeabi_ddiv
  93              	.LVL7:
  94 0012 FFF7FEFF 		bl	__aeabi_d2f
  95              	.LVL8:
  17:adafruit_guva.c ****     float uv_pd = adafruit_guva_current/113; //Getting Power Density from PhotoDiode
  96              		.loc 1 17 0
  97 0016 0449     		ldr	r1, .L5+8
ARM GAS  C:\Users\Intern\AppData\Local\Temp\ccEf3MFe.s 			page 3


  98 0018 FFF7FEFF 		bl	__aeabi_fdiv
  99              	.LVL9:
  18:adafruit_guva.c ****     return uv_pd; //Returning UV Photodiode Power Density in mW/cm^2
  19:adafruit_guva.c **** }
 100              		.loc 1 19 0
 101              		@ sp needed
 102 001c 10BD     		pop	{r4, pc}
 103              	.L6:
 104 001e C046     		.align	2
 105              	.L5:
 106 0020 33333333 		.word	858993459
 107 0024 33331140 		.word	1074869043
 108 0028 0000E242 		.word	1122107392
 109              		.cfi_endproc
 110              	.LFE37:
 111              		.size	adafruit_guva_get_pd, .-adafruit_guva_get_pd
 112              		.section	.text.adafruit_guva_get_pd_string,"ax",%progbits
 113              		.align	2
 114              		.global	adafruit_guva_get_pd_string
 115              		.code	16
 116              		.thumb_func
 117              		.type	adafruit_guva_get_pd_string, %function
 118              	adafruit_guva_get_pd_string:
 119              	.LFB38:
  20:adafruit_guva.c **** 
  21:adafruit_guva.c **** unsigned int adafruit_guva_get_pd_string(char *adafruit_guva_pd_string)
  22:adafruit_guva.c **** {
 120              		.loc 1 22 0
 121              		.cfi_startproc
 122              		@ args = 0, pretend = 0, frame = 0
 123              		@ frame_needed = 0, uses_anonymous_args = 0
 124              	.LVL10:
 125 0000 10B5     		push	{r4, lr}
 126              		.cfi_def_cfa_offset 8
 127              		.cfi_offset 4, -8
 128              		.cfi_offset 14, -4
 129 0002 0400     		movs	r4, r0
  23:adafruit_guva.c ****     float adafruit_guva_pd = adafruit_guva_get_pd(); //Returns the Power Density of that Adafruit G
 130              		.loc 1 23 0
 131 0004 FFF7FEFF 		bl	adafruit_guva_get_pd
 132              	.LVL11:
  24:adafruit_guva.c ****     sprintf(adafruit_guva_pd_string, "%.4f", adafruit_guva_pd); //Places the Float Value of Power D
 133              		.loc 1 24 0
 134 0008 FFF7FEFF 		bl	__aeabi_f2d
 135              	.LVL12:
 136 000c 0200     		movs	r2, r0
 137 000e 0B00     		movs	r3, r1
 138 0010 0349     		ldr	r1, .L8
 139 0012 2000     		movs	r0, r4
 140 0014 FFF7FEFF 		bl	sprintf
 141              	.LVL13:
  25:adafruit_guva.c ****     unsigned int adafruit_guva_l = strlen(adafruit_guva_pd_string); //Gets the length of the Charac
 142              		.loc 1 25 0
 143 0018 2000     		movs	r0, r4
 144 001a FFF7FEFF 		bl	strlen
 145              	.LVL14:
  26:adafruit_guva.c ****     return adafruit_guva_l; //Returns the Length of the Character Vector
ARM GAS  C:\Users\Intern\AppData\Local\Temp\ccEf3MFe.s 			page 4


  27:adafruit_guva.c **** }
 146              		.loc 1 27 0
 147              		@ sp needed
 148              	.LVL15:
 149 001e 10BD     		pop	{r4, pc}
 150              	.L9:
 151              		.align	2
 152              	.L8:
 153 0020 00000000 		.word	.LC1
 154              		.cfi_endproc
 155              	.LFE38:
 156              		.size	adafruit_guva_get_pd_string, .-adafruit_guva_get_pd_string
 157              		.section	.text.adafruit_guva_uart,"ax",%progbits
 158              		.align	2
 159              		.global	adafruit_guva_uart
 160              		.code	16
 161              		.thumb_func
 162              		.type	adafruit_guva_uart, %function
 163              	adafruit_guva_uart:
 164              	.LFB39:
  28:adafruit_guva.c **** 
  29:adafruit_guva.c **** void adafruit_guva_uart()
  30:adafruit_guva.c **** {
 165              		.loc 1 30 0
 166              		.cfi_startproc
 167              		@ args = 0, pretend = 0, frame = 16
 168              		@ frame_needed = 0, uses_anonymous_args = 0
 169 0000 30B5     		push	{r4, r5, lr}
 170              		.cfi_def_cfa_offset 12
 171              		.cfi_offset 4, -12
 172              		.cfi_offset 5, -8
 173              		.cfi_offset 14, -4
 174 0002 85B0     		sub	sp, sp, #20
 175              		.cfi_def_cfa_offset 32
  31:adafruit_guva.c ****     char uv_pd_string[5]; //Initializes the Character Array for where the value will be stored
  32:adafruit_guva.c ****     unsigned int uv_l = adafruit_guva_get_pd_string(uv_pd_string); //Places the power density of di
 176              		.loc 1 32 0
 177 0004 02A8     		add	r0, sp, #8
 178 0006 FFF7FEFF 		bl	adafruit_guva_get_pd_string
 179              	.LVL16:
 180 000a 0400     		movs	r4, r0
 181              	.LVL17:
  33:adafruit_guva.c **** 
  34:adafruit_guva.c ****     char uv_uart_string[7];
  35:adafruit_guva.c ****     uv_uart_string[0] = 's'; //Places an s as the first element in the arrray
 182              		.loc 1 35 0
 183 000c 7323     		movs	r3, #115
 184 000e 6A46     		mov	r2, sp
 185 0010 1370     		strb	r3, [r2]
  36:adafruit_guva.c ****     uv_uart_string[6] = '\n'; //Places a new line character in the last spot in the array
 186              		.loc 1 36 0
 187 0012 693B     		subs	r3, r3, #105
 188 0014 9371     		strb	r3, [r2, #6]
  37:adafruit_guva.c ****     unsigned int uv_uart_l = strlen(uv_uart_string);
 189              		.loc 1 37 0
 190 0016 6846     		mov	r0, sp
 191              	.LVL18:
ARM GAS  C:\Users\Intern\AppData\Local\Temp\ccEf3MFe.s 			page 5


 192 0018 FFF7FEFF 		bl	strlen
 193              	.LVL19:
 194 001c 0500     		movs	r5, r0
 195              	.LVL20:
 196              	.LBB2:
  38:adafruit_guva.c ****     
  39:adafruit_guva.c ****     //Placing Value in Packet between new message carrier and last message carrier
  40:adafruit_guva.c ****     for(unsigned int j = 1; j<uv_l; j++)
 197              		.loc 1 40 0
 198 001e 0123     		movs	r3, #1
 199 0020 05E0     		b	.L11
 200              	.LVL21:
 201              	.L12:
  41:adafruit_guva.c ****     {
  42:adafruit_guva.c ****         uv_uart_string[j] = uv_pd_string[j-1];    
 202              		.loc 1 42 0 discriminator 3
 203 0022 5A1E     		subs	r2, r3, #1
 204 0024 02A9     		add	r1, sp, #8
 205 0026 8A5C     		ldrb	r2, [r1, r2]
 206 0028 6946     		mov	r1, sp
 207 002a CA54     		strb	r2, [r1, r3]
  40:adafruit_guva.c ****     {
 208              		.loc 1 40 0 discriminator 3
 209 002c 0133     		adds	r3, r3, #1
 210              	.LVL22:
 211              	.L11:
  40:adafruit_guva.c ****     {
 212              		.loc 1 40 0 is_stmt 0 discriminator 1
 213 002e A342     		cmp	r3, r4
 214 0030 F7D3     		bcc	.L12
 215 0032 0024     		movs	r4, #0
 216              	.LVL23:
 217 0034 04E0     		b	.L13
 218              	.LVL24:
 219              	.L14:
 220              	.LBE2:
 221              	.LBB3:
  43:adafruit_guva.c ****     }
  44:adafruit_guva.c ****     
  45:adafruit_guva.c ****     //Sends the Value over UART
  46:adafruit_guva.c ****     for(unsigned int i = 0; i<uv_uart_l; i++)
  47:adafruit_guva.c ****     {
  48:adafruit_guva.c ****         UART_UartPutChar(uv_uart_string[i]);           
 222              		.loc 1 48 0 is_stmt 1 discriminator 3
 223 0036 6B46     		mov	r3, sp
 224 0038 185D     		ldrb	r0, [r3, r4]
 225 003a FFF7FEFF 		bl	UART_SpiUartWriteTxData
 226              	.LVL25:
  46:adafruit_guva.c ****     {
 227              		.loc 1 46 0 discriminator 3
 228 003e 0134     		adds	r4, r4, #1
 229              	.LVL26:
 230              	.L13:
  46:adafruit_guva.c ****     {
 231              		.loc 1 46 0 is_stmt 0 discriminator 1
 232 0040 AC42     		cmp	r4, r5
 233 0042 F8D3     		bcc	.L14
ARM GAS  C:\Users\Intern\AppData\Local\Temp\ccEf3MFe.s 			page 6


 234              	.LBE3:
  49:adafruit_guva.c ****     } 
  50:adafruit_guva.c **** }
 235              		.loc 1 50 0 is_stmt 1
 236 0044 05B0     		add	sp, sp, #20
 237              		@ sp needed
 238              	.LVL27:
 239              	.LVL28:
 240 0046 30BD     		pop	{r4, r5, pc}
 241              		.cfi_endproc
 242              	.LFE39:
 243              		.size	adafruit_guva_uart, .-adafruit_guva_uart
 244              		.section	.rodata.str1.4,"aMS",%progbits,1
 245              		.align	2
 246              	.LC1:
 247 0000 252E3466 		.ascii	"%.4f\000"
 247      00
 248              		.text
 249              	.Letext0:
 250              		.file 2 "system.h"
 251              		.file 3 "c:\\program files (x86)\\cypress\\psoc creator\\4.1\\psoc creator\\import\\gnu\\arm\\5.4.
 252              		.file 4 "c:\\program files (x86)\\cypress\\psoc creator\\4.1\\psoc creator\\import\\gnu\\arm\\5.4.
 253              		.file 5 "Generated_Source\\PSoC4/UART_SPI_UART.h"
 254              		.file 6 "Generated_Source\\PSoC4/cytypes.h"