ARM GAS  C:\Users\Intern\AppData\Local\Temp\ccUXnh9k.s 			page 1


   1              		.syntax unified
   2              		.cpu cortex-m0
   3              		.fpu softvfp
   4              		.eabi_attribute 20, 1
   5              		.eabi_attribute 21, 1
   6              		.eabi_attribute 23, 3
   7              		.eabi_attribute 24, 1
   8              		.eabi_attribute 25, 1
   9              		.eabi_attribute 26, 1
  10              		.eabi_attribute 30, 1
  11              		.eabi_attribute 34, 0
  12              		.eabi_attribute 18, 4
  13              		.thumb
  14              		.syntax unified
  15              		.file	"ADC.c"
  16              		.text
  17              	.Ltext0:
  18              		.cfi_sections	.debug_frame
  19              		.global	__aeabi_idiv
  20              		.section	.text.ADC_Init,"ax",%progbits
  21              		.align	2
  22              		.global	ADC_Init
  23              		.code	16
  24              		.thumb_func
  25              		.type	ADC_Init, %function
  26              	ADC_Init:
  27              	.LFB3:
  28              		.file 1 "Generated_Source\\PSoC4\\ADC.c"
   1:Generated_Source\PSoC4/ADC.c **** /*******************************************************************************
   2:Generated_Source\PSoC4/ADC.c **** * File Name: ADC.c
   3:Generated_Source\PSoC4/ADC.c **** * Version 2.50
   4:Generated_Source\PSoC4/ADC.c **** *
   5:Generated_Source\PSoC4/ADC.c **** * Description:
   6:Generated_Source\PSoC4/ADC.c **** *  This file provides the source code to the API for the Sequencing Successive
   7:Generated_Source\PSoC4/ADC.c **** *  Approximation ADC Component Component.
   8:Generated_Source\PSoC4/ADC.c **** *
   9:Generated_Source\PSoC4/ADC.c **** * Note:
  10:Generated_Source\PSoC4/ADC.c **** *
  11:Generated_Source\PSoC4/ADC.c **** ********************************************************************************
  12:Generated_Source\PSoC4/ADC.c **** * Copyright 2008-2017, Cypress Semiconductor Corporation.  All rights reserved.
  13:Generated_Source\PSoC4/ADC.c **** * You may use this file only in accordance with the license, terms, conditions,
  14:Generated_Source\PSoC4/ADC.c **** * disclaimers, and limitations in the end user license agreement accompanying
  15:Generated_Source\PSoC4/ADC.c **** * the software package with which this file was provided.
  16:Generated_Source\PSoC4/ADC.c **** *******************************************************************************/
  17:Generated_Source\PSoC4/ADC.c **** 
  18:Generated_Source\PSoC4/ADC.c **** #include "ADC.h"
  19:Generated_Source\PSoC4/ADC.c **** 
  20:Generated_Source\PSoC4/ADC.c **** 
  21:Generated_Source\PSoC4/ADC.c **** /***************************************
  22:Generated_Source\PSoC4/ADC.c **** * Global data allocation
  23:Generated_Source\PSoC4/ADC.c **** ***************************************/
  24:Generated_Source\PSoC4/ADC.c **** uint8 ADC_initVar = 0u;
  25:Generated_Source\PSoC4/ADC.c **** volatile int16 ADC_offset[ADC_TOTAL_CHANNELS_NUM];
  26:Generated_Source\PSoC4/ADC.c **** volatile int32 ADC_countsPer10Volt[ADC_TOTAL_CHANNELS_NUM];   /* Gain compensation */
  27:Generated_Source\PSoC4/ADC.c **** 
  28:Generated_Source\PSoC4/ADC.c **** 
  29:Generated_Source\PSoC4/ADC.c **** /***************************************
ARM GAS  C:\Users\Intern\AppData\Local\Temp\ccUXnh9k.s 			page 2


  30:Generated_Source\PSoC4/ADC.c **** * Local data allocation
  31:Generated_Source\PSoC4/ADC.c **** ***************************************/
  32:Generated_Source\PSoC4/ADC.c **** /* Channels configuration generated by customiser */
  33:Generated_Source\PSoC4/ADC.c **** static const uint32 CYCODE ADC_channelsConfig[] = { 0x00000000u, 0x00000000u, 0x00000000u, 0x000000
  34:Generated_Source\PSoC4/ADC.c **** 
  35:Generated_Source\PSoC4/ADC.c **** 
  36:Generated_Source\PSoC4/ADC.c **** /*******************************************************************************
  37:Generated_Source\PSoC4/ADC.c **** * Function Name: ADC_Start
  38:Generated_Source\PSoC4/ADC.c **** ********************************************************************************
  39:Generated_Source\PSoC4/ADC.c **** *
  40:Generated_Source\PSoC4/ADC.c **** * Summary:
  41:Generated_Source\PSoC4/ADC.c **** *  Performs all required initialization for this component
  42:Generated_Source\PSoC4/ADC.c **** *  and enables the power. The power will be set to the appropriate
  43:Generated_Source\PSoC4/ADC.c **** *  power based on the clock frequency.
  44:Generated_Source\PSoC4/ADC.c **** *
  45:Generated_Source\PSoC4/ADC.c **** * Parameters:
  46:Generated_Source\PSoC4/ADC.c **** *  None.
  47:Generated_Source\PSoC4/ADC.c **** *
  48:Generated_Source\PSoC4/ADC.c **** * Return:
  49:Generated_Source\PSoC4/ADC.c **** *  None.
  50:Generated_Source\PSoC4/ADC.c **** *
  51:Generated_Source\PSoC4/ADC.c **** * Global variables:
  52:Generated_Source\PSoC4/ADC.c **** *  The ADC_initVar variable is used to indicate when/if initial
  53:Generated_Source\PSoC4/ADC.c **** *  configuration of this component has happened. The variable is initialized to
  54:Generated_Source\PSoC4/ADC.c **** *  zero and set to 1 the first time ADC_Start() is called. This allows for
  55:Generated_Source\PSoC4/ADC.c **** *  component Re-Start without re-initialization in all subsequent calls to the
  56:Generated_Source\PSoC4/ADC.c **** *  ADC_Start() routine.
  57:Generated_Source\PSoC4/ADC.c **** *  If re-initialization of the component is required the variable should be set
  58:Generated_Source\PSoC4/ADC.c **** *  to zero before call of ADC_Start() routine, or the user may call
  59:Generated_Source\PSoC4/ADC.c **** *  ADC_Init() and ADC_Enable() as done in the
  60:Generated_Source\PSoC4/ADC.c **** *  ADC_Start() routine.
  61:Generated_Source\PSoC4/ADC.c **** *
  62:Generated_Source\PSoC4/ADC.c **** *******************************************************************************/
  63:Generated_Source\PSoC4/ADC.c **** void ADC_Start(void)
  64:Generated_Source\PSoC4/ADC.c **** {
  65:Generated_Source\PSoC4/ADC.c ****     /* If not Initialized then initialize all required hardware and software */
  66:Generated_Source\PSoC4/ADC.c ****     if(ADC_initVar == 0u)
  67:Generated_Source\PSoC4/ADC.c ****     {
  68:Generated_Source\PSoC4/ADC.c ****         ADC_Init();
  69:Generated_Source\PSoC4/ADC.c ****         ADC_initVar = 1u;
  70:Generated_Source\PSoC4/ADC.c ****     }
  71:Generated_Source\PSoC4/ADC.c ****     ADC_Enable();
  72:Generated_Source\PSoC4/ADC.c **** }
  73:Generated_Source\PSoC4/ADC.c **** 
  74:Generated_Source\PSoC4/ADC.c **** 
  75:Generated_Source\PSoC4/ADC.c **** /*******************************************************************************
  76:Generated_Source\PSoC4/ADC.c **** * Function Name: ADC_Init
  77:Generated_Source\PSoC4/ADC.c **** ********************************************************************************
  78:Generated_Source\PSoC4/ADC.c **** *
  79:Generated_Source\PSoC4/ADC.c **** * Summary:
  80:Generated_Source\PSoC4/ADC.c **** *  Initialize component's parameters to the parameters set by user in the
  81:Generated_Source\PSoC4/ADC.c **** *  customizer of the component placed onto schematic. Usually called in
  82:Generated_Source\PSoC4/ADC.c **** *  ADC_Start().
  83:Generated_Source\PSoC4/ADC.c **** *
  84:Generated_Source\PSoC4/ADC.c **** * Parameters:
  85:Generated_Source\PSoC4/ADC.c **** *  None.
  86:Generated_Source\PSoC4/ADC.c **** *
ARM GAS  C:\Users\Intern\AppData\Local\Temp\ccUXnh9k.s 			page 3


  87:Generated_Source\PSoC4/ADC.c **** * Return:
  88:Generated_Source\PSoC4/ADC.c **** *  None.
  89:Generated_Source\PSoC4/ADC.c **** *
  90:Generated_Source\PSoC4/ADC.c **** * Global variables:
  91:Generated_Source\PSoC4/ADC.c **** *  The ADC_offset variable is initialized.
  92:Generated_Source\PSoC4/ADC.c **** *
  93:Generated_Source\PSoC4/ADC.c **** *******************************************************************************/
  94:Generated_Source\PSoC4/ADC.c **** void ADC_Init(void)
  95:Generated_Source\PSoC4/ADC.c **** {
  29              		.loc 1 95 0
  30              		.cfi_startproc
  31              		@ args = 0, pretend = 0, frame = 0
  32              		@ frame_needed = 0, uses_anonymous_args = 0
  33 0000 10B5     		push	{r4, lr}
  34              		.cfi_def_cfa_offset 8
  35              		.cfi_offset 4, -8
  36              		.cfi_offset 14, -4
  96:Generated_Source\PSoC4/ADC.c ****     uint32 chNum;
  97:Generated_Source\PSoC4/ADC.c ****     uint32 tmpRegVal;
  98:Generated_Source\PSoC4/ADC.c ****     int32 counts;
  99:Generated_Source\PSoC4/ADC.c **** 
 100:Generated_Source\PSoC4/ADC.c ****     #if(ADC_TOTAL_CHANNELS_NUM > 1u)
 101:Generated_Source\PSoC4/ADC.c ****         static const uint8 CYCODE ADC_InputsPlacement[] =
 102:Generated_Source\PSoC4/ADC.c ****         {
 103:Generated_Source\PSoC4/ADC.c ****             (uint8)(ADC_cy_psoc4_sarmux_8__CH_0_PORT << 4u) |
 104:Generated_Source\PSoC4/ADC.c ****             (uint8)ADC_cy_psoc4_sarmux_8__CH_0_PIN
 105:Generated_Source\PSoC4/ADC.c ****             ,(uint8)(ADC_cy_psoc4_sarmux_8__CH_1_PORT << 4u) |
 106:Generated_Source\PSoC4/ADC.c ****              (uint8)ADC_cy_psoc4_sarmux_8__CH_1_PIN
 107:Generated_Source\PSoC4/ADC.c ****             #if(ADC_TOTAL_CHANNELS_NUM > 2u)
 108:Generated_Source\PSoC4/ADC.c ****                 ,(uint8)(ADC_cy_psoc4_sarmux_8__CH_2_PORT << 4u) |
 109:Generated_Source\PSoC4/ADC.c ****                  (uint8)ADC_cy_psoc4_sarmux_8__CH_2_PIN
 110:Generated_Source\PSoC4/ADC.c ****             #endif /* End ADC_TOTAL_CHANNELS_NUM > 2u */
 111:Generated_Source\PSoC4/ADC.c ****             #if(ADC_TOTAL_CHANNELS_NUM > 3u)
 112:Generated_Source\PSoC4/ADC.c ****                 ,(uint8)(ADC_cy_psoc4_sarmux_8__CH_3_PORT << 4u) |
 113:Generated_Source\PSoC4/ADC.c ****                  (uint8)ADC_cy_psoc4_sarmux_8__CH_3_PIN
 114:Generated_Source\PSoC4/ADC.c ****             #endif /* End ADC_TOTAL_CHANNELS_NUM > 3u */
 115:Generated_Source\PSoC4/ADC.c ****             #if(ADC_TOTAL_CHANNELS_NUM > 4u)
 116:Generated_Source\PSoC4/ADC.c ****                 ,(uint8)(ADC_cy_psoc4_sarmux_8__CH_4_PORT << 4u) |
 117:Generated_Source\PSoC4/ADC.c ****                  (uint8)ADC_cy_psoc4_sarmux_8__CH_4_PIN
 118:Generated_Source\PSoC4/ADC.c ****             #endif /* End ADC_TOTAL_CHANNELS_NUM > 4u */
 119:Generated_Source\PSoC4/ADC.c ****             #if(ADC_TOTAL_CHANNELS_NUM > 5u)
 120:Generated_Source\PSoC4/ADC.c ****                 ,(uint8)(ADC_cy_psoc4_sarmux_8__CH_5_PORT << 4u) |
 121:Generated_Source\PSoC4/ADC.c ****                  (uint8)ADC_cy_psoc4_sarmux_8__CH_5_PIN
 122:Generated_Source\PSoC4/ADC.c ****             #endif /* End ADC_TOTAL_CHANNELS_NUM > 5u */
 123:Generated_Source\PSoC4/ADC.c ****             #if(ADC_TOTAL_CHANNELS_NUM > 6u)
 124:Generated_Source\PSoC4/ADC.c ****                 ,(uint8)(ADC_cy_psoc4_sarmux_8__CH_6_PORT << 4u) |
 125:Generated_Source\PSoC4/ADC.c ****                  (uint8)ADC_cy_psoc4_sarmux_8__CH_6_PIN
 126:Generated_Source\PSoC4/ADC.c ****             #endif /* End ADC_TOTAL_CHANNELS_NUM > 6u */
 127:Generated_Source\PSoC4/ADC.c ****             #if(ADC_TOTAL_CHANNELS_NUM > 7u)
 128:Generated_Source\PSoC4/ADC.c ****                 ,(uint8)(ADC_cy_psoc4_sarmux_8__CH_7_PORT << 4u) |
 129:Generated_Source\PSoC4/ADC.c ****                  (uint8)ADC_cy_psoc4_sarmux_8__CH_7_PIN
 130:Generated_Source\PSoC4/ADC.c ****             #endif /* End ADC_TOTAL_CHANNELS_NUM > 7u */
 131:Generated_Source\PSoC4/ADC.c ****             #if(ADC_TOTAL_CHANNELS_NUM > 8u)
 132:Generated_Source\PSoC4/ADC.c ****                 ,(uint8)(ADC_cy_psoc4_sarmux_8__CH_8_PORT << 4u) |
 133:Generated_Source\PSoC4/ADC.c ****                  (uint8)ADC_cy_psoc4_sarmux_8__CH_8_PIN
 134:Generated_Source\PSoC4/ADC.c ****             #endif /* End ADC_TOTAL_CHANNELS_NUM > 8u */
 135:Generated_Source\PSoC4/ADC.c ****             #if(ADC_TOTAL_CHANNELS_NUM > 9u)
ARM GAS  C:\Users\Intern\AppData\Local\Temp\ccUXnh9k.s 			page 4


 136:Generated_Source\PSoC4/ADC.c ****                 ,(uint8)(ADC_cy_psoc4_sarmux_8__CH_9_PORT << 4u) |
 137:Generated_Source\PSoC4/ADC.c ****                  (uint8)ADC_cy_psoc4_sarmux_8__CH_9_PIN
 138:Generated_Source\PSoC4/ADC.c ****             #endif /* End ADC_TOTAL_CHANNELS_NUM > 9u */
 139:Generated_Source\PSoC4/ADC.c ****             #if(ADC_TOTAL_CHANNELS_NUM > 10u)
 140:Generated_Source\PSoC4/ADC.c ****                 ,(uint8)(ADC_cy_psoc4_sarmux_8__CH_10_PORT << 4u) |
 141:Generated_Source\PSoC4/ADC.c ****                  (uint8)ADC_cy_psoc4_sarmux_8__CH_10_PIN
 142:Generated_Source\PSoC4/ADC.c ****             #endif /* End ADC_TOTAL_CHANNELS_NUM > 10u */
 143:Generated_Source\PSoC4/ADC.c ****             #if(ADC_TOTAL_CHANNELS_NUM > 11u)
 144:Generated_Source\PSoC4/ADC.c ****                 ,(uint8)(ADC_cy_psoc4_sarmux_8__CH_11_PORT << 4u) |
 145:Generated_Source\PSoC4/ADC.c ****                  (uint8)ADC_cy_psoc4_sarmux_8__CH_11_PIN
 146:Generated_Source\PSoC4/ADC.c ****             #endif /* End ADC_TOTAL_CHANNELS_NUM > 11u */
 147:Generated_Source\PSoC4/ADC.c ****             #if(ADC_TOTAL_CHANNELS_NUM > 12u)
 148:Generated_Source\PSoC4/ADC.c ****                 ,(uint8)(ADC_cy_psoc4_sarmux_8__CH_12_PORT << 4u) |
 149:Generated_Source\PSoC4/ADC.c ****                  (uint8)ADC_cy_psoc4_sarmux_8__CH_12_PIN
 150:Generated_Source\PSoC4/ADC.c ****             #endif /* End ADC_TOTAL_CHANNELS_NUM > 12u */
 151:Generated_Source\PSoC4/ADC.c ****             #if(ADC_TOTAL_CHANNELS_NUM > 13u)
 152:Generated_Source\PSoC4/ADC.c ****                 ,(uint8)(ADC_cy_psoc4_sarmux_8__CH_13_PORT << 4u) |
 153:Generated_Source\PSoC4/ADC.c ****                  (uint8)ADC_cy_psoc4_sarmux_8__CH_13_PIN
 154:Generated_Source\PSoC4/ADC.c ****             #endif /* End ADC_TOTAL_CHANNELS_NUM > 13u */
 155:Generated_Source\PSoC4/ADC.c ****             #if(ADC_TOTAL_CHANNELS_NUM > 14u)
 156:Generated_Source\PSoC4/ADC.c ****                 ,(uint8)(ADC_cy_psoc4_sarmux_8__CH_14_PORT << 4u) |
 157:Generated_Source\PSoC4/ADC.c ****                  (uint8)ADC_cy_psoc4_sarmux_8__CH_14_PIN
 158:Generated_Source\PSoC4/ADC.c ****             #endif /* End ADC_TOTAL_CHANNELS_NUM > 14u */
 159:Generated_Source\PSoC4/ADC.c ****             #if(ADC_TOTAL_CHANNELS_NUM > 15u)
 160:Generated_Source\PSoC4/ADC.c ****                 ,(uint8)(ADC_cy_psoc4_sarmux_8__CH_15_PORT << 4u) |
 161:Generated_Source\PSoC4/ADC.c ****                  (uint8)ADC_cy_psoc4_sarmux_8__CH_15_PIN
 162:Generated_Source\PSoC4/ADC.c ****             #endif /* End ADC_TOTAL_CHANNELS_NUM > 15u */
 163:Generated_Source\PSoC4/ADC.c ****             #if(ADC_TOTAL_CHANNELS_NUM > 16u)
 164:Generated_Source\PSoC4/ADC.c ****                 ,(uint8)(ADC_cy_psoc4_sarmux_8__CH_16_PORT << 4u) |
 165:Generated_Source\PSoC4/ADC.c ****                  (uint8)ADC_cy_psoc4_sarmux_8__CH_16_PIN
 166:Generated_Source\PSoC4/ADC.c ****             #endif /* End ADC_TOTAL_CHANNELS_NUM > 16u */
 167:Generated_Source\PSoC4/ADC.c ****         };
 168:Generated_Source\PSoC4/ADC.c ****     #endif /* End ADC_TOTAL_CHANNELS_NUM > 1u */
 169:Generated_Source\PSoC4/ADC.c **** 
 170:Generated_Source\PSoC4/ADC.c ****     #if(ADC_IRQ_REMOVE == 0u)
 171:Generated_Source\PSoC4/ADC.c ****         /* Start and set interrupt vector */
 172:Generated_Source\PSoC4/ADC.c ****         CyIntSetPriority(ADC_INTC_NUMBER, ADC_INTC_PRIOR_NUMBER);
  37              		.loc 1 172 0
  38 0002 0021     		movs	r1, #0
  39 0004 0F20     		movs	r0, #15
  40 0006 FFF7FEFF 		bl	CyIntSetPriority
  41              	.LVL0:
 173:Generated_Source\PSoC4/ADC.c ****         (void)CyIntSetVector(ADC_INTC_NUMBER, &ADC_ISR);
  42              		.loc 1 173 0
  43 000a 4249     		ldr	r1, .L12
  44 000c 0F20     		movs	r0, #15
  45 000e FFF7FEFF 		bl	CyIntSetVector
  46              	.LVL1:
 174:Generated_Source\PSoC4/ADC.c ****     #endif   /* End ADC_IRQ_REMOVE */
 175:Generated_Source\PSoC4/ADC.c **** 
 176:Generated_Source\PSoC4/ADC.c ****     /* Init SAR and MUX registers */
 177:Generated_Source\PSoC4/ADC.c ****     ADC_SAR_CHAN_EN_REG = ADC_DEFAULT_EN_CHANNELS;
  47              		.loc 1 177 0
  48 0012 0F22     		movs	r2, #15
  49 0014 404B     		ldr	r3, .L12+4
  50 0016 1A60     		str	r2, [r3]
 178:Generated_Source\PSoC4/ADC.c ****     ADC_SAR_CTRL_REG |= ADC_DEFAULT_CTRL_REG_CFG | 
ARM GAS  C:\Users\Intern\AppData\Local\Temp\ccUXnh9k.s 			page 5


 179:Generated_Source\PSoC4/ADC.c ****         /* Enable the SAR internal pump when global pump is enabled */
 180:Generated_Source\PSoC4/ADC.c ****         (((ADC_PUMP_CTRL_REG & ADC_PUMP_CTRL_ENABLED) != 0u) ? 
  51              		.loc 1 180 0
  52 0018 404B     		ldr	r3, .L12+8
  53 001a 1B68     		ldr	r3, [r3]
 178:Generated_Source\PSoC4/ADC.c ****     ADC_SAR_CTRL_REG |= ADC_DEFAULT_CTRL_REG_CFG | 
  54              		.loc 1 178 0
  55 001c 002B     		cmp	r3, #0
  56 001e 01DA     		bge	.L10
  57 0020 3F49     		ldr	r1, .L12+12
  58 0022 00E0     		b	.L2
  59              	.L10:
  60 0024 3F49     		ldr	r1, .L12+16
  61              	.L2:
 178:Generated_Source\PSoC4/ADC.c ****     ADC_SAR_CTRL_REG |= ADC_DEFAULT_CTRL_REG_CFG | 
  62              		.loc 1 178 0 is_stmt 0 discriminator 4
  63 0026 404A     		ldr	r2, .L12+20
  64 0028 1368     		ldr	r3, [r2]
  65 002a 0B43     		orrs	r3, r1
  66 002c 1360     		str	r3, [r2]
 181:Generated_Source\PSoC4/ADC.c ****         ADC_BOOSTPUMP_EN : 0u);
 182:Generated_Source\PSoC4/ADC.c ****     ADC_SAR_SAMPLE_CTRL_REG = ADC_DEFAULT_SAMPLE_CTRL_REG_CFG;
  67              		.loc 1 182 0 is_stmt 1 discriminator 4
  68 002e 3F4A     		ldr	r2, .L12+24
  69 0030 3F4B     		ldr	r3, .L12+28
  70 0032 1A60     		str	r2, [r3]
 183:Generated_Source\PSoC4/ADC.c ****     ADC_SAR_RANGE_THRES_REG = ADC_DEFAULT_RANGE_THRES_REG_CFG;
  71              		.loc 1 183 0 discriminator 4
  72 0034 3F4A     		ldr	r2, .L12+32
  73 0036 404B     		ldr	r3, .L12+36
  74 0038 1A60     		str	r2, [r3]
 184:Generated_Source\PSoC4/ADC.c ****     ADC_SAR_RANGE_COND_REG  = ADC_COMPARE_MODE;
  75              		.loc 1 184 0 discriminator 4
  76 003a 0023     		movs	r3, #0
  77 003c 3F4A     		ldr	r2, .L12+40
  78 003e 1360     		str	r3, [r2]
 185:Generated_Source\PSoC4/ADC.c ****     ADC_SAR_SAMPLE_TIME01_REG = ADC_DEFAULT_SAMPLE_TIME01_REG_CFG;
  79              		.loc 1 185 0 discriminator 4
  80 0040 3F49     		ldr	r1, .L12+44
  81 0042 404A     		ldr	r2, .L12+48
  82 0044 1160     		str	r1, [r2]
 186:Generated_Source\PSoC4/ADC.c ****     ADC_SAR_SAMPLE_TIME23_REG = ADC_DEFAULT_SAMPLE_TIME23_REG_CFG;
  83              		.loc 1 186 0 discriminator 4
  84 0046 4049     		ldr	r1, .L12+52
  85 0048 404A     		ldr	r2, .L12+56
  86 004a 1160     		str	r1, [r2]
 187:Generated_Source\PSoC4/ADC.c ****     
 188:Generated_Source\PSoC4/ADC.c ****     /* Connect Vm to VSSA when even one channel is single-ended or multiple channels configured */
 189:Generated_Source\PSoC4/ADC.c ****     #if(ADC_DEFAULT_MUX_SWITCH0 != 0u)
 190:Generated_Source\PSoC4/ADC.c ****         ADC_MUX_SWITCH0_REG |= ADC_DEFAULT_MUX_SWITCH0;
  87              		.loc 1 190 0 discriminator 4
  88 004c 404A     		ldr	r2, .L12+60
  89 004e 1168     		ldr	r1, [r2]
  90 0050 8020     		movs	r0, #128
  91 0052 4002     		lsls	r0, r0, #9
  92 0054 0143     		orrs	r1, r0
  93 0056 1160     		str	r1, [r2]
ARM GAS  C:\Users\Intern\AppData\Local\Temp\ccUXnh9k.s 			page 6


 191:Generated_Source\PSoC4/ADC.c ****         /* Set MUX_HW_CTRL_VSSA in MUX_SWITCH_HW_CTRL when multiple channels enabled */
 192:Generated_Source\PSoC4/ADC.c ****         #if(ADC_TOTAL_CHANNELS_NUM > 1u)
 193:Generated_Source\PSoC4/ADC.c ****             ADC_MUX_SWITCH_HW_CTRL_REG |= ADC_DEFAULT_MUX_SWITCH0;
  94              		.loc 1 193 0 discriminator 4
  95 0058 3E49     		ldr	r1, .L12+64
  96 005a 0A68     		ldr	r2, [r1]
  97 005c 0243     		orrs	r2, r0
  98 005e 0A60     		str	r2, [r1]
 194:Generated_Source\PSoC4/ADC.c ****         #endif /* ADC_TOTAL_CHANNELS_NUM > 1u */
 195:Generated_Source\PSoC4/ADC.c ****     #endif /*ADC_CHANNELS_MODE !=0 */
 196:Generated_Source\PSoC4/ADC.c **** 
 197:Generated_Source\PSoC4/ADC.c ****     ADC_SAR_SATURATE_INTR_MASK_REG = 0u;
  99              		.loc 1 197 0 discriminator 4
 100 0060 3D4A     		ldr	r2, .L12+68
 101 0062 1360     		str	r3, [r2]
 198:Generated_Source\PSoC4/ADC.c ****     ADC_SAR_RANGE_INTR_MASK_REG = 0u;
 102              		.loc 1 198 0 discriminator 4
 103 0064 3D4A     		ldr	r2, .L12+72
 104 0066 1360     		str	r3, [r2]
 199:Generated_Source\PSoC4/ADC.c ****     ADC_SAR_INTR_MASK_REG = ADC_SAR_INTR_MASK;
 105              		.loc 1 199 0 discriminator 4
 106 0068 0122     		movs	r2, #1
 107 006a 3D4B     		ldr	r3, .L12+76
 108 006c 1A60     		str	r2, [r3]
 200:Generated_Source\PSoC4/ADC.c **** 
 201:Generated_Source\PSoC4/ADC.c ****     #if(ADC_CY_SAR_IP_VER == ADC_CY_SAR_IP_VER0)
 202:Generated_Source\PSoC4/ADC.c ****         ADC_ANA_TRIM_REG = ADC_TRIM_COEF;
 203:Generated_Source\PSoC4/ADC.c ****     #endif /* (ADC_CY_SAR_IP_VER == ADC_CY_SAR_IP_VER0) */
 204:Generated_Source\PSoC4/ADC.c **** 
 205:Generated_Source\PSoC4/ADC.c ****     /* Read and modify default configuration based on characterization */
 206:Generated_Source\PSoC4/ADC.c ****     tmpRegVal = ADC_SAR_DFT_CTRL_REG;
 109              		.loc 1 206 0 discriminator 4
 110 006e 3D4A     		ldr	r2, .L12+80
 111 0070 1168     		ldr	r1, [r2]
 112              	.LVL2:
 113 0072 3D4B     		ldr	r3, .L12+84
 114 0074 0B40     		ands	r3, r1
 207:Generated_Source\PSoC4/ADC.c ****     tmpRegVal &= (uint32)~ADC_DCEN;
 208:Generated_Source\PSoC4/ADC.c ****     
 209:Generated_Source\PSoC4/ADC.c ****     #if(ADC_CY_SAR_IP_VER == ADC_CY_SAR_IP_VER0)
 210:Generated_Source\PSoC4/ADC.c ****         #if(ADC_NOMINAL_CLOCK_FREQ > (ADC_MAX_FREQUENCY / 2))
 211:Generated_Source\PSoC4/ADC.c ****             tmpRegVal |= ADC_SEL_CSEL_DFT_CHAR;
 212:Generated_Source\PSoC4/ADC.c ****         #else  /* clock speed < 9 Mhz */
 213:Generated_Source\PSoC4/ADC.c ****             tmpRegVal |= ADC_DLY_INC;
 214:Generated_Source\PSoC4/ADC.c ****         #endif /* clock speed > 9 Mhz */
 215:Generated_Source\PSoC4/ADC.c ****     #else
 216:Generated_Source\PSoC4/ADC.c ****         #if ((ADC_DEFAULT_VREF_SEL == ADC__INTERNAL1024) || \
 217:Generated_Source\PSoC4/ADC.c ****              (ADC_DEFAULT_VREF_SEL == ADC__INTERNALVREF))
 218:Generated_Source\PSoC4/ADC.c ****             tmpRegVal |= ADC_DLY_INC;
 219:Generated_Source\PSoC4/ADC.c ****         #else
 220:Generated_Source\PSoC4/ADC.c ****             tmpRegVal |= ADC_DCEN;
 221:Generated_Source\PSoC4/ADC.c ****             tmpRegVal &= (uint32)~ADC_DLY_INC;
 115              		.loc 1 221 0 discriminator 4
 116 0076 8021     		movs	r1, #128
 117              	.LVL3:
 118 0078 8905     		lsls	r1, r1, #22
 119 007a 0B43     		orrs	r3, r1
ARM GAS  C:\Users\Intern\AppData\Local\Temp\ccUXnh9k.s 			page 7


 120              	.LVL4:
 222:Generated_Source\PSoC4/ADC.c ****         #endif /* ((ADC_DEFAULT_VREF_SEL == ADC__INTERNAL1024) || \
 223:Generated_Source\PSoC4/ADC.c ****                    (ADC_DEFAULT_VREF_SEL == ADC__INTERNALVREF)) */
 224:Generated_Source\PSoC4/ADC.c ****     #endif /* (ADC_CY_SAR_IP_VER == ADC_CY_SAR_IP_VER0) */
 225:Generated_Source\PSoC4/ADC.c ****     
 226:Generated_Source\PSoC4/ADC.c ****     ADC_SAR_DFT_CTRL_REG = tmpRegVal;
 121              		.loc 1 226 0 discriminator 4
 122 007c 1360     		str	r3, [r2]
 123              	.LVL5:
 227:Generated_Source\PSoC4/ADC.c **** 
 228:Generated_Source\PSoC4/ADC.c ****     #if(ADC_MAX_RESOLUTION != ADC_RESOLUTION_12)
 229:Generated_Source\PSoC4/ADC.c ****         ADC_WOUNDING_REG = ADC_ALT_WOUNDING;
 230:Generated_Source\PSoC4/ADC.c ****     #endif /* ADC_MAX_RESOLUTION != ADC_RESOLUTION_12 */
 231:Generated_Source\PSoC4/ADC.c **** 
 232:Generated_Source\PSoC4/ADC.c ****     for(chNum = 0u; chNum < ADC_TOTAL_CHANNELS_NUM; chNum++)
 124              		.loc 1 232 0 discriminator 4
 125 007e 0024     		movs	r4, #0
 126 0080 45E0     		b	.L3
 127              	.LVL6:
 128              	.L9:
 233:Generated_Source\PSoC4/ADC.c ****     {
 234:Generated_Source\PSoC4/ADC.c ****         tmpRegVal = (ADC_channelsConfig[chNum] & ADC_CHANNEL_CONFIG_MASK);
 129              		.loc 1 234 0
 130 0082 3A49     		ldr	r1, .L12+88
 131 0084 A200     		lsls	r2, r4, #2
 132 0086 5058     		ldr	r0, [r2, r1]
 133 0088 DC23     		movs	r3, #220
 134 008a 9B01     		lsls	r3, r3, #6
 135 008c 0340     		ands	r3, r0
 136              	.LVL7:
 235:Generated_Source\PSoC4/ADC.c ****         #if(ADC_TOTAL_CHANNELS_NUM > 1u)
 236:Generated_Source\PSoC4/ADC.c ****             tmpRegVal |= ADC_InputsPlacement[chNum];
 137              		.loc 1 236 0
 138 008e 0919     		adds	r1, r1, r4
 139 0090 097C     		ldrb	r1, [r1, #16]
 140 0092 0B43     		orrs	r3, r1
 141              	.LVL8:
 237:Generated_Source\PSoC4/ADC.c ****         #endif /* End ADC_TOTAL_CHANNELS_NUM > 1u */
 238:Generated_Source\PSoC4/ADC.c ****         
 239:Generated_Source\PSoC4/ADC.c ****         
 240:Generated_Source\PSoC4/ADC.c ****         /* When the part is limited to 10-bit then the SUB_RESOLUTION bit
 241:Generated_Source\PSoC4/ADC.c ****         *  will be ignored and the RESOLUTION bit selects between 10-bit
 242:Generated_Source\PSoC4/ADC.c ****         *  (0) and 8-bit (1) resolution.
 243:Generated_Source\PSoC4/ADC.c ****         */
 244:Generated_Source\PSoC4/ADC.c ****         #if((ADC_MAX_RESOLUTION != ADC_RESOLUTION_12) && \
 245:Generated_Source\PSoC4/ADC.c ****             (ADC_ALT_WOUNDING == ADC_WOUNDING_10BIT))
 246:Generated_Source\PSoC4/ADC.c ****             tmpRegVal &= (uint32)(~ADC_ALT_RESOLUTION_ON);
 247:Generated_Source\PSoC4/ADC.c ****         #endif /* ADC_MAX_RESOLUTION != ADC_RESOLUTION_12 */
 248:Generated_Source\PSoC4/ADC.c **** 
 249:Generated_Source\PSoC4/ADC.c ****         #if(ADC_INJ_CHANNEL_ENABLED)
 250:Generated_Source\PSoC4/ADC.c ****         if(chNum < ADC_SEQUENCED_CHANNELS_NUM)
 251:Generated_Source\PSoC4/ADC.c ****         #endif /* ADC_INJ_CHANNEL_ENABLED */
 252:Generated_Source\PSoC4/ADC.c ****         {
 253:Generated_Source\PSoC4/ADC.c ****             CY_SET_REG32((reg32 *)(ADC_SAR_CHAN_CONFIG_IND + (uint32)(chNum << 2)), tmpRegVal);
 142              		.loc 1 253 0
 143 0094 3649     		ldr	r1, .L12+92
 144 0096 8C46     		mov	ip, r1
ARM GAS  C:\Users\Intern\AppData\Local\Temp\ccUXnh9k.s 			page 8


 145 0098 6244     		add	r2, r2, ip
 146 009a 1360     		str	r3, [r2]
 254:Generated_Source\PSoC4/ADC.c **** 
 255:Generated_Source\PSoC4/ADC.c ****             if((ADC_channelsConfig[chNum] & ADC_IS_SATURATE_EN_MASK) != 0u)
 147              		.loc 1 255 0
 148 009c C307     		lsls	r3, r0, #31
 149 009e 07D5     		bpl	.L4
 150              	.LVL9:
 256:Generated_Source\PSoC4/ADC.c ****             {
 257:Generated_Source\PSoC4/ADC.c ****                 ADC_SAR_SATURATE_INTR_MASK_REG |= (uint16)((uint16)1 << chNum);
 151              		.loc 1 257 0
 152 00a0 2D49     		ldr	r1, .L12+68
 153 00a2 0A68     		ldr	r2, [r1]
 154              	.LVL10:
 155 00a4 0123     		movs	r3, #1
 156 00a6 A340     		lsls	r3, r3, r4
 157 00a8 1B04     		lsls	r3, r3, #16
 158 00aa 1B0C     		lsrs	r3, r3, #16
 159 00ac 1343     		orrs	r3, r2
 160 00ae 0B60     		str	r3, [r1]
 161              	.LVL11:
 162              	.L4:
 258:Generated_Source\PSoC4/ADC.c ****             }
 259:Generated_Source\PSoC4/ADC.c **** 
 260:Generated_Source\PSoC4/ADC.c ****             if((ADC_channelsConfig[chNum] & ADC_IS_RANGE_CTRL_EN_MASK) != 0u)
 163              		.loc 1 260 0
 164 00b0 A300     		lsls	r3, r4, #2
 165 00b2 2E4A     		ldr	r2, .L12+88
 166              	.LVL12:
 167 00b4 9B58     		ldr	r3, [r3, r2]
 168 00b6 9B07     		lsls	r3, r3, #30
 169 00b8 07D5     		bpl	.L5
 261:Generated_Source\PSoC4/ADC.c ****             {
 262:Generated_Source\PSoC4/ADC.c ****                 ADC_SAR_RANGE_INTR_MASK_REG |= (uint16)((uint16)1 << chNum);
 170              		.loc 1 262 0
 171 00ba 2849     		ldr	r1, .L12+72
 172 00bc 0A68     		ldr	r2, [r1]
 173              	.LVL13:
 174 00be 0123     		movs	r3, #1
 175 00c0 A340     		lsls	r3, r3, r4
 176 00c2 1B04     		lsls	r3, r3, #16
 177 00c4 1B0C     		lsrs	r3, r3, #16
 178 00c6 1343     		orrs	r3, r2
 179 00c8 0B60     		str	r3, [r1]
 180              	.L5:
 263:Generated_Source\PSoC4/ADC.c ****             }
 264:Generated_Source\PSoC4/ADC.c ****         }
 265:Generated_Source\PSoC4/ADC.c ****         #if(ADC_INJ_CHANNEL_ENABLED)
 266:Generated_Source\PSoC4/ADC.c ****             else
 267:Generated_Source\PSoC4/ADC.c ****             {
 268:Generated_Source\PSoC4/ADC.c ****                 CY_SET_REG32(ADC_SAR_INJ_CHAN_CONFIG_PTR, tmpRegVal | ADC_INJ_TAILGATING);
 269:Generated_Source\PSoC4/ADC.c **** 
 270:Generated_Source\PSoC4/ADC.c ****                 if((ADC_channelsConfig[chNum] & ADC_IS_SATURATE_EN_MASK) != 0u)
 271:Generated_Source\PSoC4/ADC.c ****                 {
 272:Generated_Source\PSoC4/ADC.c ****                     ADC_SAR_INTR_MASK_REG |= ADC_INJ_SATURATE_MASK;
 273:Generated_Source\PSoC4/ADC.c ****                 }
 274:Generated_Source\PSoC4/ADC.c **** 
ARM GAS  C:\Users\Intern\AppData\Local\Temp\ccUXnh9k.s 			page 9


 275:Generated_Source\PSoC4/ADC.c ****                 if((ADC_channelsConfig[chNum] & ADC_IS_RANGE_CTRL_EN_MASK) != 0u)
 276:Generated_Source\PSoC4/ADC.c ****                 {
 277:Generated_Source\PSoC4/ADC.c ****                     ADC_SAR_INTR_MASK_REG |= ADC_INJ_RANGE_MASK;
 278:Generated_Source\PSoC4/ADC.c ****                 }
 279:Generated_Source\PSoC4/ADC.c ****             }
 280:Generated_Source\PSoC4/ADC.c ****         #endif /* ADC_INJ_CHANNEL_ENABLED */
 281:Generated_Source\PSoC4/ADC.c **** 
 282:Generated_Source\PSoC4/ADC.c ****         if((ADC_channelsConfig[chNum] & ADC_ALT_RESOLUTION_ON) != 0u)
 181              		.loc 1 282 0
 182 00ca A300     		lsls	r3, r4, #2
 183 00cc 274A     		ldr	r2, .L12+88
 184              	.LVL14:
 185 00ce 9B58     		ldr	r3, [r3, r2]
 186 00d0 9A05     		lsls	r2, r3, #22
 187 00d2 02D5     		bpl	.L11
 188              	.LVL15:
 283:Generated_Source\PSoC4/ADC.c ****         {
 284:Generated_Source\PSoC4/ADC.c ****                counts = (int32)ADC_DEFAULT_MAX_WRK_ALT;
 189              		.loc 1 284 0
 190 00d4 8020     		movs	r0, #128
 191              	.LVL16:
 192 00d6 C000     		lsls	r0, r0, #3
 193 00d8 01E0     		b	.L6
 194              	.LVL17:
 195              	.L11:
 285:Generated_Source\PSoC4/ADC.c ****         }
 286:Generated_Source\PSoC4/ADC.c ****         else
 287:Generated_Source\PSoC4/ADC.c ****         {
 288:Generated_Source\PSoC4/ADC.c ****                counts = (int32)ADC_SAR_WRK_MAX_12BIT;
 196              		.loc 1 288 0
 197 00da 8020     		movs	r0, #128
 198              	.LVL18:
 199 00dc 4001     		lsls	r0, r0, #5
 200              	.L6:
 201              	.LVL19:
 289:Generated_Source\PSoC4/ADC.c ****         }
 290:Generated_Source\PSoC4/ADC.c **** 
 291:Generated_Source\PSoC4/ADC.c ****         if((ADC_channelsConfig[chNum] & ADC_DIFFERENTIAL_EN) == 0u)
 202              		.loc 1 291 0
 203 00de DB05     		lsls	r3, r3, #23
 204 00e0 04D4     		bmi	.L7
 292:Generated_Source\PSoC4/ADC.c ****         {
 293:Generated_Source\PSoC4/ADC.c ****             #if((ADC_DEFAULT_SE_RESULT_FORMAT_SEL == ADC__FSIGNED) && \
 294:Generated_Source\PSoC4/ADC.c ****                 (ADC_DEFAULT_NEG_INPUT_SEL == ADC__VREF))
 295:Generated_Source\PSoC4/ADC.c ****                 /* Set offset to the minus half scale to convert results to unsigned format */
 296:Generated_Source\PSoC4/ADC.c ****                 ADC_offset[chNum] = (int16)(counts / -2);
 297:Generated_Source\PSoC4/ADC.c ****             #else
 298:Generated_Source\PSoC4/ADC.c ****                 ADC_offset[chNum] = 0;
 205              		.loc 1 298 0
 206 00e2 6300     		lsls	r3, r4, #1
 207 00e4 0021     		movs	r1, #0
 208 00e6 234A     		ldr	r2, .L12+96
 209 00e8 9952     		strh	r1, [r3, r2]
 210 00ea 03E0     		b	.L8
 211              	.L7:
 299:Generated_Source\PSoC4/ADC.c ****             #endif /* end DEFAULT_SE_RESULT_FORMAT_SEL == ADC__FSIGNED */
 300:Generated_Source\PSoC4/ADC.c ****         }
ARM GAS  C:\Users\Intern\AppData\Local\Temp\ccUXnh9k.s 			page 10


 301:Generated_Source\PSoC4/ADC.c ****         else    /* Differential channel */
 302:Generated_Source\PSoC4/ADC.c ****         {
 303:Generated_Source\PSoC4/ADC.c ****             #if(ADC_DEFAULT_DIFF_RESULT_FORMAT_SEL == ADC__FUNSIGNED)
 304:Generated_Source\PSoC4/ADC.c ****                 /* Set offset to the half scale to convert results to signed format */
 305:Generated_Source\PSoC4/ADC.c ****                 ADC_offset[chNum] = (int16)(counts / 2);
 212              		.loc 1 305 0
 213 00ec 4208     		lsrs	r2, r0, #1
 214 00ee 6300     		lsls	r3, r4, #1
 215 00f0 2049     		ldr	r1, .L12+96
 216 00f2 5A52     		strh	r2, [r3, r1]
 217              	.L8:
 306:Generated_Source\PSoC4/ADC.c ****             #else
 307:Generated_Source\PSoC4/ADC.c ****                 ADC_offset[chNum] = 0;
 308:Generated_Source\PSoC4/ADC.c ****             #endif /* end ADC_DEFAULT_DIFF_RESULT_FORMAT_SEL == ADC__FUNSIGNED */
 309:Generated_Source\PSoC4/ADC.c ****         }
 310:Generated_Source\PSoC4/ADC.c ****         /* Calculate gain in counts per 10 volts with rounding */
 311:Generated_Source\PSoC4/ADC.c ****         ADC_countsPer10Volt[chNum] = (int16)(((counts * ADC_10MV_COUNTS) +
 218              		.loc 1 311 0 discriminator 2
 219 00f4 204B     		ldr	r3, .L12+100
 220 00f6 5843     		muls	r0, r3
 221              	.LVL20:
 222 00f8 204B     		ldr	r3, .L12+104
 223 00fa 9C46     		mov	ip, r3
 224 00fc 6044     		add	r0, r0, ip
 312:Generated_Source\PSoC4/ADC.c ****                             ADC_DEFAULT_VREF_MV_VALUE) / (ADC_DEFAULT_VREF_MV_VALUE * 2));
 225              		.loc 1 312 0 discriminator 2
 226 00fe 2049     		ldr	r1, .L12+108
 227 0100 FFF7FEFF 		bl	__aeabi_idiv
 228              	.LVL21:
 311:Generated_Source\PSoC4/ADC.c ****                             ADC_DEFAULT_VREF_MV_VALUE) / (ADC_DEFAULT_VREF_MV_VALUE * 2));
 229              		.loc 1 311 0 discriminator 2
 230 0104 00B2     		sxth	r0, r0
 231 0106 A200     		lsls	r2, r4, #2
 232 0108 1E4B     		ldr	r3, .L12+112
 233 010a D050     		str	r0, [r2, r3]
 232:Generated_Source\PSoC4/ADC.c ****     {
 234              		.loc 1 232 0 discriminator 2
 235 010c 0134     		adds	r4, r4, #1
 236              	.LVL22:
 237              	.L3:
 232:Generated_Source\PSoC4/ADC.c ****     {
 238              		.loc 1 232 0 is_stmt 0 discriminator 1
 239 010e 032C     		cmp	r4, #3
 240 0110 B7D9     		bls	.L9
 313:Generated_Source\PSoC4/ADC.c ****     }
 314:Generated_Source\PSoC4/ADC.c **** }
 241              		.loc 1 314 0 is_stmt 1
 242              		@ sp needed
 243              	.LVL23:
 244 0112 10BD     		pop	{r4, pc}
 245              	.L13:
 246              		.align	2
 247              	.L12:
 248 0114 00000000 		.word	ADC_ISR
 249 0118 20003A40 		.word	1077542944
 250 011c 80033A40 		.word	1077543808
 251 0120 70201013 		.word	319823984
ARM GAS  C:\Users\Intern\AppData\Local\Temp\ccUXnh9k.s 			page 11


 252 0124 70200013 		.word	318775408
 253 0128 00003A40 		.word	1077542912
 254 012c 85000A80 		.word	-2146828155
 255 0130 04003A40 		.word	1077542916
 256 0134 0000FF07 		.word	134152192
 257 0138 18003A40 		.word	1077542936
 258 013c 1C003A40 		.word	1077542940
 259 0140 02000A00 		.word	655362
 260 0144 10003A40 		.word	1077542928
 261 0148 02000200 		.word	131074
 262 014c 14003A40 		.word	1077542932
 263 0150 00033A40 		.word	1077543680
 264 0154 40033A40 		.word	1077543744
 265 0158 28023A40 		.word	1077543464
 266 015c 38023A40 		.word	1077543480
 267 0160 18023A40 		.word	1077543448
 268 0164 30003A40 		.word	1077542960
 269 0168 FEFFFFDF 		.word	-536870914
 270 016c 00000000 		.word	.LANCHOR0
 271 0170 80003A40 		.word	1077543040
 272 0174 00000000 		.word	ADC_offset
 273 0178 10270000 		.word	10000
 274 017c E40C0000 		.word	3300
 275 0180 C8190000 		.word	6600
 276 0184 00000000 		.word	ADC_countsPer10Volt
 277              		.cfi_endproc
 278              	.LFE3:
 279              		.size	ADC_Init, .-ADC_Init
 280              		.section	.text.ADC_Enable,"ax",%progbits
 281              		.align	2
 282              		.global	ADC_Enable
 283              		.code	16
 284              		.thumb_func
 285              		.type	ADC_Enable, %function
 286              	ADC_Enable:
 287              	.LFB4:
 315:Generated_Source\PSoC4/ADC.c **** 
 316:Generated_Source\PSoC4/ADC.c **** /*******************************************************************************
 317:Generated_Source\PSoC4/ADC.c **** * Function Name: ADC_SAR_1_Enable
 318:Generated_Source\PSoC4/ADC.c **** ********************************************************************************
 319:Generated_Source\PSoC4/ADC.c **** *
 320:Generated_Source\PSoC4/ADC.c **** * Summary:
 321:Generated_Source\PSoC4/ADC.c **** *  Enables the clock and analog power for SAR ADC.
 322:Generated_Source\PSoC4/ADC.c **** *
 323:Generated_Source\PSoC4/ADC.c **** * Parameters:
 324:Generated_Source\PSoC4/ADC.c **** *  None.
 325:Generated_Source\PSoC4/ADC.c **** *
 326:Generated_Source\PSoC4/ADC.c **** * Return:
 327:Generated_Source\PSoC4/ADC.c **** *  None.
 328:Generated_Source\PSoC4/ADC.c **** *
 329:Generated_Source\PSoC4/ADC.c **** *******************************************************************************/
 330:Generated_Source\PSoC4/ADC.c **** void ADC_Enable(void)
 331:Generated_Source\PSoC4/ADC.c **** {
 288              		.loc 1 331 0
 289              		.cfi_startproc
 290              		@ args = 0, pretend = 0, frame = 0
 291              		@ frame_needed = 0, uses_anonymous_args = 0
ARM GAS  C:\Users\Intern\AppData\Local\Temp\ccUXnh9k.s 			page 12


 292 0000 10B5     		push	{r4, lr}
 293              		.cfi_def_cfa_offset 8
 294              		.cfi_offset 4, -8
 295              		.cfi_offset 14, -4
 332:Generated_Source\PSoC4/ADC.c ****     if (0u == (ADC_SAR_CTRL_REG & ADC_ENABLE))
 296              		.loc 1 332 0
 297 0002 094B     		ldr	r3, .L17
 298 0004 1B68     		ldr	r3, [r3]
 299 0006 002B     		cmp	r3, #0
 300 0008 0CDB     		blt	.L14
 301              	.L16:
 333:Generated_Source\PSoC4/ADC.c ****     {
 334:Generated_Source\PSoC4/ADC.c ****         #if(ADC_CY_SAR_IP_VER != ADC_CY_SAR_IP_VER0)
 335:Generated_Source\PSoC4/ADC.c **** 
 336:Generated_Source\PSoC4/ADC.c ****             while (0u != (ADC_SAR_STATUS_REG & ADC_STATUS_BUSY))
 302              		.loc 1 336 0 discriminator 1
 303 000a 084B     		ldr	r3, .L17+4
 304 000c 1B68     		ldr	r3, [r3]
 305 000e 002B     		cmp	r3, #0
 306 0010 FBDB     		blt	.L16
 337:Generated_Source\PSoC4/ADC.c ****             {
 338:Generated_Source\PSoC4/ADC.c ****                 /* wait for SAR to go idle to avoid deadlock */
 339:Generated_Source\PSoC4/ADC.c ****             }
 340:Generated_Source\PSoC4/ADC.c ****         #endif /* (ADC_CY_SAR_IP_VER != ADC_CY_SAR_IP_VER0) */
 341:Generated_Source\PSoC4/ADC.c ****         
 342:Generated_Source\PSoC4/ADC.c ****         ADC_SAR_CTRL_REG |= ADC_ENABLE;
 307              		.loc 1 342 0
 308 0012 054A     		ldr	r2, .L17
 309 0014 1368     		ldr	r3, [r2]
 310 0016 8021     		movs	r1, #128
 311 0018 0906     		lsls	r1, r1, #24
 312 001a 0B43     		orrs	r3, r1
 313 001c 1360     		str	r3, [r2]
 343:Generated_Source\PSoC4/ADC.c ****         
 344:Generated_Source\PSoC4/ADC.c ****         /* The block is ready to use 10 us after the enable signal is set high. */
 345:Generated_Source\PSoC4/ADC.c ****         CyDelayUs(ADC_10US_DELAY);         
 314              		.loc 1 345 0
 315 001e 0A20     		movs	r0, #10
 316 0020 FFF7FEFF 		bl	CyDelayUs
 317              	.LVL24:
 318              	.L14:
 346:Generated_Source\PSoC4/ADC.c ****     }
 347:Generated_Source\PSoC4/ADC.c **** }
 319              		.loc 1 347 0
 320              		@ sp needed
 321 0024 10BD     		pop	{r4, pc}
 322              	.L18:
 323 0026 C046     		.align	2
 324              	.L17:
 325 0028 00003A40 		.word	1077542912
 326 002c 08023A40 		.word	1077543432
 327              		.cfi_endproc
 328              	.LFE4:
 329              		.size	ADC_Enable, .-ADC_Enable
 330              		.section	.text.ADC_Start,"ax",%progbits
 331              		.align	2
 332              		.global	ADC_Start
ARM GAS  C:\Users\Intern\AppData\Local\Temp\ccUXnh9k.s 			page 13


 333              		.code	16
 334              		.thumb_func
 335              		.type	ADC_Start, %function
 336              	ADC_Start:
 337              	.LFB2:
  64:Generated_Source\PSoC4/ADC.c ****     /* If not Initialized then initialize all required hardware and software */
 338              		.loc 1 64 0
 339              		.cfi_startproc
 340              		@ args = 0, pretend = 0, frame = 0
 341              		@ frame_needed = 0, uses_anonymous_args = 0
 342 0000 10B5     		push	{r4, lr}
 343              		.cfi_def_cfa_offset 8
 344              		.cfi_offset 4, -8
 345              		.cfi_offset 14, -4
  66:Generated_Source\PSoC4/ADC.c ****     {
 346              		.loc 1 66 0
 347 0002 064B     		ldr	r3, .L21
 348 0004 1B78     		ldrb	r3, [r3]
 349 0006 002B     		cmp	r3, #0
 350 0008 04D1     		bne	.L20
  68:Generated_Source\PSoC4/ADC.c ****         ADC_initVar = 1u;
 351              		.loc 1 68 0
 352 000a FFF7FEFF 		bl	ADC_Init
 353              	.LVL25:
  69:Generated_Source\PSoC4/ADC.c ****     }
 354              		.loc 1 69 0
 355 000e 0122     		movs	r2, #1
 356 0010 024B     		ldr	r3, .L21
 357 0012 1A70     		strb	r2, [r3]
 358              	.L20:
  71:Generated_Source\PSoC4/ADC.c **** }
 359              		.loc 1 71 0
 360 0014 FFF7FEFF 		bl	ADC_Enable
 361              	.LVL26:
  72:Generated_Source\PSoC4/ADC.c **** 
 362              		.loc 1 72 0
 363              		@ sp needed
 364 0018 10BD     		pop	{r4, pc}
 365              	.L22:
 366 001a C046     		.align	2
 367              	.L21:
 368 001c 00000000 		.word	.LANCHOR1
 369              		.cfi_endproc
 370              	.LFE2:
 371              		.size	ADC_Start, .-ADC_Start
 372              		.section	.text.ADC_Stop,"ax",%progbits
 373              		.align	2
 374              		.global	ADC_Stop
 375              		.code	16
 376              		.thumb_func
 377              		.type	ADC_Stop, %function
 378              	ADC_Stop:
 379              	.LFB5:
 348:Generated_Source\PSoC4/ADC.c **** 
 349:Generated_Source\PSoC4/ADC.c **** 
 350:Generated_Source\PSoC4/ADC.c **** /*******************************************************************************
 351:Generated_Source\PSoC4/ADC.c **** * Function Name: ADC_Stop
ARM GAS  C:\Users\Intern\AppData\Local\Temp\ccUXnh9k.s 			page 14


 352:Generated_Source\PSoC4/ADC.c **** ********************************************************************************
 353:Generated_Source\PSoC4/ADC.c **** *
 354:Generated_Source\PSoC4/ADC.c **** * Summary:
 355:Generated_Source\PSoC4/ADC.c **** *  This function stops ADC conversions and puts the ADC into its lowest power
 356:Generated_Source\PSoC4/ADC.c **** *  mode.
 357:Generated_Source\PSoC4/ADC.c **** *
 358:Generated_Source\PSoC4/ADC.c **** * Parameters:
 359:Generated_Source\PSoC4/ADC.c **** *  None.
 360:Generated_Source\PSoC4/ADC.c **** *
 361:Generated_Source\PSoC4/ADC.c **** * Return:
 362:Generated_Source\PSoC4/ADC.c **** *  None.
 363:Generated_Source\PSoC4/ADC.c **** *
 364:Generated_Source\PSoC4/ADC.c **** *******************************************************************************/
 365:Generated_Source\PSoC4/ADC.c **** void ADC_Stop(void)
 366:Generated_Source\PSoC4/ADC.c **** {
 380              		.loc 1 366 0
 381              		.cfi_startproc
 382              		@ args = 0, pretend = 0, frame = 0
 383              		@ frame_needed = 0, uses_anonymous_args = 0
 384              		@ link register save eliminated.
 367:Generated_Source\PSoC4/ADC.c ****     ADC_SAR_CTRL_REG &= (uint32)~ADC_ENABLE;
 385              		.loc 1 367 0
 386 0000 024A     		ldr	r2, .L24
 387 0002 1368     		ldr	r3, [r2]
 388 0004 5B00     		lsls	r3, r3, #1
 389 0006 5B08     		lsrs	r3, r3, #1
 390 0008 1360     		str	r3, [r2]
 368:Generated_Source\PSoC4/ADC.c **** }
 391              		.loc 1 368 0
 392              		@ sp needed
 393 000a 7047     		bx	lr
 394              	.L25:
 395              		.align	2
 396              	.L24:
 397 000c 00003A40 		.word	1077542912
 398              		.cfi_endproc
 399              	.LFE5:
 400              		.size	ADC_Stop, .-ADC_Stop
 401              		.section	.text.ADC_StartConvert,"ax",%progbits
 402              		.align	2
 403              		.global	ADC_StartConvert
 404              		.code	16
 405              		.thumb_func
 406              		.type	ADC_StartConvert, %function
 407              	ADC_StartConvert:
 408              	.LFB6:
 369:Generated_Source\PSoC4/ADC.c **** 
 370:Generated_Source\PSoC4/ADC.c **** 
 371:Generated_Source\PSoC4/ADC.c **** /*******************************************************************************
 372:Generated_Source\PSoC4/ADC.c **** * Function Name: ADC_StartConvert
 373:Generated_Source\PSoC4/ADC.c **** ********************************************************************************
 374:Generated_Source\PSoC4/ADC.c **** *
 375:Generated_Source\PSoC4/ADC.c **** * Summary:
 376:Generated_Source\PSoC4/ADC.c **** *  Description:
 377:Generated_Source\PSoC4/ADC.c **** *  For free running mode, this API starts the conversion process and it
 378:Generated_Source\PSoC4/ADC.c **** *  runs continuously.
 379:Generated_Source\PSoC4/ADC.c **** *
ARM GAS  C:\Users\Intern\AppData\Local\Temp\ccUXnh9k.s 			page 15


 380:Generated_Source\PSoC4/ADC.c **** *  In a triggered mode, this routine triggers every conversion by
 381:Generated_Source\PSoC4/ADC.c **** *  writing into the FW_TRIGGER bit in SAR_START_CTRL reg. In triggered mode,
 382:Generated_Source\PSoC4/ADC.c **** *  every conversion has to start by this API.
 383:Generated_Source\PSoC4/ADC.c **** *
 384:Generated_Source\PSoC4/ADC.c **** * Parameters:
 385:Generated_Source\PSoC4/ADC.c **** *  None.
 386:Generated_Source\PSoC4/ADC.c **** *
 387:Generated_Source\PSoC4/ADC.c **** * Return:
 388:Generated_Source\PSoC4/ADC.c **** *  None.
 389:Generated_Source\PSoC4/ADC.c **** *
 390:Generated_Source\PSoC4/ADC.c **** *******************************************************************************/
 391:Generated_Source\PSoC4/ADC.c **** void ADC_StartConvert(void)
 392:Generated_Source\PSoC4/ADC.c **** {
 409              		.loc 1 392 0
 410              		.cfi_startproc
 411              		@ args = 0, pretend = 0, frame = 0
 412              		@ frame_needed = 0, uses_anonymous_args = 0
 413              		@ link register save eliminated.
 393:Generated_Source\PSoC4/ADC.c ****     #if(ADC_DEFAULT_SAMPLE_MODE_SEL == ADC__FREERUNNING)
 394:Generated_Source\PSoC4/ADC.c ****         ADC_SAR_SAMPLE_CTRL_REG |= ADC_CONTINUOUS_EN;
 395:Generated_Source\PSoC4/ADC.c ****     #else /* Firmware trigger */
 396:Generated_Source\PSoC4/ADC.c ****         ADC_SAR_START_CTRL_REG = ADC_FW_TRIGGER;
 414              		.loc 1 396 0
 415 0000 0122     		movs	r2, #1
 416 0002 014B     		ldr	r3, .L27
 417 0004 1A60     		str	r2, [r3]
 397:Generated_Source\PSoC4/ADC.c ****     #endif /* End ADC_DEFAULT_SAMPLE_MODE == ADC__FREERUNNING */
 398:Generated_Source\PSoC4/ADC.c **** 
 399:Generated_Source\PSoC4/ADC.c **** }
 418              		.loc 1 399 0
 419              		@ sp needed
 420 0006 7047     		bx	lr
 421              	.L28:
 422              		.align	2
 423              	.L27:
 424 0008 24003A40 		.word	1077542948
 425              		.cfi_endproc
 426              	.LFE6:
 427              		.size	ADC_StartConvert, .-ADC_StartConvert
 428              		.section	.text.ADC_StopConvert,"ax",%progbits
 429              		.align	2
 430              		.global	ADC_StopConvert
 431              		.code	16
 432              		.thumb_func
 433              		.type	ADC_StopConvert, %function
 434              	ADC_StopConvert:
 435              	.LFB7:
 400:Generated_Source\PSoC4/ADC.c **** 
 401:Generated_Source\PSoC4/ADC.c **** 
 402:Generated_Source\PSoC4/ADC.c **** /*******************************************************************************
 403:Generated_Source\PSoC4/ADC.c **** * Function Name: ADC_StopConvert
 404:Generated_Source\PSoC4/ADC.c **** ********************************************************************************
 405:Generated_Source\PSoC4/ADC.c **** *
 406:Generated_Source\PSoC4/ADC.c **** * Summary:
 407:Generated_Source\PSoC4/ADC.c **** *  Forces the ADC to stop all conversions.
 408:Generated_Source\PSoC4/ADC.c **** *
 409:Generated_Source\PSoC4/ADC.c **** * Parameters:
ARM GAS  C:\Users\Intern\AppData\Local\Temp\ccUXnh9k.s 			page 16


 410:Generated_Source\PSoC4/ADC.c **** *  None.
 411:Generated_Source\PSoC4/ADC.c **** *
 412:Generated_Source\PSoC4/ADC.c **** * Return:
 413:Generated_Source\PSoC4/ADC.c **** *  None.
 414:Generated_Source\PSoC4/ADC.c **** *
 415:Generated_Source\PSoC4/ADC.c **** *******************************************************************************/
 416:Generated_Source\PSoC4/ADC.c **** void ADC_StopConvert(void)
 417:Generated_Source\PSoC4/ADC.c **** {
 436              		.loc 1 417 0
 437              		.cfi_startproc
 438              		@ args = 0, pretend = 0, frame = 0
 439              		@ frame_needed = 0, uses_anonymous_args = 0
 440              		@ link register save eliminated.
 418:Generated_Source\PSoC4/ADC.c ****     #if(ADC_DEFAULT_SAMPLE_MODE_SEL == ADC__FREERUNNING)
 419:Generated_Source\PSoC4/ADC.c ****         ADC_SAR_SAMPLE_CTRL_REG &= (uint32)(~ADC_CONTINUOUS_EN);
 420:Generated_Source\PSoC4/ADC.c ****     #endif /* ADC_DEFAULT_SAMPLE_MODE == ADC__FREERUNNING */
 421:Generated_Source\PSoC4/ADC.c **** }
 441              		.loc 1 421 0
 442              		@ sp needed
 443 0000 7047     		bx	lr
 444              		.cfi_endproc
 445              	.LFE7:
 446              		.size	ADC_StopConvert, .-ADC_StopConvert
 447 0002 C046     		.section	.text.ADC_IsEndConversion,"ax",%progbits
 448              		.align	2
 449              		.global	ADC_IsEndConversion
 450              		.code	16
 451              		.thumb_func
 452              		.type	ADC_IsEndConversion, %function
 453              	ADC_IsEndConversion:
 454              	.LFB8:
 422:Generated_Source\PSoC4/ADC.c **** 
 423:Generated_Source\PSoC4/ADC.c **** 
 424:Generated_Source\PSoC4/ADC.c **** /*******************************************************************************
 425:Generated_Source\PSoC4/ADC.c **** * Function Name: ADC_IsEndConversion
 426:Generated_Source\PSoC4/ADC.c **** ********************************************************************************
 427:Generated_Source\PSoC4/ADC.c **** *
 428:Generated_Source\PSoC4/ADC.c **** * Summary:
 429:Generated_Source\PSoC4/ADC.c **** *  Description: Checks for ADC end of conversion for the case one
 430:Generated_Source\PSoC4/ADC.c **** *  channel and end of scan for the case of multiple channels. It acts
 431:Generated_Source\PSoC4/ADC.c **** *  as a software version of the EOC. This function provides the
 432:Generated_Source\PSoC4/ADC.c **** *  programmer with two options. In one mode this function
 433:Generated_Source\PSoC4/ADC.c **** *  immediately returns with the conversion status. In the other mode,
 434:Generated_Source\PSoC4/ADC.c **** *  the function does not return (blocking) until the conversion has
 435:Generated_Source\PSoC4/ADC.c **** *  completed.
 436:Generated_Source\PSoC4/ADC.c **** *
 437:Generated_Source\PSoC4/ADC.c **** * Parameters:
 438:Generated_Source\PSoC4/ADC.c **** *  ADC_RETURN_STATUS        -> Immediately returns conversion result status
 439:Generated_Source\PSoC4/ADC.c **** *  ADC_WAIT_FOR_RESULT      -> Does not return until ADC complete
 440:Generated_Source\PSoC4/ADC.c **** *  ADC_RETURN_STATUS_INJ    -> Immediately returns conversion result status
 441:Generated_Source\PSoC4/ADC.c **** *                              for injection channel
 442:Generated_Source\PSoC4/ADC.c **** *  ADC_WAIT_FOR_RESULT_INJ  -> Does not return until ADC completes injection
 443:Generated_Source\PSoC4/ADC.c **** *                              channel conversion
 444:Generated_Source\PSoC4/ADC.c **** *
 445:Generated_Source\PSoC4/ADC.c **** * Return:
 446:Generated_Source\PSoC4/ADC.c **** *  If a non-zero value is returned, the last conversion or scan has completed.
 447:Generated_Source\PSoC4/ADC.c **** *  If the returned value is zero, the ADC is still in the process of a scan.
ARM GAS  C:\Users\Intern\AppData\Local\Temp\ccUXnh9k.s 			page 17


 448:Generated_Source\PSoC4/ADC.c **** *
 449:Generated_Source\PSoC4/ADC.c **** *******************************************************************************/
 450:Generated_Source\PSoC4/ADC.c **** uint32 ADC_IsEndConversion(uint32 retMode)
 451:Generated_Source\PSoC4/ADC.c **** {
 455              		.loc 1 451 0
 456              		.cfi_startproc
 457              		@ args = 0, pretend = 0, frame = 0
 458              		@ frame_needed = 0, uses_anonymous_args = 0
 459              		@ link register save eliminated.
 460              	.LVL27:
 461 0000 0200     		movs	r2, r0
 462              	.LVL28:
 452:Generated_Source\PSoC4/ADC.c ****     uint32 status = 0u;
 453:Generated_Source\PSoC4/ADC.c **** 
 454:Generated_Source\PSoC4/ADC.c ****     if((retMode & (ADC_RETURN_STATUS | ADC_WAIT_FOR_RESULT)) != 0u)
 463              		.loc 1 454 0
 464 0002 8307     		lsls	r3, r0, #30
 465 0004 0CD0     		beq	.L34
 466              	.LVL29:
 467              	.L33:
 455:Generated_Source\PSoC4/ADC.c ****     {
 456:Generated_Source\PSoC4/ADC.c ****         do
 457:Generated_Source\PSoC4/ADC.c ****         {
 458:Generated_Source\PSoC4/ADC.c ****             status = ADC_SAR_INTR_REG & ADC_EOS_MASK;
 468              		.loc 1 458 0 discriminator 2
 469 0006 074B     		ldr	r3, .L35
 470 0008 1B68     		ldr	r3, [r3]
 471 000a 0120     		movs	r0, #1
 472 000c 1840     		ands	r0, r3
 473              	.LVL30:
 459:Generated_Source\PSoC4/ADC.c ****         }while((status == 0u) && ((retMode & ADC_WAIT_FOR_RESULT) != 0u));
 474              		.loc 1 459 0 discriminator 2
 475 000e 01D1     		bne	.L32
 476              		.loc 1 459 0 is_stmt 0 discriminator 1
 477 0010 9307     		lsls	r3, r2, #30
 478 0012 F8D4     		bmi	.L33
 479              	.L32:
 460:Generated_Source\PSoC4/ADC.c **** 
 461:Generated_Source\PSoC4/ADC.c ****         if(status != 0u)
 480              		.loc 1 461 0 is_stmt 1
 481 0014 0028     		cmp	r0, #0
 482 0016 04D0     		beq	.L31
 462:Generated_Source\PSoC4/ADC.c ****         {
 463:Generated_Source\PSoC4/ADC.c ****             /* Clear EOS bit */
 464:Generated_Source\PSoC4/ADC.c ****             ADC_SAR_INTR_REG = ADC_EOS_MASK;
 483              		.loc 1 464 0
 484 0018 0122     		movs	r2, #1
 485              	.LVL31:
 486 001a 024B     		ldr	r3, .L35
 487 001c 1A60     		str	r2, [r3]
 488 001e 00E0     		b	.L31
 489              	.LVL32:
 490              	.L34:
 452:Generated_Source\PSoC4/ADC.c **** 
 491              		.loc 1 452 0
 492 0020 0020     		movs	r0, #0
 493              	.LVL33:
ARM GAS  C:\Users\Intern\AppData\Local\Temp\ccUXnh9k.s 			page 18


 494              	.L31:
 465:Generated_Source\PSoC4/ADC.c ****         }
 466:Generated_Source\PSoC4/ADC.c ****     }
 467:Generated_Source\PSoC4/ADC.c **** 
 468:Generated_Source\PSoC4/ADC.c ****     #if(ADC_INJ_CHANNEL_ENABLED)
 469:Generated_Source\PSoC4/ADC.c ****         if((retMode & (ADC_RETURN_STATUS_INJ | ADC_WAIT_FOR_RESULT_INJ)) != 0u)
 470:Generated_Source\PSoC4/ADC.c ****         {
 471:Generated_Source\PSoC4/ADC.c ****             do
 472:Generated_Source\PSoC4/ADC.c ****             {
 473:Generated_Source\PSoC4/ADC.c ****                 status |= ADC_SAR_INTR_REG & ADC_INJ_EOC_MASK;
 474:Generated_Source\PSoC4/ADC.c ****             }while(((status & ADC_INJ_EOC_MASK) == 0u) &&
 475:Generated_Source\PSoC4/ADC.c ****                    ((retMode & ADC_WAIT_FOR_RESULT_INJ) != 0u));
 476:Generated_Source\PSoC4/ADC.c **** 
 477:Generated_Source\PSoC4/ADC.c ****             if((status & ADC_INJ_EOC_MASK) != 0u)
 478:Generated_Source\PSoC4/ADC.c ****             {
 479:Generated_Source\PSoC4/ADC.c ****                 /* Clear Injection EOS bit */
 480:Generated_Source\PSoC4/ADC.c ****                 ADC_SAR_INTR_REG = ADC_INJ_EOC_MASK;
 481:Generated_Source\PSoC4/ADC.c ****             }
 482:Generated_Source\PSoC4/ADC.c ****         }
 483:Generated_Source\PSoC4/ADC.c ****     #endif /* ADC_INJ_CHANNEL_ENABLED */
 484:Generated_Source\PSoC4/ADC.c **** 
 485:Generated_Source\PSoC4/ADC.c ****     return (status);
 486:Generated_Source\PSoC4/ADC.c **** }
 495              		.loc 1 486 0
 496              		@ sp needed
 497 0022 7047     		bx	lr
 498              	.L36:
 499              		.align	2
 500              	.L35:
 501 0024 10023A40 		.word	1077543440
 502              		.cfi_endproc
 503              	.LFE8:
 504              		.size	ADC_IsEndConversion, .-ADC_IsEndConversion
 505              		.section	.text.ADC_GetResult16,"ax",%progbits
 506              		.align	2
 507              		.global	ADC_GetResult16
 508              		.code	16
 509              		.thumb_func
 510              		.type	ADC_GetResult16, %function
 511              	ADC_GetResult16:
 512              	.LFB9:
 487:Generated_Source\PSoC4/ADC.c **** 
 488:Generated_Source\PSoC4/ADC.c **** 
 489:Generated_Source\PSoC4/ADC.c **** /*******************************************************************************
 490:Generated_Source\PSoC4/ADC.c **** * Function Name: ADC_GetResult16
 491:Generated_Source\PSoC4/ADC.c **** ********************************************************************************
 492:Generated_Source\PSoC4/ADC.c **** *
 493:Generated_Source\PSoC4/ADC.c **** * Summary:
 494:Generated_Source\PSoC4/ADC.c **** *  Gets the data available in the SAR DATA register.
 495:Generated_Source\PSoC4/ADC.c **** *
 496:Generated_Source\PSoC4/ADC.c **** * Parameters:
 497:Generated_Source\PSoC4/ADC.c **** *  chan: The ADC channel in which to return the result. The first channel
 498:Generated_Source\PSoC4/ADC.c **** *  is 0 and the injection channel if enabled is the number of valid channels.
 499:Generated_Source\PSoC4/ADC.c **** *
 500:Generated_Source\PSoC4/ADC.c **** * Return:
 501:Generated_Source\PSoC4/ADC.c **** *  Returns converted data as a signed 16-bit integer
 502:Generated_Source\PSoC4/ADC.c **** *
ARM GAS  C:\Users\Intern\AppData\Local\Temp\ccUXnh9k.s 			page 19


 503:Generated_Source\PSoC4/ADC.c **** *******************************************************************************/
 504:Generated_Source\PSoC4/ADC.c **** int16 ADC_GetResult16(uint32 chan)
 505:Generated_Source\PSoC4/ADC.c **** {
 513              		.loc 1 505 0
 514              		.cfi_startproc
 515              		@ args = 0, pretend = 0, frame = 0
 516              		@ frame_needed = 0, uses_anonymous_args = 0
 517              	.LVL34:
 518 0000 10B5     		push	{r4, lr}
 519              		.cfi_def_cfa_offset 8
 520              		.cfi_offset 4, -8
 521              		.cfi_offset 14, -4
 522 0002 0400     		movs	r4, r0
 506:Generated_Source\PSoC4/ADC.c ****     uint32 result;
 507:Generated_Source\PSoC4/ADC.c **** 
 508:Generated_Source\PSoC4/ADC.c ****     /* Halt CPU in debug mode if channel is out of valid range */
 509:Generated_Source\PSoC4/ADC.c ****     CYASSERT(chan < ADC_TOTAL_CHANNELS_NUM);
 523              		.loc 1 509 0
 524 0004 0328     		cmp	r0, #3
 525 0006 02D9     		bls	.L38
 526              		.loc 1 509 0 is_stmt 0 discriminator 1
 527 0008 0020     		movs	r0, #0
 528              	.LVL35:
 529 000a FFF7FEFF 		bl	CyHalt
 530              	.LVL36:
 531              	.L38:
 510:Generated_Source\PSoC4/ADC.c **** 
 511:Generated_Source\PSoC4/ADC.c ****     if(chan < ADC_SEQUENCED_CHANNELS_NUM)
 532              		.loc 1 511 0 is_stmt 1
 533 000e 032C     		cmp	r4, #3
 534 0010 07D8     		bhi	.L40
 512:Generated_Source\PSoC4/ADC.c ****     {
 513:Generated_Source\PSoC4/ADC.c ****         result = CY_GET_REG32((reg32 *)(ADC_SAR_CHAN_RESULT_IND + (uint32)(chan << 2u))) &
 535              		.loc 1 513 0
 536 0012 A400     		lsls	r4, r4, #2
 537              	.LVL37:
 538 0014 044B     		ldr	r3, .L41
 539 0016 9C46     		mov	ip, r3
 540 0018 6444     		add	r4, r4, ip
 541 001a 2068     		ldr	r0, [r4]
 542 001c 0004     		lsls	r0, r0, #16
 543 001e 000C     		lsrs	r0, r0, #16
 544              	.LVL38:
 545 0020 00E0     		b	.L39
 546              	.LVL39:
 547              	.L40:
 514:Generated_Source\PSoC4/ADC.c ****                 ADC_RESULT_MASK;
 515:Generated_Source\PSoC4/ADC.c ****     }
 516:Generated_Source\PSoC4/ADC.c ****     else
 517:Generated_Source\PSoC4/ADC.c ****     {
 518:Generated_Source\PSoC4/ADC.c ****         #if(ADC_INJ_CHANNEL_ENABLED)
 519:Generated_Source\PSoC4/ADC.c ****             result = ADC_SAR_INJ_RESULT_REG & ADC_RESULT_MASK;
 520:Generated_Source\PSoC4/ADC.c ****         #else
 521:Generated_Source\PSoC4/ADC.c ****             result = 0u;
 548              		.loc 1 521 0
 549 0022 0020     		movs	r0, #0
 550              	.LVL40:
ARM GAS  C:\Users\Intern\AppData\Local\Temp\ccUXnh9k.s 			page 20


 551              	.L39:
 522:Generated_Source\PSoC4/ADC.c ****         #endif /* ADC_INJ_CHANNEL_ENABLED */
 523:Generated_Source\PSoC4/ADC.c ****     }
 524:Generated_Source\PSoC4/ADC.c **** 
 525:Generated_Source\PSoC4/ADC.c ****     return ( (int16)result );
 552              		.loc 1 525 0
 553 0024 00B2     		sxth	r0, r0
 554              	.LVL41:
 526:Generated_Source\PSoC4/ADC.c **** }
 555              		.loc 1 526 0
 556              		@ sp needed
 557 0026 10BD     		pop	{r4, pc}
 558              	.L42:
 559              		.align	2
 560              	.L41:
 561 0028 80013A40 		.word	1077543296
 562              		.cfi_endproc
 563              	.LFE9:
 564              		.size	ADC_GetResult16, .-ADC_GetResult16
 565              		.section	.text.ADC_SetChanMask,"ax",%progbits
 566              		.align	2
 567              		.global	ADC_SetChanMask
 568              		.code	16
 569              		.thumb_func
 570              		.type	ADC_SetChanMask, %function
 571              	ADC_SetChanMask:
 572              	.LFB10:
 527:Generated_Source\PSoC4/ADC.c **** 
 528:Generated_Source\PSoC4/ADC.c **** 
 529:Generated_Source\PSoC4/ADC.c **** /*******************************************************************************
 530:Generated_Source\PSoC4/ADC.c **** * Function Name: ADC_SetChanMask
 531:Generated_Source\PSoC4/ADC.c **** ********************************************************************************
 532:Generated_Source\PSoC4/ADC.c **** *
 533:Generated_Source\PSoC4/ADC.c **** * Summary:
 534:Generated_Source\PSoC4/ADC.c **** *  Sets the channel enable mask.
 535:Generated_Source\PSoC4/ADC.c **** *
 536:Generated_Source\PSoC4/ADC.c **** * Parameters:
 537:Generated_Source\PSoC4/ADC.c **** *  mask: Sets which channels that will be
 538:Generated_Source\PSoC4/ADC.c **** *  scanned. Setting bits for channels that do not exist will have no
 539:Generated_Source\PSoC4/ADC.c **** *  effect. For example, if only 6 channels were enabled, setting a
 540:Generated_Source\PSoC4/ADC.c **** *  mask of 0x0103 would only enable the last two channels (0 and 1).
 541:Generated_Source\PSoC4/ADC.c **** *  This API will not enable the injection channel.
 542:Generated_Source\PSoC4/ADC.c **** *  Examples: If the component is setup to sequence through 8
 543:Generated_Source\PSoC4/ADC.c **** *  channels, a mask of 0x000F would enable channels 0, 1, 2, and 3.
 544:Generated_Source\PSoC4/ADC.c **** *
 545:Generated_Source\PSoC4/ADC.c **** * Return:
 546:Generated_Source\PSoC4/ADC.c **** *  None.
 547:Generated_Source\PSoC4/ADC.c **** *
 548:Generated_Source\PSoC4/ADC.c **** *******************************************************************************/
 549:Generated_Source\PSoC4/ADC.c **** void ADC_SetChanMask(uint32 mask)
 550:Generated_Source\PSoC4/ADC.c **** {
 573              		.loc 1 550 0
 574              		.cfi_startproc
 575              		@ args = 0, pretend = 0, frame = 0
 576              		@ frame_needed = 0, uses_anonymous_args = 0
 577              		@ link register save eliminated.
 578              	.LVL42:
ARM GAS  C:\Users\Intern\AppData\Local\Temp\ccUXnh9k.s 			page 21


 551:Generated_Source\PSoC4/ADC.c ****     ADC_SAR_CHAN_EN_REG = mask & ADC_MAX_CHANNELS_EN_MASK;
 579              		.loc 1 551 0
 580 0000 0F23     		movs	r3, #15
 581 0002 1840     		ands	r0, r3
 582              	.LVL43:
 583 0004 014B     		ldr	r3, .L44
 584 0006 1860     		str	r0, [r3]
 552:Generated_Source\PSoC4/ADC.c **** }
 585              		.loc 1 552 0
 586              		@ sp needed
 587 0008 7047     		bx	lr
 588              	.L45:
 589 000a C046     		.align	2
 590              	.L44:
 591 000c 20003A40 		.word	1077542944
 592              		.cfi_endproc
 593              	.LFE10:
 594              		.size	ADC_SetChanMask, .-ADC_SetChanMask
 595              		.section	.text.ADC_SetLowLimit,"ax",%progbits
 596              		.align	2
 597              		.global	ADC_SetLowLimit
 598              		.code	16
 599              		.thumb_func
 600              		.type	ADC_SetLowLimit, %function
 601              	ADC_SetLowLimit:
 602              	.LFB11:
 553:Generated_Source\PSoC4/ADC.c **** 
 554:Generated_Source\PSoC4/ADC.c **** #if(ADC_INJ_CHANNEL_ENABLED)
 555:Generated_Source\PSoC4/ADC.c **** 
 556:Generated_Source\PSoC4/ADC.c **** 
 557:Generated_Source\PSoC4/ADC.c ****     /*******************************************************************************
 558:Generated_Source\PSoC4/ADC.c ****     * Function Name: ADC_EnableInjection
 559:Generated_Source\PSoC4/ADC.c ****     ********************************************************************************
 560:Generated_Source\PSoC4/ADC.c ****     *
 561:Generated_Source\PSoC4/ADC.c ****     * Summary:
 562:Generated_Source\PSoC4/ADC.c ****     *  Enables the injection channel for the next scan only.
 563:Generated_Source\PSoC4/ADC.c ****     *
 564:Generated_Source\PSoC4/ADC.c ****     * Parameters:
 565:Generated_Source\PSoC4/ADC.c ****     *  None.
 566:Generated_Source\PSoC4/ADC.c ****     *
 567:Generated_Source\PSoC4/ADC.c ****     * Return:
 568:Generated_Source\PSoC4/ADC.c ****     *  None.
 569:Generated_Source\PSoC4/ADC.c ****     *
 570:Generated_Source\PSoC4/ADC.c ****     *******************************************************************************/
 571:Generated_Source\PSoC4/ADC.c ****     void ADC_EnableInjection(void)
 572:Generated_Source\PSoC4/ADC.c ****     {
 573:Generated_Source\PSoC4/ADC.c ****         ADC_SAR_INJ_CHAN_CONFIG_REG |= ADC_INJ_CHAN_EN;
 574:Generated_Source\PSoC4/ADC.c ****     }
 575:Generated_Source\PSoC4/ADC.c **** 
 576:Generated_Source\PSoC4/ADC.c **** #endif /* ADC_INJ_CHANNEL_ENABLED */
 577:Generated_Source\PSoC4/ADC.c **** 
 578:Generated_Source\PSoC4/ADC.c **** 
 579:Generated_Source\PSoC4/ADC.c **** /*******************************************************************************
 580:Generated_Source\PSoC4/ADC.c **** * Function Name: ADC_SetLowLimit
 581:Generated_Source\PSoC4/ADC.c **** ********************************************************************************
 582:Generated_Source\PSoC4/ADC.c **** *
 583:Generated_Source\PSoC4/ADC.c **** * Summary:
ARM GAS  C:\Users\Intern\AppData\Local\Temp\ccUXnh9k.s 			page 22


 584:Generated_Source\PSoC4/ADC.c **** *  Sets the low limit parameter for a limit condition.
 585:Generated_Source\PSoC4/ADC.c **** *
 586:Generated_Source\PSoC4/ADC.c **** * Parameters:
 587:Generated_Source\PSoC4/ADC.c **** *  lowLimit: The low limit for a limit condition.
 588:Generated_Source\PSoC4/ADC.c **** *
 589:Generated_Source\PSoC4/ADC.c **** * Return:
 590:Generated_Source\PSoC4/ADC.c **** *  None.
 591:Generated_Source\PSoC4/ADC.c **** *
 592:Generated_Source\PSoC4/ADC.c **** *******************************************************************************/
 593:Generated_Source\PSoC4/ADC.c **** void ADC_SetLowLimit(uint32 lowLimit)
 594:Generated_Source\PSoC4/ADC.c **** {
 603              		.loc 1 594 0
 604              		.cfi_startproc
 605              		@ args = 0, pretend = 0, frame = 0
 606              		@ frame_needed = 0, uses_anonymous_args = 0
 607              		@ link register save eliminated.
 608              	.LVL44:
 595:Generated_Source\PSoC4/ADC.c ****     ADC_SAR_RANGE_THRES_REG &= (uint32)(~ADC_RANGE_LOW_MASK);
 609              		.loc 1 595 0
 610 0000 054A     		ldr	r2, .L47
 611 0002 1368     		ldr	r3, [r2]
 612 0004 1B0C     		lsrs	r3, r3, #16
 613 0006 1B04     		lsls	r3, r3, #16
 614 0008 1360     		str	r3, [r2]
 596:Generated_Source\PSoC4/ADC.c ****     ADC_SAR_RANGE_THRES_REG |= lowLimit & ADC_RANGE_LOW_MASK;
 615              		.loc 1 596 0
 616 000a 1368     		ldr	r3, [r2]
 617 000c 0004     		lsls	r0, r0, #16
 618              	.LVL45:
 619 000e 000C     		lsrs	r0, r0, #16
 620 0010 1843     		orrs	r0, r3
 621 0012 1060     		str	r0, [r2]
 597:Generated_Source\PSoC4/ADC.c **** }
 622              		.loc 1 597 0
 623              		@ sp needed
 624 0014 7047     		bx	lr
 625              	.L48:
 626 0016 C046     		.align	2
 627              	.L47:
 628 0018 18003A40 		.word	1077542936
 629              		.cfi_endproc
 630              	.LFE11:
 631              		.size	ADC_SetLowLimit, .-ADC_SetLowLimit
 632              		.section	.text.ADC_SetHighLimit,"ax",%progbits
 633              		.align	2
 634              		.global	ADC_SetHighLimit
 635              		.code	16
 636              		.thumb_func
 637              		.type	ADC_SetHighLimit, %function
 638              	ADC_SetHighLimit:
 639              	.LFB12:
 598:Generated_Source\PSoC4/ADC.c **** 
 599:Generated_Source\PSoC4/ADC.c **** 
 600:Generated_Source\PSoC4/ADC.c **** /*******************************************************************************
 601:Generated_Source\PSoC4/ADC.c **** * Function Name: ADC_SetHighLimit
 602:Generated_Source\PSoC4/ADC.c **** ********************************************************************************
 603:Generated_Source\PSoC4/ADC.c **** *
ARM GAS  C:\Users\Intern\AppData\Local\Temp\ccUXnh9k.s 			page 23


 604:Generated_Source\PSoC4/ADC.c **** * Summary:
 605:Generated_Source\PSoC4/ADC.c **** *  Sets the low limit parameter for a limit condition.
 606:Generated_Source\PSoC4/ADC.c **** *
 607:Generated_Source\PSoC4/ADC.c **** * Parameters:
 608:Generated_Source\PSoC4/ADC.c **** *  highLimit: The high limit for a limit condition.
 609:Generated_Source\PSoC4/ADC.c **** *
 610:Generated_Source\PSoC4/ADC.c **** * Return:
 611:Generated_Source\PSoC4/ADC.c **** *  None.
 612:Generated_Source\PSoC4/ADC.c **** *
 613:Generated_Source\PSoC4/ADC.c **** *******************************************************************************/
 614:Generated_Source\PSoC4/ADC.c **** void ADC_SetHighLimit(uint32 highLimit)
 615:Generated_Source\PSoC4/ADC.c **** {
 640              		.loc 1 615 0
 641              		.cfi_startproc
 642              		@ args = 0, pretend = 0, frame = 0
 643              		@ frame_needed = 0, uses_anonymous_args = 0
 644              		@ link register save eliminated.
 645              	.LVL46:
 616:Generated_Source\PSoC4/ADC.c ****     ADC_SAR_RANGE_THRES_REG &= (uint32)(~ADC_RANGE_HIGH_MASK);
 646              		.loc 1 616 0
 647 0000 044A     		ldr	r2, .L50
 648 0002 1368     		ldr	r3, [r2]
 649 0004 1B04     		lsls	r3, r3, #16
 650 0006 1B0C     		lsrs	r3, r3, #16
 651 0008 1360     		str	r3, [r2]
 617:Generated_Source\PSoC4/ADC.c ****     ADC_SAR_RANGE_THRES_REG |= (uint32)(highLimit << ADC_RANGE_HIGH_OFFSET);
 652              		.loc 1 617 0
 653 000a 1368     		ldr	r3, [r2]
 654 000c 0004     		lsls	r0, r0, #16
 655              	.LVL47:
 656 000e 1843     		orrs	r0, r3
 657 0010 1060     		str	r0, [r2]
 618:Generated_Source\PSoC4/ADC.c **** }
 658              		.loc 1 618 0
 659              		@ sp needed
 660 0012 7047     		bx	lr
 661              	.L51:
 662              		.align	2
 663              	.L50:
 664 0014 18003A40 		.word	1077542936
 665              		.cfi_endproc
 666              	.LFE12:
 667              		.size	ADC_SetHighLimit, .-ADC_SetHighLimit
 668              		.section	.text.ADC_SetLimitMask,"ax",%progbits
 669              		.align	2
 670              		.global	ADC_SetLimitMask
 671              		.code	16
 672              		.thumb_func
 673              		.type	ADC_SetLimitMask, %function
 674              	ADC_SetLimitMask:
 675              	.LFB13:
 619:Generated_Source\PSoC4/ADC.c **** 
 620:Generated_Source\PSoC4/ADC.c **** 
 621:Generated_Source\PSoC4/ADC.c **** /*******************************************************************************
 622:Generated_Source\PSoC4/ADC.c **** * Function Name: ADC_SetLimitMask
 623:Generated_Source\PSoC4/ADC.c **** ********************************************************************************
 624:Generated_Source\PSoC4/ADC.c **** *
ARM GAS  C:\Users\Intern\AppData\Local\Temp\ccUXnh9k.s 			page 24


 625:Generated_Source\PSoC4/ADC.c **** * Summary:
 626:Generated_Source\PSoC4/ADC.c **** *  Sets the channel limit condition mask.
 627:Generated_Source\PSoC4/ADC.c **** *
 628:Generated_Source\PSoC4/ADC.c **** * Parameters:
 629:Generated_Source\PSoC4/ADC.c **** *  mask: Sets which channels that may cause a
 630:Generated_Source\PSoC4/ADC.c **** *  limit condition interrupt. Setting bits for channels that do not exist
 631:Generated_Source\PSoC4/ADC.c **** *  will have no effect. For example, if only 6 channels were enabled,
 632:Generated_Source\PSoC4/ADC.c **** *  setting a mask of 0x0103 would only enable the last two channels (0 and 1).
 633:Generated_Source\PSoC4/ADC.c **** *
 634:Generated_Source\PSoC4/ADC.c **** * Return:
 635:Generated_Source\PSoC4/ADC.c **** *  None.
 636:Generated_Source\PSoC4/ADC.c **** *
 637:Generated_Source\PSoC4/ADC.c **** *******************************************************************************/
 638:Generated_Source\PSoC4/ADC.c **** void ADC_SetLimitMask(uint32 mask)
 639:Generated_Source\PSoC4/ADC.c **** {
 676              		.loc 1 639 0
 677              		.cfi_startproc
 678              		@ args = 0, pretend = 0, frame = 0
 679              		@ frame_needed = 0, uses_anonymous_args = 0
 680              		@ link register save eliminated.
 681              	.LVL48:
 640:Generated_Source\PSoC4/ADC.c ****     ADC_SAR_RANGE_INTR_MASK_REG = mask & ADC_MAX_CHANNELS_EN_MASK;
 682              		.loc 1 640 0
 683 0000 0F23     		movs	r3, #15
 684 0002 1840     		ands	r0, r3
 685              	.LVL49:
 686 0004 014B     		ldr	r3, .L53
 687 0006 1860     		str	r0, [r3]
 641:Generated_Source\PSoC4/ADC.c **** }
 688              		.loc 1 641 0
 689              		@ sp needed
 690 0008 7047     		bx	lr
 691              	.L54:
 692 000a C046     		.align	2
 693              	.L53:
 694 000c 38023A40 		.word	1077543480
 695              		.cfi_endproc
 696              	.LFE13:
 697              		.size	ADC_SetLimitMask, .-ADC_SetLimitMask
 698              		.section	.text.ADC_SetSatMask,"ax",%progbits
 699              		.align	2
 700              		.global	ADC_SetSatMask
 701              		.code	16
 702              		.thumb_func
 703              		.type	ADC_SetSatMask, %function
 704              	ADC_SetSatMask:
 705              	.LFB14:
 642:Generated_Source\PSoC4/ADC.c **** 
 643:Generated_Source\PSoC4/ADC.c **** 
 644:Generated_Source\PSoC4/ADC.c **** /*******************************************************************************
 645:Generated_Source\PSoC4/ADC.c **** * Function Name: ADC_SetSatMask
 646:Generated_Source\PSoC4/ADC.c **** ********************************************************************************
 647:Generated_Source\PSoC4/ADC.c **** *
 648:Generated_Source\PSoC4/ADC.c **** * Summary:
 649:Generated_Source\PSoC4/ADC.c **** *  Sets the channel saturation event mask.
 650:Generated_Source\PSoC4/ADC.c **** *
 651:Generated_Source\PSoC4/ADC.c **** * Parameters:
ARM GAS  C:\Users\Intern\AppData\Local\Temp\ccUXnh9k.s 			page 25


 652:Generated_Source\PSoC4/ADC.c **** *  mask: Sets which channels that may cause a
 653:Generated_Source\PSoC4/ADC.c **** *  saturation event interrupt. Setting bits for channels that do not exist
 654:Generated_Source\PSoC4/ADC.c **** *  will have no effect. For example, if only 8 channels were enabled,
 655:Generated_Source\PSoC4/ADC.c **** *  setting a mask of 0x01C0 would only enable two channels (6 and 7).
 656:Generated_Source\PSoC4/ADC.c **** *
 657:Generated_Source\PSoC4/ADC.c **** * Return:
 658:Generated_Source\PSoC4/ADC.c **** *  None.
 659:Generated_Source\PSoC4/ADC.c **** *
 660:Generated_Source\PSoC4/ADC.c **** *******************************************************************************/
 661:Generated_Source\PSoC4/ADC.c **** void ADC_SetSatMask(uint32 mask)
 662:Generated_Source\PSoC4/ADC.c **** {
 706              		.loc 1 662 0
 707              		.cfi_startproc
 708              		@ args = 0, pretend = 0, frame = 0
 709              		@ frame_needed = 0, uses_anonymous_args = 0
 710              		@ link register save eliminated.
 711              	.LVL50:
 663:Generated_Source\PSoC4/ADC.c ****     ADC_SAR_SATURATE_INTR_MASK_REG = mask & ADC_MAX_CHANNELS_EN_MASK;
 712              		.loc 1 663 0
 713 0000 0F23     		movs	r3, #15
 714 0002 1840     		ands	r0, r3
 715              	.LVL51:
 716 0004 014B     		ldr	r3, .L56
 717 0006 1860     		str	r0, [r3]
 664:Generated_Source\PSoC4/ADC.c **** }
 718              		.loc 1 664 0
 719              		@ sp needed
 720 0008 7047     		bx	lr
 721              	.L57:
 722 000a C046     		.align	2
 723              	.L56:
 724 000c 28023A40 		.word	1077543464
 725              		.cfi_endproc
 726              	.LFE14:
 727              		.size	ADC_SetSatMask, .-ADC_SetSatMask
 728              		.section	.text.ADC_SetOffset,"ax",%progbits
 729              		.align	2
 730              		.global	ADC_SetOffset
 731              		.code	16
 732              		.thumb_func
 733              		.type	ADC_SetOffset, %function
 734              	ADC_SetOffset:
 735              	.LFB15:
 665:Generated_Source\PSoC4/ADC.c **** 
 666:Generated_Source\PSoC4/ADC.c **** 
 667:Generated_Source\PSoC4/ADC.c **** /*******************************************************************************
 668:Generated_Source\PSoC4/ADC.c **** * Function Name: ADC_SetOffset
 669:Generated_Source\PSoC4/ADC.c **** ********************************************************************************
 670:Generated_Source\PSoC4/ADC.c **** *
 671:Generated_Source\PSoC4/ADC.c **** * Summary:
 672:Generated_Source\PSoC4/ADC.c **** *   Description: Sets the ADC offset which is used by the functions
 673:Generated_Source\PSoC4/ADC.c **** *   ADC_CountsTo_uVolts, ADC_CountsTo_mVolts and ADC_CountsTo_Volts
 674:Generated_Source\PSoC4/ADC.c **** *   to substract the offset from the given reading
 675:Generated_Source\PSoC4/ADC.c **** *   before calculating the voltage conversion.
 676:Generated_Source\PSoC4/ADC.c **** *
 677:Generated_Source\PSoC4/ADC.c **** * Parameters:
 678:Generated_Source\PSoC4/ADC.c **** *  chan: ADC channel number.
ARM GAS  C:\Users\Intern\AppData\Local\Temp\ccUXnh9k.s 			page 26


 679:Generated_Source\PSoC4/ADC.c **** *  offset: This value is a measured value when the
 680:Generated_Source\PSoC4/ADC.c **** *          inputs are shorted or connected to the same input voltage.
 681:Generated_Source\PSoC4/ADC.c **** *
 682:Generated_Source\PSoC4/ADC.c **** * Return:
 683:Generated_Source\PSoC4/ADC.c **** *  None.
 684:Generated_Source\PSoC4/ADC.c **** *
 685:Generated_Source\PSoC4/ADC.c **** * Global variables:
 686:Generated_Source\PSoC4/ADC.c **** *  ADC_Offset:  Modified to set the user provided offset.
 687:Generated_Source\PSoC4/ADC.c **** *
 688:Generated_Source\PSoC4/ADC.c **** *******************************************************************************/
 689:Generated_Source\PSoC4/ADC.c **** void ADC_SetOffset(uint32 chan, int16 offset)
 690:Generated_Source\PSoC4/ADC.c **** {
 736              		.loc 1 690 0
 737              		.cfi_startproc
 738              		@ args = 0, pretend = 0, frame = 0
 739              		@ frame_needed = 0, uses_anonymous_args = 0
 740              	.LVL52:
 741 0000 70B5     		push	{r4, r5, r6, lr}
 742              		.cfi_def_cfa_offset 16
 743              		.cfi_offset 4, -16
 744              		.cfi_offset 5, -12
 745              		.cfi_offset 6, -8
 746              		.cfi_offset 14, -4
 747 0002 0400     		movs	r4, r0
 748 0004 0D00     		movs	r5, r1
 691:Generated_Source\PSoC4/ADC.c ****     /* Halt CPU in debug mode if channel is out of valid range */
 692:Generated_Source\PSoC4/ADC.c ****     CYASSERT(chan < ADC_TOTAL_CHANNELS_NUM);
 749              		.loc 1 692 0
 750 0006 0328     		cmp	r0, #3
 751 0008 02D9     		bls	.L59
 752              		.loc 1 692 0 is_stmt 0 discriminator 1
 753 000a 0020     		movs	r0, #0
 754              	.LVL53:
 755 000c FFF7FEFF 		bl	CyHalt
 756              	.LVL54:
 757              	.L59:
 693:Generated_Source\PSoC4/ADC.c **** 
 694:Generated_Source\PSoC4/ADC.c ****     ADC_offset[chan] = offset;
 758              		.loc 1 694 0 is_stmt 1
 759 0010 6400     		lsls	r4, r4, #1
 760              	.LVL55:
 761 0012 014B     		ldr	r3, .L60
 762 0014 E552     		strh	r5, [r4, r3]
 695:Generated_Source\PSoC4/ADC.c **** }
 763              		.loc 1 695 0
 764              		@ sp needed
 765 0016 70BD     		pop	{r4, r5, r6, pc}
 766              	.L61:
 767              		.align	2
 768              	.L60:
 769 0018 00000000 		.word	ADC_offset
 770              		.cfi_endproc
 771              	.LFE15:
 772              		.size	ADC_SetOffset, .-ADC_SetOffset
 773              		.section	.text.ADC_SetGain,"ax",%progbits
 774              		.align	2
 775              		.global	ADC_SetGain
ARM GAS  C:\Users\Intern\AppData\Local\Temp\ccUXnh9k.s 			page 27


 776              		.code	16
 777              		.thumb_func
 778              		.type	ADC_SetGain, %function
 779              	ADC_SetGain:
 780              	.LFB16:
 696:Generated_Source\PSoC4/ADC.c **** 
 697:Generated_Source\PSoC4/ADC.c **** 
 698:Generated_Source\PSoC4/ADC.c **** /*******************************************************************************
 699:Generated_Source\PSoC4/ADC.c **** * Function Name: ADC_SetGain
 700:Generated_Source\PSoC4/ADC.c **** ********************************************************************************
 701:Generated_Source\PSoC4/ADC.c **** *
 702:Generated_Source\PSoC4/ADC.c **** * Summary:
 703:Generated_Source\PSoC4/ADC.c **** *  Description: Sets the ADC gain in counts per 10 volt for the voltage
 704:Generated_Source\PSoC4/ADC.c **** *  conversion functions below. This value is set by default by the
 705:Generated_Source\PSoC4/ADC.c **** *  reference and input range settings. It should only be used to further
 706:Generated_Source\PSoC4/ADC.c **** *  calibrate the ADC with a known input or if an external reference is
 707:Generated_Source\PSoC4/ADC.c **** *  used. Affects the ADC_CountsTo_uVolts, ADC_CountsTo_mVolts
 708:Generated_Source\PSoC4/ADC.c **** *  and ADC_CountsTo_Volts functions by supplying the correct
 709:Generated_Source\PSoC4/ADC.c **** *  conversion between ADC counts and voltage.
 710:Generated_Source\PSoC4/ADC.c **** *
 711:Generated_Source\PSoC4/ADC.c **** * Parameters:
 712:Generated_Source\PSoC4/ADC.c **** *  chan: ADC channel number.
 713:Generated_Source\PSoC4/ADC.c **** *  adcGain: ADC gain in counts per 10 volts.
 714:Generated_Source\PSoC4/ADC.c **** *
 715:Generated_Source\PSoC4/ADC.c **** * Return:
 716:Generated_Source\PSoC4/ADC.c **** *  None.
 717:Generated_Source\PSoC4/ADC.c **** *
 718:Generated_Source\PSoC4/ADC.c **** * Global variables:
 719:Generated_Source\PSoC4/ADC.c **** *  ADC_CountsPer10Volt:  modified to set the ADC gain in counts
 720:Generated_Source\PSoC4/ADC.c **** *   per 10 volt.
 721:Generated_Source\PSoC4/ADC.c **** *
 722:Generated_Source\PSoC4/ADC.c **** *******************************************************************************/
 723:Generated_Source\PSoC4/ADC.c **** void ADC_SetGain(uint32 chan, int32 adcGain)
 724:Generated_Source\PSoC4/ADC.c **** {
 781              		.loc 1 724 0
 782              		.cfi_startproc
 783              		@ args = 0, pretend = 0, frame = 0
 784              		@ frame_needed = 0, uses_anonymous_args = 0
 785              	.LVL56:
 786 0000 70B5     		push	{r4, r5, r6, lr}
 787              		.cfi_def_cfa_offset 16
 788              		.cfi_offset 4, -16
 789              		.cfi_offset 5, -12
 790              		.cfi_offset 6, -8
 791              		.cfi_offset 14, -4
 792 0002 0400     		movs	r4, r0
 793 0004 0D00     		movs	r5, r1
 725:Generated_Source\PSoC4/ADC.c ****     /* Halt CPU in debug mode if channel is out of valid range */
 726:Generated_Source\PSoC4/ADC.c ****     CYASSERT(chan < ADC_TOTAL_CHANNELS_NUM);
 794              		.loc 1 726 0
 795 0006 0328     		cmp	r0, #3
 796 0008 02D9     		bls	.L63
 797              		.loc 1 726 0 is_stmt 0 discriminator 1
 798 000a 0020     		movs	r0, #0
 799              	.LVL57:
 800 000c FFF7FEFF 		bl	CyHalt
 801              	.LVL58:
ARM GAS  C:\Users\Intern\AppData\Local\Temp\ccUXnh9k.s 			page 28


 802              	.L63:
 727:Generated_Source\PSoC4/ADC.c **** 
 728:Generated_Source\PSoC4/ADC.c ****     ADC_countsPer10Volt[chan] = adcGain;
 803              		.loc 1 728 0 is_stmt 1
 804 0010 A400     		lsls	r4, r4, #2
 805              	.LVL59:
 806 0012 014B     		ldr	r3, .L64
 807 0014 E550     		str	r5, [r4, r3]
 729:Generated_Source\PSoC4/ADC.c **** }
 808              		.loc 1 729 0
 809              		@ sp needed
 810              	.LVL60:
 811 0016 70BD     		pop	{r4, r5, r6, pc}
 812              	.L65:
 813              		.align	2
 814              	.L64:
 815 0018 00000000 		.word	ADC_countsPer10Volt
 816              		.cfi_endproc
 817              	.LFE16:
 818              		.size	ADC_SetGain, .-ADC_SetGain
 819              		.section	.text.ADC_CountsTo_mVolts,"ax",%progbits
 820              		.align	2
 821              		.global	ADC_CountsTo_mVolts
 822              		.code	16
 823              		.thumb_func
 824              		.type	ADC_CountsTo_mVolts, %function
 825              	ADC_CountsTo_mVolts:
 826              	.LFB17:
 730:Generated_Source\PSoC4/ADC.c **** 
 731:Generated_Source\PSoC4/ADC.c **** 
 732:Generated_Source\PSoC4/ADC.c **** #if(ADC_DEFAULT_JUSTIFICATION_SEL == ADC__RIGHT)
 733:Generated_Source\PSoC4/ADC.c **** 
 734:Generated_Source\PSoC4/ADC.c **** 
 735:Generated_Source\PSoC4/ADC.c ****     /*******************************************************************************
 736:Generated_Source\PSoC4/ADC.c ****     * Function Name: ADC_CountsTo_mVolts
 737:Generated_Source\PSoC4/ADC.c ****     ********************************************************************************
 738:Generated_Source\PSoC4/ADC.c ****     *
 739:Generated_Source\PSoC4/ADC.c ****     * Summary:
 740:Generated_Source\PSoC4/ADC.c ****     *  This function converts ADC counts to mVolts
 741:Generated_Source\PSoC4/ADC.c ****     *  This function is not available when left data format justification selected.
 742:Generated_Source\PSoC4/ADC.c ****     *
 743:Generated_Source\PSoC4/ADC.c ****     * Parameters:
 744:Generated_Source\PSoC4/ADC.c ****     *  chan: The ADC channel number.
 745:Generated_Source\PSoC4/ADC.c ****     *  adcCounts: Result from the ADC conversion
 746:Generated_Source\PSoC4/ADC.c ****     *
 747:Generated_Source\PSoC4/ADC.c ****     * Return:
 748:Generated_Source\PSoC4/ADC.c ****     *  Results in mVolts
 749:Generated_Source\PSoC4/ADC.c ****     *
 750:Generated_Source\PSoC4/ADC.c ****     * Global variables:
 751:Generated_Source\PSoC4/ADC.c ****     *  ADC_countsPer10Volt:  used to convert ADC counts to mVolts.
 752:Generated_Source\PSoC4/ADC.c ****     *  ADC_Offset:  Used as the offset while converting ADC counts
 753:Generated_Source\PSoC4/ADC.c ****     *   to mVolts.
 754:Generated_Source\PSoC4/ADC.c ****     *
 755:Generated_Source\PSoC4/ADC.c ****     *******************************************************************************/
 756:Generated_Source\PSoC4/ADC.c ****     int16 ADC_CountsTo_mVolts(uint32 chan, int16 adcCounts)
 757:Generated_Source\PSoC4/ADC.c ****     {
 827              		.loc 1 757 0
ARM GAS  C:\Users\Intern\AppData\Local\Temp\ccUXnh9k.s 			page 29


 828              		.cfi_startproc
 829              		@ args = 0, pretend = 0, frame = 0
 830              		@ frame_needed = 0, uses_anonymous_args = 0
 831              	.LVL61:
 832 0000 70B5     		push	{r4, r5, r6, lr}
 833              		.cfi_def_cfa_offset 16
 834              		.cfi_offset 4, -16
 835              		.cfi_offset 5, -12
 836              		.cfi_offset 6, -8
 837              		.cfi_offset 14, -4
 838 0002 0400     		movs	r4, r0
 839 0004 0D00     		movs	r5, r1
 758:Generated_Source\PSoC4/ADC.c ****         int16 mVolts;
 759:Generated_Source\PSoC4/ADC.c **** 
 760:Generated_Source\PSoC4/ADC.c ****         /* Halt CPU in debug mode if channel is out of valid range */
 761:Generated_Source\PSoC4/ADC.c ****         CYASSERT(chan < ADC_TOTAL_CHANNELS_NUM);
 840              		.loc 1 761 0
 841 0006 0328     		cmp	r0, #3
 842 0008 02D9     		bls	.L67
 843              		.loc 1 761 0 is_stmt 0 discriminator 1
 844 000a 0020     		movs	r0, #0
 845              	.LVL62:
 846 000c FFF7FEFF 		bl	CyHalt
 847              	.LVL63:
 848              	.L67:
 762:Generated_Source\PSoC4/ADC.c **** 
 763:Generated_Source\PSoC4/ADC.c ****         /* Divide the adcCount when accumulate averaging mode selected */
 764:Generated_Source\PSoC4/ADC.c ****         #if(ADC_DEFAULT_AVG_MODE == ADC__ACCUMULATE)
 765:Generated_Source\PSoC4/ADC.c ****             if((ADC_channelsConfig[chan] & ADC_AVERAGING_EN) != 0u)
 766:Generated_Source\PSoC4/ADC.c ****             {
 767:Generated_Source\PSoC4/ADC.c ****                 adcCounts /= ADC_DEFAULT_AVG_SAMPLES_DIV;
 768:Generated_Source\PSoC4/ADC.c ****             }
 769:Generated_Source\PSoC4/ADC.c ****         #endif /* ADC_DEFAULT_AVG_MODE == ADC__ACCUMULATE */
 770:Generated_Source\PSoC4/ADC.c **** 
 771:Generated_Source\PSoC4/ADC.c ****         /* Subtract ADC offset */
 772:Generated_Source\PSoC4/ADC.c ****         adcCounts -= ADC_offset[chan];
 849              		.loc 1 772 0 is_stmt 1
 850 0010 6300     		lsls	r3, r4, #1
 851 0012 0F4A     		ldr	r2, .L70
 852 0014 995A     		ldrh	r1, [r3, r2]
 853 0016 09B2     		sxth	r1, r1
 854 0018 691A     		subs	r1, r5, r1
 855 001a 09B2     		sxth	r1, r1
 856              	.LVL64:
 773:Generated_Source\PSoC4/ADC.c **** 
 774:Generated_Source\PSoC4/ADC.c ****         mVolts = (int16)((((int32)adcCounts * ADC_10MV_COUNTS) + ( (adcCounts > 0) ?
 857              		.loc 1 774 0
 858 001c 0D48     		ldr	r0, .L70+4
 859 001e 4843     		muls	r0, r1
 775:Generated_Source\PSoC4/ADC.c ****                  (ADC_countsPer10Volt[chan] / 2) : (-(ADC_countsPer10Volt[chan] / 2)) ))
 860              		.loc 1 775 0
 861 0020 0029     		cmp	r1, #0
 862 0022 06DD     		ble	.L68
 863              		.loc 1 775 0 is_stmt 0 discriminator 1
 864 0024 A300     		lsls	r3, r4, #2
 865 0026 0C4A     		ldr	r2, .L70+8
 866 0028 9A58     		ldr	r2, [r3, r2]
ARM GAS  C:\Users\Intern\AppData\Local\Temp\ccUXnh9k.s 			page 30


 867 002a D30F     		lsrs	r3, r2, #31
 868 002c 9A18     		adds	r2, r3, r2
 869 002e 5310     		asrs	r3, r2, #1
 870 0030 06E0     		b	.L69
 871              	.L68:
 872              		.loc 1 775 0 discriminator 2
 873 0032 A300     		lsls	r3, r4, #2
 874 0034 084A     		ldr	r2, .L70+8
 875 0036 9A58     		ldr	r2, [r3, r2]
 876 0038 D30F     		lsrs	r3, r2, #31
 877 003a 9A18     		adds	r2, r3, r2
 878 003c 5210     		asrs	r2, r2, #1
 879 003e 5342     		rsbs	r3, r2, #0
 880              	.L69:
 774:Generated_Source\PSoC4/ADC.c ****                  (ADC_countsPer10Volt[chan] / 2) : (-(ADC_countsPer10Volt[chan] / 2)) ))
 881              		.loc 1 774 0 is_stmt 1
 882 0040 1818     		adds	r0, r3, r0
 776:Generated_Source\PSoC4/ADC.c ****                  / ADC_countsPer10Volt[chan]);
 883              		.loc 1 776 0
 884 0042 A400     		lsls	r4, r4, #2
 885              	.LVL65:
 886 0044 044B     		ldr	r3, .L70+8
 887 0046 E158     		ldr	r1, [r4, r3]
 888              	.LVL66:
 889 0048 FFF7FEFF 		bl	__aeabi_idiv
 890              	.LVL67:
 774:Generated_Source\PSoC4/ADC.c ****                  (ADC_countsPer10Volt[chan] / 2) : (-(ADC_countsPer10Volt[chan] / 2)) ))
 891              		.loc 1 774 0
 892 004c 00B2     		sxth	r0, r0
 893              	.LVL68:
 777:Generated_Source\PSoC4/ADC.c **** 
 778:Generated_Source\PSoC4/ADC.c ****         return( mVolts );
 779:Generated_Source\PSoC4/ADC.c ****     }
 894              		.loc 1 779 0
 895              		@ sp needed
 896 004e 70BD     		pop	{r4, r5, r6, pc}
 897              	.L71:
 898              		.align	2
 899              	.L70:
 900 0050 00000000 		.word	ADC_offset
 901 0054 10270000 		.word	10000
 902 0058 00000000 		.word	ADC_countsPer10Volt
 903              		.cfi_endproc
 904              	.LFE17:
 905              		.size	ADC_CountsTo_mVolts, .-ADC_CountsTo_mVolts
 906              		.global	__aeabi_lmul
 907              		.global	__aeabi_ldivmod
 908              		.section	.text.ADC_CountsTo_uVolts,"ax",%progbits
 909              		.align	2
 910              		.global	ADC_CountsTo_uVolts
 911              		.code	16
 912              		.thumb_func
 913              		.type	ADC_CountsTo_uVolts, %function
 914              	ADC_CountsTo_uVolts:
 915              	.LFB18:
 780:Generated_Source\PSoC4/ADC.c **** 
 781:Generated_Source\PSoC4/ADC.c **** 
ARM GAS  C:\Users\Intern\AppData\Local\Temp\ccUXnh9k.s 			page 31


 782:Generated_Source\PSoC4/ADC.c ****     /*******************************************************************************
 783:Generated_Source\PSoC4/ADC.c ****     * Function Name: ADC_CountsTo_uVolts
 784:Generated_Source\PSoC4/ADC.c ****     ********************************************************************************
 785:Generated_Source\PSoC4/ADC.c ****     *
 786:Generated_Source\PSoC4/ADC.c ****     * Summary:
 787:Generated_Source\PSoC4/ADC.c ****     *  This function converts ADC counts to micro Volts
 788:Generated_Source\PSoC4/ADC.c ****     *  This function is not available when left data format justification selected.
 789:Generated_Source\PSoC4/ADC.c ****     *
 790:Generated_Source\PSoC4/ADC.c ****     * Parameters:
 791:Generated_Source\PSoC4/ADC.c ****     *  chan: The ADC channel number.
 792:Generated_Source\PSoC4/ADC.c ****     *  adcCounts: Result from the ADC conversion
 793:Generated_Source\PSoC4/ADC.c ****     *
 794:Generated_Source\PSoC4/ADC.c ****     * Return:
 795:Generated_Source\PSoC4/ADC.c ****     *  Results in uVolts
 796:Generated_Source\PSoC4/ADC.c ****     *
 797:Generated_Source\PSoC4/ADC.c ****     * Global variables:
 798:Generated_Source\PSoC4/ADC.c ****     *  ADC_countsPer10Volt:  used to convert ADC counts to uVolts.
 799:Generated_Source\PSoC4/ADC.c ****     *  ADC_Offset:  Used as the offset while converting ADC counts
 800:Generated_Source\PSoC4/ADC.c ****     *   to mVolts.
 801:Generated_Source\PSoC4/ADC.c ****     *
 802:Generated_Source\PSoC4/ADC.c ****     * Theory:
 803:Generated_Source\PSoC4/ADC.c ****     *  Care must be taken to not exceed the maximum value for a 31 bit signed
 804:Generated_Source\PSoC4/ADC.c ****     *  number in the conversion to uVolts and at the same time not loose
 805:Generated_Source\PSoC4/ADC.c ****     *  resolution.
 806:Generated_Source\PSoC4/ADC.c ****     *  To convert adcCounts to microVolts it is required to be multiplied
 807:Generated_Source\PSoC4/ADC.c ****     *  on 10 million and later divide on gain in counts per 10V.
 808:Generated_Source\PSoC4/ADC.c ****     *
 809:Generated_Source\PSoC4/ADC.c ****     *******************************************************************************/
 810:Generated_Source\PSoC4/ADC.c ****     int32 ADC_CountsTo_uVolts(uint32 chan, int16 adcCounts)
 811:Generated_Source\PSoC4/ADC.c ****     {
 916              		.loc 1 811 0
 917              		.cfi_startproc
 918              		@ args = 0, pretend = 0, frame = 0
 919              		@ frame_needed = 0, uses_anonymous_args = 0
 920              	.LVL69:
 921 0000 70B5     		push	{r4, r5, r6, lr}
 922              		.cfi_def_cfa_offset 16
 923              		.cfi_offset 4, -16
 924              		.cfi_offset 5, -12
 925              		.cfi_offset 6, -8
 926              		.cfi_offset 14, -4
 927 0002 0500     		movs	r5, r0
 928 0004 0C00     		movs	r4, r1
 812:Generated_Source\PSoC4/ADC.c ****         int64 uVolts;
 813:Generated_Source\PSoC4/ADC.c **** 
 814:Generated_Source\PSoC4/ADC.c ****         /* Halt CPU in debug mode if channel is out of valid range */
 815:Generated_Source\PSoC4/ADC.c ****         CYASSERT(chan < ADC_TOTAL_CHANNELS_NUM);
 929              		.loc 1 815 0
 930 0006 0328     		cmp	r0, #3
 931 0008 02D9     		bls	.L73
 932              		.loc 1 815 0 is_stmt 0 discriminator 1
 933 000a 0020     		movs	r0, #0
 934              	.LVL70:
 935 000c FFF7FEFF 		bl	CyHalt
 936              	.LVL71:
 937              	.L73:
 816:Generated_Source\PSoC4/ADC.c **** 
ARM GAS  C:\Users\Intern\AppData\Local\Temp\ccUXnh9k.s 			page 32


 817:Generated_Source\PSoC4/ADC.c ****         /* Divide the adcCount when accumulate averaging mode selected */
 818:Generated_Source\PSoC4/ADC.c ****         #if(ADC_DEFAULT_AVG_MODE == ADC__ACCUMULATE)
 819:Generated_Source\PSoC4/ADC.c ****             if((ADC_channelsConfig[chan] & ADC_AVERAGING_EN) != 0u)
 820:Generated_Source\PSoC4/ADC.c ****             {
 821:Generated_Source\PSoC4/ADC.c ****                 adcCounts /= ADC_DEFAULT_AVG_SAMPLES_DIV;
 822:Generated_Source\PSoC4/ADC.c ****             }
 823:Generated_Source\PSoC4/ADC.c ****         #endif /* ADC_DEFAULT_AVG_MODE == ADC__ACCUMULATE */
 824:Generated_Source\PSoC4/ADC.c **** 
 825:Generated_Source\PSoC4/ADC.c ****         /* Subtract ADC offset */
 826:Generated_Source\PSoC4/ADC.c ****         adcCounts -= ADC_offset[chan];
 938              		.loc 1 826 0 is_stmt 1
 939 0010 6A00     		lsls	r2, r5, #1
 940 0012 084B     		ldr	r3, .L74
 941 0014 D05A     		ldrh	r0, [r2, r3]
 942 0016 00B2     		sxth	r0, r0
 943 0018 201A     		subs	r0, r4, r0
 944 001a 00B2     		sxth	r0, r0
 945              	.LVL72:
 827:Generated_Source\PSoC4/ADC.c **** 
 828:Generated_Source\PSoC4/ADC.c ****         uVolts = ((int64)adcCounts * ADC_10UV_COUNTS) / ADC_countsPer10Volt[chan];
 946              		.loc 1 828 0
 947 001c C117     		asrs	r1, r0, #31
 948 001e 064A     		ldr	r2, .L74+4
 949 0020 0023     		movs	r3, #0
 950 0022 FFF7FEFF 		bl	__aeabi_lmul
 951              	.LVL73:
 952 0026 AD00     		lsls	r5, r5, #2
 953              	.LVL74:
 954 0028 044B     		ldr	r3, .L74+8
 955 002a EA58     		ldr	r2, [r5, r3]
 956 002c D317     		asrs	r3, r2, #31
 957 002e FFF7FEFF 		bl	__aeabi_ldivmod
 958              	.LVL75:
 829:Generated_Source\PSoC4/ADC.c **** 
 830:Generated_Source\PSoC4/ADC.c ****         return( (int32)uVolts );
 831:Generated_Source\PSoC4/ADC.c ****     }
 959              		.loc 1 831 0
 960              		@ sp needed
 961 0032 70BD     		pop	{r4, r5, r6, pc}
 962              	.L75:
 963              		.align	2
 964              	.L74:
 965 0034 00000000 		.word	ADC_offset
 966 0038 80969800 		.word	10000000
 967 003c 00000000 		.word	ADC_countsPer10Volt
 968              		.cfi_endproc
 969              	.LFE18:
 970              		.size	ADC_CountsTo_uVolts, .-ADC_CountsTo_uVolts
 971              		.global	__aeabi_i2f
 972              		.global	__aeabi_fmul
 973              		.global	__aeabi_fdiv
 974              		.section	.text.ADC_CountsTo_Volts,"ax",%progbits
 975              		.align	2
 976              		.global	ADC_CountsTo_Volts
 977              		.code	16
 978              		.thumb_func
 979              		.type	ADC_CountsTo_Volts, %function
ARM GAS  C:\Users\Intern\AppData\Local\Temp\ccUXnh9k.s 			page 33


 980              	ADC_CountsTo_Volts:
 981              	.LFB19:
 832:Generated_Source\PSoC4/ADC.c **** 
 833:Generated_Source\PSoC4/ADC.c **** 
 834:Generated_Source\PSoC4/ADC.c ****     /*******************************************************************************
 835:Generated_Source\PSoC4/ADC.c ****     * Function Name: ADC_CountsTo_Volts
 836:Generated_Source\PSoC4/ADC.c ****     ********************************************************************************
 837:Generated_Source\PSoC4/ADC.c ****     *
 838:Generated_Source\PSoC4/ADC.c ****     * Summary:
 839:Generated_Source\PSoC4/ADC.c ****     *  Converts the ADC output to Volts as a floating point number.
 840:Generated_Source\PSoC4/ADC.c ****     *  This function is not available when left data format justification selected.
 841:Generated_Source\PSoC4/ADC.c ****     *
 842:Generated_Source\PSoC4/ADC.c ****     * Parameters:
 843:Generated_Source\PSoC4/ADC.c ****     *  chan: The ADC channel number.
 844:Generated_Source\PSoC4/ADC.c ****     *  Result from the ADC conversion
 845:Generated_Source\PSoC4/ADC.c ****     *
 846:Generated_Source\PSoC4/ADC.c ****     * Return:
 847:Generated_Source\PSoC4/ADC.c ****     *  Results in Volts
 848:Generated_Source\PSoC4/ADC.c ****     *
 849:Generated_Source\PSoC4/ADC.c ****     * Global variables:
 850:Generated_Source\PSoC4/ADC.c ****     *  ADC_countsPer10Volt:  used to convert ADC counts to Volts.
 851:Generated_Source\PSoC4/ADC.c ****     *  ADC_Offset:  Used as the offset while converting ADC counts
 852:Generated_Source\PSoC4/ADC.c ****     *   to mVolts.
 853:Generated_Source\PSoC4/ADC.c ****     *
 854:Generated_Source\PSoC4/ADC.c ****     *******************************************************************************/
 855:Generated_Source\PSoC4/ADC.c ****     float32 ADC_CountsTo_Volts(uint32 chan, int16 adcCounts)
 856:Generated_Source\PSoC4/ADC.c ****     {
 982              		.loc 1 856 0
 983              		.cfi_startproc
 984              		@ args = 0, pretend = 0, frame = 0
 985              		@ frame_needed = 0, uses_anonymous_args = 0
 986              	.LVL76:
 987 0000 70B5     		push	{r4, r5, r6, lr}
 988              		.cfi_def_cfa_offset 16
 989              		.cfi_offset 4, -16
 990              		.cfi_offset 5, -12
 991              		.cfi_offset 6, -8
 992              		.cfi_offset 14, -4
 993 0002 0400     		movs	r4, r0
 994 0004 0D00     		movs	r5, r1
 857:Generated_Source\PSoC4/ADC.c ****         float32 volts;
 858:Generated_Source\PSoC4/ADC.c **** 
 859:Generated_Source\PSoC4/ADC.c ****         /* Halt CPU in debug mode if channel is out of valid range */
 860:Generated_Source\PSoC4/ADC.c ****         CYASSERT(chan < ADC_TOTAL_CHANNELS_NUM);
 995              		.loc 1 860 0
 996 0006 0328     		cmp	r0, #3
 997 0008 02D9     		bls	.L77
 998              		.loc 1 860 0 is_stmt 0 discriminator 1
 999 000a 0020     		movs	r0, #0
 1000              	.LVL77:
 1001 000c FFF7FEFF 		bl	CyHalt
 1002              	.LVL78:
 1003              	.L77:
 861:Generated_Source\PSoC4/ADC.c **** 
 862:Generated_Source\PSoC4/ADC.c ****         /* Divide the adcCount when accumulate averaging mode selected */
 863:Generated_Source\PSoC4/ADC.c ****         #if(ADC_DEFAULT_AVG_MODE == ADC__ACCUMULATE)
 864:Generated_Source\PSoC4/ADC.c ****             if((ADC_channelsConfig[chan] & ADC_AVERAGING_EN) != 0u)
ARM GAS  C:\Users\Intern\AppData\Local\Temp\ccUXnh9k.s 			page 34


 865:Generated_Source\PSoC4/ADC.c ****             {
 866:Generated_Source\PSoC4/ADC.c ****                 adcCounts /= ADC_DEFAULT_AVG_SAMPLES_DIV;
 867:Generated_Source\PSoC4/ADC.c ****             }
 868:Generated_Source\PSoC4/ADC.c ****         #endif /* ADC_DEFAULT_AVG_MODE == ADC__ACCUMULATE */
 869:Generated_Source\PSoC4/ADC.c **** 
 870:Generated_Source\PSoC4/ADC.c ****         /* Subtract ADC offset */
 871:Generated_Source\PSoC4/ADC.c ****         adcCounts -= ADC_offset[chan];
 1004              		.loc 1 871 0 is_stmt 1
 1005 0010 6200     		lsls	r2, r4, #1
 1006 0012 0A4B     		ldr	r3, .L78
 1007 0014 D05A     		ldrh	r0, [r2, r3]
 1008 0016 00B2     		sxth	r0, r0
 1009 0018 281A     		subs	r0, r5, r0
 1010 001a 00B2     		sxth	r0, r0
 1011              	.LVL79:
 872:Generated_Source\PSoC4/ADC.c **** 
 873:Generated_Source\PSoC4/ADC.c ****         volts = ((float32)adcCounts * ADC_10V_COUNTS) / (float32)ADC_countsPer10Volt[chan];
 1012              		.loc 1 873 0
 1013 001c FFF7FEFF 		bl	__aeabi_i2f
 1014              	.LVL80:
 1015 0020 0749     		ldr	r1, .L78+4
 1016 0022 FFF7FEFF 		bl	__aeabi_fmul
 1017              	.LVL81:
 1018 0026 051C     		adds	r5, r0, #0
 1019 0028 A400     		lsls	r4, r4, #2
 1020              	.LVL82:
 1021 002a 064B     		ldr	r3, .L78+8
 1022 002c E058     		ldr	r0, [r4, r3]
 1023 002e FFF7FEFF 		bl	__aeabi_i2f
 1024              	.LVL83:
 1025 0032 011C     		adds	r1, r0, #0
 1026 0034 281C     		adds	r0, r5, #0
 1027 0036 FFF7FEFF 		bl	__aeabi_fdiv
 1028              	.LVL84:
 874:Generated_Source\PSoC4/ADC.c **** 
 875:Generated_Source\PSoC4/ADC.c ****         return( volts );
 876:Generated_Source\PSoC4/ADC.c ****     }
 1029              		.loc 1 876 0
 1030              		@ sp needed
 1031 003a 70BD     		pop	{r4, r5, r6, pc}
 1032              	.L79:
 1033              		.align	2
 1034              	.L78:
 1035 003c 00000000 		.word	ADC_offset
 1036 0040 00002041 		.word	1092616192
 1037 0044 00000000 		.word	ADC_countsPer10Volt
 1038              		.cfi_endproc
 1039              	.LFE19:
 1040              		.size	ADC_CountsTo_Volts, .-ADC_CountsTo_Volts
 1041              		.comm	ADC_countsPer10Volt,16,4
 1042              		.comm	ADC_offset,8,4
 1043              		.global	ADC_initVar
 1044              		.section	.rodata
 1045              		.align	2
 1046              		.set	.LANCHOR0,. + 0
 1047              		.type	ADC_channelsConfig, %object
 1048              		.size	ADC_channelsConfig, 16
ARM GAS  C:\Users\Intern\AppData\Local\Temp\ccUXnh9k.s 			page 35


 1049              	ADC_channelsConfig:
 1050 0000 00000000 		.space	16
 1050      00000000 
 1050      00000000 
 1050      00000000 
 1051              		.type	ADC_InputsPlacement.4911, %object
 1052              		.size	ADC_InputsPlacement.4911, 4
 1053              	ADC_InputsPlacement.4911:
 1054 0010 12       		.byte	18
 1055 0011 13       		.byte	19
 1056 0012 04       		.byte	4
 1057 0013 05       		.byte	5
 1058              		.bss
 1059              		.set	.LANCHOR1,. + 0
 1060              		.type	ADC_initVar, %object
 1061              		.size	ADC_initVar, 1
 1062              	ADC_initVar:
 1063 0000 00       		.space	1
 1064              		.text
 1065              	.Letext0:
 1066              		.file 2 "Generated_Source\\PSoC4\\cytypes.h"
 1067              		.file 3 "Generated_Source\\PSoC4\\CyLib.h"