ARM GAS  C:\Users\Intern\AppData\Local\Temp\ccD9JYVi.s 			page 1


   1              		.syntax unified
   2              		.cpu cortex-m0
   3              		.fpu softvfp
   4              		.eabi_attribute 20, 1
   5              		.eabi_attribute 21, 1
   6              		.eabi_attribute 23, 3
   7              		.eabi_attribute 24, 1
   8              		.eabi_attribute 25, 1
   9              		.eabi_attribute 26, 1
  10              		.eabi_attribute 30, 1
  11              		.eabi_attribute 34, 0
  12              		.eabi_attribute 18, 4
  13              		.thumb
  14              		.syntax unified
  15              		.file	"BLE.c"
  16              		.text
  17              	.Ltext0:
  18              		.cfi_sections	.debug_frame
  19              		.section	.text.CyBle_ChangeAdLocalName,"ax",%progbits
  20              		.align	2
  21              		.code	16
  22              		.thumb_func
  23              		.type	CyBle_ChangeAdLocalName, %function
  24              	CyBle_ChangeAdLocalName:
  25              	.LFB11:
  26              		.file 1 "Generated_Source\\PSoC4\\BLE.c"
   1:Generated_Source\PSoC4/BLE.c **** /***************************************************************************//**
   2:Generated_Source\PSoC4/BLE.c **** * \file CYBLE.c
   3:Generated_Source\PSoC4/BLE.c **** * \version 3.50
   4:Generated_Source\PSoC4/BLE.c **** * 
   5:Generated_Source\PSoC4/BLE.c **** * \brief
   6:Generated_Source\PSoC4/BLE.c **** *  This file contains the source code for the Common APIs of the BLE Component.
   7:Generated_Source\PSoC4/BLE.c **** * 
   8:Generated_Source\PSoC4/BLE.c **** ********************************************************************************
   9:Generated_Source\PSoC4/BLE.c **** * \copyright
  10:Generated_Source\PSoC4/BLE.c **** * Copyright 2014-2018, Cypress Semiconductor Corporation.  All rights reserved.
  11:Generated_Source\PSoC4/BLE.c **** * You may use this file only in accordance with the license, terms, conditions,
  12:Generated_Source\PSoC4/BLE.c **** * disclaimers, and limitations in the end user license agreement accompanying
  13:Generated_Source\PSoC4/BLE.c **** * the software package with which this file was provided.
  14:Generated_Source\PSoC4/BLE.c **** *******************************************************************************/
  15:Generated_Source\PSoC4/BLE.c **** 
  16:Generated_Source\PSoC4/BLE.c **** #include "BLE_eventHandler.h"
  17:Generated_Source\PSoC4/BLE.c **** #include "BLE_HAL_PVT.h"
  18:Generated_Source\PSoC4/BLE.c **** #include <stdlib.h>
  19:Generated_Source\PSoC4/BLE.c **** 
  20:Generated_Source\PSoC4/BLE.c **** 
  21:Generated_Source\PSoC4/BLE.c **** /***************************************
  22:Generated_Source\PSoC4/BLE.c **** * Function Prototypes
  23:Generated_Source\PSoC4/BLE.c **** ***************************************/
  24:Generated_Source\PSoC4/BLE.c **** 
  25:Generated_Source\PSoC4/BLE.c **** #if(CYBLE_GATT_ROLE_SERVER)
  26:Generated_Source\PSoC4/BLE.c ****     #if(CYBLE_GAP_ROLE_PERIPHERAL)
  27:Generated_Source\PSoC4/BLE.c ****         static void CyBle_ChangeAdLocalName(const char8 name[], uint8 dest);
  28:Generated_Source\PSoC4/BLE.c ****     #endif /* (CYBLE_GAP_ROLE_PERIPHERAL) */
  29:Generated_Source\PSoC4/BLE.c **** #endif /* (CYBLE_GATT_ROLE_SERVER) */
  30:Generated_Source\PSoC4/BLE.c ****     
  31:Generated_Source\PSoC4/BLE.c **** 
ARM GAS  C:\Users\Intern\AppData\Local\Temp\ccD9JYVi.s 			page 2


  32:Generated_Source\PSoC4/BLE.c **** /***************************************
  33:Generated_Source\PSoC4/BLE.c **** * Global Variables
  34:Generated_Source\PSoC4/BLE.c **** ***************************************/
  35:Generated_Source\PSoC4/BLE.c **** 
  36:Generated_Source\PSoC4/BLE.c **** /* Indicates whether the BLE has been initialized. The variable is initialized to
  37:Generated_Source\PSoC4/BLE.c ****    0 and set to 1 the first time CyBle_Start() is called. This allows the component
  38:Generated_Source\PSoC4/BLE.c ****    to restart without reinitialization after the first call to the CyBle_Start() 
  39:Generated_Source\PSoC4/BLE.c ****    routine. If reinitialization of the component is required, the variable should 
  40:Generated_Source\PSoC4/BLE.c ****    be set to 0 before the CyBle_Start() routine is called. Alternatively, the BLE
  41:Generated_Source\PSoC4/BLE.c ****    can be reinitialized by calling the CyBle_Init() function.
  42:Generated_Source\PSoC4/BLE.c **** */
  43:Generated_Source\PSoC4/BLE.c **** uint8  cyBle_initVar = 0u;
  44:Generated_Source\PSoC4/BLE.c **** 
  45:Generated_Source\PSoC4/BLE.c **** /* Allocate RAM memory for stack. This buffer could be reused by application when 
  46:Generated_Source\PSoC4/BLE.c ****    BLE component is stopped. For export mode buffer is allocated in heap.
  47:Generated_Source\PSoC4/BLE.c **** */
  48:Generated_Source\PSoC4/BLE.c **** #if(CYBLE_SHARING_MODE_EXPORT)
  49:Generated_Source\PSoC4/BLE.c ****     
  50:Generated_Source\PSoC4/BLE.c **** uint8 *cyBle_stackMemoryRam = NULL;
  51:Generated_Source\PSoC4/BLE.c **** 
  52:Generated_Source\PSoC4/BLE.c **** #else
  53:Generated_Source\PSoC4/BLE.c **** 
  54:Generated_Source\PSoC4/BLE.c **** CYBLE_CYALIGNED_BEGIN CY_NOINIT uint8 cyBle_stackMemoryRam[CYBLE_STACK_RAM_SIZE] CYBLE_CYALIGNED_EN
  55:Generated_Source\PSoC4/BLE.c **** 
  56:Generated_Source\PSoC4/BLE.c **** #endif  /* CYBLE_SHARING_MODE_EXPORT */
  57:Generated_Source\PSoC4/BLE.c **** 
  58:Generated_Source\PSoC4/BLE.c **** #if(CYBLE_GAP_ROLE_PERIPHERAL || CYBLE_GAP_ROLE_BROADCASTER)
  59:Generated_Source\PSoC4/BLE.c **** 
  60:Generated_Source\PSoC4/BLE.c **** CYBLE_GAPP_DISC_PARAM_T cyBle_discoveryParam =
  61:Generated_Source\PSoC4/BLE.c **** {
  62:Generated_Source\PSoC4/BLE.c ****     0x0020u,    /* uint16 advertising_interval_min */
  63:Generated_Source\PSoC4/BLE.c ****     0x0030u,    /* uint16 advertising_interval_max */
  64:Generated_Source\PSoC4/BLE.c ****     CYBLE_GAPP_CONNECTABLE_UNDIRECTED_ADV, /* uint8 advertising_type */
  65:Generated_Source\PSoC4/BLE.c ****     0x00u,      /* uint8 own_addr_type */
  66:Generated_Source\PSoC4/BLE.c ****     0x00u,      /* uint8 direct_addr_type */
  67:Generated_Source\PSoC4/BLE.c ****     {0x00u, 0x00u, 0x00u, 0x50u, 0xA0u, 0x00u}, /* uint8* direct_addr */
  68:Generated_Source\PSoC4/BLE.c ****     0x07u,      /* uint8 advertising_channel_map */
  69:Generated_Source\PSoC4/BLE.c ****     0x00u,      /* uint8 advertising_filter_policy */
  70:Generated_Source\PSoC4/BLE.c **** };
  71:Generated_Source\PSoC4/BLE.c **** 
  72:Generated_Source\PSoC4/BLE.c **** CYBLE_GAPP_DISC_DATA_T cyBle_discoveryData =
  73:Generated_Source\PSoC4/BLE.c **** {
  74:Generated_Source\PSoC4/BLE.c ****     { 0x02u, 0x01u, 0x06u, 0x0Bu, 0x09u, 0x48u, 0x75u,
  75:Generated_Source\PSoC4/BLE.c ****     0x64u, 0x66u, 0x6Cu, 0x75u, 0x72u, 0x20u, 0x23u, 0x31u,
  76:Generated_Source\PSoC4/BLE.c ****     0x07u, 0x03u, 0x42u, 0xDBu, 0x96u, 0x5Cu, 0xD4u, 0x8Cu,
  77:Generated_Source\PSoC4/BLE.c ****     0x00u, 0x00u, 0x00u, 0x00u, 0x00u, 0x00u, 0x00u, 0x00u }, /* uint8 advertising_data[CYBLE_MAX_A
  78:Generated_Source\PSoC4/BLE.c ****     0x17u,      /* uint8 adv_data_length */
  79:Generated_Source\PSoC4/BLE.c **** };
  80:Generated_Source\PSoC4/BLE.c **** 
  81:Generated_Source\PSoC4/BLE.c **** CYBLE_GAPP_SCAN_RSP_DATA_T cyBle_scanRspData =
  82:Generated_Source\PSoC4/BLE.c **** {
  83:Generated_Source\PSoC4/BLE.c ****     { 0x00u, 0x00u, 0x00u, 0x00u, 0x00u, 0x00u, 0x00u,
  84:Generated_Source\PSoC4/BLE.c ****     0x00u, 0x00u, 0x00u, 0x00u, 0x00u, 0x00u, 0x00u, 0x00u,
  85:Generated_Source\PSoC4/BLE.c ****     0x00u, 0x00u, 0x00u, 0x00u, 0x00u, 0x00u, 0x00u, 0x00u,
  86:Generated_Source\PSoC4/BLE.c ****     0x00u, 0x00u, 0x00u, 0x00u, 0x00u, 0x00u, 0x00u, 0x00u }, /* uint8 scan_rsp_data[CYBLE_MAX_SCAN
  87:Generated_Source\PSoC4/BLE.c ****     0x00u,      /* uint8 scan_rsp_data_length */
  88:Generated_Source\PSoC4/BLE.c **** };
ARM GAS  C:\Users\Intern\AppData\Local\Temp\ccD9JYVi.s 			page 3


  89:Generated_Source\PSoC4/BLE.c **** 
  90:Generated_Source\PSoC4/BLE.c **** /* This variable of type CYBLE_GAPP_DISC_MODE_INFO_T is present only when 
  91:Generated_Source\PSoC4/BLE.c ****    the BLE component is configured for Peripheral GAP role or Central and 
  92:Generated_Source\PSoC4/BLE.c ****    Peripheral GAP role. It contains the Advertisement settings and also the 
  93:Generated_Source\PSoC4/BLE.c ****    Advertisement and Scan response data parameters entered in the customizer.
  94:Generated_Source\PSoC4/BLE.c ****    This variable can be used by advanced users to change Advertisement settings,
  95:Generated_Source\PSoC4/BLE.c ****    Advertisement or Scan response data in runtime. 
  96:Generated_Source\PSoC4/BLE.c **** */
  97:Generated_Source\PSoC4/BLE.c **** CYBLE_GAPP_DISC_MODE_INFO_T cyBle_discoveryModeInfo =
  98:Generated_Source\PSoC4/BLE.c **** {
  99:Generated_Source\PSoC4/BLE.c ****     0x02u,      /* uint8 discMode */
 100:Generated_Source\PSoC4/BLE.c ****     &cyBle_discoveryParam,
 101:Generated_Source\PSoC4/BLE.c ****     &cyBle_discoveryData,
 102:Generated_Source\PSoC4/BLE.c ****     &cyBle_scanRspData,
 103:Generated_Source\PSoC4/BLE.c ****     0x0000u,    /* uint16 advTo */
 104:Generated_Source\PSoC4/BLE.c **** };
 105:Generated_Source\PSoC4/BLE.c **** 
 106:Generated_Source\PSoC4/BLE.c **** 
 107:Generated_Source\PSoC4/BLE.c **** #endif /* CYBLE_GAP_ROLE_PERIPHERAL || CYBLE_GAP_ROLE_BROADCASTER */
 108:Generated_Source\PSoC4/BLE.c **** 
 109:Generated_Source\PSoC4/BLE.c **** #if(CYBLE_GAP_ROLE_CENTRAL)
 110:Generated_Source\PSoC4/BLE.c ****     
 111:Generated_Source\PSoC4/BLE.c **** CYBLE_GAPC_CONN_PARAM_T cyBle_connectionParameters;
 112:Generated_Source\PSoC4/BLE.c **** 
 113:Generated_Source\PSoC4/BLE.c **** /* Connecting timeout is set to 30 seconds in CyBle_Init function. 
 114:Generated_Source\PSoC4/BLE.c ****    Not zero value starts timer in CyBle_GapcConnectDevice() API fucntion.
 115:Generated_Source\PSoC4/BLE.c **** */
 116:Generated_Source\PSoC4/BLE.c **** uint16 cyBle_connectingTimeout;
 117:Generated_Source\PSoC4/BLE.c ****     
 118:Generated_Source\PSoC4/BLE.c **** #endif /* CYBLE_GAP_ROLE_CENTRAL */
 119:Generated_Source\PSoC4/BLE.c **** 
 120:Generated_Source\PSoC4/BLE.c **** #if(CYBLE_GAP_ROLE_CENTRAL || CYBLE_GAP_ROLE_OBSERVER)
 121:Generated_Source\PSoC4/BLE.c ****     
 122:Generated_Source\PSoC4/BLE.c **** 
 123:Generated_Source\PSoC4/BLE.c ****     
 124:Generated_Source\PSoC4/BLE.c **** #endif /* CYBLE_GAP_ROLE_CENTRAL || CYBLE_GAP_ROLE_OBSERVER */
 125:Generated_Source\PSoC4/BLE.c **** 
 126:Generated_Source\PSoC4/BLE.c **** #if((CYBLE_GAP_ROLE_PERIPHERAL || CYBLE_GAP_ROLE_CENTRAL) && (CYBLE_BONDING_REQUIREMENT == CYBLE_BO
 127:Generated_Source\PSoC4/BLE.c **** 
 128:Generated_Source\PSoC4/BLE.c **** uint8 cyBle_peerBonding;
 129:Generated_Source\PSoC4/BLE.c **** uint8 cyBle_pendingFlashWrite;
 130:Generated_Source\PSoC4/BLE.c ****     
 131:Generated_Source\PSoC4/BLE.c **** #if(CYBLE_GATT_DB_CCCD_COUNT != 0u)
 132:Generated_Source\PSoC4/BLE.c ****     static uint8 cyBle_pendingFlashClearCccdHandle;
 133:Generated_Source\PSoC4/BLE.c **** #endif /* CYBLE_GATT_DB_CCCD_COUNT != 0u */
 134:Generated_Source\PSoC4/BLE.c ****     
 135:Generated_Source\PSoC4/BLE.c **** #endif  /* (CYBLE_BONDING_REQUIREMENT == CYBLE_BONDING_YES) */
 136:Generated_Source\PSoC4/BLE.c **** 
 137:Generated_Source\PSoC4/BLE.c **** CYBLE_CALLBACK_T CyBle_ApplCallback;
 138:Generated_Source\PSoC4/BLE.c **** CYBLE_GAP_BD_ADDR_T cyBle_deviceAddress = {{0x00u, 0x00u, 0x00u, 0x50u, 0xA0u, 0x00u}, 0x00u };
 139:Generated_Source\PSoC4/BLE.c **** CYBLE_GAP_BD_ADDR_T * cyBle_sflashDeviceAddress = CYBLE_SFLASH_DEVICE_ADDRESS_PTR;
 140:Generated_Source\PSoC4/BLE.c **** 
 141:Generated_Source\PSoC4/BLE.c **** 
 142:Generated_Source\PSoC4/BLE.c **** /******************************************************************************
 143:Generated_Source\PSoC4/BLE.c **** * Function Name: CyBle_Init
 144:Generated_Source\PSoC4/BLE.c **** ***************************************************************************//**
 145:Generated_Source\PSoC4/BLE.c **** *
ARM GAS  C:\Users\Intern\AppData\Local\Temp\ccD9JYVi.s 			page 4


 146:Generated_Source\PSoC4/BLE.c **** *   Initializes the component with the parameters set in the customizer.
 147:Generated_Source\PSoC4/BLE.c **** * 
 148:Generated_Source\PSoC4/BLE.c **** *  \return
 149:Generated_Source\PSoC4/BLE.c **** *   None
 150:Generated_Source\PSoC4/BLE.c **** * 
 151:Generated_Source\PSoC4/BLE.c **** ******************************************************************************/
 152:Generated_Source\PSoC4/BLE.c **** void CyBle_Init(void)
 153:Generated_Source\PSoC4/BLE.c **** {
 154:Generated_Source\PSoC4/BLE.c ****     cyBle_eventHandlerFlag = 0u;
 155:Generated_Source\PSoC4/BLE.c ****     cyBle_busyStatus = CYBLE_STACK_STATE_FREE;
 156:Generated_Source\PSoC4/BLE.c **** 
 157:Generated_Source\PSoC4/BLE.c ****     #if(CYBLE_GAP_ROLE_PERIPHERAL || CYBLE_GAP_ROLE_BROADCASTER) 
 158:Generated_Source\PSoC4/BLE.c ****         cyBle_advertisingIntervalType = CYBLE_ADVERTISING_FAST; 
 159:Generated_Source\PSoC4/BLE.c ****     #endif /* (CYBLE_GAP_ROLE_PERIPHERAL || CYBLE_GAP_ROLE_BROADCASTER)  */
 160:Generated_Source\PSoC4/BLE.c ****     #if(CYBLE_GAP_ROLE_CENTRAL || CYBLE_GAP_ROLE_OBSERVER)
 161:Generated_Source\PSoC4/BLE.c ****         cyBle_scanningIntervalType = CYBLE_SCANNING_FAST; 
 162:Generated_Source\PSoC4/BLE.c ****     #endif /* (CYBLE_GAP_ROLE_CENTRAL || CYBLE_GAP_ROLE_OBSERVER) */
 163:Generated_Source\PSoC4/BLE.c ****         
 164:Generated_Source\PSoC4/BLE.c ****     /* Init default connection parameters. 
 165:Generated_Source\PSoC4/BLE.c ****        Application may change it before initiating a connection */
 166:Generated_Source\PSoC4/BLE.c ****     #if(CYBLE_GAP_ROLE_CENTRAL)
 167:Generated_Source\PSoC4/BLE.c ****         cyBle_connectionParameters.scanIntv = cyBle_discoveryInfo.scanIntv;
 168:Generated_Source\PSoC4/BLE.c ****         cyBle_connectionParameters.scanWindow = cyBle_discoveryInfo.scanWindow;
 169:Generated_Source\PSoC4/BLE.c ****         cyBle_connectionParameters.ownAddrType = cyBle_discoveryInfo.ownAddrType;
 170:Generated_Source\PSoC4/BLE.c ****         cyBle_connectionParameters.initiatorFilterPolicy = cyBle_discoveryInfo.scanFilterPolicy;
 171:Generated_Source\PSoC4/BLE.c ****         cyBle_connectionParameters.connIntvMin = CYBLE_GAPC_CONNECTION_INTERVAL_MIN;
 172:Generated_Source\PSoC4/BLE.c ****         cyBle_connectionParameters.connIntvMax = CYBLE_GAPC_CONNECTION_INTERVAL_MAX;
 173:Generated_Source\PSoC4/BLE.c ****         cyBle_connectionParameters.connLatency = CYBLE_GAPC_CONNECTION_SLAVE_LATENCY;
 174:Generated_Source\PSoC4/BLE.c ****         cyBle_connectionParameters.supervisionTO = CYBLE_GAPC_CONNECTION_TIME_OUT;
 175:Generated_Source\PSoC4/BLE.c ****         cyBle_connectionParameters.minCeLength = 0x0000u;
 176:Generated_Source\PSoC4/BLE.c ****         cyBle_connectionParameters.maxCeLength = 0xFFFFu;
 177:Generated_Source\PSoC4/BLE.c ****         
 178:Generated_Source\PSoC4/BLE.c ****         cyBle_connectingTimeout = CYBLE_GAPC_CONNECTING_TIMEOUT;
 179:Generated_Source\PSoC4/BLE.c ****     #endif /* CYBLE_GAP_ROLE_CENTRAL */
 180:Generated_Source\PSoC4/BLE.c **** 
 181:Generated_Source\PSoC4/BLE.c ****     CyBle_ServiceInit();
 182:Generated_Source\PSoC4/BLE.c **** 
 183:Generated_Source\PSoC4/BLE.c ****     #if((CYBLE_GAP_ROLE_PERIPHERAL || CYBLE_GAP_ROLE_CENTRAL) && (CYBLE_BONDING_REQUIREMENT == CYBL
 184:Generated_Source\PSoC4/BLE.c ****         cyBle_pendingFlashWrite = 0u;
 185:Generated_Source\PSoC4/BLE.c ****         cyBle_peerBonding = CYBLE_GAP_BONDING_NONE;
 186:Generated_Source\PSoC4/BLE.c ****     #endif  /* (CYBLE_BONDING_REQUIREMENT == CYBLE_BONDING_YES) */
 187:Generated_Source\PSoC4/BLE.c **** 
 188:Generated_Source\PSoC4/BLE.c **** }
 189:Generated_Source\PSoC4/BLE.c **** 
 190:Generated_Source\PSoC4/BLE.c **** 
 191:Generated_Source\PSoC4/BLE.c **** /******************************************************************************
 192:Generated_Source\PSoC4/BLE.c **** * Function Name: CyBle_ServiceInit
 193:Generated_Source\PSoC4/BLE.c **** ***************************************************************************//**
 194:Generated_Source\PSoC4/BLE.c **** * 
 195:Generated_Source\PSoC4/BLE.c **** *  Initializes all included services.
 196:Generated_Source\PSoC4/BLE.c **** * 
 197:Generated_Source\PSoC4/BLE.c **** * \return
 198:Generated_Source\PSoC4/BLE.c **** *  None
 199:Generated_Source\PSoC4/BLE.c **** * 
 200:Generated_Source\PSoC4/BLE.c **** ******************************************************************************/
 201:Generated_Source\PSoC4/BLE.c **** void CyBle_ServiceInit(void)
 202:Generated_Source\PSoC4/BLE.c **** {
ARM GAS  C:\Users\Intern\AppData\Local\Temp\ccD9JYVi.s 			page 5


 203:Generated_Source\PSoC4/BLE.c ****     #if(CYBLE_GATT_ROLE_CLIENT)
 204:Generated_Source\PSoC4/BLE.c ****         /* Check service range before clearing to support partial discovery */
 205:Generated_Source\PSoC4/BLE.c ****         if(cyBle_serverInfo[CYBLE_SRVI_GAP].range.startHandle == CYBLE_GATT_INVALID_ATTR_HANDLE_VAL
 206:Generated_Source\PSoC4/BLE.c ****         {
 207:Generated_Source\PSoC4/BLE.c ****             (void)memset(&cyBle_gapc, 0, sizeof(cyBle_gapc));
 208:Generated_Source\PSoC4/BLE.c ****         }
 209:Generated_Source\PSoC4/BLE.c ****         if(cyBle_serverInfo[CYBLE_SRVI_GATT].range.startHandle == CYBLE_GATT_INVALID_ATTR_HANDLE_VA
 210:Generated_Source\PSoC4/BLE.c ****         {
 211:Generated_Source\PSoC4/BLE.c ****             (void)memset(&cyBle_gattc, 0, sizeof(cyBle_gattc));
 212:Generated_Source\PSoC4/BLE.c ****         }
 213:Generated_Source\PSoC4/BLE.c ****     #endif /* CYBLE_GATT_ROLE_CLIENT */
 214:Generated_Source\PSoC4/BLE.c **** 
 215:Generated_Source\PSoC4/BLE.c ****    	#ifdef CYBLE_AIOS
 216:Generated_Source\PSoC4/BLE.c ****         CyBle_AiosInit();
 217:Generated_Source\PSoC4/BLE.c ****     #endif /* CYBLE_AIOS */
 218:Generated_Source\PSoC4/BLE.c **** 
 219:Generated_Source\PSoC4/BLE.c **** 	#ifdef CYBLE_ANCS
 220:Generated_Source\PSoC4/BLE.c ****         CyBle_AncsInit();
 221:Generated_Source\PSoC4/BLE.c ****     #endif /* CYBLE_ANCS */
 222:Generated_Source\PSoC4/BLE.c **** 	
 223:Generated_Source\PSoC4/BLE.c ****     #ifdef CYBLE_ANS
 224:Generated_Source\PSoC4/BLE.c ****         CyBle_AnsInit();
 225:Generated_Source\PSoC4/BLE.c ****     #endif /* CYBLE_ANS */
 226:Generated_Source\PSoC4/BLE.c ****     
 227:Generated_Source\PSoC4/BLE.c ****     #ifdef CYBLE_BAS
 228:Generated_Source\PSoC4/BLE.c ****         CyBle_BasInit();
 229:Generated_Source\PSoC4/BLE.c ****     #endif /* CYBLE_BAS */
 230:Generated_Source\PSoC4/BLE.c ****     
 231:Generated_Source\PSoC4/BLE.c ****     #ifdef CYBLE_BCS
 232:Generated_Source\PSoC4/BLE.c ****         CyBle_BcsInit();
 233:Generated_Source\PSoC4/BLE.c ****     #endif /* CYBLE_BCS */
 234:Generated_Source\PSoC4/BLE.c **** 
 235:Generated_Source\PSoC4/BLE.c ****     #ifdef CYBLE_BLS
 236:Generated_Source\PSoC4/BLE.c ****         CyBle_BlsInit();
 237:Generated_Source\PSoC4/BLE.c ****     #endif /* CYBLE_BLS */
 238:Generated_Source\PSoC4/BLE.c ****     
 239:Generated_Source\PSoC4/BLE.c ****     #ifdef CYBLE_BMS
 240:Generated_Source\PSoC4/BLE.c ****         CyBle_BmsInit();
 241:Generated_Source\PSoC4/BLE.c ****     #endif /* CYBLE_BMS */
 242:Generated_Source\PSoC4/BLE.c ****     
 243:Generated_Source\PSoC4/BLE.c ****     #ifdef CYBLE_CGMS
 244:Generated_Source\PSoC4/BLE.c ****         CyBle_CgmsInit();
 245:Generated_Source\PSoC4/BLE.c ****     #endif /* CYBLE_CGMS */
 246:Generated_Source\PSoC4/BLE.c **** 
 247:Generated_Source\PSoC4/BLE.c ****     #ifdef CYBLE_CPS
 248:Generated_Source\PSoC4/BLE.c ****         CyBle_CpsInit();
 249:Generated_Source\PSoC4/BLE.c ****     #endif /* CYBLE_CPS */
 250:Generated_Source\PSoC4/BLE.c **** 
 251:Generated_Source\PSoC4/BLE.c ****     #ifdef CYBLE_CSCS
 252:Generated_Source\PSoC4/BLE.c ****         CyBle_CscsInit();
 253:Generated_Source\PSoC4/BLE.c ****     #endif /* CYBLE_CSCS */
 254:Generated_Source\PSoC4/BLE.c ****     
 255:Generated_Source\PSoC4/BLE.c ****     #ifdef CYBLE_CTS
 256:Generated_Source\PSoC4/BLE.c ****         CyBle_CtsInit();
 257:Generated_Source\PSoC4/BLE.c ****     #endif /* CYBLE_CTS */
 258:Generated_Source\PSoC4/BLE.c **** 
 259:Generated_Source\PSoC4/BLE.c ****     #ifdef CYBLE_CUSTOM
ARM GAS  C:\Users\Intern\AppData\Local\Temp\ccD9JYVi.s 			page 6


 260:Generated_Source\PSoC4/BLE.c ****         CyBle_CustomInit();
 261:Generated_Source\PSoC4/BLE.c ****     #endif /* CYBLE_CUSTOM */
 262:Generated_Source\PSoC4/BLE.c **** 
 263:Generated_Source\PSoC4/BLE.c ****     #ifdef CYBLE_DIS
 264:Generated_Source\PSoC4/BLE.c ****         CyBle_DisInit();
 265:Generated_Source\PSoC4/BLE.c ****     #endif /* CYBLE_DIS */
 266:Generated_Source\PSoC4/BLE.c **** 
 267:Generated_Source\PSoC4/BLE.c ****     #ifdef CYBLE_ESS
 268:Generated_Source\PSoC4/BLE.c ****         CyBle_EssInit();
 269:Generated_Source\PSoC4/BLE.c ****     #endif /* CYBLE_ESS */
 270:Generated_Source\PSoC4/BLE.c ****     
 271:Generated_Source\PSoC4/BLE.c ****     #ifdef CYBLE_GLS
 272:Generated_Source\PSoC4/BLE.c ****         CyBle_GlsInit();
 273:Generated_Source\PSoC4/BLE.c ****     #endif /* CYBLE_GLS */
 274:Generated_Source\PSoC4/BLE.c ****     
 275:Generated_Source\PSoC4/BLE.c ****     #ifdef CYBLE_HIDS
 276:Generated_Source\PSoC4/BLE.c ****         CyBle_HidsInit();
 277:Generated_Source\PSoC4/BLE.c ****     #endif /* CYBLE_HIDS */
 278:Generated_Source\PSoC4/BLE.c **** 
 279:Generated_Source\PSoC4/BLE.c ****     #ifdef CYBLE_HPS
 280:Generated_Source\PSoC4/BLE.c ****         CyBle_HpsInit();
 281:Generated_Source\PSoC4/BLE.c ****     #endif /* CYBLE_HPS */
 282:Generated_Source\PSoC4/BLE.c **** 
 283:Generated_Source\PSoC4/BLE.c ****     #ifdef CYBLE_HRS
 284:Generated_Source\PSoC4/BLE.c ****         CyBle_HrsInit();
 285:Generated_Source\PSoC4/BLE.c ****     #endif /* CYBLE_HRS */
 286:Generated_Source\PSoC4/BLE.c ****     
 287:Generated_Source\PSoC4/BLE.c ****     #ifdef CYBLE_HTS
 288:Generated_Source\PSoC4/BLE.c ****         CyBle_HtsInit();
 289:Generated_Source\PSoC4/BLE.c ****     #endif /* CYBLE_RSCS */
 290:Generated_Source\PSoC4/BLE.c **** 
 291:Generated_Source\PSoC4/BLE.c ****     #ifdef CYBLE_IAS
 292:Generated_Source\PSoC4/BLE.c ****         CyBle_IasInit();
 293:Generated_Source\PSoC4/BLE.c ****     #endif /* CYBLE_IAS */
 294:Generated_Source\PSoC4/BLE.c **** 
 295:Generated_Source\PSoC4/BLE.c ****     #ifdef CYBLE_IPS
 296:Generated_Source\PSoC4/BLE.c ****         CyBle_IpsInit();
 297:Generated_Source\PSoC4/BLE.c ****     #endif /* CYBLE_IPS */
 298:Generated_Source\PSoC4/BLE.c ****     
 299:Generated_Source\PSoC4/BLE.c ****     #ifdef CYBLE_LLS
 300:Generated_Source\PSoC4/BLE.c ****         CyBle_LlsInit();
 301:Generated_Source\PSoC4/BLE.c ****     #endif /* CYBLE_LLS */
 302:Generated_Source\PSoC4/BLE.c **** 
 303:Generated_Source\PSoC4/BLE.c ****     #ifdef CYBLE_LNS
 304:Generated_Source\PSoC4/BLE.c ****         CyBle_LnsInit();
 305:Generated_Source\PSoC4/BLE.c ****     #endif /* CYBLE_LNS */
 306:Generated_Source\PSoC4/BLE.c ****     
 307:Generated_Source\PSoC4/BLE.c ****     #ifdef CYBLE_NDCS
 308:Generated_Source\PSoC4/BLE.c ****         CyBle_NdcsInit();
 309:Generated_Source\PSoC4/BLE.c ****     #endif /* CYBLE_NDCS */
 310:Generated_Source\PSoC4/BLE.c ****     
 311:Generated_Source\PSoC4/BLE.c ****     #ifdef CYBLE_PASS
 312:Generated_Source\PSoC4/BLE.c ****         CyBle_PassInit();
 313:Generated_Source\PSoC4/BLE.c ****     #endif /* CYBLE_PASS */
 314:Generated_Source\PSoC4/BLE.c ****     
 315:Generated_Source\PSoC4/BLE.c ****     #ifdef CYBLE_PLXS
 316:Generated_Source\PSoC4/BLE.c ****         CyBle_PlxsInit();
ARM GAS  C:\Users\Intern\AppData\Local\Temp\ccD9JYVi.s 			page 7


 317:Generated_Source\PSoC4/BLE.c ****     #endif /* CYBLE_PLXS */
 318:Generated_Source\PSoC4/BLE.c ****     
 319:Generated_Source\PSoC4/BLE.c ****     #ifdef CYBLE_RSCS
 320:Generated_Source\PSoC4/BLE.c ****         CyBle_RscsInit();
 321:Generated_Source\PSoC4/BLE.c ****     #endif /* CYBLE_RSCS */
 322:Generated_Source\PSoC4/BLE.c **** 
 323:Generated_Source\PSoC4/BLE.c ****     #ifdef CYBLE_RTUS
 324:Generated_Source\PSoC4/BLE.c ****         CyBle_RtusInit();
 325:Generated_Source\PSoC4/BLE.c ****     #endif /* CYBLE_RTUS */
 326:Generated_Source\PSoC4/BLE.c **** 
 327:Generated_Source\PSoC4/BLE.c ****     #ifdef CYBLE_SCPS
 328:Generated_Source\PSoC4/BLE.c ****         CyBle_ScpsInit();
 329:Generated_Source\PSoC4/BLE.c ****     #endif /* CYBLE_SCPS */
 330:Generated_Source\PSoC4/BLE.c ****     
 331:Generated_Source\PSoC4/BLE.c ****     #ifdef CYBLE_TPS
 332:Generated_Source\PSoC4/BLE.c ****         CyBle_TpsInit();
 333:Generated_Source\PSoC4/BLE.c ****     #endif /* CYBLE_TPS */
 334:Generated_Source\PSoC4/BLE.c ****     
 335:Generated_Source\PSoC4/BLE.c ****     #ifdef CYBLE_UDS
 336:Generated_Source\PSoC4/BLE.c ****         CyBle_UdsInit();
 337:Generated_Source\PSoC4/BLE.c ****     #endif /* CYBLE_UDS */
 338:Generated_Source\PSoC4/BLE.c **** 
 339:Generated_Source\PSoC4/BLE.c ****     #ifdef CYBLE_WPTS
 340:Generated_Source\PSoC4/BLE.c ****         CyBle_WptsInit();
 341:Generated_Source\PSoC4/BLE.c ****     #endif /* CYBLE_WPTS */
 342:Generated_Source\PSoC4/BLE.c **** 
 343:Generated_Source\PSoC4/BLE.c ****     #ifdef CYBLE_WSS
 344:Generated_Source\PSoC4/BLE.c ****         CyBle_WssInit();
 345:Generated_Source\PSoC4/BLE.c ****     #endif /* CYBLE_WSS */
 346:Generated_Source\PSoC4/BLE.c **** }
 347:Generated_Source\PSoC4/BLE.c **** 
 348:Generated_Source\PSoC4/BLE.c **** 
 349:Generated_Source\PSoC4/BLE.c **** /******************************************************************************
 350:Generated_Source\PSoC4/BLE.c **** * Function Name: CyBle_Start
 351:Generated_Source\PSoC4/BLE.c **** ***************************************************************************//**
 352:Generated_Source\PSoC4/BLE.c **** * 
 353:Generated_Source\PSoC4/BLE.c **** *  This function initializes the BLE Stack, which consists of the BLE Stack 
 354:Generated_Source\PSoC4/BLE.c **** *  Manager, BLE Controller, and BLE Host modules. It takes care of initializing
 355:Generated_Source\PSoC4/BLE.c **** *  the Profile layer, schedulers, Timer and other platform related
 356:Generated_Source\PSoC4/BLE.c **** *  resources required for the BLE component. It also registers the callback 
 357:Generated_Source\PSoC4/BLE.c **** *  function for BLE events that will be registered in the BLE stack.
 358:Generated_Source\PSoC4/BLE.c **** * 
 359:Generated_Source\PSoC4/BLE.c **** *  Note that this function does not reset the BLE Stack.
 360:Generated_Source\PSoC4/BLE.c **** * 
 361:Generated_Source\PSoC4/BLE.c **** *  For HCI-Mode of operation, this function will not initialize the BLE Host 
 362:Generated_Source\PSoC4/BLE.c **** *  module.
 363:Generated_Source\PSoC4/BLE.c **** * 
 364:Generated_Source\PSoC4/BLE.c **** *  Calling this function results in the generation of CYBLE_EVT_STACK_ON event
 365:Generated_Source\PSoC4/BLE.c **** *  on successful initialization of the BLE Stack.
 366:Generated_Source\PSoC4/BLE.c **** * 
 367:Generated_Source\PSoC4/BLE.c **** *  \param callbackFunc: Event callback function to receive events from BLE stack.
 368:Generated_Source\PSoC4/BLE.c **** *   CYBLE_CALLBACK_T is a function pointer type.
 369:Generated_Source\PSoC4/BLE.c **** * 
 370:Generated_Source\PSoC4/BLE.c **** * \return
 371:Generated_Source\PSoC4/BLE.c **** *  CYBLE_API_RESULT_T : Return value indicates if the function succeeded or 
 372:Generated_Source\PSoC4/BLE.c **** *  failed. Following are the possible error codes.
 373:Generated_Source\PSoC4/BLE.c **** * 
ARM GAS  C:\Users\Intern\AppData\Local\Temp\ccD9JYVi.s 			page 8


 374:Generated_Source\PSoC4/BLE.c **** *   <table>
 375:Generated_Source\PSoC4/BLE.c **** *  	  <tr>
 376:Generated_Source\PSoC4/BLE.c **** *       <th>Error codes</th>
 377:Generated_Source\PSoC4/BLE.c **** *       <th>Description</th>
 378:Generated_Source\PSoC4/BLE.c **** *     </tr>
 379:Generated_Source\PSoC4/BLE.c **** *     <tr>
 380:Generated_Source\PSoC4/BLE.c **** *       <td>CYBLE_ERROR_OK</td>
 381:Generated_Source\PSoC4/BLE.c **** *       <td>On successful operation.</td>
 382:Generated_Source\PSoC4/BLE.c **** *     </tr>
 383:Generated_Source\PSoC4/BLE.c **** *     <tr>
 384:Generated_Source\PSoC4/BLE.c **** *       <td>CYBLE_ERROR_INVALID_PARAMETER</td>
 385:Generated_Source\PSoC4/BLE.c **** *       <td>On passing a NULL pointer to the function. 
 386:Generated_Source\PSoC4/BLE.c **** *		</td>
 387:Generated_Source\PSoC4/BLE.c **** *     </tr>
 388:Generated_Source\PSoC4/BLE.c **** *     <tr>
 389:Generated_Source\PSoC4/BLE.c **** *       <td>CYBLE_ERROR_REPEATED_ATTEMPTS</td>
 390:Generated_Source\PSoC4/BLE.c **** *       <td>On invoking this function more than once without calling CyBle_Shutdown() 
 391:Generated_Source\PSoC4/BLE.c **** *           function between calls to this function.</td>
 392:Generated_Source\PSoC4/BLE.c **** *     </tr>
 393:Generated_Source\PSoC4/BLE.c **** *     <tr>
 394:Generated_Source\PSoC4/BLE.c **** *       <td>CYBLE_ERROR_MEMORY_ALLOCATION_FAILED</td>
 395:Generated_Source\PSoC4/BLE.c **** *       <td>There is insufficient memory available.</td>
 396:Generated_Source\PSoC4/BLE.c **** *     </tr>
 397:Generated_Source\PSoC4/BLE.c **** *   </table>
 398:Generated_Source\PSoC4/BLE.c **** * 
 399:Generated_Source\PSoC4/BLE.c **** *  \globalvars
 400:Generated_Source\PSoC4/BLE.c **** *   The CyBle_initVar variable is used to indicate initial
 401:Generated_Source\PSoC4/BLE.c **** *   configuration of this component. The variable is initialized to zero (0u)
 402:Generated_Source\PSoC4/BLE.c **** *   and set to one (1u) the first time CyBle_Start() is called. This
 403:Generated_Source\PSoC4/BLE.c **** *   allows for component initialization without re-initialization in all
 404:Generated_Source\PSoC4/BLE.c **** *   subsequent calls to the CyBle_Start() routine.
 405:Generated_Source\PSoC4/BLE.c **** * 
 406:Generated_Source\PSoC4/BLE.c **** ******************************************************************************/
 407:Generated_Source\PSoC4/BLE.c **** CYBLE_API_RESULT_T CyBle_Start(CYBLE_CALLBACK_T callbackFunc)
 408:Generated_Source\PSoC4/BLE.c **** {
 409:Generated_Source\PSoC4/BLE.c ****     CYBLE_API_RESULT_T apiResult = CYBLE_ERROR_OK;
 410:Generated_Source\PSoC4/BLE.c ****     
 411:Generated_Source\PSoC4/BLE.c ****     #if(CYBLE_MODE_PROFILE)
 412:Generated_Source\PSoC4/BLE.c ****     
 413:Generated_Source\PSoC4/BLE.c ****     CYBLE_STK_APP_DATA_BUFF_T cyBle_stackDataBuff[CYBLE_STACK_APP_MIN_POOL] = 
 414:Generated_Source\PSoC4/BLE.c ****     {
 415:Generated_Source\PSoC4/BLE.c ****         {CYBLE_GATT_MTU_PLUS_L2CAP_MEM_EXT, CYBLE_GATT_MTU_BUFF_COUNT + CYBLE_GATT_MAX_ATTR_BUFF_CO
 416:Generated_Source\PSoC4/BLE.c ****         {CYBLE_L2CAP_PSM_PLUS_L2CAP_MEM_EXT, CYBLE_L2CAP_PSM_COUNT},
 417:Generated_Source\PSoC4/BLE.c ****         {CYBLE_L2CAP_CBFC_PLUS_L2CAP_MEM_EXT, 2u * CYBLE_L2CAP_LOGICAL_CHANNEL_COUNT},
 418:Generated_Source\PSoC4/BLE.c ****         {CYBLE_L2CAP_MTU_PLUS_L2CAP_MEM_EXT, CYBLE_L2CAP_LOGICAL_CHANNEL_COUNT},
 419:Generated_Source\PSoC4/BLE.c ****         {CYBLE_L2CAP_MPS_PLUS_L2CAP_MEM_EXT, CYBLE_L2CAP_LOGICAL_CHANNEL_COUNT * (CYBLE_L2CAP_MTU_M
 420:Generated_Source\PSoC4/BLE.c ****     }; 
 421:Generated_Source\PSoC4/BLE.c **** 
 422:Generated_Source\PSoC4/BLE.c ****     #endif /* CYBLE_MODE_PROFILE */
 423:Generated_Source\PSoC4/BLE.c ****     
 424:Generated_Source\PSoC4/BLE.c ****     /* If not initialized then initialize all the required hardware and software */
 425:Generated_Source\PSoC4/BLE.c ****     if(cyBle_initVar == 0u)
 426:Generated_Source\PSoC4/BLE.c ****     {
 427:Generated_Source\PSoC4/BLE.c ****         CyBle_Init();
 428:Generated_Source\PSoC4/BLE.c ****         cyBle_initVar = 1u;
 429:Generated_Source\PSoC4/BLE.c ****     }
 430:Generated_Source\PSoC4/BLE.c ****     
ARM GAS  C:\Users\Intern\AppData\Local\Temp\ccD9JYVi.s 			page 9


 431:Generated_Source\PSoC4/BLE.c ****     if(callbackFunc != NULL)
 432:Generated_Source\PSoC4/BLE.c ****     {
 433:Generated_Source\PSoC4/BLE.c ****         CyBle_ApplCallback = callbackFunc;
 434:Generated_Source\PSoC4/BLE.c ****         
 435:Generated_Source\PSoC4/BLE.c ****     #if(CYBLE_SHARING_MODE_EXPORT)
 436:Generated_Source\PSoC4/BLE.c ****         if(cyBle_stackMemoryRam == NULL)
 437:Generated_Source\PSoC4/BLE.c ****         {
 438:Generated_Source\PSoC4/BLE.c ****             cyBle_stackMemoryRam = (uint8 *)malloc(CYBLE_STACK_RAM_SIZE);
 439:Generated_Source\PSoC4/BLE.c ****             if(cyBle_stackMemoryRam == NULL)
 440:Generated_Source\PSoC4/BLE.c ****             {
 441:Generated_Source\PSoC4/BLE.c ****                 apiResult = CYBLE_ERROR_MEMORY_ALLOCATION_FAILED;
 442:Generated_Source\PSoC4/BLE.c ****             }
 443:Generated_Source\PSoC4/BLE.c ****         }
 444:Generated_Source\PSoC4/BLE.c ****     #endif /* CYBLE_SHARING_MODE_EXPORT */
 445:Generated_Source\PSoC4/BLE.c ****         if(apiResult == CYBLE_ERROR_OK)
 446:Generated_Source\PSoC4/BLE.c ****         {
 447:Generated_Source\PSoC4/BLE.c ****             CYBLE_DLE_CONFIG_PARAM_T dleConfigParams;
 448:Generated_Source\PSoC4/BLE.c ****             CYBLE_PRIVACY_1_2_CONFIG_PARAM_T privacyConfigParams;
 449:Generated_Source\PSoC4/BLE.c ****             CYBLE_STACK_CONFIG_PARAM_T stackConfig;
 450:Generated_Source\PSoC4/BLE.c ****             uint16 featureHeapReq;
 451:Generated_Source\PSoC4/BLE.c ****             
 452:Generated_Source\PSoC4/BLE.c ****             stackConfig.privacyConfig = &privacyConfigParams;
 453:Generated_Source\PSoC4/BLE.c ****             stackConfig.dleConfig = &dleConfigParams;
 454:Generated_Source\PSoC4/BLE.c ****             
 455:Generated_Source\PSoC4/BLE.c ****             /* Configure default BLE 4.1 features and enabled 4.2 features */
 456:Generated_Source\PSoC4/BLE.c ****             stackConfig.feature_mask = CYBLE_DLE_FEATURE | CYBLE_LL_PRIVACY_FEATURE | 
 457:Generated_Source\PSoC4/BLE.c ****                                        CYBLE_SECURE_CONN_FEATURE;
 458:Generated_Source\PSoC4/BLE.c **** 
 459:Generated_Source\PSoC4/BLE.c ****             /* Configure DLE */
 460:Generated_Source\PSoC4/BLE.c ****             dleConfigParams.dleMaxTxCapability = CYBLE_LL_MAX_TX_PAYLOAD_SIZE;
 461:Generated_Source\PSoC4/BLE.c ****             dleConfigParams.dleMaxRxCapability = CYBLE_LL_MAX_RX_PAYLOAD_SIZE;
 462:Generated_Source\PSoC4/BLE.c ****             dleConfigParams.dleNumTxBuffer = CYBLE_LL_DEFAULT_NUM_ACL_TX_PACKETS;
 463:Generated_Source\PSoC4/BLE.c ****         #if(CYBLE_DLE_FEATURE_ENABLED)
 464:Generated_Source\PSoC4/BLE.c ****             CyBle_EnableDleFeature();              /* Enable DLE code in stack */
 465:Generated_Source\PSoC4/BLE.c ****         #endif /* CYBLE_DLE_FEATURE_ENABLED */
 466:Generated_Source\PSoC4/BLE.c ****         
 467:Generated_Source\PSoC4/BLE.c ****             /* Configure LL Privacy */
 468:Generated_Source\PSoC4/BLE.c ****             privacyConfigParams.resolvingListSize = CYBLE_MAX_RESOLVABLE_DEVICES;
 469:Generated_Source\PSoC4/BLE.c ****         #if(CYBLE_LL_PRIVACY_FEATURE_ENABLED)
 470:Generated_Source\PSoC4/BLE.c ****             CyBle_EnablePrivacyFeature();          /* Enable LL Privacy code in stack */
 471:Generated_Source\PSoC4/BLE.c ****         #endif /* CYBLE_LL_PRIVACY_FEATURE_ENABLED */
 472:Generated_Source\PSoC4/BLE.c **** 
 473:Generated_Source\PSoC4/BLE.c ****             apiResult = CyBle_StackSetFeatureConfig(&stackConfig, &featureHeapReq);
 474:Generated_Source\PSoC4/BLE.c ****             }
 475:Generated_Source\PSoC4/BLE.c ****     
 476:Generated_Source\PSoC4/BLE.c ****         if(apiResult == CYBLE_ERROR_OK)
 477:Generated_Source\PSoC4/BLE.c ****         {
 478:Generated_Source\PSoC4/BLE.c ****         
 479:Generated_Source\PSoC4/BLE.c ****         #if(CYBLE_MODE_PROFILE)
 480:Generated_Source\PSoC4/BLE.c ****             #if(CYBLE_BONDING_REQUIREMENT == CYBLE_BONDING_YES)
 481:Generated_Source\PSoC4/BLE.c ****                 apiResult = CyBle_StackInit(&CyBle_EventHandler, cyBle_stackMemoryRam, 
 482:Generated_Source\PSoC4/BLE.c ****                     CYBLE_STACK_RAM_SIZE - CYBLE_GATT_PREPARE_WRITE_BUFF_LEN, cyBle_stackDataBuff, 
 483:Generated_Source\PSoC4/BLE.c ****                     CYBLE_STACK_APP_MIN_POOL, cyBle_flashStorage.stackFlashptr, CYBLE_STACK_FLASH_S
 484:Generated_Source\PSoC4/BLE.c ****             #else
 485:Generated_Source\PSoC4/BLE.c ****                 apiResult = CyBle_StackInit(&CyBle_EventHandler, cyBle_stackMemoryRam, 
 486:Generated_Source\PSoC4/BLE.c ****                     CYBLE_STACK_RAM_SIZE - CYBLE_GATT_PREPARE_WRITE_BUFF_LEN, cyBle_stackDataBuff, 
 487:Generated_Source\PSoC4/BLE.c ****                     CYBLE_STACK_APP_MIN_POOL, NULL, 0u);
ARM GAS  C:\Users\Intern\AppData\Local\Temp\ccD9JYVi.s 			page 10


 488:Generated_Source\PSoC4/BLE.c ****             #endif  /* CYBLE_BONDING_REQUIREMENT == CYBLE_BONDING_YES */
 489:Generated_Source\PSoC4/BLE.c ****         #else /* HCI mode */
 490:Generated_Source\PSoC4/BLE.c ****             /* The following will perform preparation to use HCI over UART or over
 491:Generated_Source\PSoC4/BLE.c ****                software. But the following fucntions will not initialize the HCI
 492:Generated_Source\PSoC4/BLE.c ****                Transport. This will be done as part of Stack initialization, so
 493:Generated_Source\PSoC4/BLE.c ****                the functions should be called prior CyBle_StackInit().
 494:Generated_Source\PSoC4/BLE.c ****             */
 495:Generated_Source\PSoC4/BLE.c ****             #if (CYBLE_HCI_TYPE == CYBLE_HCI_OVER_UART)
 496:Generated_Source\PSoC4/BLE.c ****                 CyBle_HciUartTransportEnable();
 497:Generated_Source\PSoC4/BLE.c ****             #else
 498:Generated_Source\PSoC4/BLE.c ****                 CyBle_HciSoftTransportEnable();
 499:Generated_Source\PSoC4/BLE.c ****             #endif /* (CYBLE_HCI_TYPE == CYBLE_HCI_OVER_UART) */
 500:Generated_Source\PSoC4/BLE.c ****             /* This will initialize BLE stack for HCI mode operation */
 501:Generated_Source\PSoC4/BLE.c ****             apiResult = CyBle_StackInit(&CyBle_EventHandler, cyBle_stackMemoryRam, CYBLE_STACK_RAM_
 502:Generated_Source\PSoC4/BLE.c ****                 NULL, 0u, NULL, 0u);
 503:Generated_Source\PSoC4/BLE.c ****         #endif /* CYBLE_MODE_PROFILE */
 504:Generated_Source\PSoC4/BLE.c **** 
 505:Generated_Source\PSoC4/BLE.c ****             if(apiResult == CYBLE_ERROR_OK)
 506:Generated_Source\PSoC4/BLE.c ****             {
 507:Generated_Source\PSoC4/BLE.c ****                 CyBle_SetState(CYBLE_STATE_INITIALIZING);
 508:Generated_Source\PSoC4/BLE.c ****                 
 509:Generated_Source\PSoC4/BLE.c ****             #if (CYBLE_GATT_ROLE_CLIENT)
 510:Generated_Source\PSoC4/BLE.c ****                 CyBle_SetClientState(CYBLE_CLIENT_STATE_DISCONNECTED);
 511:Generated_Source\PSoC4/BLE.c ****             #endif /* CYBLE_GATT_ROLE_CLIENT */
 512:Generated_Source\PSoC4/BLE.c ****                 
 513:Generated_Source\PSoC4/BLE.c ****             #if(CYBLE_GATT_ROLE_SERVER)
 514:Generated_Source\PSoC4/BLE.c ****                 apiResult = CyBle_GattsDbRegister(cyBle_gattDB, CYBLE_GATT_DB_INDEX_COUNT, CYBLE_GA
 515:Generated_Source\PSoC4/BLE.c ****             #endif /* CYBLE_GATT_ROLE_SERVER */
 516:Generated_Source\PSoC4/BLE.c ****             }
 517:Generated_Source\PSoC4/BLE.c ****         }
 518:Generated_Source\PSoC4/BLE.c ****     }
 519:Generated_Source\PSoC4/BLE.c ****     else
 520:Generated_Source\PSoC4/BLE.c ****     {
 521:Generated_Source\PSoC4/BLE.c ****         apiResult = CYBLE_ERROR_INVALID_PARAMETER;
 522:Generated_Source\PSoC4/BLE.c ****     }
 523:Generated_Source\PSoC4/BLE.c **** 
 524:Generated_Source\PSoC4/BLE.c ****     return (apiResult);
 525:Generated_Source\PSoC4/BLE.c **** }
 526:Generated_Source\PSoC4/BLE.c **** 
 527:Generated_Source\PSoC4/BLE.c **** 
 528:Generated_Source\PSoC4/BLE.c **** /******************************************************************************
 529:Generated_Source\PSoC4/BLE.c **** * Function Name: CyBle_Stop
 530:Generated_Source\PSoC4/BLE.c **** ***************************************************************************//**
 531:Generated_Source\PSoC4/BLE.c **** * 
 532:Generated_Source\PSoC4/BLE.c **** *  This function stops any ongoing operation in the BLE Stack and forces the 
 533:Generated_Source\PSoC4/BLE.c **** *  BLE Stack to shut down. The only function that can be called after calling
 534:Generated_Source\PSoC4/BLE.c **** *  this function is CyBle_Start(). 
 535:Generated_Source\PSoC4/BLE.c **** * 
 536:Generated_Source\PSoC4/BLE.c **** * \return
 537:Generated_Source\PSoC4/BLE.c **** *  None
 538:Generated_Source\PSoC4/BLE.c **** * 
 539:Generated_Source\PSoC4/BLE.c **** ******************************************************************************/
 540:Generated_Source\PSoC4/BLE.c **** void CyBle_Stop(void)
 541:Generated_Source\PSoC4/BLE.c **** {
 542:Generated_Source\PSoC4/BLE.c ****     CyBle_Shutdown();                         /* Stop all ongoing activities */
 543:Generated_Source\PSoC4/BLE.c ****     CyBle_SetState(CYBLE_STATE_STOPPED);
 544:Generated_Source\PSoC4/BLE.c ****     #if(CYBLE_SHARING_MODE_EXPORT)
ARM GAS  C:\Users\Intern\AppData\Local\Temp\ccD9JYVi.s 			page 11


 545:Generated_Source\PSoC4/BLE.c ****         if(cyBle_stackMemoryRam != NULL)
 546:Generated_Source\PSoC4/BLE.c ****         {
 547:Generated_Source\PSoC4/BLE.c ****             free(cyBle_stackMemoryRam);
 548:Generated_Source\PSoC4/BLE.c ****         }
 549:Generated_Source\PSoC4/BLE.c ****     #endif /* CYBLE_SHARING_MODE_EXPORT */
 550:Generated_Source\PSoC4/BLE.c **** }
 551:Generated_Source\PSoC4/BLE.c **** 
 552:Generated_Source\PSoC4/BLE.c **** 
 553:Generated_Source\PSoC4/BLE.c **** #if((CYBLE_GAP_ROLE_PERIPHERAL || CYBLE_GAP_ROLE_CENTRAL) && (CYBLE_BONDING_REQUIREMENT == CYBLE_BO
 554:Generated_Source\PSoC4/BLE.c **** 
 555:Generated_Source\PSoC4/BLE.c ****     
 556:Generated_Source\PSoC4/BLE.c **** /******************************************************************************
 557:Generated_Source\PSoC4/BLE.c **** * Function Name: CyBle_StoreBondingData
 558:Generated_Source\PSoC4/BLE.c **** ***************************************************************************//**
 559:Generated_Source\PSoC4/BLE.c **** * 
 560:Generated_Source\PSoC4/BLE.c **** *  This function writes the new bonding data from RAM to the dedicated Flash 
 561:Generated_Source\PSoC4/BLE.c **** *  location as defined by the component. It performs data comparing between RAM
 562:Generated_Source\PSoC4/BLE.c **** *  and Flash before writing to Flash. If there is no change between RAM and Flash
 563:Generated_Source\PSoC4/BLE.c **** *  data, then no write is performed. It writes only one flash row in one call.
 564:Generated_Source\PSoC4/BLE.c **** *  Application should keep calling this function till it return CYBLE_ERROR_OK. 
 565:Generated_Source\PSoC4/BLE.c **** *  This function is available only when Bonding requirement is selected in
 566:Generated_Source\PSoC4/BLE.c **** *  Security settings.    
 567:Generated_Source\PSoC4/BLE.c **** * 
 568:Generated_Source\PSoC4/BLE.c **** *  \param isForceWrite:  If value is set to 0, then stack will check if flash write 
 569:Generated_Source\PSoC4/BLE.c **** *                 is permissible. 
 570:Generated_Source\PSoC4/BLE.c **** *  
 571:Generated_Source\PSoC4/BLE.c **** * \return
 572:Generated_Source\PSoC4/BLE.c **** *  Return value is of type CYBLE_API_RESULT_T.
 573:Generated_Source\PSoC4/BLE.c **** *
 574:Generated_Source\PSoC4/BLE.c **** *   Errors codes                         | Description
 575:Generated_Source\PSoC4/BLE.c **** *   ----------------------------------   | ------------------------------------
 576:Generated_Source\PSoC4/BLE.c **** *   CYBLE_ERROR_OK                       | On successful operation
 577:Generated_Source\PSoC4/BLE.c **** *   CYBLE_ERROR_FLASH_WRITE_NOT_PERMITED | Flash Write is not complete
 578:Generated_Source\PSoC4/BLE.c **** *   CYBLE_ERROR_INVALID_PARAMETER        | Invalid input parameter  
 579:Generated_Source\PSoC4/BLE.c **** *   CYBLE_ERROR_FLASH_WRITE              | Error in flash Write	
 580:Generated_Source\PSoC4/BLE.c ****     
 581:Generated_Source\PSoC4/BLE.c **** *  \sideeffect
 582:Generated_Source\PSoC4/BLE.c **** *   For BLE devices with 128K of Flash memory this function will automatically 
 583:Generated_Source\PSoC4/BLE.c **** *   modify the clock settings for the device.
 584:Generated_Source\PSoC4/BLE.c **** *   Writing to flash requires changes to be done to the IMO (set to 48 MHz)
 585:Generated_Source\PSoC4/BLE.c **** *   and HFCLK (source set to IMO) settings. The configuration is restored before
 586:Generated_Source\PSoC4/BLE.c **** *   returning. This will impact the operation of most of the hardware in the
 587:Generated_Source\PSoC4/BLE.c **** *   device.
 588:Generated_Source\PSoC4/BLE.c **** * 
 589:Generated_Source\PSoC4/BLE.c **** *  \globalvars
 590:Generated_Source\PSoC4/BLE.c **** *   The cyBle_pendingFlashWrite variable is used to detect status
 591:Generated_Source\PSoC4/BLE.c **** *   of pending write to flash operation for stack data and CCCD.
 592:Generated_Source\PSoC4/BLE.c **** *   This function automatically clears pending bits after write operation 
 593:Generated_Source\PSoC4/BLE.c **** *   complete.
 594:Generated_Source\PSoC4/BLE.c **** *     
 595:Generated_Source\PSoC4/BLE.c **** ******************************************************************************/
 596:Generated_Source\PSoC4/BLE.c **** CYBLE_API_RESULT_T CyBle_StoreBondingData(uint8 isForceWrite)
 597:Generated_Source\PSoC4/BLE.c **** {
 598:Generated_Source\PSoC4/BLE.c ****     CYBLE_API_RESULT_T apiResult = CYBLE_ERROR_OK;
 599:Generated_Source\PSoC4/BLE.c ****     
 600:Generated_Source\PSoC4/BLE.c ****     /* Store Stack data */
 601:Generated_Source\PSoC4/BLE.c ****     if((cyBle_pendingFlashWrite & CYBLE_PENDING_STACK_FLASH_WRITE_BIT) != 0u)
ARM GAS  C:\Users\Intern\AppData\Local\Temp\ccD9JYVi.s 			page 12


 602:Generated_Source\PSoC4/BLE.c ****     {
 603:Generated_Source\PSoC4/BLE.c ****         apiResult = CyBle_StoreStackData(isForceWrite);
 604:Generated_Source\PSoC4/BLE.c ****         if(apiResult == CYBLE_ERROR_OK)
 605:Generated_Source\PSoC4/BLE.c ****         {
 606:Generated_Source\PSoC4/BLE.c ****             cyBle_pendingFlashWrite &= (uint8)~CYBLE_PENDING_STACK_FLASH_WRITE_BIT;
 607:Generated_Source\PSoC4/BLE.c ****             /* Change apiResult if there are more pending data to store */
 608:Generated_Source\PSoC4/BLE.c ****             if((cyBle_pendingFlashWrite & CYBLE_PENDING_CCCD_FLASH_WRITE_BIT) != 0u)
 609:Generated_Source\PSoC4/BLE.c ****             {
 610:Generated_Source\PSoC4/BLE.c ****                 apiResult = CYBLE_ERROR_FLASH_WRITE_NOT_PERMITED;
 611:Generated_Source\PSoC4/BLE.c ****             }
 612:Generated_Source\PSoC4/BLE.c ****         }
 613:Generated_Source\PSoC4/BLE.c ****     }
 614:Generated_Source\PSoC4/BLE.c **** #if(CYBLE_GATT_DB_CCCD_COUNT != 0u)
 615:Generated_Source\PSoC4/BLE.c ****     /* Store CCCD values */
 616:Generated_Source\PSoC4/BLE.c ****     if( ((apiResult == CYBLE_ERROR_OK) || (isForceWrite != 0u)) && 
 617:Generated_Source\PSoC4/BLE.c ****         ((cyBle_pendingFlashWrite & CYBLE_PENDING_CCCD_FLASH_WRITE_BIT) != 0u) &&
 618:Generated_Source\PSoC4/BLE.c ****         (cyBle_connHandle.bdHandle <= CYBLE_GAP_MAX_BONDED_DEVICE))
 619:Generated_Source\PSoC4/BLE.c ****     {
 620:Generated_Source\PSoC4/BLE.c ****         apiResult = CyBle_StoreAppData(cyBle_attValuesCCCD, cyBle_flashStorage.attValuesCCCDFlashMe
 621:Generated_Source\PSoC4/BLE.c ****                         cyBle_connHandle.bdHandle], CYBLE_GATT_DB_CCCD_COUNT, isForceWrite);
 622:Generated_Source\PSoC4/BLE.c ****         if(apiResult == CYBLE_ERROR_OK)
 623:Generated_Source\PSoC4/BLE.c ****         {
 624:Generated_Source\PSoC4/BLE.c ****             cyBle_pendingFlashWrite &= (uint8)~CYBLE_PENDING_CCCD_FLASH_WRITE_BIT;
 625:Generated_Source\PSoC4/BLE.c ****         }
 626:Generated_Source\PSoC4/BLE.c ****     }
 627:Generated_Source\PSoC4/BLE.c ****     /* Clear requested CCCD values */
 628:Generated_Source\PSoC4/BLE.c ****     if( ((apiResult == CYBLE_ERROR_OK) || (isForceWrite != 0u)) && 
 629:Generated_Source\PSoC4/BLE.c ****         ((cyBle_pendingFlashWrite & CYBLE_PENDING_CCCD_FLASH_CLEAR_MASK) != 0u) )
 630:Generated_Source\PSoC4/BLE.c ****     {
 631:Generated_Source\PSoC4/BLE.c ****         if((cyBle_pendingFlashWrite & CYBLE_PENDING_CCCD_FLASH_CLEAR_ALL_BIT) != 0u)
 632:Generated_Source\PSoC4/BLE.c ****         {
 633:Generated_Source\PSoC4/BLE.c ****             /* Remove cccd values for all bonded devices */
 634:Generated_Source\PSoC4/BLE.c ****             uint8 defaultValuesCCCD[CYBLE_GAP_MAX_BONDED_DEVICE + 1u][CYBLE_GATT_DB_CCCD_COUNT];
 635:Generated_Source\PSoC4/BLE.c ****             
 636:Generated_Source\PSoC4/BLE.c ****             (void)memset(defaultValuesCCCD, 0, sizeof(defaultValuesCCCD));
 637:Generated_Source\PSoC4/BLE.c **** 
 638:Generated_Source\PSoC4/BLE.c ****             apiResult = CyBle_StoreAppData((uint8 *)defaultValuesCCCD, 
 639:Generated_Source\PSoC4/BLE.c ****                 (const uint8 *)cyBle_flashStorage.attValuesCCCDFlashMemory, sizeof(defaultValuesCCC
 640:Generated_Source\PSoC4/BLE.c ****             if(apiResult == CYBLE_ERROR_OK)
 641:Generated_Source\PSoC4/BLE.c ****             {
 642:Generated_Source\PSoC4/BLE.c ****                 cyBle_pendingFlashWrite &= (uint8)~CYBLE_PENDING_CCCD_FLASH_CLEAR_ALL_BIT;
 643:Generated_Source\PSoC4/BLE.c ****             }
 644:Generated_Source\PSoC4/BLE.c ****         }
 645:Generated_Source\PSoC4/BLE.c ****         else /* Remove cccd values for particular device */
 646:Generated_Source\PSoC4/BLE.c ****         {
 647:Generated_Source\PSoC4/BLE.c ****             uint8 defaultValuesCCCD[CYBLE_GATT_DB_CCCD_COUNT] = {0u};
 648:Generated_Source\PSoC4/BLE.c ****             
 649:Generated_Source\PSoC4/BLE.c ****             apiResult = CyBle_StoreAppData(defaultValuesCCCD, cyBle_flashStorage.attValuesCCCDFlash
 650:Generated_Source\PSoC4/BLE.c ****                                     cyBle_pendingFlashClearCccdHandle], CYBLE_GATT_DB_CCCD_COUNT, i
 651:Generated_Source\PSoC4/BLE.c ****             if(apiResult == CYBLE_ERROR_OK)
 652:Generated_Source\PSoC4/BLE.c ****             {
 653:Generated_Source\PSoC4/BLE.c ****                 cyBle_pendingFlashWrite &= (uint8)~CYBLE_PENDING_CCCD_FLASH_CLEAR_BIT;
 654:Generated_Source\PSoC4/BLE.c ****             }
 655:Generated_Source\PSoC4/BLE.c ****         }
 656:Generated_Source\PSoC4/BLE.c ****     }
 657:Generated_Source\PSoC4/BLE.c **** #endif /* CYBLE_GATT_DB_CCCD_COUNT != 0u */
 658:Generated_Source\PSoC4/BLE.c ****     return(apiResult);
ARM GAS  C:\Users\Intern\AppData\Local\Temp\ccD9JYVi.s 			page 13


 659:Generated_Source\PSoC4/BLE.c **** }
 660:Generated_Source\PSoC4/BLE.c **** 
 661:Generated_Source\PSoC4/BLE.c **** 
 662:Generated_Source\PSoC4/BLE.c **** /******************************************************************************
 663:Generated_Source\PSoC4/BLE.c **** * Function Name: CyBle_GapRemoveBondedDevice
 664:Generated_Source\PSoC4/BLE.c **** ***************************************************************************//**
 665:Generated_Source\PSoC4/BLE.c **** * 
 666:Generated_Source\PSoC4/BLE.c **** *  This function marks the device untrusted. It removes the bonding information
 667:Generated_Source\PSoC4/BLE.c **** *  of the device including CCCD values. This function removes device from the
 668:Generated_Source\PSoC4/BLE.c **** *  white list also when autopopulate white list with bonded devices option is
 669:Generated_Source\PSoC4/BLE.c **** *  enabled.
 670:Generated_Source\PSoC4/BLE.c **** * 
 671:Generated_Source\PSoC4/BLE.c **** *  This function is available only when Bonding requirement is selected in
 672:Generated_Source\PSoC4/BLE.c **** *  Security settings.    
 673:Generated_Source\PSoC4/BLE.c **** *
 674:Generated_Source\PSoC4/BLE.c **** *  \param bdAddr: Pointer to peer device address, of type CYBLE_GAP_BD_ADDR_T.
 675:Generated_Source\PSoC4/BLE.c **** *                 If device address is set to 0, then all devices shall be
 676:Generated_Source\PSoC4/BLE.c **** *                 removed from trusted list and white list.
 677:Generated_Source\PSoC4/BLE.c **** *
 678:Generated_Source\PSoC4/BLE.c **** * \return
 679:Generated_Source\PSoC4/BLE.c **** *  CYBLE_API_RESULT_T : Return value indicates if the function succeeded or
 680:Generated_Source\PSoC4/BLE.c **** *  failed. Following are the possible error codes.
 681:Generated_Source\PSoC4/BLE.c **** *
 682:Generated_Source\PSoC4/BLE.c **** *   Errors codes                     | Description
 683:Generated_Source\PSoC4/BLE.c **** *   ---------------------------------| ------------------------------------
 684:Generated_Source\PSoC4/BLE.c **** *   CYBLE_ERROR_OK                   | On successful operation.
 685:Generated_Source\PSoC4/BLE.c **** *   CYBLE_ERROR_INVALID_PARAMETER    | On specifying NULL as input parameter for 'bdAddr'.
 686:Generated_Source\PSoC4/BLE.c **** *   CYBLE_ERROR_INVALID_OPERATION    | Whitelist is already in use or there is pending write to fla
 687:Generated_Source\PSoC4/BLE.c **** *   CYBLE_ERROR_NO_DEVICE_ENTITY     | Device does not exist in the bond list.
 688:Generated_Source\PSoC4/BLE.c **** *
 689:Generated_Source\PSoC4/BLE.c **** *  \globalvars
 690:Generated_Source\PSoC4/BLE.c **** *   The bdHandle is set in cyBle_pendingFlashWrite variable to indicate that
 691:Generated_Source\PSoC4/BLE.c **** *   data should be stored to flash by CyBle_StoreBondingData() afterwards. 
 692:Generated_Source\PSoC4/BLE.c **** *     
 693:Generated_Source\PSoC4/BLE.c **** ******************************************************************************/
 694:Generated_Source\PSoC4/BLE.c **** CYBLE_API_RESULT_T CyBle_GapRemoveBondedDevice(CYBLE_GAP_BD_ADDR_T* bdAddr)
 695:Generated_Source\PSoC4/BLE.c **** {
 696:Generated_Source\PSoC4/BLE.c ****     CYBLE_API_RESULT_T apiResult = CYBLE_ERROR_OK;
 697:Generated_Source\PSoC4/BLE.c ****     
 698:Generated_Source\PSoC4/BLE.c ****     if(cyBle_pendingFlashWrite == 0u)
 699:Generated_Source\PSoC4/BLE.c ****     {
 700:Generated_Source\PSoC4/BLE.c ****         
 701:Generated_Source\PSoC4/BLE.c ****     #if(CYBLE_GATT_DB_CCCD_COUNT != 0u)
 702:Generated_Source\PSoC4/BLE.c ****         /* Request to clear CCCD values which will be done by CyBle_StoreBondingData() */
 703:Generated_Source\PSoC4/BLE.c ****         uint8 bDevHandle;
 704:Generated_Source\PSoC4/BLE.c ****         CYBLE_GAP_BD_ADDR_T invalidBdAddr = {{0u,0u,0u,0u,0u,0u}, 0u};
 705:Generated_Source\PSoC4/BLE.c **** 
 706:Generated_Source\PSoC4/BLE.c ****         if(memcmp(((uint8 *) &(bdAddr->bdAddr)), ((uint8 *) &(invalidBdAddr.bdAddr)), CYBLE_GAP_BD_
 707:Generated_Source\PSoC4/BLE.c **** 	    {
 708:Generated_Source\PSoC4/BLE.c ****             /* Request to remove all bonded devices by CyBle_StoreBondingData() */
 709:Generated_Source\PSoC4/BLE.c ****             cyBle_pendingFlashWrite |= CYBLE_PENDING_CCCD_FLASH_CLEAR_ALL_BIT;
 710:Generated_Source\PSoC4/BLE.c ****         }
 711:Generated_Source\PSoC4/BLE.c ****         else
 712:Generated_Source\PSoC4/BLE.c ****         {
 713:Generated_Source\PSoC4/BLE.c ****             /* Get the BD handle from Address */
 714:Generated_Source\PSoC4/BLE.c ****             apiResult = CyBle_GapGetPeerBdHandle(&bDevHandle, bdAddr);
 715:Generated_Source\PSoC4/BLE.c ****             if(apiResult == CYBLE_ERROR_OK)
ARM GAS  C:\Users\Intern\AppData\Local\Temp\ccD9JYVi.s 			page 14


 716:Generated_Source\PSoC4/BLE.c ****             {
 717:Generated_Source\PSoC4/BLE.c ****                 /* Store BD handle to clear cccd values by CyBle_StoreBondingData() */
 718:Generated_Source\PSoC4/BLE.c ****                 cyBle_pendingFlashWrite |= CYBLE_PENDING_CCCD_FLASH_CLEAR_BIT;
 719:Generated_Source\PSoC4/BLE.c ****                 cyBle_pendingFlashClearCccdHandle = bDevHandle;
 720:Generated_Source\PSoC4/BLE.c ****             }
 721:Generated_Source\PSoC4/BLE.c ****         }
 722:Generated_Source\PSoC4/BLE.c ****     #endif /* CYBLE_GATT_DB_CCCD_COUNT != 0u */
 723:Generated_Source\PSoC4/BLE.c ****         if(apiResult == CYBLE_ERROR_OK)
 724:Generated_Source\PSoC4/BLE.c ****         {
 725:Generated_Source\PSoC4/BLE.c ****             apiResult = CyBle_GapRemoveDeviceFromWhiteList(bdAddr);
 726:Generated_Source\PSoC4/BLE.c ****         }
 727:Generated_Source\PSoC4/BLE.c ****     }
 728:Generated_Source\PSoC4/BLE.c ****     else
 729:Generated_Source\PSoC4/BLE.c ****     {
 730:Generated_Source\PSoC4/BLE.c ****         apiResult = CYBLE_ERROR_INVALID_OPERATION;
 731:Generated_Source\PSoC4/BLE.c ****     }
 732:Generated_Source\PSoC4/BLE.c ****     
 733:Generated_Source\PSoC4/BLE.c ****     return(apiResult);
 734:Generated_Source\PSoC4/BLE.c **** }
 735:Generated_Source\PSoC4/BLE.c **** 
 736:Generated_Source\PSoC4/BLE.c **** 
 737:Generated_Source\PSoC4/BLE.c **** #endif /* (CYBLE_GAP_ROLE_PERIPHERAL || CYBLE_GAP_ROLE_CENTRAL) && (CYBLE_BONDING_REQUIREMENT == CY
 738:Generated_Source\PSoC4/BLE.c **** 
 739:Generated_Source\PSoC4/BLE.c **** 
 740:Generated_Source\PSoC4/BLE.c **** #if(CYBLE_GAP_ROLE_PERIPHERAL || CYBLE_GAP_ROLE_BROADCASTER)
 741:Generated_Source\PSoC4/BLE.c **** 
 742:Generated_Source\PSoC4/BLE.c ****     /******************************************************************************
 743:Generated_Source\PSoC4/BLE.c ****     *  Function Name: CyBle_GappStartAdvertisement
 744:Generated_Source\PSoC4/BLE.c ****     ***************************************************************************//**
 745:Generated_Source\PSoC4/BLE.c ****     *     
 746:Generated_Source\PSoC4/BLE.c ****     *  This function is used to start the advertisement using the advertisement data 
 747:Generated_Source\PSoC4/BLE.c ****     *  set in the component customizer's GUI. After invoking this function, the 
 748:Generated_Source\PSoC4/BLE.c ****     *  device will be available for connection by the devices configured for GAP 
 749:Generated_Source\PSoC4/BLE.c ****     *  central role. It is only included if the device is configured for GAP 
 750:Generated_Source\PSoC4/BLE.c ****     *  Peripheral or GAP Peripheral + Central role.
 751:Generated_Source\PSoC4/BLE.c ****     *  
 752:Generated_Source\PSoC4/BLE.c ****     *  On start of advertisement, GAP Peripheral receives the
 753:Generated_Source\PSoC4/BLE.c ****     *  CYBLE_EVT_GAPP_ADVERTISEMENT_START_STOP event. The following events are 
 754:Generated_Source\PSoC4/BLE.c ****     *  possible on invoking this function:
 755:Generated_Source\PSoC4/BLE.c ****     *  
 756:Generated_Source\PSoC4/BLE.c ****     *  * CYBLE_EVT_GAP_DEVICE_CONNECTED - If the device connects to a GAP Central and 
 757:Generated_Source\PSoC4/BLE.c ****     *    Link Layer Privacy is disabled in component customizer.
 758:Generated_Source\PSoC4/BLE.c ****     *  * CYBLE_EVT_GAP_ENHANCE_CONN_COMPLETE - If the device connects to a GAP Central and 
 759:Generated_Source\PSoC4/BLE.c ****     *    Link Layer Privacy is enabled in component customizer.
 760:Generated_Source\PSoC4/BLE.c ****     *  * CYBLE_EVT_TIMEOUT: If no device in GAP Central mode connects to this 
 761:Generated_Source\PSoC4/BLE.c ****     *                       device within the specified timeout limit. Stack 
 762:Generated_Source\PSoC4/BLE.c ****     *                       automatically initiate stop advertising when Slow 
 763:Generated_Source\PSoC4/BLE.c ****     *                       advertising was initiated, or starts Slow advertising
 764:Generated_Source\PSoC4/BLE.c ****     *                       after Fast advertising timeout occur.
 765:Generated_Source\PSoC4/BLE.c ****     *  * CYBLE_EVT_GAPP_ADVERTISEMENT_START_STOP: If device started or stopped
 766:Generated_Source\PSoC4/BLE.c ****     *                                               advertising. Use CyBle_GetState()
 767:Generated_Source\PSoC4/BLE.c ****     *                                               to determine the state. Sequential 
 768:Generated_Source\PSoC4/BLE.c ****     *                                               advertising could be started when
 769:Generated_Source\PSoC4/BLE.c ****     *                                               CYBLE_STATE_DISCONNECTED state is
 770:Generated_Source\PSoC4/BLE.c ****     *                                               returned.
 771:Generated_Source\PSoC4/BLE.c ****     * 
 772:Generated_Source\PSoC4/BLE.c ****     *  \param advertisingIntervalType: Fast or slow advertising interval with timings
ARM GAS  C:\Users\Intern\AppData\Local\Temp\ccD9JYVi.s 			page 15


 773:Generated_Source\PSoC4/BLE.c ****     *                                 entered in Advertising settings section of the
 774:Generated_Source\PSoC4/BLE.c ****     *                                 customizer.
 775:Generated_Source\PSoC4/BLE.c ****     *  * CYBLE_ADVERTISING_FAST   0x00u
 776:Generated_Source\PSoC4/BLE.c ****     *  * CYBLE_ADVERTISING_SLOW   0x01u
 777:Generated_Source\PSoC4/BLE.c ****     *  * CYBLE_ADVERTISING_CUSTOM 0x02u
 778:Generated_Source\PSoC4/BLE.c ****     * 
 779:Generated_Source\PSoC4/BLE.c ****     * \return
 780:Generated_Source\PSoC4/BLE.c ****     *  CYBLE_API_RESULT_T : Return value indicates if the function succeeded or
 781:Generated_Source\PSoC4/BLE.c ****     *  failed. Following are the possible error codes.
 782:Generated_Source\PSoC4/BLE.c ****     * 
 783:Generated_Source\PSoC4/BLE.c ****     *   Errors codes                      |  Description
 784:Generated_Source\PSoC4/BLE.c ****     *   --------------------------------- |  --------------------------------
 785:Generated_Source\PSoC4/BLE.c ****     *   CYBLE_ERROR_OK                    |  On successful operation.
 786:Generated_Source\PSoC4/BLE.c ****     *   CYBLE_ERROR_INVALID_PARAMETER     |  On passing an invalid parameter.
 787:Generated_Source\PSoC4/BLE.c ****     *   CYBLE_ERROR_INVALID_STATE         |  On calling this function not in Disconnected state.
 788:Generated_Source\PSoC4/BLE.c ****     *
 789:Generated_Source\PSoC4/BLE.c ****     * 
 790:Generated_Source\PSoC4/BLE.c ****     *******************************************************************************/
 791:Generated_Source\PSoC4/BLE.c ****     CYBLE_API_RESULT_T CyBle_GappStartAdvertisement(uint8 advertisingIntervalType)
 792:Generated_Source\PSoC4/BLE.c ****     {
 793:Generated_Source\PSoC4/BLE.c ****         CYBLE_API_RESULT_T apiResult;
 794:Generated_Source\PSoC4/BLE.c ****         
 795:Generated_Source\PSoC4/BLE.c ****         if(advertisingIntervalType > CYBLE_ADVERTISING_CUSTOM)
 796:Generated_Source\PSoC4/BLE.c ****         {
 797:Generated_Source\PSoC4/BLE.c ****             apiResult = CYBLE_ERROR_INVALID_PARAMETER;
 798:Generated_Source\PSoC4/BLE.c ****         }
 799:Generated_Source\PSoC4/BLE.c ****         else if((CYBLE_STATE_DISCONNECTED == CyBle_GetState()) && ((cyBle_eventHandlerFlag & CYBLE_
 800:Generated_Source\PSoC4/BLE.c ****         {   
 801:Generated_Source\PSoC4/BLE.c ****             if(advertisingIntervalType == CYBLE_ADVERTISING_FAST)
 802:Generated_Source\PSoC4/BLE.c ****             {
 803:Generated_Source\PSoC4/BLE.c ****                 cyBle_discoveryModeInfo.advTo = CYBLE_FAST_ADV_TIMEOUT;
 804:Generated_Source\PSoC4/BLE.c ****                 cyBle_discoveryModeInfo.advParam->advIntvMin = CYBLE_FAST_ADV_INT_MIN;
 805:Generated_Source\PSoC4/BLE.c ****                 cyBle_discoveryModeInfo.advParam->advIntvMax = CYBLE_FAST_ADV_INT_MAX;
 806:Generated_Source\PSoC4/BLE.c ****             }
 807:Generated_Source\PSoC4/BLE.c ****             else if(advertisingIntervalType == CYBLE_ADVERTISING_SLOW)
 808:Generated_Source\PSoC4/BLE.c ****             {
 809:Generated_Source\PSoC4/BLE.c ****                 cyBle_discoveryModeInfo.advTo = CYBLE_SLOW_ADV_TIMEOUT;
 810:Generated_Source\PSoC4/BLE.c ****                 cyBle_discoveryModeInfo.advParam->advIntvMin = CYBLE_SLOW_ADV_INT_MIN;
 811:Generated_Source\PSoC4/BLE.c ****                 cyBle_discoveryModeInfo.advParam->advIntvMax = CYBLE_SLOW_ADV_INT_MAX;
 812:Generated_Source\PSoC4/BLE.c ****             }       
 813:Generated_Source\PSoC4/BLE.c ****             else /* Do not update advertising intervals */
 814:Generated_Source\PSoC4/BLE.c ****             {
 815:Generated_Source\PSoC4/BLE.c ****             }
 816:Generated_Source\PSoC4/BLE.c ****             cyBle_advertisingIntervalType = advertisingIntervalType;
 817:Generated_Source\PSoC4/BLE.c ****             apiResult = CyBle_GappEnterDiscoveryMode(&cyBle_discoveryModeInfo);
 818:Generated_Source\PSoC4/BLE.c ****         
 819:Generated_Source\PSoC4/BLE.c ****             if(apiResult == CYBLE_ERROR_OK)
 820:Generated_Source\PSoC4/BLE.c ****             {
 821:Generated_Source\PSoC4/BLE.c ****                 cyBle_eventHandlerFlag |= CYBLE_START_FLAG;
 822:Generated_Source\PSoC4/BLE.c ****             }
 823:Generated_Source\PSoC4/BLE.c ****         }
 824:Generated_Source\PSoC4/BLE.c ****         else
 825:Generated_Source\PSoC4/BLE.c ****         {
 826:Generated_Source\PSoC4/BLE.c ****             apiResult = CYBLE_ERROR_INVALID_STATE;
 827:Generated_Source\PSoC4/BLE.c ****         }
 828:Generated_Source\PSoC4/BLE.c **** 
 829:Generated_Source\PSoC4/BLE.c ****         return (apiResult);
ARM GAS  C:\Users\Intern\AppData\Local\Temp\ccD9JYVi.s 			page 16


 830:Generated_Source\PSoC4/BLE.c ****     }
 831:Generated_Source\PSoC4/BLE.c **** 
 832:Generated_Source\PSoC4/BLE.c ****     
 833:Generated_Source\PSoC4/BLE.c ****     /******************************************************************************
 834:Generated_Source\PSoC4/BLE.c ****     * Function Name: CyBle_GappStopAdvertisement
 835:Generated_Source\PSoC4/BLE.c ****     ***************************************************************************//**
 836:Generated_Source\PSoC4/BLE.c ****     * 
 837:Generated_Source\PSoC4/BLE.c ****     *   This function can be used to exit from discovery mode. After the execution 
 838:Generated_Source\PSoC4/BLE.c ****     *   of this function, there will no longer be any advertisements. On stopping 
 839:Generated_Source\PSoC4/BLE.c ****     *   advertising, GAP Peripheral receives CYBLE_EVT_GAPP_ADVERTISEMENT_START_STOP
 840:Generated_Source\PSoC4/BLE.c ****     *   event. It is expected that the application layer tracks the function call 
 841:Generated_Source\PSoC4/BLE.c ****     *   performed before occurrence of this event as this event can occur on making 
 842:Generated_Source\PSoC4/BLE.c ****     *   a call to Cy_BleGappStartAdvertisement(), CyBle_GappEnterDiscoveryMode(), 
 843:Generated_Source\PSoC4/BLE.c ****     *   or CyBle_GappStartAdvertisement() functions as well.
 844:Generated_Source\PSoC4/BLE.c ****     *   
 845:Generated_Source\PSoC4/BLE.c ****     *   The following event occurs on invoking this function:
 846:Generated_Source\PSoC4/BLE.c ****     *   * CYBLE_EVT_GAPP_ADVERTISEMENT_START_STOP
 847:Generated_Source\PSoC4/BLE.c ****     * 
 848:Generated_Source\PSoC4/BLE.c ****     *  \return
 849:Generated_Source\PSoC4/BLE.c ****     *   None
 850:Generated_Source\PSoC4/BLE.c ****     * 
 851:Generated_Source\PSoC4/BLE.c ****     *******************************************************************************/
 852:Generated_Source\PSoC4/BLE.c ****     void CyBle_GappStopAdvertisement(void)
 853:Generated_Source\PSoC4/BLE.c ****     {
 854:Generated_Source\PSoC4/BLE.c ****         CyBle_GappExitDiscoveryMode();
 855:Generated_Source\PSoC4/BLE.c ****         cyBle_eventHandlerFlag |= CYBLE_STOP_FLAG;
 856:Generated_Source\PSoC4/BLE.c ****     }
 857:Generated_Source\PSoC4/BLE.c ****     
 858:Generated_Source\PSoC4/BLE.c ****     
 859:Generated_Source\PSoC4/BLE.c ****     /******************************************************************************
 860:Generated_Source\PSoC4/BLE.c ****     * Function Name: CyBle_ChangeAdDeviceAddress
 861:Generated_Source\PSoC4/BLE.c ****     ***************************************************************************//**
 862:Generated_Source\PSoC4/BLE.c ****     * 
 863:Generated_Source\PSoC4/BLE.c ****     *  This function is used to set the Bluetooth device address into the 
 864:Generated_Source\PSoC4/BLE.c ****     *  advertisement or scan response data structure.
 865:Generated_Source\PSoC4/BLE.c ****     * 
 866:Generated_Source\PSoC4/BLE.c ****     *  \param bdAddr: Bluetooth Device address. The variable is of type CYBLE_GAP_BD_ADDR_T
 867:Generated_Source\PSoC4/BLE.c ****     *  \param dest: 0 - selects advertisement structure, not zero value selects scan 
 868:Generated_Source\PSoC4/BLE.c ****     *               response structure.
 869:Generated_Source\PSoC4/BLE.c ****     * 
 870:Generated_Source\PSoC4/BLE.c ****     * \return
 871:Generated_Source\PSoC4/BLE.c ****     *  None
 872:Generated_Source\PSoC4/BLE.c ****     *  
 873:Generated_Source\PSoC4/BLE.c ****     *******************************************************************************/
 874:Generated_Source\PSoC4/BLE.c ****     void CyBle_ChangeAdDeviceAddress(const CYBLE_GAP_BD_ADDR_T* bdAddr, uint8 dest)
 875:Generated_Source\PSoC4/BLE.c ****     {
 876:Generated_Source\PSoC4/BLE.c ****         uint8 i;
 877:Generated_Source\PSoC4/BLE.c ****         uint8 *destBuffer = NULL;
 878:Generated_Source\PSoC4/BLE.c ****         
 879:Generated_Source\PSoC4/BLE.c ****         if(dest == 0u)      /* Destination - advertising structure */
 880:Generated_Source\PSoC4/BLE.c ****         {
 881:Generated_Source\PSoC4/BLE.c ****             #ifdef CYBLE_ADV_PKT_INDEX_BLUETOOTH_DEVICE_ADDRESS
 882:Generated_Source\PSoC4/BLE.c ****                 destBuffer = &cyBle_discoveryData.advData[CYBLE_ADV_PKT_INDEX_BLUETOOTH_DEVICE_ADDR
 883:Generated_Source\PSoC4/BLE.c ****             #endif /* CYBLE_ADV_PKT_INDEX_BLUETOOTH_DEVICE_ADDRESS */
 884:Generated_Source\PSoC4/BLE.c ****         }
 885:Generated_Source\PSoC4/BLE.c ****         else                /* Destination - scan response structure */
 886:Generated_Source\PSoC4/BLE.c ****         {
ARM GAS  C:\Users\Intern\AppData\Local\Temp\ccD9JYVi.s 			page 17


 887:Generated_Source\PSoC4/BLE.c ****             #ifdef CYBLE_SCN_PKT_INDEX_BLUETOOTH_DEVICE_ADDRESS
 888:Generated_Source\PSoC4/BLE.c ****                 destBuffer = &cyBle_scanRspData.scanRspData[CYBLE_SCN_PKT_INDEX_BLUETOOTH_DEVICE_AD
 889:Generated_Source\PSoC4/BLE.c ****             #endif /* CYBLE_SCN_PKT_INDEX_BLUETOOTH_DEVICE_ADDRESS */    
 890:Generated_Source\PSoC4/BLE.c ****         }
 891:Generated_Source\PSoC4/BLE.c ****         
 892:Generated_Source\PSoC4/BLE.c ****         if(destBuffer != NULL)
 893:Generated_Source\PSoC4/BLE.c ****         {
 894:Generated_Source\PSoC4/BLE.c ****             /* Update Device Address type */
 895:Generated_Source\PSoC4/BLE.c ****             destBuffer[0u] = bdAddr->type;
 896:Generated_Source\PSoC4/BLE.c ****             
 897:Generated_Source\PSoC4/BLE.c ****             for(i = 0u; i < CYBLE_GAP_BD_ADDR_SIZE; i++)
 898:Generated_Source\PSoC4/BLE.c ****             {
 899:Generated_Source\PSoC4/BLE.c ****                 destBuffer[i + 1u] = bdAddr->bdAddr[i];
 900:Generated_Source\PSoC4/BLE.c ****             }
 901:Generated_Source\PSoC4/BLE.c ****         }
 902:Generated_Source\PSoC4/BLE.c ****     }
 903:Generated_Source\PSoC4/BLE.c ****   
 904:Generated_Source\PSoC4/BLE.c **** #endif /* CYBLE_GAP_ROLE_PERIPHERAL || CYBLE_GAP_ROLE_BROADCASTER */
 905:Generated_Source\PSoC4/BLE.c **** 
 906:Generated_Source\PSoC4/BLE.c **** 
 907:Generated_Source\PSoC4/BLE.c **** #if(CYBLE_GAP_ROLE_CENTRAL || CYBLE_GAP_ROLE_OBSERVER)
 908:Generated_Source\PSoC4/BLE.c **** 
 909:Generated_Source\PSoC4/BLE.c ****     /******************************************************************************
 910:Generated_Source\PSoC4/BLE.c ****     * Function Name: CyBle_GapcStartScan
 911:Generated_Source\PSoC4/BLE.c ****     ***************************************************************************//**
 912:Generated_Source\PSoC4/BLE.c ****     * 
 913:Generated_Source\PSoC4/BLE.c ****     *   This function is used for discovering GAP peripheral devices that are 
 914:Generated_Source\PSoC4/BLE.c ****     *   available for connection. It performs the scanning routine using the 
 915:Generated_Source\PSoC4/BLE.c ****     *   parameters entered in the component's customizer.
 916:Generated_Source\PSoC4/BLE.c ****     *   
 917:Generated_Source\PSoC4/BLE.c ****     *   As soon as the discovery operation starts, CYBLE_EVT_GAPC_SCAN_START_STOP 
 918:Generated_Source\PSoC4/BLE.c ****     *   event is generated. The CYBLE_EVT_GAPC_SCAN_PROGRESS_RESULT event is 
 919:Generated_Source\PSoC4/BLE.c ****     *   generated when a GAP peripheral device is located. There are three discovery
 920:Generated_Source\PSoC4/BLE.c ****     *   procedures can be selected in the customizer's GUI:
 921:Generated_Source\PSoC4/BLE.c ****     *   
 922:Generated_Source\PSoC4/BLE.c ****     *   * Observation procedure: A device performing the observer role receives only
 923:Generated_Source\PSoC4/BLE.c ****     *                            advertisement data from devices irrespective of 
 924:Generated_Source\PSoC4/BLE.c ****     *                            their discoverable mode settings. Advertisement 
 925:Generated_Source\PSoC4/BLE.c ****     *                            data received is provided by the event,      
 926:Generated_Source\PSoC4/BLE.c ****     *                            CYBLE_EVT_GAPC_SCAN_PROGRESS_RESULT. This procedure
 927:Generated_Source\PSoC4/BLE.c ****     *                            requires the scanType sub parameter to be passive
 928:Generated_Source\PSoC4/BLE.c ****     *                            scanning. 
 929:Generated_Source\PSoC4/BLE.c ****     *   
 930:Generated_Source\PSoC4/BLE.c ****     *   * Limited Discovery procedure: A device performing the limited discovery
 931:Generated_Source\PSoC4/BLE.c ****     *                                  procedure receives advertisement data and 
 932:Generated_Source\PSoC4/BLE.c ****     *                                  scan# response data from devices in the 
 933:Generated_Source\PSoC4/BLE.c ****     *                                  limited discoverable mode only. Received data
 934:Generated_Source\PSoC4/BLE.c ****     *                                  is provided by the event, 
 935:Generated_Source\PSoC4/BLE.c ****     *                                  CYBLE_EVT_GAPC_SCAN_PROGRESS_RESULT. This 
 936:Generated_Source\PSoC4/BLE.c ****     *                                  procedure requires the scanType sub-parameter 
 937:Generated_Source\PSoC4/BLE.c ****     *                                  to be active scanning.
 938:Generated_Source\PSoC4/BLE.c ****     *   
 939:Generated_Source\PSoC4/BLE.c ****     *   * General Discovery procedure: A device performing the general discovery 
 940:Generated_Source\PSoC4/BLE.c ****     *                                  procedure receives the advertisement data and
 941:Generated_Source\PSoC4/BLE.c ****     *                                  scan response data from devices in both 
 942:Generated_Source\PSoC4/BLE.c ****     *                                  limited discoverable mode and the general 
 943:Generated_Source\PSoC4/BLE.c ****     *                                  discoverable mode. Received data is provided
ARM GAS  C:\Users\Intern\AppData\Local\Temp\ccD9JYVi.s 			page 18


 944:Generated_Source\PSoC4/BLE.c ****     *                                  by the event,
 945:Generated_Source\PSoC4/BLE.c ****     *                                  CYBLE_EVT_GAPC_SCAN_PROGRESS_RESULT. This 
 946:Generated_Source\PSoC4/BLE.c ****     *                                  procedure requires the scanType sub-parameter
 947:Generated_Source\PSoC4/BLE.c ****     *                                  to be active scanning.
 948:Generated_Source\PSoC4/BLE.c ****     *   
 949:Generated_Source\PSoC4/BLE.c ****     *   Every Advertisement / Scan response packet received results in a new event, 
 950:Generated_Source\PSoC4/BLE.c ****     *   CYBLE_EVT_GAPC_SCAN_PROGRESS_RESULT.
 951:Generated_Source\PSoC4/BLE.c ****     *   If 'scanTo' sub-parameter is a non-zero value, then upon commencement of 
 952:Generated_Source\PSoC4/BLE.c ****     *   discovery procedure and elapsed time = 'scanTo', CYBLE_EVT_TIMEOUT event
 953:Generated_Source\PSoC4/BLE.c ****     *   is generated with the event parameter indicating CYBLE_GAP_SCAN_TO.
 954:Generated_Source\PSoC4/BLE.c ****     *   Possible generated events are:
 955:Generated_Source\PSoC4/BLE.c ****     *   * CYBLE_EVT_GAPC_SCAN_START_STOP: If a device started or stopped scanning. 
 956:Generated_Source\PSoC4/BLE.c ****     *                                     Use CyBle_GetState() to determine the 
 957:Generated_Source\PSoC4/BLE.c ****     *                                     state. Sequential scanning could be 
 958:Generated_Source\PSoC4/BLE.c ****     *                                     started when CYBLE_STATE_DISCONNECTED 
 959:Generated_Source\PSoC4/BLE.c ****     *                                     state is returned. 
 960:Generated_Source\PSoC4/BLE.c ****     *   * CYBLE_EVT_GAPC_SCAN_PROGRESS_RESULT 
 961:Generated_Source\PSoC4/BLE.c ****     *   * CYBLE_EVT_TIMEOUT (CYBLE_GAP_SCAN_TO)
 962:Generated_Source\PSoC4/BLE.c ****     * 
 963:Generated_Source\PSoC4/BLE.c ****     *   \param scanningIntervalType:  Fast or slow scanning interval with
 964:Generated_Source\PSoC4/BLE.c ****     *       timings entered in Scan settings section of the customizer.
 965:Generated_Source\PSoC4/BLE.c ****     * 	  * CYBLE_SCANNING_FAST   0x00u
 966:Generated_Source\PSoC4/BLE.c ****     * 	  * CYBLE_SCANNING_SLOW   0x01u
 967:Generated_Source\PSoC4/BLE.c ****     * 	  * CYBLE_SCANNING_CUSTOM 0x02u
 968:Generated_Source\PSoC4/BLE.c ****     * 
 969:Generated_Source\PSoC4/BLE.c ****     * \return
 970:Generated_Source\PSoC4/BLE.c ****     *  CYBLE_API_RESULT_T : Return value indicates if the function succeeded or
 971:Generated_Source\PSoC4/BLE.c ****     *  failed. Following are the possible error codes.
 972:Generated_Source\PSoC4/BLE.c ****     *
 973:Generated_Source\PSoC4/BLE.c ****     *   Errors codes                       | Description
 974:Generated_Source\PSoC4/BLE.c ****     *   ---------------------------------- | -----------------------------------
 975:Generated_Source\PSoC4/BLE.c ****     *   CYBLE_ERROR_OK                     | On successful operation.
 976:Generated_Source\PSoC4/BLE.c ****     *   CYBLE_ERROR_STACK_INTERNAL         | An error occurred in the BLE stack.
 977:Generated_Source\PSoC4/BLE.c ****     *   CYBLE_ERROR_INVALID_PARAMETER      | On passing an invalid parameter.
 978:Generated_Source\PSoC4/BLE.c ****     *  
 979:Generated_Source\PSoC4/BLE.c ****     *******************************************************************************/
 980:Generated_Source\PSoC4/BLE.c ****     CYBLE_API_RESULT_T CyBle_GapcStartScan(uint8 scanningIntervalType)
 981:Generated_Source\PSoC4/BLE.c ****     {
 982:Generated_Source\PSoC4/BLE.c ****         CYBLE_API_RESULT_T apiResult;
 983:Generated_Source\PSoC4/BLE.c **** 
 984:Generated_Source\PSoC4/BLE.c ****         if(scanningIntervalType > CYBLE_SCANNING_CUSTOM)
 985:Generated_Source\PSoC4/BLE.c ****         {
 986:Generated_Source\PSoC4/BLE.c ****             apiResult = CYBLE_ERROR_INVALID_PARAMETER;
 987:Generated_Source\PSoC4/BLE.c ****         }
 988:Generated_Source\PSoC4/BLE.c ****         else
 989:Generated_Source\PSoC4/BLE.c ****         {
 990:Generated_Source\PSoC4/BLE.c ****             if(scanningIntervalType == CYBLE_SCANNING_FAST)
 991:Generated_Source\PSoC4/BLE.c ****             {
 992:Generated_Source\PSoC4/BLE.c ****                 cyBle_discoveryInfo.scanTo = CYBLE_FAST_SCAN_TIMEOUT;
 993:Generated_Source\PSoC4/BLE.c ****                 cyBle_discoveryInfo.scanIntv = CYBLE_FAST_SCAN_INTERVAL;
 994:Generated_Source\PSoC4/BLE.c ****                 cyBle_discoveryInfo.scanWindow = CYBLE_FAST_SCAN_WINDOW;
 995:Generated_Source\PSoC4/BLE.c ****             }
 996:Generated_Source\PSoC4/BLE.c ****             else if(scanningIntervalType == CYBLE_SCANNING_SLOW)
 997:Generated_Source\PSoC4/BLE.c ****             {
 998:Generated_Source\PSoC4/BLE.c ****                 cyBle_discoveryInfo.scanTo = CYBLE_SLOW_SCAN_TIMEOUT;
 999:Generated_Source\PSoC4/BLE.c ****                 cyBle_discoveryInfo.scanIntv = CYBLE_SLOW_SCAN_INTERVAL;
1000:Generated_Source\PSoC4/BLE.c ****                 cyBle_discoveryInfo.scanWindow = CYBLE_SLOW_SCAN_WINDOW;
ARM GAS  C:\Users\Intern\AppData\Local\Temp\ccD9JYVi.s 			page 19


1001:Generated_Source\PSoC4/BLE.c ****             }       
1002:Generated_Source\PSoC4/BLE.c ****             else /* Do not update scanning intervals */
1003:Generated_Source\PSoC4/BLE.c ****             {
1004:Generated_Source\PSoC4/BLE.c ****             }
1005:Generated_Source\PSoC4/BLE.c ****             
1006:Generated_Source\PSoC4/BLE.c ****             cyBle_scanningIntervalType = scanningIntervalType;
1007:Generated_Source\PSoC4/BLE.c ****             apiResult = CyBle_GapcStartDiscovery(&cyBle_discoveryInfo);
1008:Generated_Source\PSoC4/BLE.c ****         
1009:Generated_Source\PSoC4/BLE.c ****             if(apiResult == CYBLE_ERROR_OK)
1010:Generated_Source\PSoC4/BLE.c ****             {
1011:Generated_Source\PSoC4/BLE.c ****                 cyBle_eventHandlerFlag |= CYBLE_START_FLAG;
1012:Generated_Source\PSoC4/BLE.c ****             }
1013:Generated_Source\PSoC4/BLE.c ****         }
1014:Generated_Source\PSoC4/BLE.c ****        
1015:Generated_Source\PSoC4/BLE.c ****         return (apiResult);
1016:Generated_Source\PSoC4/BLE.c ****     }
1017:Generated_Source\PSoC4/BLE.c ****     
1018:Generated_Source\PSoC4/BLE.c ****     
1019:Generated_Source\PSoC4/BLE.c ****     /******************************************************************************
1020:Generated_Source\PSoC4/BLE.c ****     * Function Name: CyBle_GapcStopScan
1021:Generated_Source\PSoC4/BLE.c ****     ***************************************************************************//**
1022:Generated_Source\PSoC4/BLE.c ****     * 
1023:Generated_Source\PSoC4/BLE.c ****     *   This function used to stop the discovery of devices. On stopping discovery
1024:Generated_Source\PSoC4/BLE.c ****     *   operation, CYBLE_EVT_GAPC_SCAN_START_STOP event is generated. Application
1025:Generated_Source\PSoC4/BLE.c ****     *   layer needs to keep track of the function call made before receiving this
1026:Generated_Source\PSoC4/BLE.c ****     *   event to associate this event with either the start or stop discovery
1027:Generated_Source\PSoC4/BLE.c ****     *   function.
1028:Generated_Source\PSoC4/BLE.c ****     * 
1029:Generated_Source\PSoC4/BLE.c ****     *   Possible events generated are:
1030:Generated_Source\PSoC4/BLE.c ****     *    * CYBLE_EVT_GAPC_SCAN_START_STOP
1031:Generated_Source\PSoC4/BLE.c ****     * 
1032:Generated_Source\PSoC4/BLE.c ****     *  \return
1033:Generated_Source\PSoC4/BLE.c ****     *   None
1034:Generated_Source\PSoC4/BLE.c ****     * 
1035:Generated_Source\PSoC4/BLE.c ****     *******************************************************************************/
1036:Generated_Source\PSoC4/BLE.c ****     void CyBle_GapcStopScan(void)
1037:Generated_Source\PSoC4/BLE.c ****     {
1038:Generated_Source\PSoC4/BLE.c ****         CyBle_GapcStopDiscovery();
1039:Generated_Source\PSoC4/BLE.c ****         
1040:Generated_Source\PSoC4/BLE.c ****         cyBle_eventHandlerFlag |= CYBLE_STOP_FLAG;
1041:Generated_Source\PSoC4/BLE.c ****     }
1042:Generated_Source\PSoC4/BLE.c **** 
1043:Generated_Source\PSoC4/BLE.c ****     
1044:Generated_Source\PSoC4/BLE.c **** #endif /* CYBLE_GAP_ROLE_CENTRAL || CYBLE_GAP_ROLE_OBSERVER */
1045:Generated_Source\PSoC4/BLE.c **** 
1046:Generated_Source\PSoC4/BLE.c **** 
1047:Generated_Source\PSoC4/BLE.c **** #if(CYBLE_GAP_ROLE_CENTRAL)
1048:Generated_Source\PSoC4/BLE.c **** 
1049:Generated_Source\PSoC4/BLE.c ****     /******************************************************************************
1050:Generated_Source\PSoC4/BLE.c ****     * Function Name: CyBle_GapcConnectDevice
1051:Generated_Source\PSoC4/BLE.c ****     ***************************************************************************//**
1052:Generated_Source\PSoC4/BLE.c ****     * 
1053:Generated_Source\PSoC4/BLE.c ****     *  This function is used to send a connection request to the remote device with
1054:Generated_Source\PSoC4/BLE.c ****     *  the connection parameters set in the component customizer. This function needs
1055:Generated_Source\PSoC4/BLE.c ****     *  to be called only once after the target device is discovered by 
1056:Generated_Source\PSoC4/BLE.c ****     *  CyBle_GapcStartScan() and further scanning has stopped. Scanning is 
1057:Generated_Source\PSoC4/BLE.c ****     *  successfully stopped on invoking CyBle_GapcStopScan() and then receiving the
ARM GAS  C:\Users\Intern\AppData\Local\Temp\ccD9JYVi.s 			page 20


1058:Generated_Source\PSoC4/BLE.c ****     *  event CYBLE_EVT_GAPC_SCAN_START_STOP with sub-parameter 'success' = 0x01u.
1059:Generated_Source\PSoC4/BLE.c ****     *  
1060:Generated_Source\PSoC4/BLE.c ****     *  On successful connection, the following events are generated at the GAP 
1061:Generated_Source\PSoC4/BLE.c ****     *  Central device (as well as the GAP Peripheral device), in the following order.
1062:Generated_Source\PSoC4/BLE.c ****     *  * CYBLE_EVT_GATT_CONNECT_IND
1063:Generated_Source\PSoC4/BLE.c ****     *  * CYBLE_EVT_GAP_DEVICE_CONNECTED - If the device connects to a GAP Central and 
1064:Generated_Source\PSoC4/BLE.c ****     *    Link Layer Privacy is disabled in component customizer.
1065:Generated_Source\PSoC4/BLE.c ****     *  * CYBLE_EVT_GAP_ENHANCE_CONN_COMPLETE - If the device connects to a GAP Central and 
1066:Generated_Source\PSoC4/BLE.c ****     *    Link Layer Privacy is enabled in component customizer.
1067:Generated_Source\PSoC4/BLE.c ****     *  * CYBLE_EVT_GAP_DEVICE_CONNECTED
1068:Generated_Source\PSoC4/BLE.c ****     *  
1069:Generated_Source\PSoC4/BLE.c ****     *  A procedure is considered to have timed out if a connection response packet is 
1070:Generated_Source\PSoC4/BLE.c ****     *  not received within time set by cyBle_connectingTimeout global variable
1071:Generated_Source\PSoC4/BLE.c ****     *  (30 seconds by default). CYBLE_EVT_TIMEOUT event with CYBLE_GENERIC_TO parameter
1072:Generated_Source\PSoC4/BLE.c ****     *  will indicate about connection procedure timeout. Connection will automatically
1073:Generated_Source\PSoC4/BLE.c ****     *  be canceled and state will be changed to CYBLE_STATE_DISCONNECTED.
1074:Generated_Source\PSoC4/BLE.c ****     * 
1075:Generated_Source\PSoC4/BLE.c ****     *  \param address: The device address of the remote device to connect to. 
1076:Generated_Source\PSoC4/BLE.c ****     *  
1077:Generated_Source\PSoC4/BLE.c ****     * \return
1078:Generated_Source\PSoC4/BLE.c ****     *  CYBLE_API_RESULT_T : Return value indicates if the function succeeded or 
1079:Generated_Source\PSoC4/BLE.c ****     *  failed. Following are the possible error codes.
1080:Generated_Source\PSoC4/BLE.c ****     *
1081:Generated_Source\PSoC4/BLE.c ****     *   Errors codes                       | Description
1082:Generated_Source\PSoC4/BLE.c ****     *   ------------                       | -----------
1083:Generated_Source\PSoC4/BLE.c ****     *   CYBLE_ERROR_OK                     | On successful operation.
1084:Generated_Source\PSoC4/BLE.c ****     *   CYBLE_ERROR_STACK_INTERNAL         | On error occurred in the BLE stack.
1085:Generated_Source\PSoC4/BLE.c ****     *   CYBLE_ERROR_INVALID_PARAMETER      | On passing an invalid parameter.
1086:Generated_Source\PSoC4/BLE.c ****     *   CYBLE_ERROR_INVALID_STATE          | On calling this function not in Disconnected state.
1087:Generated_Source\PSoC4/BLE.c ****     *  
1088:Generated_Source\PSoC4/BLE.c ****     ******************************************************************************/
1089:Generated_Source\PSoC4/BLE.c ****     CYBLE_API_RESULT_T CyBle_GapcConnectDevice(const CYBLE_GAP_BD_ADDR_T * address)
1090:Generated_Source\PSoC4/BLE.c ****     {
1091:Generated_Source\PSoC4/BLE.c ****         CYBLE_API_RESULT_T apiResult;
1092:Generated_Source\PSoC4/BLE.c ****         uint8 i;
1093:Generated_Source\PSoC4/BLE.c **** 
1094:Generated_Source\PSoC4/BLE.c ****         if(CyBle_GetState() != CYBLE_STATE_DISCONNECTED)
1095:Generated_Source\PSoC4/BLE.c ****         {
1096:Generated_Source\PSoC4/BLE.c ****             apiResult = CYBLE_ERROR_INVALID_STATE;
1097:Generated_Source\PSoC4/BLE.c ****         }
1098:Generated_Source\PSoC4/BLE.c ****         else if(address == NULL)
1099:Generated_Source\PSoC4/BLE.c ****         {
1100:Generated_Source\PSoC4/BLE.c ****             apiResult = CYBLE_ERROR_INVALID_PARAMETER;
1101:Generated_Source\PSoC4/BLE.c ****         }
1102:Generated_Source\PSoC4/BLE.c ****         else
1103:Generated_Source\PSoC4/BLE.c ****         {
1104:Generated_Source\PSoC4/BLE.c ****             for(i = 0u; i < CYBLE_GAP_BD_ADDR_SIZE; i++)
1105:Generated_Source\PSoC4/BLE.c ****             {
1106:Generated_Source\PSoC4/BLE.c ****                 cyBle_connectionParameters.peerBdAddr[i] = address->bdAddr[i];
1107:Generated_Source\PSoC4/BLE.c ****             }
1108:Generated_Source\PSoC4/BLE.c ****             cyBle_connectionParameters.peerAddrType = address -> type;
1109:Generated_Source\PSoC4/BLE.c ****             apiResult = CyBle_GapcInitConnection(&cyBle_connectionParameters);
1110:Generated_Source\PSoC4/BLE.c ****             
1111:Generated_Source\PSoC4/BLE.c ****             if(apiResult == CYBLE_ERROR_OK)
1112:Generated_Source\PSoC4/BLE.c ****             {
1113:Generated_Source\PSoC4/BLE.c ****                 CyBle_SetState(CYBLE_STATE_CONNECTING);
1114:Generated_Source\PSoC4/BLE.c ****                 if(cyBle_connectingTimeout != 0u)
ARM GAS  C:\Users\Intern\AppData\Local\Temp\ccD9JYVi.s 			page 21


1115:Generated_Source\PSoC4/BLE.c ****                 {
1116:Generated_Source\PSoC4/BLE.c ****                     (void)CyBle_StartTimer(cyBle_connectingTimeout);
1117:Generated_Source\PSoC4/BLE.c ****                 }
1118:Generated_Source\PSoC4/BLE.c ****             }
1119:Generated_Source\PSoC4/BLE.c ****         }
1120:Generated_Source\PSoC4/BLE.c ****         return (apiResult);
1121:Generated_Source\PSoC4/BLE.c ****     }
1122:Generated_Source\PSoC4/BLE.c ****     
1123:Generated_Source\PSoC4/BLE.c **** 
1124:Generated_Source\PSoC4/BLE.c ****     /******************************************************************************
1125:Generated_Source\PSoC4/BLE.c ****     * Function Name: CyBle_GapcCancelDeviceConnection
1126:Generated_Source\PSoC4/BLE.c ****     ***************************************************************************//**
1127:Generated_Source\PSoC4/BLE.c ****     * 
1128:Generated_Source\PSoC4/BLE.c ****     *  This function cancels a previously initiated connection with the remote 
1129:Generated_Source\PSoC4/BLE.c ****     *  device. It is a blocking function. No event is generated on calling this 
1130:Generated_Source\PSoC4/BLE.c ****     *  function. If the devices are already connected then this function should not
1131:Generated_Source\PSoC4/BLE.c ****     *  be used. If you intend to disconnect from an existing connection, the function
1132:Generated_Source\PSoC4/BLE.c ****     *  CyBle_GapDisconnect() should be used.
1133:Generated_Source\PSoC4/BLE.c ****     * 
1134:Generated_Source\PSoC4/BLE.c ****     * \return
1135:Generated_Source\PSoC4/BLE.c ****     *  CYBLE_API_RESULT_T : Return value indicates if the function succeeded or 
1136:Generated_Source\PSoC4/BLE.c ****     *  failed. Following are the possible error codes.
1137:Generated_Source\PSoC4/BLE.c ****     *
1138:Generated_Source\PSoC4/BLE.c ****     *   Errors codes                       | Description
1139:Generated_Source\PSoC4/BLE.c ****     *   ---------------------------------- | --------------------------------------
1140:Generated_Source\PSoC4/BLE.c ****     *   CYBLE_ERROR_OK                     | On successful operation.
1141:Generated_Source\PSoC4/BLE.c ****     *   CYBLE_ERROR_STACK_INTERNAL         | An error occurred in the BLE stack.
1142:Generated_Source\PSoC4/BLE.c ****     *   CYBLE_ERROR_INVALID_STATE          | On calling this function not in Connecting state.
1143:Generated_Source\PSoC4/BLE.c ****     *  
1144:Generated_Source\PSoC4/BLE.c ****     *******************************************************************************/
1145:Generated_Source\PSoC4/BLE.c ****     CYBLE_API_RESULT_T CyBle_GapcCancelDeviceConnection(void)
1146:Generated_Source\PSoC4/BLE.c ****     {
1147:Generated_Source\PSoC4/BLE.c ****         CYBLE_API_RESULT_T apiResult;
1148:Generated_Source\PSoC4/BLE.c ****         
1149:Generated_Source\PSoC4/BLE.c ****         if(CyBle_GetState() != CYBLE_STATE_CONNECTING)
1150:Generated_Source\PSoC4/BLE.c ****         {
1151:Generated_Source\PSoC4/BLE.c ****             apiResult = CYBLE_ERROR_INVALID_STATE;
1152:Generated_Source\PSoC4/BLE.c ****         }
1153:Generated_Source\PSoC4/BLE.c ****         else 
1154:Generated_Source\PSoC4/BLE.c ****         {
1155:Generated_Source\PSoC4/BLE.c ****             apiResult = CyBle_GapcCancelConnection();
1156:Generated_Source\PSoC4/BLE.c ****             
1157:Generated_Source\PSoC4/BLE.c ****             if(cyBle_connectingTimeout != 0u)
1158:Generated_Source\PSoC4/BLE.c ****             {
1159:Generated_Source\PSoC4/BLE.c ****                 (void)CyBle_StopTimer();
1160:Generated_Source\PSoC4/BLE.c ****             }
1161:Generated_Source\PSoC4/BLE.c **** 
1162:Generated_Source\PSoC4/BLE.c ****             if(apiResult == CYBLE_ERROR_OK)
1163:Generated_Source\PSoC4/BLE.c ****             {
1164:Generated_Source\PSoC4/BLE.c ****                 CyBle_SetState(CYBLE_STATE_DISCONNECTED);
1165:Generated_Source\PSoC4/BLE.c ****             }
1166:Generated_Source\PSoC4/BLE.c ****         }
1167:Generated_Source\PSoC4/BLE.c ****         return (apiResult);
1168:Generated_Source\PSoC4/BLE.c ****     }    
1169:Generated_Source\PSoC4/BLE.c **** 
1170:Generated_Source\PSoC4/BLE.c ****     
1171:Generated_Source\PSoC4/BLE.c **** #endif /* CYBLE_GAP_ROLE_CENTRAL */
ARM GAS  C:\Users\Intern\AppData\Local\Temp\ccD9JYVi.s 			page 22


1172:Generated_Source\PSoC4/BLE.c **** 
1173:Generated_Source\PSoC4/BLE.c **** 
1174:Generated_Source\PSoC4/BLE.c **** #if(CYBLE_GATT_ROLE_SERVER)
1175:Generated_Source\PSoC4/BLE.c **** 
1176:Generated_Source\PSoC4/BLE.c **** #if(CYBLE_GAP_ROLE_PERIPHERAL)
1177:Generated_Source\PSoC4/BLE.c **** 
1178:Generated_Source\PSoC4/BLE.c ****         /******************************************************************************
1179:Generated_Source\PSoC4/BLE.c ****         * Function Name: CyBle_ChangeAdLocalName
1180:Generated_Source\PSoC4/BLE.c ****         ***************************************************************************//**
1181:Generated_Source\PSoC4/BLE.c ****         *  This function is used to set the local device name in the advertisement or 
1182:Generated_Source\PSoC4/BLE.c ****         *  scan response data structure.
1183:Generated_Source\PSoC4/BLE.c ****         * 
1184:Generated_Source\PSoC4/BLE.c ****         *  \param name: The local device name string to be set in advertisement data 
1185:Generated_Source\PSoC4/BLE.c ****         *            structure.
1186:Generated_Source\PSoC4/BLE.c ****         *  \param dest: 0 - advertisement structure, not zero value selects scan response
1187:Generated_Source\PSoC4/BLE.c ****         *              structure.
1188:Generated_Source\PSoC4/BLE.c ****         * 
1189:Generated_Source\PSoC4/BLE.c ****         * \return
1190:Generated_Source\PSoC4/BLE.c ****         *  None
1191:Generated_Source\PSoC4/BLE.c ****         *  
1192:Generated_Source\PSoC4/BLE.c ****         *******************************************************************************/
1193:Generated_Source\PSoC4/BLE.c ****         static void CyBle_ChangeAdLocalName(const char8 name[], uint8 dest)
1194:Generated_Source\PSoC4/BLE.c ****         {
  27              		.loc 1 1194 0
  28              		.cfi_startproc
  29              		@ args = 0, pretend = 0, frame = 0
  30              		@ frame_needed = 0, uses_anonymous_args = 0
  31              	.LVL0:
  32 0000 70B5     		push	{r4, r5, r6, lr}
  33              		.cfi_def_cfa_offset 16
  34              		.cfi_offset 4, -16
  35              		.cfi_offset 5, -12
  36              		.cfi_offset 6, -8
  37              		.cfi_offset 14, -4
  38              	.LVL1:
1195:Generated_Source\PSoC4/BLE.c ****             uint8 i;
1196:Generated_Source\PSoC4/BLE.c ****             uint8 flag = 0u;
1197:Generated_Source\PSoC4/BLE.c ****             uint8 adLength = 0u;
1198:Generated_Source\PSoC4/BLE.c ****             uint8 byteCounter = 0u;
1199:Generated_Source\PSoC4/BLE.c ****             uint8 *destBuffer;
1200:Generated_Source\PSoC4/BLE.c ****             uint8 maxLength;
1201:Generated_Source\PSoC4/BLE.c ****             
1202:Generated_Source\PSoC4/BLE.c ****             if(dest == 0u)      /* Destination - advertising structure */
  39              		.loc 1 1202 0
  40 0002 0029     		cmp	r1, #0
  41 0004 05D1     		bne	.L2
  42              	.LVL2:
1203:Generated_Source\PSoC4/BLE.c ****             {
1204:Generated_Source\PSoC4/BLE.c ****                 destBuffer = cyBle_discoveryData.advData;
1205:Generated_Source\PSoC4/BLE.c ****                 maxLength = cyBle_discoveryData.advDataLen;
  43              		.loc 1 1205 0
  44 0006 1A49     		ldr	r1, .L14
  45              	.LVL3:
  46 0008 CE7F     		ldrb	r6, [r1, #31]
  47              	.LVL4:
  48              	.L4:
1206:Generated_Source\PSoC4/BLE.c ****             }
ARM GAS  C:\Users\Intern\AppData\Local\Temp\ccD9JYVi.s 			page 23


1207:Generated_Source\PSoC4/BLE.c ****             else                /* Destination - scan response structure */
1208:Generated_Source\PSoC4/BLE.c ****             {
1209:Generated_Source\PSoC4/BLE.c ****                 destBuffer = cyBle_scanRspData.scanRspData;
1210:Generated_Source\PSoC4/BLE.c ****                 maxLength = cyBle_scanRspData.scanRspDataLen;
1211:Generated_Source\PSoC4/BLE.c ****             }
1212:Generated_Source\PSoC4/BLE.c ****             
1213:Generated_Source\PSoC4/BLE.c ****             while((byteCounter < maxLength) && (flag == 0u))
1214:Generated_Source\PSoC4/BLE.c ****             {
1215:Generated_Source\PSoC4/BLE.c ****                 adLength = destBuffer[byteCounter];
1216:Generated_Source\PSoC4/BLE.c ****                 
1217:Generated_Source\PSoC4/BLE.c ****                 if(0u != adLength)
1218:Generated_Source\PSoC4/BLE.c ****                 {
1219:Generated_Source\PSoC4/BLE.c ****                     /* Increment byte counter so it can point to AD type */
1220:Generated_Source\PSoC4/BLE.c ****                     byteCounter++;
1221:Generated_Source\PSoC4/BLE.c ****                     
1222:Generated_Source\PSoC4/BLE.c ****                     if((destBuffer[byteCounter] == CYBLE_SHORT_LOCAL_NAME) || 
1223:Generated_Source\PSoC4/BLE.c ****                        (destBuffer[byteCounter] == CYBLE_COMPLETE_LOCAL_NAME))
1224:Generated_Source\PSoC4/BLE.c ****                     {
1225:Generated_Source\PSoC4/BLE.c ****                         /* Start of the Local Name AD type was fount. Set flag and exit the loop. *
1226:Generated_Source\PSoC4/BLE.c ****                         flag = 1u;
  49              		.loc 1 1226 0
  50 000a 0023     		movs	r3, #0
  51 000c 0024     		movs	r4, #0
  52 000e 0025     		movs	r5, #0
  53 0010 10E0     		b	.L3
  54              	.LVL5:
  55              	.L2:
1210:Generated_Source\PSoC4/BLE.c ****             }
  56              		.loc 1 1210 0
  57 0012 1849     		ldr	r1, .L14+4
  58              	.LVL6:
  59 0014 CE7F     		ldrb	r6, [r1, #31]
  60              	.LVL7:
  61 0016 F8E7     		b	.L4
  62              	.LVL8:
  63              	.L7:
1215:Generated_Source\PSoC4/BLE.c ****                 
  64              		.loc 1 1215 0
  65 0018 CC5C     		ldrb	r4, [r1, r3]
  66              	.LVL9:
1217:Generated_Source\PSoC4/BLE.c ****                 {
  67              		.loc 1 1217 0
  68 001a 002C     		cmp	r4, #0
  69 001c 0ED0     		beq	.L5
1220:Generated_Source\PSoC4/BLE.c ****                     
  70              		.loc 1 1220 0
  71 001e 0133     		adds	r3, r3, #1
  72              	.LVL10:
  73 0020 DBB2     		uxtb	r3, r3
  74              	.LVL11:
1222:Generated_Source\PSoC4/BLE.c ****                        (destBuffer[byteCounter] == CYBLE_COMPLETE_LOCAL_NAME))
  75              		.loc 1 1222 0
  76 0022 CA5C     		ldrb	r2, [r1, r3]
  77 0024 083A     		subs	r2, r2, #8
  78 0026 D2B2     		uxtb	r2, r2
  79 0028 012A     		cmp	r2, #1
  80 002a 02D9     		bls	.L13
ARM GAS  C:\Users\Intern\AppData\Local\Temp\ccD9JYVi.s 			page 24


1227:Generated_Source\PSoC4/BLE.c ****                     }
1228:Generated_Source\PSoC4/BLE.c ****                     else
1229:Generated_Source\PSoC4/BLE.c ****                     {
1230:Generated_Source\PSoC4/BLE.c ****                         byteCounter += adLength;
  81              		.loc 1 1230 0
  82 002c E318     		adds	r3, r4, r3
  83              	.LVL12:
  84 002e DBB2     		uxtb	r3, r3
  85              	.LVL13:
  86 0030 00E0     		b	.L3
  87              	.L13:
1226:Generated_Source\PSoC4/BLE.c ****                     }
  88              		.loc 1 1226 0
  89 0032 0125     		movs	r5, #1
  90              	.LVL14:
  91              	.L3:
1213:Generated_Source\PSoC4/BLE.c ****             {
  92              		.loc 1 1213 0
  93 0034 B342     		cmp	r3, r6
  94 0036 01D2     		bcs	.L5
1213:Generated_Source\PSoC4/BLE.c ****             {
  95              		.loc 1 1213 0 is_stmt 0 discriminator 1
  96 0038 002D     		cmp	r5, #0
  97 003a EDD0     		beq	.L7
  98              	.L5:
1231:Generated_Source\PSoC4/BLE.c ****                     }
1232:Generated_Source\PSoC4/BLE.c ****                 }
1233:Generated_Source\PSoC4/BLE.c ****                 else
1234:Generated_Source\PSoC4/BLE.c ****                 {
1235:Generated_Source\PSoC4/BLE.c ****                     /* The end of advertisement data structure was encountered though exit the loop
1236:Generated_Source\PSoC4/BLE.c ****                     break;
1237:Generated_Source\PSoC4/BLE.c ****                 }
1238:Generated_Source\PSoC4/BLE.c ****             }
1239:Generated_Source\PSoC4/BLE.c ****             
1240:Generated_Source\PSoC4/BLE.c ****             if(0u != flag)
  99              		.loc 1 1240 0 is_stmt 1
 100 003c 002D     		cmp	r5, #0
 101 003e 16D0     		beq	.L1
1241:Generated_Source\PSoC4/BLE.c ****             {
1242:Generated_Source\PSoC4/BLE.c ****                 /* Reuse "adLength" to hold location of the last character of local name in 
1243:Generated_Source\PSoC4/BLE.c ****                    AD structure. */
1244:Generated_Source\PSoC4/BLE.c ****                 adLength += byteCounter;
 102              		.loc 1 1244 0
 103 0040 E418     		adds	r4, r4, r3
 104              	.LVL15:
 105 0042 E4B2     		uxtb	r4, r4
 106              	.LVL16:
1245:Generated_Source\PSoC4/BLE.c ****                 
1246:Generated_Source\PSoC4/BLE.c ****                 /* Increment byte counter to point to start of the local Name string */
1247:Generated_Source\PSoC4/BLE.c ****                 byteCounter++;
 107              		.loc 1 1247 0
 108 0044 0133     		adds	r3, r3, #1
 109              	.LVL17:
 110 0046 DBB2     		uxtb	r3, r3
 111              	.LVL18:
1248:Generated_Source\PSoC4/BLE.c ****                 
1249:Generated_Source\PSoC4/BLE.c ****                 for(i = byteCounter; ((i < (adLength)) && (CYBLE_NULL_CHARCTER != name[i - byteCoun
ARM GAS  C:\Users\Intern\AppData\Local\Temp\ccD9JYVi.s 			page 25


 112              		.loc 1 1249 0
 113 0048 1A00     		movs	r2, r3
 114 004a 02E0     		b	.L9
 115              	.LVL19:
 116              	.L11:
1250:Generated_Source\PSoC4/BLE.c ****                 {
1251:Generated_Source\PSoC4/BLE.c ****                     destBuffer[i] = (uint8)name[i - byteCounter];
 117              		.loc 1 1251 0 discriminator 4
 118 004c 8D54     		strb	r5, [r1, r2]
1249:Generated_Source\PSoC4/BLE.c ****                 {
 119              		.loc 1 1249 0 discriminator 4
 120 004e 0132     		adds	r2, r2, #1
 121              	.LVL20:
 122 0050 D2B2     		uxtb	r2, r2
 123              	.LVL21:
 124              	.L9:
1249:Generated_Source\PSoC4/BLE.c ****                 {
 125              		.loc 1 1249 0 is_stmt 0 discriminator 1
 126 0052 A242     		cmp	r2, r4
 127 0054 09D2     		bcs	.L10
1249:Generated_Source\PSoC4/BLE.c ****                 {
 128              		.loc 1 1249 0 discriminator 3
 129 0056 D51A     		subs	r5, r2, r3
 130 0058 455D     		ldrb	r5, [r0, r5]
 131 005a 002D     		cmp	r5, #0
 132 005c F6D1     		bne	.L11
 133 005e 04E0     		b	.L10
 134              	.LVL22:
 135              	.L12:
1252:Generated_Source\PSoC4/BLE.c ****                 }
1253:Generated_Source\PSoC4/BLE.c ****                 
1254:Generated_Source\PSoC4/BLE.c ****                 /* This loop handles the case when new local name is shorted than old one.
1255:Generated_Source\PSoC4/BLE.c ****                    In this case all remaining characters should be null characters. */
1256:Generated_Source\PSoC4/BLE.c ****                 while(adLength > i)
1257:Generated_Source\PSoC4/BLE.c ****                 {
1258:Generated_Source\PSoC4/BLE.c ****                     /* Terminate string */
1259:Generated_Source\PSoC4/BLE.c ****                     destBuffer[i] = (uint8)CYBLE_NULL_CHARCTER;
 136              		.loc 1 1259 0 is_stmt 1
 137 0060 8B18     		adds	r3, r1, r2
 138 0062 0020     		movs	r0, #0
 139 0064 1870     		strb	r0, [r3]
1260:Generated_Source\PSoC4/BLE.c ****                     i++;
 140              		.loc 1 1260 0
 141 0066 0132     		adds	r2, r2, #1
 142              	.LVL23:
 143 0068 D2B2     		uxtb	r2, r2
 144              	.LVL24:
 145              	.L10:
1256:Generated_Source\PSoC4/BLE.c ****                 {
 146              		.loc 1 1256 0
 147 006a A242     		cmp	r2, r4
 148 006c F8D3     		bcc	.L12
 149              	.LVL25:
 150              	.L1:
1261:Generated_Source\PSoC4/BLE.c ****                 }
1262:Generated_Source\PSoC4/BLE.c ****             }
1263:Generated_Source\PSoC4/BLE.c ****         }
ARM GAS  C:\Users\Intern\AppData\Local\Temp\ccD9JYVi.s 			page 26


 151              		.loc 1 1263 0
 152              		@ sp needed
 153              	.LVL26:
 154              	.LVL27:
 155 006e 70BD     		pop	{r4, r5, r6, pc}
 156              	.L15:
 157              		.align	2
 158              	.L14:
 159 0070 00000000 		.word	.LANCHOR0
 160 0074 00000000 		.word	.LANCHOR1
 161              		.cfi_endproc
 162              	.LFE11:
 163              		.size	CyBle_ChangeAdLocalName, .-CyBle_ChangeAdLocalName
 164              		.section	.text.CyBle_ServiceInit,"ax",%progbits
 165              		.align	2
 166              		.global	CyBle_ServiceInit
 167              		.code	16
 168              		.thumb_func
 169              		.type	CyBle_ServiceInit, %function
 170              	CyBle_ServiceInit:
 171              	.LFB3:
 202:Generated_Source\PSoC4/BLE.c ****     #if(CYBLE_GATT_ROLE_CLIENT)
 172              		.loc 1 202 0
 173              		.cfi_startproc
 174              		@ args = 0, pretend = 0, frame = 0
 175              		@ frame_needed = 0, uses_anonymous_args = 0
 176 0000 10B5     		push	{r4, lr}
 177              		.cfi_def_cfa_offset 8
 178              		.cfi_offset 4, -8
 179              		.cfi_offset 14, -4
 260:Generated_Source\PSoC4/BLE.c ****     #endif /* CYBLE_CUSTOM */
 180              		.loc 1 260 0
 181 0002 FFF7FEFF 		bl	CyBle_CustomInit
 182              	.LVL28:
 346:Generated_Source\PSoC4/BLE.c **** 
 183              		.loc 1 346 0
 184              		@ sp needed
 185 0006 10BD     		pop	{r4, pc}
 186              		.cfi_endproc
 187              	.LFE3:
 188              		.size	CyBle_ServiceInit, .-CyBle_ServiceInit
 189              		.section	.text.CyBle_Init,"ax",%progbits
 190              		.align	2
 191              		.global	CyBle_Init
 192              		.code	16
 193              		.thumb_func
 194              		.type	CyBle_Init, %function
 195              	CyBle_Init:
 196              	.LFB2:
 153:Generated_Source\PSoC4/BLE.c ****     cyBle_eventHandlerFlag = 0u;
 197              		.loc 1 153 0
 198              		.cfi_startproc
 199              		@ args = 0, pretend = 0, frame = 0
 200              		@ frame_needed = 0, uses_anonymous_args = 0
 201 0000 10B5     		push	{r4, lr}
 202              		.cfi_def_cfa_offset 8
 203              		.cfi_offset 4, -8
ARM GAS  C:\Users\Intern\AppData\Local\Temp\ccD9JYVi.s 			page 27


 204              		.cfi_offset 14, -4
 154:Generated_Source\PSoC4/BLE.c ****     cyBle_busyStatus = CYBLE_STACK_STATE_FREE;
 205              		.loc 1 154 0
 206 0002 0024     		movs	r4, #0
 207 0004 064B     		ldr	r3, .L18
 208 0006 1C70     		strb	r4, [r3]
 155:Generated_Source\PSoC4/BLE.c **** 
 209              		.loc 1 155 0
 210 0008 064B     		ldr	r3, .L18+4
 211 000a 1C70     		strb	r4, [r3]
 158:Generated_Source\PSoC4/BLE.c ****     #endif /* (CYBLE_GAP_ROLE_PERIPHERAL || CYBLE_GAP_ROLE_BROADCASTER)  */
 212              		.loc 1 158 0
 213 000c 064B     		ldr	r3, .L18+8
 214 000e 1C70     		strb	r4, [r3]
 181:Generated_Source\PSoC4/BLE.c **** 
 215              		.loc 1 181 0
 216 0010 FFF7FEFF 		bl	CyBle_ServiceInit
 217              	.LVL29:
 184:Generated_Source\PSoC4/BLE.c ****         cyBle_peerBonding = CYBLE_GAP_BONDING_NONE;
 218              		.loc 1 184 0
 219 0014 054B     		ldr	r3, .L18+12
 220 0016 1C70     		strb	r4, [r3]
 185:Generated_Source\PSoC4/BLE.c ****     #endif  /* (CYBLE_BONDING_REQUIREMENT == CYBLE_BONDING_YES) */
 221              		.loc 1 185 0
 222 0018 054B     		ldr	r3, .L18+16
 223 001a 1C70     		strb	r4, [r3]
 188:Generated_Source\PSoC4/BLE.c **** 
 224              		.loc 1 188 0
 225              		@ sp needed
 226 001c 10BD     		pop	{r4, pc}
 227              	.L19:
 228 001e C046     		.align	2
 229              	.L18:
 230 0020 00000000 		.word	cyBle_eventHandlerFlag
 231 0024 00000000 		.word	cyBle_busyStatus
 232 0028 00000000 		.word	cyBle_advertisingIntervalType
 233 002c 00000000 		.word	cyBle_pendingFlashWrite
 234 0030 00000000 		.word	cyBle_peerBonding
 235              		.cfi_endproc
 236              	.LFE2:
 237              		.size	CyBle_Init, .-CyBle_Init
 238              		.section	.text.CyBle_Start,"ax",%progbits
 239              		.align	2
 240              		.global	CyBle_Start
 241              		.code	16
 242              		.thumb_func
 243              		.type	CyBle_Start, %function
 244              	CyBle_Start:
 245              	.LFB4:
 408:Generated_Source\PSoC4/BLE.c ****     CYBLE_API_RESULT_T apiResult = CYBLE_ERROR_OK;
 246              		.loc 1 408 0
 247              		.cfi_startproc
 248              		@ args = 0, pretend = 0, frame = 48
 249              		@ frame_needed = 0, uses_anonymous_args = 0
 250              	.LVL30:
 251 0000 10B5     		push	{r4, lr}
 252              		.cfi_def_cfa_offset 8
ARM GAS  C:\Users\Intern\AppData\Local\Temp\ccD9JYVi.s 			page 28


 253              		.cfi_offset 4, -8
 254              		.cfi_offset 14, -4
 255 0002 90B0     		sub	sp, sp, #64
 256              		.cfi_def_cfa_offset 72
 257 0004 0400     		movs	r4, r0
 258              	.LVL31:
 413:Generated_Source\PSoC4/BLE.c ****     {
 259              		.loc 1 413 0
 260 0006 1422     		movs	r2, #20
 261 0008 2049     		ldr	r1, .L24
 262 000a 0BA8     		add	r0, sp, #44
 263              	.LVL32:
 264 000c FFF7FEFF 		bl	memcpy
 265              	.LVL33:
 425:Generated_Source\PSoC4/BLE.c ****     {
 266              		.loc 1 425 0
 267 0010 2023     		movs	r3, #32
 268 0012 1F4A     		ldr	r2, .L24+4
 269 0014 D35C     		ldrb	r3, [r2, r3]
 270 0016 002B     		cmp	r3, #0
 271 0018 05D1     		bne	.L21
 427:Generated_Source\PSoC4/BLE.c ****         cyBle_initVar = 1u;
 272              		.loc 1 427 0
 273 001a FFF7FEFF 		bl	CyBle_Init
 274              	.LVL34:
 428:Generated_Source\PSoC4/BLE.c ****     }
 275              		.loc 1 428 0
 276 001e 0121     		movs	r1, #1
 277 0020 2023     		movs	r3, #32
 278 0022 1B4A     		ldr	r2, .L24+4
 279 0024 D154     		strb	r1, [r2, r3]
 280              	.L21:
 431:Generated_Source\PSoC4/BLE.c ****     {
 281              		.loc 1 431 0
 282 0026 002C     		cmp	r4, #0
 283 0028 2DD0     		beq	.L23
 433:Generated_Source\PSoC4/BLE.c ****         
 284              		.loc 1 433 0
 285 002a 1A4B     		ldr	r3, .L24+8
 286 002c 1C60     		str	r4, [r3]
 287              	.LBB2:
 452:Generated_Source\PSoC4/BLE.c ****             stackConfig.dleConfig = &dleConfigParams;
 288              		.loc 1 452 0
 289 002e 08A8     		add	r0, sp, #32
 290 0030 05AA     		add	r2, sp, #20
 291 0032 4260     		str	r2, [r0, #4]
 453:Generated_Source\PSoC4/BLE.c ****             
 292              		.loc 1 453 0
 293 0034 06AB     		add	r3, sp, #24
 294 0036 0893     		str	r3, [sp, #32]
 456:Generated_Source\PSoC4/BLE.c ****                                        CYBLE_SECURE_CONN_FEATURE;
 295              		.loc 1 456 0
 296 0038 0021     		movs	r1, #0
 297 003a 0181     		strh	r1, [r0, #8]
 460:Generated_Source\PSoC4/BLE.c ****             dleConfigParams.dleMaxRxCapability = CYBLE_LL_MAX_RX_PAYLOAD_SIZE;
 298              		.loc 1 460 0
 299 003c 1B31     		adds	r1, r1, #27
ARM GAS  C:\Users\Intern\AppData\Local\Temp\ccD9JYVi.s 			page 29


 300 003e 1980     		strh	r1, [r3]
 461:Generated_Source\PSoC4/BLE.c ****             dleConfigParams.dleNumTxBuffer = CYBLE_LL_DEFAULT_NUM_ACL_TX_PACKETS;
 301              		.loc 1 461 0
 302 0040 5980     		strh	r1, [r3, #2]
 462:Generated_Source\PSoC4/BLE.c ****         #if(CYBLE_DLE_FEATURE_ENABLED)
 303              		.loc 1 462 0
 304 0042 1739     		subs	r1, r1, #23
 305 0044 1971     		strb	r1, [r3, #4]
 468:Generated_Source\PSoC4/BLE.c ****         #if(CYBLE_LL_PRIVACY_FEATURE_ENABLED)
 306              		.loc 1 468 0
 307 0046 0023     		movs	r3, #0
 308 0048 1370     		strb	r3, [r2]
 473:Generated_Source\PSoC4/BLE.c ****             }
 309              		.loc 1 473 0
 310 004a 1231     		adds	r1, r1, #18
 311 004c 6944     		add	r1, r1, sp
 312 004e FFF7FEFF 		bl	CyBle_StackSetFeatureConfig
 313              	.LVL35:
 314              	.LBE2:
 476:Generated_Source\PSoC4/BLE.c ****         {
 315              		.loc 1 476 0
 316 0052 0028     		cmp	r0, #0
 317 0054 18D1     		bne	.L22
 481:Generated_Source\PSoC4/BLE.c ****                     CYBLE_STACK_RAM_SIZE - CYBLE_GATT_PREPARE_WRITE_BUFF_LEN, cyBle_stackDataBuff, 
 318              		.loc 1 481 0
 319 0056 104B     		ldr	r3, .L24+12
 320 0058 0293     		str	r3, [sp, #8]
 321 005a 104B     		ldr	r3, .L24+16
 322 005c 0193     		str	r3, [sp, #4]
 323 005e 0523     		movs	r3, #5
 324 0060 0093     		str	r3, [sp]
 325 0062 0BAB     		add	r3, sp, #44
 326 0064 AE22     		movs	r2, #174
 327 0066 1201     		lsls	r2, r2, #4
 328 0068 0D49     		ldr	r1, .L24+20
 329 006a 0E48     		ldr	r0, .L24+24
 330              	.LVL36:
 331 006c FFF7FEFF 		bl	CyBle_StackInit
 332              	.LVL37:
 505:Generated_Source\PSoC4/BLE.c ****             {
 333              		.loc 1 505 0
 334 0070 0028     		cmp	r0, #0
 335 0072 09D1     		bne	.L22
 507:Generated_Source\PSoC4/BLE.c ****                 
 336              		.loc 1 507 0
 337 0074 0122     		movs	r2, #1
 338 0076 0C4B     		ldr	r3, .L24+28
 339 0078 1A70     		strb	r2, [r3]
 514:Generated_Source\PSoC4/BLE.c ****             #endif /* CYBLE_GATT_ROLE_SERVER */
 340              		.loc 1 514 0
 341 007a 0932     		adds	r2, r2, #9
 342 007c 1E21     		movs	r1, #30
 343 007e 0B48     		ldr	r0, .L24+32
 344              	.LVL38:
 345 0080 FFF7FEFF 		bl	CyBle_GattsDbRegister
 346              	.LVL39:
 347 0084 00E0     		b	.L22
ARM GAS  C:\Users\Intern\AppData\Local\Temp\ccD9JYVi.s 			page 30


 348              	.LVL40:
 349              	.L23:
 521:Generated_Source\PSoC4/BLE.c ****     }
 350              		.loc 1 521 0
 351 0086 0120     		movs	r0, #1
 352              	.LVL41:
 353              	.L22:
 525:Generated_Source\PSoC4/BLE.c **** 
 354              		.loc 1 525 0
 355 0088 10B0     		add	sp, sp, #64
 356              		@ sp needed
 357              	.LVL42:
 358 008a 10BD     		pop	{r4, pc}
 359              	.L25:
 360              		.align	2
 361              	.L24:
 362 008c 00000000 		.word	.LANCHOR2
 363 0090 00000000 		.word	.LANCHOR1
 364 0094 00000000 		.word	CyBle_ApplCallback
 365 0098 79020000 		.word	633
 366 009c 00000000 		.word	cyBle_flashStorage
 367 00a0 00000000 		.word	.LANCHOR3
 368 00a4 00000000 		.word	CyBle_EventHandler
 369 00a8 00000000 		.word	cyBle_state
 370 00ac 00000000 		.word	cyBle_gattDB
 371              		.cfi_endproc
 372              	.LFE4:
 373              		.size	CyBle_Start, .-CyBle_Start
 374              		.section	.text.CyBle_Stop,"ax",%progbits
 375              		.align	2
 376              		.global	CyBle_Stop
 377              		.code	16
 378              		.thumb_func
 379              		.type	CyBle_Stop, %function
 380              	CyBle_Stop:
 381              	.LFB5:
 541:Generated_Source\PSoC4/BLE.c ****     CyBle_Shutdown();                         /* Stop all ongoing activities */
 382              		.loc 1 541 0
 383              		.cfi_startproc
 384              		@ args = 0, pretend = 0, frame = 0
 385              		@ frame_needed = 0, uses_anonymous_args = 0
 386 0000 10B5     		push	{r4, lr}
 387              		.cfi_def_cfa_offset 8
 388              		.cfi_offset 4, -8
 389              		.cfi_offset 14, -4
 542:Generated_Source\PSoC4/BLE.c ****     CyBle_SetState(CYBLE_STATE_STOPPED);
 390              		.loc 1 542 0
 391 0002 FFF7FEFF 		bl	CyBle_Shutdown
 392              	.LVL43:
 543:Generated_Source\PSoC4/BLE.c ****     #if(CYBLE_SHARING_MODE_EXPORT)
 393              		.loc 1 543 0
 394 0006 0022     		movs	r2, #0
 395 0008 014B     		ldr	r3, .L27
 396 000a 1A70     		strb	r2, [r3]
 550:Generated_Source\PSoC4/BLE.c **** 
 397              		.loc 1 550 0
 398              		@ sp needed
ARM GAS  C:\Users\Intern\AppData\Local\Temp\ccD9JYVi.s 			page 31


 399 000c 10BD     		pop	{r4, pc}
 400              	.L28:
 401 000e C046     		.align	2
 402              	.L27:
 403 0010 00000000 		.word	cyBle_state
 404              		.cfi_endproc
 405              	.LFE5:
 406              		.size	CyBle_Stop, .-CyBle_Stop
 407              		.section	.text.CyBle_StoreBondingData,"ax",%progbits
 408              		.align	2
 409              		.global	CyBle_StoreBondingData
 410              		.code	16
 411              		.thumb_func
 412              		.type	CyBle_StoreBondingData, %function
 413              	CyBle_StoreBondingData:
 414              	.LFB6:
 597:Generated_Source\PSoC4/BLE.c ****     CYBLE_API_RESULT_T apiResult = CYBLE_ERROR_OK;
 415              		.loc 1 597 0
 416              		.cfi_startproc
 417              		@ args = 0, pretend = 0, frame = 56
 418              		@ frame_needed = 0, uses_anonymous_args = 0
 419              	.LVL44:
 420 0000 10B5     		push	{r4, lr}
 421              		.cfi_def_cfa_offset 8
 422              		.cfi_offset 4, -8
 423              		.cfi_offset 14, -4
 424 0002 8EB0     		sub	sp, sp, #56
 425              		.cfi_def_cfa_offset 64
 426 0004 0400     		movs	r4, r0
 427              	.LVL45:
 601:Generated_Source\PSoC4/BLE.c ****     {
 428              		.loc 1 601 0
 429 0006 394B     		ldr	r3, .L40
 430 0008 1B78     		ldrb	r3, [r3]
 431 000a DB07     		lsls	r3, r3, #31
 432 000c 0BD5     		bpl	.L38
 603:Generated_Source\PSoC4/BLE.c ****         if(apiResult == CYBLE_ERROR_OK)
 433              		.loc 1 603 0
 434 000e FFF7FEFF 		bl	CyBle_StoreStackData
 435              	.LVL46:
 604:Generated_Source\PSoC4/BLE.c ****         {
 436              		.loc 1 604 0
 437 0012 0028     		cmp	r0, #0
 438 0014 0AD1     		bne	.L30
 606:Generated_Source\PSoC4/BLE.c ****             /* Change apiResult if there are more pending data to store */
 439              		.loc 1 606 0
 440 0016 354A     		ldr	r2, .L40
 441 0018 1378     		ldrb	r3, [r2]
 442 001a 0121     		movs	r1, #1
 443 001c 8B43     		bics	r3, r1
 444 001e 1370     		strb	r3, [r2]
 608:Generated_Source\PSoC4/BLE.c ****             {
 445              		.loc 1 608 0
 446 0020 9B07     		lsls	r3, r3, #30
 447 0022 02D4     		bmi	.L39
 448 0024 02E0     		b	.L30
 449              	.LVL47:
ARM GAS  C:\Users\Intern\AppData\Local\Temp\ccD9JYVi.s 			page 32


 450              	.L38:
 598:Generated_Source\PSoC4/BLE.c ****     
 451              		.loc 1 598 0
 452 0026 0020     		movs	r0, #0
 453              	.LVL48:
 454 0028 00E0     		b	.L30
 455              	.LVL49:
 456              	.L39:
 610:Generated_Source\PSoC4/BLE.c ****             }
 457              		.loc 1 610 0
 458 002a 2820     		movs	r0, #40
 459              	.LVL50:
 460              	.L30:
 616:Generated_Source\PSoC4/BLE.c ****         ((cyBle_pendingFlashWrite & CYBLE_PENDING_CCCD_FLASH_WRITE_BIT) != 0u) &&
 461              		.loc 1 616 0
 462 002c 0028     		cmp	r0, #0
 463 002e 01D0     		beq	.L31
 616:Generated_Source\PSoC4/BLE.c ****         ((cyBle_pendingFlashWrite & CYBLE_PENDING_CCCD_FLASH_WRITE_BIT) != 0u) &&
 464              		.loc 1 616 0 is_stmt 0 discriminator 2
 465 0030 002C     		cmp	r4, #0
 466 0032 1DD0     		beq	.L32
 467              	.L31:
 617:Generated_Source\PSoC4/BLE.c ****         (cyBle_connHandle.bdHandle <= CYBLE_GAP_MAX_BONDED_DEVICE))
 468              		.loc 1 617 0 is_stmt 1 discriminator 3
 469 0034 2D4B     		ldr	r3, .L40
 470 0036 1B78     		ldrb	r3, [r3]
 616:Generated_Source\PSoC4/BLE.c ****         ((cyBle_pendingFlashWrite & CYBLE_PENDING_CCCD_FLASH_WRITE_BIT) != 0u) &&
 471              		.loc 1 616 0 discriminator 3
 472 0038 9B07     		lsls	r3, r3, #30
 473 003a 19D5     		bpl	.L32
 618:Generated_Source\PSoC4/BLE.c ****     {
 474              		.loc 1 618 0
 475 003c 2C4B     		ldr	r3, .L40+4
 476 003e 1B78     		ldrb	r3, [r3]
 617:Generated_Source\PSoC4/BLE.c ****         (cyBle_connHandle.bdHandle <= CYBLE_GAP_MAX_BONDED_DEVICE))
 477              		.loc 1 617 0
 478 0040 042B     		cmp	r3, #4
 479 0042 15D8     		bhi	.L32
 620:Generated_Source\PSoC4/BLE.c ****                         cyBle_connHandle.bdHandle], CYBLE_GATT_DB_CCCD_COUNT, isForceWrite);
 480              		.loc 1 620 0
 481 0044 9A00     		lsls	r2, r3, #2
 482 0046 D318     		adds	r3, r2, r3
 483 0048 5900     		lsls	r1, r3, #1
 484 004a 9E23     		movs	r3, #158
 485 004c 9B00     		lsls	r3, r3, #2
 486 004e 9C46     		mov	ip, r3
 487 0050 6144     		add	r1, r1, ip
 488 0052 284B     		ldr	r3, .L40+8
 489 0054 C918     		adds	r1, r1, r3
 490 0056 0131     		adds	r1, r1, #1
 491 0058 2300     		movs	r3, r4
 492 005a 0A22     		movs	r2, #10
 493 005c 2648     		ldr	r0, .L40+12
 494              	.LVL51:
 495 005e FFF7FEFF 		bl	CyBle_StoreAppData
 496              	.LVL52:
 622:Generated_Source\PSoC4/BLE.c ****         {
ARM GAS  C:\Users\Intern\AppData\Local\Temp\ccD9JYVi.s 			page 33


 497              		.loc 1 622 0
 498 0062 0028     		cmp	r0, #0
 499 0064 04D1     		bne	.L32
 624:Generated_Source\PSoC4/BLE.c ****         }
 500              		.loc 1 624 0
 501 0066 214A     		ldr	r2, .L40
 502 0068 1378     		ldrb	r3, [r2]
 503 006a 0221     		movs	r1, #2
 504 006c 8B43     		bics	r3, r1
 505 006e 1370     		strb	r3, [r2]
 506              	.LVL53:
 507              	.L32:
 628:Generated_Source\PSoC4/BLE.c ****         ((cyBle_pendingFlashWrite & CYBLE_PENDING_CCCD_FLASH_CLEAR_MASK) != 0u) )
 508              		.loc 1 628 0
 509 0070 0028     		cmp	r0, #0
 510 0072 01D0     		beq	.L33
 628:Generated_Source\PSoC4/BLE.c ****         ((cyBle_pendingFlashWrite & CYBLE_PENDING_CCCD_FLASH_CLEAR_MASK) != 0u) )
 511              		.loc 1 628 0 is_stmt 0 discriminator 2
 512 0074 002C     		cmp	r4, #0
 513 0076 37D0     		beq	.L34
 514              	.L33:
 629:Generated_Source\PSoC4/BLE.c ****     {
 515              		.loc 1 629 0 is_stmt 1 discriminator 3
 516 0078 1C4B     		ldr	r3, .L40
 517 007a 1B78     		ldrb	r3, [r3]
 628:Generated_Source\PSoC4/BLE.c ****         ((cyBle_pendingFlashWrite & CYBLE_PENDING_CCCD_FLASH_CLEAR_MASK) != 0u) )
 518              		.loc 1 628 0 discriminator 3
 519 007c 0C22     		movs	r2, #12
 520 007e 1A42     		tst	r2, r3
 521 0080 32D0     		beq	.L34
 631:Generated_Source\PSoC4/BLE.c ****         {
 522              		.loc 1 631 0
 523 0082 1B07     		lsls	r3, r3, #28
 524 0084 12D5     		bpl	.L35
 525              	.LBB3:
 636:Generated_Source\PSoC4/BLE.c **** 
 526              		.loc 1 636 0
 527 0086 2632     		adds	r2, r2, #38
 528 0088 0021     		movs	r1, #0
 529 008a 01A8     		add	r0, sp, #4
 530              	.LVL54:
 531 008c FFF7FEFF 		bl	memset
 532              	.LVL55:
 638:Generated_Source\PSoC4/BLE.c ****                 (const uint8 *)cyBle_flashStorage.attValuesCCCDFlashMemory, sizeof(defaultValuesCCC
 533              		.loc 1 638 0
 534 0090 2300     		movs	r3, r4
 535 0092 3222     		movs	r2, #50
 536 0094 1949     		ldr	r1, .L40+16
 537 0096 01A8     		add	r0, sp, #4
 538 0098 FFF7FEFF 		bl	CyBle_StoreAppData
 539              	.LVL56:
 640:Generated_Source\PSoC4/BLE.c ****             {
 540              		.loc 1 640 0
 541 009c 0028     		cmp	r0, #0
 542 009e 23D1     		bne	.L34
 642:Generated_Source\PSoC4/BLE.c ****             }
 543              		.loc 1 642 0
ARM GAS  C:\Users\Intern\AppData\Local\Temp\ccD9JYVi.s 			page 34


 544 00a0 124A     		ldr	r2, .L40
 545 00a2 1378     		ldrb	r3, [r2]
 546 00a4 0821     		movs	r1, #8
 547 00a6 8B43     		bics	r3, r1
 548 00a8 1370     		strb	r3, [r2]
 549 00aa 1DE0     		b	.L34
 550              	.L35:
 551              	.LBE3:
 552              	.LBB4:
 647:Generated_Source\PSoC4/BLE.c ****             
 553              		.loc 1 647 0
 554 00ac 0A22     		movs	r2, #10
 555 00ae 0021     		movs	r1, #0
 556 00b0 01A8     		add	r0, sp, #4
 557              	.LVL57:
 558 00b2 FFF7FEFF 		bl	memset
 559              	.LVL58:
 649:Generated_Source\PSoC4/BLE.c ****                                     cyBle_pendingFlashClearCccdHandle], CYBLE_GATT_DB_CCCD_COUNT, i
 560              		.loc 1 649 0
 561 00b6 2123     		movs	r3, #33
 562 00b8 114A     		ldr	r2, .L40+20
 563 00ba D35C     		ldrb	r3, [r2, r3]
 564 00bc 9A00     		lsls	r2, r3, #2
 565 00be D318     		adds	r3, r2, r3
 566 00c0 5900     		lsls	r1, r3, #1
 567 00c2 9E23     		movs	r3, #158
 568 00c4 9B00     		lsls	r3, r3, #2
 569 00c6 9C46     		mov	ip, r3
 570 00c8 6144     		add	r1, r1, ip
 571 00ca 0A4B     		ldr	r3, .L40+8
 572 00cc C918     		adds	r1, r1, r3
 573 00ce 0131     		adds	r1, r1, #1
 574 00d0 2300     		movs	r3, r4
 575 00d2 0A22     		movs	r2, #10
 576 00d4 01A8     		add	r0, sp, #4
 577 00d6 FFF7FEFF 		bl	CyBle_StoreAppData
 578              	.LVL59:
 651:Generated_Source\PSoC4/BLE.c ****             {
 579              		.loc 1 651 0
 580 00da 0028     		cmp	r0, #0
 581 00dc 04D1     		bne	.L34
 653:Generated_Source\PSoC4/BLE.c ****             }
 582              		.loc 1 653 0
 583 00de 034A     		ldr	r2, .L40
 584 00e0 1378     		ldrb	r3, [r2]
 585 00e2 0421     		movs	r1, #4
 586 00e4 8B43     		bics	r3, r1
 587 00e6 1370     		strb	r3, [r2]
 588              	.LVL60:
 589              	.L34:
 590              	.LBE4:
 659:Generated_Source\PSoC4/BLE.c **** 
 591              		.loc 1 659 0
 592 00e8 0EB0     		add	sp, sp, #56
 593              		@ sp needed
 594 00ea 10BD     		pop	{r4, pc}
 595              	.L41:
ARM GAS  C:\Users\Intern\AppData\Local\Temp\ccD9JYVi.s 			page 35


 596              		.align	2
 597              	.L40:
 598 00ec 00000000 		.word	cyBle_pendingFlashWrite
 599 00f0 00000000 		.word	cyBle_connHandle
 600 00f4 00000000 		.word	cyBle_flashStorage
 601 00f8 00000000 		.word	cyBle_attValuesCCCD
 602 00fc 79020000 		.word	cyBle_flashStorage+633
 603 0100 00000000 		.word	.LANCHOR1
 604              		.cfi_endproc
 605              	.LFE6:
 606              		.size	CyBle_StoreBondingData, .-CyBle_StoreBondingData
 607              		.section	.text.CyBle_GapRemoveBondedDevice,"ax",%progbits
 608              		.align	2
 609              		.global	CyBle_GapRemoveBondedDevice
 610              		.code	16
 611              		.thumb_func
 612              		.type	CyBle_GapRemoveBondedDevice, %function
 613              	CyBle_GapRemoveBondedDevice:
 614              	.LFB7:
 695:Generated_Source\PSoC4/BLE.c ****     CYBLE_API_RESULT_T apiResult = CYBLE_ERROR_OK;
 615              		.loc 1 695 0
 616              		.cfi_startproc
 617              		@ args = 0, pretend = 0, frame = 16
 618              		@ frame_needed = 0, uses_anonymous_args = 0
 619              	.LVL61:
 620 0000 30B5     		push	{r4, r5, lr}
 621              		.cfi_def_cfa_offset 12
 622              		.cfi_offset 4, -12
 623              		.cfi_offset 5, -8
 624              		.cfi_offset 14, -4
 625 0002 85B0     		sub	sp, sp, #20
 626              		.cfi_def_cfa_offset 32
 627 0004 0500     		movs	r5, r0
 628              	.LVL62:
 698:Generated_Source\PSoC4/BLE.c ****     {
 629              		.loc 1 698 0
 630 0006 174B     		ldr	r3, .L48
 631 0008 1C78     		ldrb	r4, [r3]
 632 000a 002C     		cmp	r4, #0
 633 000c 27D1     		bne	.L47
 634              	.LBB5:
 704:Generated_Source\PSoC4/BLE.c **** 
 635              		.loc 1 704 0
 636 000e 0722     		movs	r2, #7
 637 0010 0021     		movs	r1, #0
 638 0012 02A8     		add	r0, sp, #8
 639              	.LVL63:
 640 0014 FFF7FEFF 		bl	memset
 641              	.LVL64:
 706:Generated_Source\PSoC4/BLE.c **** 	    {
 642              		.loc 1 706 0
 643 0018 0622     		movs	r2, #6
 644 001a 02A9     		add	r1, sp, #8
 645 001c 2800     		movs	r0, r5
 646 001e FFF7FEFF 		bl	memcmp
 647              	.LVL65:
 648 0022 0028     		cmp	r0, #0
ARM GAS  C:\Users\Intern\AppData\Local\Temp\ccD9JYVi.s 			page 36


 649 0024 04D1     		bne	.L44
 709:Generated_Source\PSoC4/BLE.c ****         }
 650              		.loc 1 709 0
 651 0026 0823     		movs	r3, #8
 652 0028 1C43     		orrs	r4, r3
 653 002a 0E4B     		ldr	r3, .L48
 654 002c 1C70     		strb	r4, [r3]
 655 002e 10E0     		b	.L45
 656              	.L44:
 714:Generated_Source\PSoC4/BLE.c ****             if(apiResult == CYBLE_ERROR_OK)
 657              		.loc 1 714 0
 658 0030 2900     		movs	r1, r5
 659 0032 6B46     		mov	r3, sp
 660 0034 D81D     		adds	r0, r3, #7
 661 0036 FFF7FEFF 		bl	CyBle_GapGetPeerBdHandle
 662              	.LVL66:
 715:Generated_Source\PSoC4/BLE.c ****             {
 663              		.loc 1 715 0
 664 003a 0028     		cmp	r0, #0
 665 003c 09D1     		bne	.L45
 718:Generated_Source\PSoC4/BLE.c ****                 cyBle_pendingFlashClearCccdHandle = bDevHandle;
 666              		.loc 1 718 0
 667 003e 094A     		ldr	r2, .L48
 668 0040 1178     		ldrb	r1, [r2]
 669 0042 0423     		movs	r3, #4
 670 0044 0B43     		orrs	r3, r1
 671 0046 1370     		strb	r3, [r2]
 719:Generated_Source\PSoC4/BLE.c ****             }
 672              		.loc 1 719 0
 673 0048 6B46     		mov	r3, sp
 674 004a D979     		ldrb	r1, [r3, #7]
 675 004c 2123     		movs	r3, #33
 676 004e 064A     		ldr	r2, .L48+4
 677 0050 D154     		strb	r1, [r2, r3]
 678              	.LVL67:
 679              	.L45:
 723:Generated_Source\PSoC4/BLE.c ****         {
 680              		.loc 1 723 0
 681 0052 0028     		cmp	r0, #0
 682 0054 04D1     		bne	.L43
 725:Generated_Source\PSoC4/BLE.c ****         }
 683              		.loc 1 725 0
 684 0056 2800     		movs	r0, r5
 685              	.LVL68:
 686 0058 FFF7FEFF 		bl	CyBle_GapRemoveDeviceFromWhiteList
 687              	.LVL69:
 688 005c 00E0     		b	.L43
 689              	.LVL70:
 690              	.L47:
 691              	.LBE5:
 730:Generated_Source\PSoC4/BLE.c ****     }
 692              		.loc 1 730 0
 693 005e 0220     		movs	r0, #2
 694              	.LVL71:
 695              	.L43:
 734:Generated_Source\PSoC4/BLE.c **** 
 696              		.loc 1 734 0
ARM GAS  C:\Users\Intern\AppData\Local\Temp\ccD9JYVi.s 			page 37


 697 0060 05B0     		add	sp, sp, #20
 698              		@ sp needed
 699              	.LVL72:
 700 0062 30BD     		pop	{r4, r5, pc}
 701              	.L49:
 702              		.align	2
 703              	.L48:
 704 0064 00000000 		.word	cyBle_pendingFlashWrite
 705 0068 00000000 		.word	.LANCHOR1
 706              		.cfi_endproc
 707              	.LFE7:
 708              		.size	CyBle_GapRemoveBondedDevice, .-CyBle_GapRemoveBondedDevice
 709              		.section	.text.CyBle_GappStartAdvertisement,"ax",%progbits
 710              		.align	2
 711              		.global	CyBle_GappStartAdvertisement
 712              		.code	16
 713              		.thumb_func
 714              		.type	CyBle_GappStartAdvertisement, %function
 715              	CyBle_GappStartAdvertisement:
 716              	.LFB8:
 792:Generated_Source\PSoC4/BLE.c ****         CYBLE_API_RESULT_T apiResult;
 717              		.loc 1 792 0
 718              		.cfi_startproc
 719              		@ args = 0, pretend = 0, frame = 0
 720              		@ frame_needed = 0, uses_anonymous_args = 0
 721              	.LVL73:
 722 0000 10B5     		push	{r4, lr}
 723              		.cfi_def_cfa_offset 8
 724              		.cfi_offset 4, -8
 725              		.cfi_offset 14, -4
 795:Generated_Source\PSoC4/BLE.c ****         {
 726              		.loc 1 795 0
 727 0002 0228     		cmp	r0, #2
 728 0004 2FD8     		bhi	.L54
 799:Generated_Source\PSoC4/BLE.c ****         {   
 729              		.loc 1 799 0
 730 0006 1C4B     		ldr	r3, .L57
 731 0008 1B78     		ldrb	r3, [r3]
 732 000a 042B     		cmp	r3, #4
 733 000c 2DD1     		bne	.L55
 799:Generated_Source\PSoC4/BLE.c ****         {   
 734              		.loc 1 799 0 is_stmt 0 discriminator 1
 735 000e 1B4B     		ldr	r3, .L57+4
 736 0010 1B78     		ldrb	r3, [r3]
 737 0012 5B07     		lsls	r3, r3, #29
 738 0014 2CD4     		bmi	.L56
 801:Generated_Source\PSoC4/BLE.c ****             {
 739              		.loc 1 801 0 is_stmt 1
 740 0016 0028     		cmp	r0, #0
 741 0018 09D1     		bne	.L52
 803:Generated_Source\PSoC4/BLE.c ****                 cyBle_discoveryModeInfo.advParam->advIntvMin = CYBLE_FAST_ADV_INT_MIN;
 742              		.loc 1 803 0
 743 001a 194B     		ldr	r3, .L57+8
 744 001c 0022     		movs	r2, #0
 745 001e 1A86     		strh	r2, [r3, #48]
 804:Generated_Source\PSoC4/BLE.c ****                 cyBle_discoveryModeInfo.advParam->advIntvMax = CYBLE_FAST_ADV_INT_MAX;
 746              		.loc 1 804 0
ARM GAS  C:\Users\Intern\AppData\Local\Temp\ccD9JYVi.s 			page 38


 747 0020 2032     		adds	r2, r2, #32
 748 0022 596A     		ldr	r1, [r3, #36]
 749 0024 0A80     		strh	r2, [r1]
 805:Generated_Source\PSoC4/BLE.c ****             }
 750              		.loc 1 805 0
 751 0026 5B6A     		ldr	r3, [r3, #36]
 752 0028 1032     		adds	r2, r2, #16
 753 002a 5A80     		strh	r2, [r3, #2]
 754 002c 0CE0     		b	.L53
 755              	.L52:
 807:Generated_Source\PSoC4/BLE.c ****             {
 756              		.loc 1 807 0
 757 002e 0128     		cmp	r0, #1
 758 0030 0AD1     		bne	.L53
 809:Generated_Source\PSoC4/BLE.c ****                 cyBle_discoveryModeInfo.advParam->advIntvMin = CYBLE_SLOW_ADV_INT_MIN;
 759              		.loc 1 809 0
 760 0032 134B     		ldr	r3, .L57+8
 761 0034 9622     		movs	r2, #150
 762 0036 1A86     		strh	r2, [r3, #48]
 810:Generated_Source\PSoC4/BLE.c ****                 cyBle_discoveryModeInfo.advParam->advIntvMax = CYBLE_SLOW_ADV_INT_MAX;
 763              		.loc 1 810 0
 764 0038 C822     		movs	r2, #200
 765 003a D200     		lsls	r2, r2, #3
 766 003c 596A     		ldr	r1, [r3, #36]
 767 003e 0A80     		strh	r2, [r1]
 811:Generated_Source\PSoC4/BLE.c ****             }       
 768              		.loc 1 811 0
 769 0040 5B6A     		ldr	r3, [r3, #36]
 770 0042 8022     		movs	r2, #128
 771 0044 D201     		lsls	r2, r2, #7
 772 0046 5A80     		strh	r2, [r3, #2]
 773              	.L53:
 816:Generated_Source\PSoC4/BLE.c ****             apiResult = CyBle_GappEnterDiscoveryMode(&cyBle_discoveryModeInfo);
 774              		.loc 1 816 0
 775 0048 0E4B     		ldr	r3, .L57+12
 776 004a 1870     		strb	r0, [r3]
 817:Generated_Source\PSoC4/BLE.c ****         
 777              		.loc 1 817 0
 778 004c 0C48     		ldr	r0, .L57+8
 779              	.LVL74:
 780 004e 2030     		adds	r0, r0, #32
 781 0050 FFF7FEFF 		bl	CyBle_GappEnterDiscoveryMode
 782              	.LVL75:
 819:Generated_Source\PSoC4/BLE.c ****             {
 783              		.loc 1 819 0
 784 0054 0028     		cmp	r0, #0
 785 0056 0DD1     		bne	.L51
 821:Generated_Source\PSoC4/BLE.c ****             }
 786              		.loc 1 821 0
 787 0058 084A     		ldr	r2, .L57+4
 788 005a 1178     		ldrb	r1, [r2]
 789 005c 0423     		movs	r3, #4
 790 005e 0B43     		orrs	r3, r1
 791 0060 DBB2     		uxtb	r3, r3
 792 0062 1370     		strb	r3, [r2]
 793 0064 06E0     		b	.L51
 794              	.LVL76:
ARM GAS  C:\Users\Intern\AppData\Local\Temp\ccD9JYVi.s 			page 39


 795              	.L54:
 797:Generated_Source\PSoC4/BLE.c ****         }
 796              		.loc 1 797 0
 797 0066 0120     		movs	r0, #1
 798              	.LVL77:
 799 0068 04E0     		b	.L51
 800              	.LVL78:
 801              	.L55:
 826:Generated_Source\PSoC4/BLE.c ****         }
 802              		.loc 1 826 0
 803 006a 0420     		movs	r0, #4
 804              	.LVL79:
 805 006c FF30     		adds	r0, r0, #255
 806 006e 01E0     		b	.L51
 807              	.LVL80:
 808              	.L56:
 809 0070 0420     		movs	r0, #4
 810              	.LVL81:
 811 0072 FF30     		adds	r0, r0, #255
 812              	.L51:
 813              	.LVL82:
 830:Generated_Source\PSoC4/BLE.c **** 
 814              		.loc 1 830 0
 815              		@ sp needed
 816 0074 10BD     		pop	{r4, pc}
 817              	.L58:
 818 0076 C046     		.align	2
 819              	.L57:
 820 0078 00000000 		.word	cyBle_state
 821 007c 00000000 		.word	cyBle_eventHandlerFlag
 822 0080 00000000 		.word	.LANCHOR0
 823 0084 00000000 		.word	cyBle_advertisingIntervalType
 824              		.cfi_endproc
 825              	.LFE8:
 826              		.size	CyBle_GappStartAdvertisement, .-CyBle_GappStartAdvertisement
 827              		.section	.text.CyBle_GappStopAdvertisement,"ax",%progbits
 828              		.align	2
 829              		.global	CyBle_GappStopAdvertisement
 830              		.code	16
 831              		.thumb_func
 832              		.type	CyBle_GappStopAdvertisement, %function
 833              	CyBle_GappStopAdvertisement:
 834              	.LFB9:
 853:Generated_Source\PSoC4/BLE.c ****         CyBle_GappExitDiscoveryMode();
 835              		.loc 1 853 0
 836              		.cfi_startproc
 837              		@ args = 0, pretend = 0, frame = 0
 838              		@ frame_needed = 0, uses_anonymous_args = 0
 839 0000 10B5     		push	{r4, lr}
 840              		.cfi_def_cfa_offset 8
 841              		.cfi_offset 4, -8
 842              		.cfi_offset 14, -4
 854:Generated_Source\PSoC4/BLE.c ****         cyBle_eventHandlerFlag |= CYBLE_STOP_FLAG;
 843              		.loc 1 854 0
 844 0002 FFF7FEFF 		bl	CyBle_GappExitDiscoveryMode
 845              	.LVL83:
 855:Generated_Source\PSoC4/BLE.c ****     }
ARM GAS  C:\Users\Intern\AppData\Local\Temp\ccD9JYVi.s 			page 40


 846              		.loc 1 855 0
 847 0006 034A     		ldr	r2, .L60
 848 0008 1178     		ldrb	r1, [r2]
 849 000a 0823     		movs	r3, #8
 850 000c 0B43     		orrs	r3, r1
 851 000e DBB2     		uxtb	r3, r3
 852 0010 1370     		strb	r3, [r2]
 856:Generated_Source\PSoC4/BLE.c ****     
 853              		.loc 1 856 0
 854              		@ sp needed
 855 0012 10BD     		pop	{r4, pc}
 856              	.L61:
 857              		.align	2
 858              	.L60:
 859 0014 00000000 		.word	cyBle_eventHandlerFlag
 860              		.cfi_endproc
 861              	.LFE9:
 862              		.size	CyBle_GappStopAdvertisement, .-CyBle_GappStopAdvertisement
 863              		.section	.text.CyBle_ChangeAdDeviceAddress,"ax",%progbits
 864              		.align	2
 865              		.global	CyBle_ChangeAdDeviceAddress
 866              		.code	16
 867              		.thumb_func
 868              		.type	CyBle_ChangeAdDeviceAddress, %function
 869              	CyBle_ChangeAdDeviceAddress:
 870              	.LFB10:
 875:Generated_Source\PSoC4/BLE.c ****         uint8 i;
 871              		.loc 1 875 0
 872              		.cfi_startproc
 873              		@ args = 0, pretend = 0, frame = 0
 874              		@ frame_needed = 0, uses_anonymous_args = 0
 875              		@ link register save eliminated.
 876              	.LVL84:
 902:Generated_Source\PSoC4/BLE.c ****   
 877              		.loc 1 902 0
 878              		@ sp needed
 879 0000 7047     		bx	lr
 880              		.cfi_endproc
 881              	.LFE10:
 882              		.size	CyBle_ChangeAdDeviceAddress, .-CyBle_ChangeAdDeviceAddress
 883 0002 C046     		.section	.text.CyBle_GapSetLocalName,"ax",%progbits
 884              		.align	2
 885              		.global	CyBle_GapSetLocalName
 886              		.code	16
 887              		.thumb_func
 888              		.type	CyBle_GapSetLocalName, %function
 889              	CyBle_GapSetLocalName:
 890              	.LFB12:
1264:Generated_Source\PSoC4/BLE.c ****         
1265:Generated_Source\PSoC4/BLE.c **** #endif /* (CYBLE_GAP_ROLE_PERIPHERAL) */  
1266:Generated_Source\PSoC4/BLE.c ****     
1267:Generated_Source\PSoC4/BLE.c ****     
1268:Generated_Source\PSoC4/BLE.c ****     /******************************************************************************
1269:Generated_Source\PSoC4/BLE.c ****     * Function Name: CyBle_GapSetLocalName
1270:Generated_Source\PSoC4/BLE.c ****     ***************************************************************************//**
1271:Generated_Source\PSoC4/BLE.c ****     *  This function is used to set the local device name - a Characteristic of the 
1272:Generated_Source\PSoC4/BLE.c ****     *  GAP Service. If the characteristic length entered in the component customizer
ARM GAS  C:\Users\Intern\AppData\Local\Temp\ccD9JYVi.s 			page 41


1273:Generated_Source\PSoC4/BLE.c ****     *  is shorter than the string specified by the "name" parameter, the local device
1274:Generated_Source\PSoC4/BLE.c ****     *  name will be cut to the length specified in the customizer.
1275:Generated_Source\PSoC4/BLE.c ****     * 
1276:Generated_Source\PSoC4/BLE.c ****     *  \param name: The local device name string. The name string to be written as
1277:Generated_Source\PSoC4/BLE.c ****     *              the local device name. It represents a UTF-8 encoded User
1278:Generated_Source\PSoC4/BLE.c ****     *              Friendly Descriptive Name for the device. The length of the local
1279:Generated_Source\PSoC4/BLE.c ****     *              device string is entered into the component customizer and it can
1280:Generated_Source\PSoC4/BLE.c ****     *              be set to a value from 0 to 248 bytes. If the name contained in
1281:Generated_Source\PSoC4/BLE.c ****     *              the parameter is shorter than the length from the customizer, the
1282:Generated_Source\PSoC4/BLE.c ****     *              end of the name is indicated by a NULL octet (0x00).
1283:Generated_Source\PSoC4/BLE.c ****     * 
1284:Generated_Source\PSoC4/BLE.c ****     * \return
1285:Generated_Source\PSoC4/BLE.c ****     *  CYBLE_API_RESULT_T : Return value indicates if the function succeeded or 
1286:Generated_Source\PSoC4/BLE.c ****     *  failed. Following are the possible error codes.
1287:Generated_Source\PSoC4/BLE.c ****     *
1288:Generated_Source\PSoC4/BLE.c ****     *   Errors codes                       | Description
1289:Generated_Source\PSoC4/BLE.c ****     *   ------------                       | -----------
1290:Generated_Source\PSoC4/BLE.c ****     *   CYBLE_ERROR_OK                     | Function completed successfully.
1291:Generated_Source\PSoC4/BLE.c ****     *   CYBLE_ERROR_INVALID_PARAMETER      | On specifying NULL as input parameter
1292:Generated_Source\PSoC4/BLE.c ****     *  
1293:Generated_Source\PSoC4/BLE.c ****     *******************************************************************************/
1294:Generated_Source\PSoC4/BLE.c ****     CYBLE_API_RESULT_T CyBle_GapSetLocalName(const char8 name[])
1295:Generated_Source\PSoC4/BLE.c ****     {
 891              		.loc 1 1295 0
 892              		.cfi_startproc
 893              		@ args = 0, pretend = 0, frame = 0
 894              		@ frame_needed = 0, uses_anonymous_args = 0
 895              	.LVL85:
 896 0000 70B5     		push	{r4, r5, r6, lr}
 897              		.cfi_def_cfa_offset 16
 898              		.cfi_offset 4, -16
 899              		.cfi_offset 5, -12
 900              		.cfi_offset 6, -8
 901              		.cfi_offset 14, -4
 902 0002 041E     		subs	r4, r0, #0
 903              	.LVL86:
1296:Generated_Source\PSoC4/BLE.c ****         CYBLE_API_RESULT_T apiResult = CYBLE_ERROR_OK;
1297:Generated_Source\PSoC4/BLE.c ****         uint8 i;
1298:Generated_Source\PSoC4/BLE.c ****         char8 *ptr;
1299:Generated_Source\PSoC4/BLE.c ****         uint8 charLen;
1300:Generated_Source\PSoC4/BLE.c **** 
1301:Generated_Source\PSoC4/BLE.c ****         if(NULL != name)
 904              		.loc 1 1301 0
 905 0004 26D0     		beq	.L69
1302:Generated_Source\PSoC4/BLE.c ****         {
1303:Generated_Source\PSoC4/BLE.c ****             /* Get the pointer to the Device Name characteristic  */
1304:Generated_Source\PSoC4/BLE.c ****             ptr = (char8 *) CYBLE_GATT_DB_ATTR_GET_ATTR_GEN_PTR(cyBle_gaps.deviceNameCharHandle);
 906              		.loc 1 1304 0
 907 0006 144B     		ldr	r3, .L70
 908 0008 5B88     		ldrh	r3, [r3, #2]
 909 000a 013B     		subs	r3, r3, #1
 910 000c 134D     		ldr	r5, .L70+4
 911 000e 9A00     		lsls	r2, r3, #2
 912 0010 D018     		adds	r0, r2, r3
 913              	.LVL87:
 914 0012 8100     		lsls	r1, r0, #2
 915 0014 6918     		adds	r1, r5, r1
ARM GAS  C:\Users\Intern\AppData\Local\Temp\ccD9JYVi.s 			page 42


 916 0016 0969     		ldr	r1, [r1, #16]
 917 0018 4868     		ldr	r0, [r1, #4]
 918              	.LVL88:
1305:Generated_Source\PSoC4/BLE.c **** 
1306:Generated_Source\PSoC4/BLE.c ****             /* First need to get the maximum length of the characteristic data in the GATT
1307:Generated_Source\PSoC4/BLE.c ****                 database to make sure there is enough place for the data. The length
1308:Generated_Source\PSoC4/BLE.c ****                 can't be longer than 248, so only the LSB of 16 bit of length is to
1309:Generated_Source\PSoC4/BLE.c ****                 be used. */
1310:Generated_Source\PSoC4/BLE.c ****             charLen = (uint8)CYBLE_GATT_DB_ATTR_GET_ATTR_GEN_MAX_LEN(cyBle_gaps.deviceNameCharHandl
 919              		.loc 1 1310 0
 920 001a D318     		adds	r3, r2, r3
 921 001c 9A00     		lsls	r2, r3, #2
 922 001e AA18     		adds	r2, r5, r2
 923 0020 117B     		ldrb	r1, [r2, #12]
 924              	.LVL89:
1311:Generated_Source\PSoC4/BLE.c **** 
1312:Generated_Source\PSoC4/BLE.c ****             /* Copy name into characteristic */
1313:Generated_Source\PSoC4/BLE.c ****             for(i = 0u; ((i < charLen) && (CYBLE_NULL_CHARCTER != name[i])); i++)
 925              		.loc 1 1313 0
 926 0022 0023     		movs	r3, #0
 927 0024 02E0     		b	.L65
 928              	.LVL90:
 929              	.L67:
1314:Generated_Source\PSoC4/BLE.c ****             {
1315:Generated_Source\PSoC4/BLE.c ****                 ptr[i] = name[i];
 930              		.loc 1 1315 0 discriminator 4
 931 0026 C254     		strb	r2, [r0, r3]
1313:Generated_Source\PSoC4/BLE.c ****             {
 932              		.loc 1 1313 0 discriminator 4
 933 0028 0133     		adds	r3, r3, #1
 934              	.LVL91:
 935 002a DBB2     		uxtb	r3, r3
 936              	.LVL92:
 937              	.L65:
1313:Generated_Source\PSoC4/BLE.c ****             {
 938              		.loc 1 1313 0 is_stmt 0 discriminator 1
 939 002c 8B42     		cmp	r3, r1
 940 002e 02D2     		bcs	.L66
1313:Generated_Source\PSoC4/BLE.c ****             {
 941              		.loc 1 1313 0 discriminator 3
 942 0030 E25C     		ldrb	r2, [r4, r3]
 943 0032 002A     		cmp	r2, #0
 944 0034 F7D1     		bne	.L67
 945              	.L66:
1316:Generated_Source\PSoC4/BLE.c ****             }
1317:Generated_Source\PSoC4/BLE.c **** 
1318:Generated_Source\PSoC4/BLE.c ****             if(i < charLen)
 946              		.loc 1 1318 0 is_stmt 1
 947 0036 8B42     		cmp	r3, r1
 948 0038 02D2     		bcs	.L68
1319:Generated_Source\PSoC4/BLE.c ****             {
1320:Generated_Source\PSoC4/BLE.c ****                 /* Terminate string */
1321:Generated_Source\PSoC4/BLE.c ****                 ptr[i] = CYBLE_NULL_CHARCTER;
 949              		.loc 1 1321 0
 950 003a C318     		adds	r3, r0, r3
 951              	.LVL93:
 952 003c 0022     		movs	r2, #0
ARM GAS  C:\Users\Intern\AppData\Local\Temp\ccD9JYVi.s 			page 43


 953 003e 1A70     		strb	r2, [r3]
 954              	.L68:
1322:Generated_Source\PSoC4/BLE.c ****             }
1323:Generated_Source\PSoC4/BLE.c ****             
1324:Generated_Source\PSoC4/BLE.c ****             /* Set new actual length */
1325:Generated_Source\PSoC4/BLE.c ****             
1326:Generated_Source\PSoC4/BLE.c ****             /* Update device name in advertising and scan response structure */
1327:Generated_Source\PSoC4/BLE.c ****             #if(CYBLE_GAP_ROLE_PERIPHERAL)
1328:Generated_Source\PSoC4/BLE.c ****                 CyBle_ChangeAdLocalName(name, 0u);
 955              		.loc 1 1328 0
 956 0040 0021     		movs	r1, #0
 957              	.LVL94:
 958 0042 2000     		movs	r0, r4
 959              	.LVL95:
 960 0044 FFF7FEFF 		bl	CyBle_ChangeAdLocalName
 961              	.LVL96:
1329:Generated_Source\PSoC4/BLE.c ****                 CyBle_ChangeAdLocalName(name, 1u);
 962              		.loc 1 1329 0
 963 0048 0121     		movs	r1, #1
 964 004a 2000     		movs	r0, r4
 965 004c FFF7FEFF 		bl	CyBle_ChangeAdLocalName
 966              	.LVL97:
1296:Generated_Source\PSoC4/BLE.c ****         uint8 i;
 967              		.loc 1 1296 0
 968 0050 0020     		movs	r0, #0
 969 0052 00E0     		b	.L64
 970              	.LVL98:
 971              	.L69:
1330:Generated_Source\PSoC4/BLE.c ****             #endif /* (CYBLE_GAP_ROLE_PERIPHERAL) */
1331:Generated_Source\PSoC4/BLE.c ****         }
1332:Generated_Source\PSoC4/BLE.c ****         else
1333:Generated_Source\PSoC4/BLE.c ****         {
1334:Generated_Source\PSoC4/BLE.c ****             apiResult = CYBLE_ERROR_INVALID_PARAMETER;
 972              		.loc 1 1334 0
 973 0054 0120     		movs	r0, #1
 974              	.LVL99:
 975              	.L64:
1335:Generated_Source\PSoC4/BLE.c ****         }
1336:Generated_Source\PSoC4/BLE.c ****         
1337:Generated_Source\PSoC4/BLE.c ****         return(apiResult);
1338:Generated_Source\PSoC4/BLE.c ****     }
 976              		.loc 1 1338 0
 977              		@ sp needed
 978              	.LVL100:
 979 0056 70BD     		pop	{r4, r5, r6, pc}
 980              	.L71:
 981              		.align	2
 982              	.L70:
 983 0058 00000000 		.word	cyBle_gaps
 984 005c 00000000 		.word	cyBle_gattDB
 985              		.cfi_endproc
 986              	.LFE12:
 987              		.size	CyBle_GapSetLocalName, .-CyBle_GapSetLocalName
 988              		.section	.text.CyBle_GapGetLocalName,"ax",%progbits
 989              		.align	2
 990              		.global	CyBle_GapGetLocalName
 991              		.code	16
ARM GAS  C:\Users\Intern\AppData\Local\Temp\ccD9JYVi.s 			page 44


 992              		.thumb_func
 993              		.type	CyBle_GapGetLocalName, %function
 994              	CyBle_GapGetLocalName:
 995              	.LFB13:
1339:Generated_Source\PSoC4/BLE.c **** 
1340:Generated_Source\PSoC4/BLE.c **** 
1341:Generated_Source\PSoC4/BLE.c ****     /******************************************************************************
1342:Generated_Source\PSoC4/BLE.c ****     * Function Name: CyBle_GapGetLocalName
1343:Generated_Source\PSoC4/BLE.c ****     ***************************************************************************//**
1344:Generated_Source\PSoC4/BLE.c ****     *  
1345:Generated_Source\PSoC4/BLE.c ****     *  This function is used to read the local device name - a Characteristic of the 
1346:Generated_Source\PSoC4/BLE.c ****     *  GAP Service.
1347:Generated_Source\PSoC4/BLE.c ****     * 
1348:Generated_Source\PSoC4/BLE.c ****     * \param name: The local device name string. Used to read the local name to the
1349:Generated_Source\PSoC4/BLE.c ****     *             given string array. It represents a UTF-8 encoded User Friendly 
1350:Generated_Source\PSoC4/BLE.c ****     *             Descriptive Name for the device. The length of the local device
1351:Generated_Source\PSoC4/BLE.c ****     *             string is entered into the component customizer and it can be set
1352:Generated_Source\PSoC4/BLE.c ****     *             to a value from 0 to 248 bytes. If the name contained in the
1353:Generated_Source\PSoC4/BLE.c ****     *             parameter is shorter than the length from the customizer, the end
1354:Generated_Source\PSoC4/BLE.c ****     *             of the name is indicated by a NULL octet (0x00).
1355:Generated_Source\PSoC4/BLE.c ****     * 
1356:Generated_Source\PSoC4/BLE.c ****     * \return
1357:Generated_Source\PSoC4/BLE.c ****     *  CYBLE_API_RESULT_T : Return value indicates if the function succeeded or 
1358:Generated_Source\PSoC4/BLE.c ****     *  failed. Following are the possible error codes.
1359:Generated_Source\PSoC4/BLE.c ****     *
1360:Generated_Source\PSoC4/BLE.c ****     *   Errors codes                       | Description
1361:Generated_Source\PSoC4/BLE.c ****     *   ------------                       | -----------
1362:Generated_Source\PSoC4/BLE.c ****     *   CYBLE_ERROR_OK                     | Function completed successfully.
1363:Generated_Source\PSoC4/BLE.c ****     *   CYBLE_ERROR_INVALID_PARAMETER      | On specifying NULL as input parameter
1364:Generated_Source\PSoC4/BLE.c ****     *
1365:Generated_Source\PSoC4/BLE.c ****     *******************************************************************************/
1366:Generated_Source\PSoC4/BLE.c ****     CYBLE_API_RESULT_T CyBle_GapGetLocalName(char8 name[])
1367:Generated_Source\PSoC4/BLE.c ****     {
 996              		.loc 1 1367 0
 997              		.cfi_startproc
 998              		@ args = 0, pretend = 0, frame = 0
 999              		@ frame_needed = 0, uses_anonymous_args = 0
 1000              	.LVL101:
 1001 0000 10B5     		push	{r4, lr}
 1002              		.cfi_def_cfa_offset 8
 1003              		.cfi_offset 4, -8
 1004              		.cfi_offset 14, -4
 1005              	.LVL102:
1368:Generated_Source\PSoC4/BLE.c ****         CYBLE_API_RESULT_T apiResult = CYBLE_ERROR_OK;
1369:Generated_Source\PSoC4/BLE.c ****         uint8 charLen;
1370:Generated_Source\PSoC4/BLE.c ****         uint8 i;
1371:Generated_Source\PSoC4/BLE.c ****         char8 *ptr;
1372:Generated_Source\PSoC4/BLE.c **** 
1373:Generated_Source\PSoC4/BLE.c ****         if(NULL != name)
 1006              		.loc 1 1373 0
 1007 0002 0028     		cmp	r0, #0
 1008 0004 19D0     		beq	.L77
1374:Generated_Source\PSoC4/BLE.c ****         {
1375:Generated_Source\PSoC4/BLE.c ****             /* Get the pointer to the Device Name characteristic  */
1376:Generated_Source\PSoC4/BLE.c ****             ptr = (char8 *) CYBLE_GATT_DB_ATTR_GET_ATTR_GEN_PTR(cyBle_gaps.deviceNameCharHandle);
 1009              		.loc 1 1376 0
 1010 0006 0E4B     		ldr	r3, .L78
ARM GAS  C:\Users\Intern\AppData\Local\Temp\ccD9JYVi.s 			page 45


 1011 0008 5B88     		ldrh	r3, [r3, #2]
 1012 000a 013B     		subs	r3, r3, #1
 1013 000c 9A00     		lsls	r2, r3, #2
 1014 000e D318     		adds	r3, r2, r3
 1015 0010 9A00     		lsls	r2, r3, #2
 1016 0012 0C4B     		ldr	r3, .L78+4
 1017 0014 9A18     		adds	r2, r3, r2
 1018 0016 1369     		ldr	r3, [r2, #16]
 1019 0018 5C68     		ldr	r4, [r3, #4]
 1020              	.LVL103:
1377:Generated_Source\PSoC4/BLE.c **** 
1378:Generated_Source\PSoC4/BLE.c ****             /* First need to get the length of the characteristic data in the GATT
1379:Generated_Source\PSoC4/BLE.c ****                 database to make sure there is enough place for the data. The length
1380:Generated_Source\PSoC4/BLE.c ****                 can't be longer than 248, so only the LSB of 16 bit of length is to
1381:Generated_Source\PSoC4/BLE.c ****                 be used. */
1382:Generated_Source\PSoC4/BLE.c ****             charLen = (uint8)CYBLE_GATT_DB_ATTR_GET_ATTR_GEN_LEN(cyBle_gaps.deviceNameCharHandle);
 1021              		.loc 1 1382 0
 1022 001a 1978     		ldrb	r1, [r3]
 1023              	.LVL104:
1383:Generated_Source\PSoC4/BLE.c **** 
1384:Generated_Source\PSoC4/BLE.c ****             /* Copy name from characteristic */
1385:Generated_Source\PSoC4/BLE.c ****             for(i = 0u; ((i < charLen) && (CYBLE_NULL_CHARCTER != ptr[i])); i++)
 1024              		.loc 1 1385 0
 1025 001c 0023     		movs	r3, #0
 1026 001e 02E0     		b	.L74
 1027              	.LVL105:
 1028              	.L76:
1386:Generated_Source\PSoC4/BLE.c ****             {
1387:Generated_Source\PSoC4/BLE.c ****                 name[i] = ptr[i];
 1029              		.loc 1 1387 0 discriminator 4
 1030 0020 C254     		strb	r2, [r0, r3]
1385:Generated_Source\PSoC4/BLE.c ****             {
 1031              		.loc 1 1385 0 discriminator 4
 1032 0022 0133     		adds	r3, r3, #1
 1033              	.LVL106:
 1034 0024 DBB2     		uxtb	r3, r3
 1035              	.LVL107:
 1036              	.L74:
1385:Generated_Source\PSoC4/BLE.c ****             {
 1037              		.loc 1 1385 0 is_stmt 0 discriminator 1
 1038 0026 8B42     		cmp	r3, r1
 1039 0028 02D2     		bcs	.L75
1385:Generated_Source\PSoC4/BLE.c ****             {
 1040              		.loc 1 1385 0 discriminator 3
 1041 002a E25C     		ldrb	r2, [r4, r3]
 1042 002c 002A     		cmp	r2, #0
 1043 002e F7D1     		bne	.L76
 1044              	.L75:
1388:Generated_Source\PSoC4/BLE.c ****             }
1389:Generated_Source\PSoC4/BLE.c **** 
1390:Generated_Source\PSoC4/BLE.c ****             /* Terminate string */
1391:Generated_Source\PSoC4/BLE.c ****             name[i] = CYBLE_NULL_CHARCTER;
 1045              		.loc 1 1391 0 is_stmt 1
 1046 0030 C318     		adds	r3, r0, r3
 1047              	.LVL108:
 1048 0032 0022     		movs	r2, #0
 1049 0034 1A70     		strb	r2, [r3]
ARM GAS  C:\Users\Intern\AppData\Local\Temp\ccD9JYVi.s 			page 46


1368:Generated_Source\PSoC4/BLE.c ****         uint8 charLen;
 1050              		.loc 1 1368 0
 1051 0036 0020     		movs	r0, #0
 1052              	.LVL109:
 1053 0038 00E0     		b	.L73
 1054              	.LVL110:
 1055              	.L77:
1392:Generated_Source\PSoC4/BLE.c ****         }
1393:Generated_Source\PSoC4/BLE.c ****         else
1394:Generated_Source\PSoC4/BLE.c ****         {
1395:Generated_Source\PSoC4/BLE.c ****             apiResult = CYBLE_ERROR_INVALID_PARAMETER;
 1056              		.loc 1 1395 0
 1057 003a 0120     		movs	r0, #1
 1058              	.LVL111:
 1059              	.L73:
1396:Generated_Source\PSoC4/BLE.c ****         }
1397:Generated_Source\PSoC4/BLE.c ****         
1398:Generated_Source\PSoC4/BLE.c ****         return(apiResult);
1399:Generated_Source\PSoC4/BLE.c ****     }
 1060              		.loc 1 1399 0
 1061              		@ sp needed
 1062 003c 10BD     		pop	{r4, pc}
 1063              	.L79:
 1064 003e C046     		.align	2
 1065              	.L78:
 1066 0040 00000000 		.word	cyBle_gaps
 1067 0044 00000000 		.word	cyBle_gattDB
 1068              		.cfi_endproc
 1069              	.LFE13:
 1070              		.size	CyBle_GapGetLocalName, .-CyBle_GapGetLocalName
 1071              		.section	.text.CyBle_Get16ByPtr,"ax",%progbits
 1072              		.align	2
 1073              		.global	CyBle_Get16ByPtr
 1074              		.code	16
 1075              		.thumb_func
 1076              		.type	CyBle_Get16ByPtr, %function
 1077              	CyBle_Get16ByPtr:
 1078              	.LFB14:
1400:Generated_Source\PSoC4/BLE.c **** 
1401:Generated_Source\PSoC4/BLE.c **** #endif /* (CYBLE_GATT_ROLE_SERVER) */
1402:Generated_Source\PSoC4/BLE.c **** 
1403:Generated_Source\PSoC4/BLE.c **** 
1404:Generated_Source\PSoC4/BLE.c **** /******************************************************************************
1405:Generated_Source\PSoC4/BLE.c **** * Function Name: CyBle_Get16ByPtr
1406:Generated_Source\PSoC4/BLE.c **** ***************************************************************************//**
1407:Generated_Source\PSoC4/BLE.c **** * 
1408:Generated_Source\PSoC4/BLE.c **** *  Returns the two-bytes value by using a pointer to the LSB.
1409:Generated_Source\PSoC4/BLE.c **** * 
1410:Generated_Source\PSoC4/BLE.c **** *  \param ptr: Pointer to the LSB of two-bytes data (little endian).
1411:Generated_Source\PSoC4/BLE.c **** * 
1412:Generated_Source\PSoC4/BLE.c **** *  \return
1413:Generated_Source\PSoC4/BLE.c **** *  uint16: Two-bytes data.
1414:Generated_Source\PSoC4/BLE.c **** * 
1415:Generated_Source\PSoC4/BLE.c **** ******************************************************************************/
1416:Generated_Source\PSoC4/BLE.c **** uint16 CyBle_Get16ByPtr(const uint8 ptr[])
1417:Generated_Source\PSoC4/BLE.c **** {
 1079              		.loc 1 1417 0
ARM GAS  C:\Users\Intern\AppData\Local\Temp\ccD9JYVi.s 			page 47


 1080              		.cfi_startproc
 1081              		@ args = 0, pretend = 0, frame = 0
 1082              		@ frame_needed = 0, uses_anonymous_args = 0
 1083              		@ link register save eliminated.
 1084              	.LVL112:
1418:Generated_Source\PSoC4/BLE.c ****     return ((uint16) ptr[0u] | ((uint16) (((uint16) ptr[1u]) << 8u)));
 1085              		.loc 1 1418 0
 1086 0000 0378     		ldrb	r3, [r0]
 1087 0002 4078     		ldrb	r0, [r0, #1]
 1088              	.LVL113:
 1089 0004 0002     		lsls	r0, r0, #8
 1090 0006 1843     		orrs	r0, r3
1419:Generated_Source\PSoC4/BLE.c **** }
 1091              		.loc 1 1419 0
 1092              		@ sp needed
 1093 0008 7047     		bx	lr
 1094              		.cfi_endproc
 1095              	.LFE14:
 1096              		.size	CyBle_Get16ByPtr, .-CyBle_Get16ByPtr
 1097 000a C046     		.section	.text.CyBle_Set16ByPtr,"ax",%progbits
 1098              		.align	2
 1099              		.global	CyBle_Set16ByPtr
 1100              		.code	16
 1101              		.thumb_func
 1102              		.type	CyBle_Set16ByPtr, %function
 1103              	CyBle_Set16ByPtr:
 1104              	.LFB15:
1420:Generated_Source\PSoC4/BLE.c **** 
1421:Generated_Source\PSoC4/BLE.c **** 
1422:Generated_Source\PSoC4/BLE.c **** /******************************************************************************
1423:Generated_Source\PSoC4/BLE.c **** * Function Name: CyBle_Set16ByPtr
1424:Generated_Source\PSoC4/BLE.c **** ***************************************************************************//**
1425:Generated_Source\PSoC4/BLE.c **** * 
1426:Generated_Source\PSoC4/BLE.c **** *  Sets the two-bytes value by using a pointer to the LSB.
1427:Generated_Source\PSoC4/BLE.c **** * 
1428:Generated_Source\PSoC4/BLE.c **** *  \param ptr:    Pointer to the LSB of two-bytes data (little endian).
1429:Generated_Source\PSoC4/BLE.c **** *  \param value:  Two-bytes data to be written.
1430:Generated_Source\PSoC4/BLE.c **** * 
1431:Generated_Source\PSoC4/BLE.c **** *  \return
1432:Generated_Source\PSoC4/BLE.c **** *  None
1433:Generated_Source\PSoC4/BLE.c **** * 
1434:Generated_Source\PSoC4/BLE.c **** ******************************************************************************/
1435:Generated_Source\PSoC4/BLE.c **** void CyBle_Set16ByPtr(uint8 ptr[], uint16 value)
1436:Generated_Source\PSoC4/BLE.c **** {
 1105              		.loc 1 1436 0
 1106              		.cfi_startproc
 1107              		@ args = 0, pretend = 0, frame = 0
 1108              		@ frame_needed = 0, uses_anonymous_args = 0
 1109              		@ link register save eliminated.
 1110              	.LVL114:
1437:Generated_Source\PSoC4/BLE.c ****     ptr[0u] = (uint8) value;
 1111              		.loc 1 1437 0
 1112 0000 0170     		strb	r1, [r0]
1438:Generated_Source\PSoC4/BLE.c ****     ptr[1u] = (uint8) (value >> 8u);
 1113              		.loc 1 1438 0
 1114 0002 090A     		lsrs	r1, r1, #8
 1115              	.LVL115:
ARM GAS  C:\Users\Intern\AppData\Local\Temp\ccD9JYVi.s 			page 48


 1116 0004 4170     		strb	r1, [r0, #1]
1439:Generated_Source\PSoC4/BLE.c **** }
 1117              		.loc 1 1439 0
 1118              		@ sp needed
 1119 0006 7047     		bx	lr
 1120              		.cfi_endproc
 1121              	.LFE15:
 1122              		.size	CyBle_Set16ByPtr, .-CyBle_Set16ByPtr
 1123              		.global	cyBle_sflashDeviceAddress
 1124              		.global	cyBle_deviceAddress
 1125              		.comm	CyBle_ApplCallback,4,4
 1126              		.comm	cyBle_pendingFlashWrite,1,1
 1127              		.comm	cyBle_peerBonding,1,1
 1128              		.global	cyBle_discoveryModeInfo
 1129              		.global	cyBle_scanRspData
 1130              		.global	cyBle_discoveryData
 1131              		.global	cyBle_discoveryParam
 1132              		.global	cyBle_stackMemoryRam
 1133              		.global	cyBle_initVar
 1134              		.section	.rodata
 1135              		.align	2
 1136              		.set	.LANCHOR2,. + 0
 1137              	.LC0:
 1138 0000 2400     		.short	36
 1139 0002 03       		.byte	3
 1140 0003 00       		.space	1
 1141 0004 3000     		.short	48
 1142 0006 01       		.byte	1
 1143 0007 00       		.space	1
 1144 0008 2800     		.short	40
 1145 000a 02       		.byte	2
 1146 000b 00       		.space	1
 1147 000c 2400     		.short	36
 1148 000e 01       		.byte	1
 1149 000f 00       		.space	1
 1150 0010 2400     		.short	36
 1151 0012 01       		.byte	1
 1152 0013 00       		.space	1
 1153              		.data
 1154              		.align	2
 1155              		.set	.LANCHOR0,. + 0
 1156              		.type	cyBle_discoveryData, %object
 1157              		.size	cyBle_discoveryData, 32
 1158              	cyBle_discoveryData:
 1159 0000 02       		.byte	2
 1160 0001 01       		.byte	1
 1161 0002 06       		.byte	6
 1162 0003 0B       		.byte	11
 1163 0004 09       		.byte	9
 1164 0005 48       		.byte	72
 1165 0006 75       		.byte	117
 1166 0007 64       		.byte	100
 1167 0008 66       		.byte	102
 1168 0009 6C       		.byte	108
 1169 000a 75       		.byte	117
 1170 000b 72       		.byte	114
 1171 000c 20       		.byte	32
ARM GAS  C:\Users\Intern\AppData\Local\Temp\ccD9JYVi.s 			page 49


 1172 000d 23       		.byte	35
 1173 000e 31       		.byte	49
 1174 000f 07       		.byte	7
 1175 0010 03       		.byte	3
 1176 0011 42       		.byte	66
 1177 0012 DB       		.byte	-37
 1178 0013 96       		.byte	-106
 1179 0014 5C       		.byte	92
 1180 0015 D4       		.byte	-44
 1181 0016 8C       		.byte	-116
 1182 0017 00       		.byte	0
 1183 0018 00       		.byte	0
 1184 0019 00       		.byte	0
 1185 001a 00       		.byte	0
 1186 001b 00       		.byte	0
 1187 001c 00       		.byte	0
 1188 001d 00       		.byte	0
 1189 001e 00       		.byte	0
 1190 001f 17       		.byte	23
 1191              		.type	cyBle_discoveryModeInfo, %object
 1192              		.size	cyBle_discoveryModeInfo, 20
 1193              	cyBle_discoveryModeInfo:
 1194 0020 02       		.byte	2
 1195 0021 000000   		.space	3
 1196 0024 00000000 		.word	cyBle_discoveryParam
 1197 0028 00000000 		.word	cyBle_discoveryData
 1198 002c 00000000 		.word	cyBle_scanRspData
 1199 0030 0000     		.short	0
 1200 0032 0000     		.space	2
 1201              		.type	cyBle_sflashDeviceAddress, %object
 1202              		.size	cyBle_sflashDeviceAddress, 4
 1203              	cyBle_sflashDeviceAddress:
 1204 0034 00F2FF0F 		.word	268431872
 1205              		.type	cyBle_deviceAddress, %object
 1206              		.size	cyBle_deviceAddress, 7
 1207              	cyBle_deviceAddress:
 1208 0038 00       		.byte	0
 1209 0039 00       		.byte	0
 1210 003a 00       		.byte	0
 1211 003b 50       		.byte	80
 1212 003c A0       		.byte	-96
 1213 003d 00       		.byte	0
 1214 003e 00       		.byte	0
 1215 003f 00       		.space	1
 1216              		.type	cyBle_discoveryParam, %object
 1217              		.size	cyBle_discoveryParam, 16
 1218              	cyBle_discoveryParam:
 1219 0040 2000     		.short	32
 1220 0042 3000     		.short	48
 1221 0044 00       		.byte	0
 1222 0045 00       		.byte	0
 1223 0046 00       		.byte	0
 1224 0047 00       		.byte	0
 1225 0048 00       		.byte	0
 1226 0049 00       		.byte	0
 1227 004a 50       		.byte	80
 1228 004b A0       		.byte	-96
ARM GAS  C:\Users\Intern\AppData\Local\Temp\ccD9JYVi.s 			page 50


 1229 004c 00       		.byte	0
 1230 004d 07       		.byte	7
 1231 004e 00       		.byte	0
 1232 004f 00       		.space	1
 1233              		.section	.noinit,"aw",%progbits
 1234              		.align	3
 1235              		.set	.LANCHOR3,. + 0
 1236              		.type	cyBle_stackMemoryRam, %object
 1237              		.size	cyBle_stackMemoryRam, 2784
 1238              	cyBle_stackMemoryRam:
 1239 0000 00000000 		.space	2784
 1239      00000000 
 1239      00000000 
 1239      00000000 
 1239      00000000 
 1240              		.bss
 1241              		.align	2
 1242              		.set	.LANCHOR1,. + 0
 1243              		.type	cyBle_scanRspData, %object
 1244              		.size	cyBle_scanRspData, 32
 1245              	cyBle_scanRspData:
 1246 0000 00000000 		.space	32
 1246      00000000 
 1246      00000000 
 1246      00000000 
 1246      00000000 
 1247              		.type	cyBle_initVar, %object
 1248              		.size	cyBle_initVar, 1
 1249              	cyBle_initVar:
 1250 0020 00       		.space	1
 1251              		.type	cyBle_pendingFlashClearCccdHandle, %object
 1252              		.size	cyBle_pendingFlashClearCccdHandle, 1
 1253              	cyBle_pendingFlashClearCccdHandle:
 1254 0021 00       		.space	1
 1255              		.text
 1256              	.Letext0:
 1257              		.file 2 "Generated_Source\\PSoC4\\cytypes.h"
 1258              		.file 3 "Generated_Source\\PSoC4\\BLE_Stack.h"
 1259              		.file 4 "Generated_Source\\PSoC4\\BLE_StackGap.h"
 1260              		.file 5 "Generated_Source\\PSoC4\\BLE_StackGatt.h"
 1261              		.file 6 "Generated_Source\\PSoC4\\BLE_StackGattDb.h"
 1262              		.file 7 "Generated_Source\\PSoC4\\BLE.h"
 1263              		.file 8 "Generated_Source\\PSoC4\\BLE_gatt.h"
 1264              		.file 9 "Generated_Source\\PSoC4\\BLE_eventHandler.h"
 1265              		.file 10 "Generated_Source\\PSoC4\\BLE_custom.h"
 1266              		.file 11 "Generated_Source\\PSoC4\\BLE_StackHostMain.h"
 1267              		.file 12 "c:\\program files (x86)\\cypress\\psoc creator\\4.2\\psoc creator\\import\\gnu\\arm\\5.4
 1268              		.section	.debug_info,"",%progbits
 1269              	.Ldebug_info0:
 1270 0000 B4100000 		.4byte	0x10b4
 1271 0004 0400     		.2byte	0x4
 1272 0006 00000000 		.4byte	.Ldebug_abbrev0
 1273 000a 04       		.byte	0x4
 1274 000b 01       		.uleb128 0x1
 1275 000c 53010000 		.4byte	.LASF273
 1276 0010 0C       		.byte	0xc
 1277 0011 AE110000 		.4byte	.LASF274
ARM GAS  C:\Users\Intern\AppData\Local\Temp\ccD9JYVi.s 			page 51


 1278 0015 6B0E0000 		.4byte	.LASF275
 1279 0019 00000000 		.4byte	.Ldebug_ranges0+0
 1280 001d 00000000 		.4byte	0
 1281 0021 00000000 		.4byte	.Ldebug_line0
 1282 0025 02       		.uleb128 0x2
 1283 0026 01       		.byte	0x1
 1284 0027 06       		.byte	0x6
 1285 0028 E0040000 		.4byte	.LASF0
 1286 002c 02       		.uleb128 0x2
 1287 002d 01       		.byte	0x1
 1288 002e 08       		.byte	0x8
 1289 002f 77050000 		.4byte	.LASF1
 1290 0033 02       		.uleb128 0x2
 1291 0034 02       		.byte	0x2
 1292 0035 05       		.byte	0x5
 1293 0036 6F140000 		.4byte	.LASF2
 1294 003a 02       		.uleb128 0x2
 1295 003b 02       		.byte	0x2
 1296 003c 07       		.byte	0x7
 1297 003d AF170000 		.4byte	.LASF3
 1298 0041 02       		.uleb128 0x2
 1299 0042 04       		.byte	0x4
 1300 0043 05       		.byte	0x5
 1301 0044 4B030000 		.4byte	.LASF4
 1302 0048 02       		.uleb128 0x2
 1303 0049 04       		.byte	0x4
 1304 004a 07       		.byte	0x7
 1305 004b 370A0000 		.4byte	.LASF5
 1306 004f 02       		.uleb128 0x2
 1307 0050 08       		.byte	0x8
 1308 0051 05       		.byte	0x5
 1309 0052 F60B0000 		.4byte	.LASF6
 1310 0056 02       		.uleb128 0x2
 1311 0057 08       		.byte	0x8
 1312 0058 07       		.byte	0x7
 1313 0059 42110000 		.4byte	.LASF7
 1314 005d 03       		.uleb128 0x3
 1315 005e 04       		.byte	0x4
 1316 005f 05       		.byte	0x5
 1317 0060 696E7400 		.ascii	"int\000"
 1318 0064 02       		.uleb128 0x2
 1319 0065 04       		.byte	0x4
 1320 0066 07       		.byte	0x7
 1321 0067 E20D0000 		.4byte	.LASF8
 1322 006b 04       		.uleb128 0x4
 1323 006c 26140000 		.4byte	.LASF9
 1324 0070 02       		.byte	0x2
 1325 0071 E401     		.2byte	0x1e4
 1326 0073 2C000000 		.4byte	0x2c
 1327 0077 04       		.uleb128 0x4
 1328 0078 14190000 		.4byte	.LASF10
 1329 007c 02       		.byte	0x2
 1330 007d E501     		.2byte	0x1e5
 1331 007f 3A000000 		.4byte	0x3a
 1332 0083 04       		.uleb128 0x4
 1333 0084 AC000000 		.4byte	.LASF11
 1334 0088 02       		.byte	0x2
ARM GAS  C:\Users\Intern\AppData\Local\Temp\ccD9JYVi.s 			page 52


 1335 0089 E601     		.2byte	0x1e6
 1336 008b 48000000 		.4byte	0x48
 1337 008f 02       		.uleb128 0x2
 1338 0090 04       		.byte	0x4
 1339 0091 04       		.byte	0x4
 1340 0092 6D0D0000 		.4byte	.LASF12
 1341 0096 02       		.uleb128 0x2
 1342 0097 08       		.byte	0x8
 1343 0098 04       		.byte	0x4
 1344 0099 500C0000 		.4byte	.LASF13
 1345 009d 04       		.uleb128 0x4
 1346 009e 2A010000 		.4byte	.LASF14
 1347 00a2 02       		.byte	0x2
 1348 00a3 F501     		.2byte	0x1f5
 1349 00a5 A9000000 		.4byte	0xa9
 1350 00a9 02       		.uleb128 0x2
 1351 00aa 01       		.byte	0x1
 1352 00ab 08       		.byte	0x8
 1353 00ac 94060000 		.4byte	.LASF15
 1354 00b0 05       		.uleb128 0x5
 1355 00b1 6B000000 		.4byte	0x6b
 1356 00b5 02       		.uleb128 0x2
 1357 00b6 08       		.byte	0x8
 1358 00b7 04       		.byte	0x4
 1359 00b8 7C100000 		.4byte	.LASF16
 1360 00bc 02       		.uleb128 0x2
 1361 00bd 04       		.byte	0x4
 1362 00be 07       		.byte	0x7
 1363 00bf 1E000000 		.4byte	.LASF17
 1364 00c3 06       		.uleb128 0x6
 1365 00c4 04       		.byte	0x4
 1366 00c5 07       		.uleb128 0x7
 1367 00c6 04       		.byte	0x4
 1368 00c7 CB000000 		.4byte	0xcb
 1369 00cb 08       		.uleb128 0x8
 1370 00cc DB000000 		.4byte	0xdb
 1371 00d0 09       		.uleb128 0x9
 1372 00d1 83000000 		.4byte	0x83
 1373 00d5 09       		.uleb128 0x9
 1374 00d6 C3000000 		.4byte	0xc3
 1375 00da 00       		.byte	0
 1376 00db 0A       		.uleb128 0xa
 1377 00dc 01       		.byte	0x1
 1378 00dd 2C000000 		.4byte	0x2c
 1379 00e1 03       		.byte	0x3
 1380 00e2 3201     		.2byte	0x132
 1381 00e4 99020000 		.4byte	0x299
 1382 00e8 0B       		.uleb128 0xb
 1383 00e9 D6060000 		.4byte	.LASF18
 1384 00ed 00       		.byte	0
 1385 00ee 0B       		.uleb128 0xb
 1386 00ef C3030000 		.4byte	.LASF19
 1387 00f3 01       		.byte	0x1
 1388 00f4 0B       		.uleb128 0xb
 1389 00f5 59110000 		.4byte	.LASF20
 1390 00f9 02       		.byte	0x2
 1391 00fa 0B       		.uleb128 0xb
ARM GAS  C:\Users\Intern\AppData\Local\Temp\ccD9JYVi.s 			page 53


 1392 00fb 14050000 		.4byte	.LASF21
 1393 00ff 03       		.byte	0x3
 1394 0100 0B       		.uleb128 0xb
 1395 0101 57180000 		.4byte	.LASF22
 1396 0105 04       		.byte	0x4
 1397 0106 0B       		.uleb128 0xb
 1398 0107 20170000 		.4byte	.LASF23
 1399 010b 05       		.byte	0x5
 1400 010c 0B       		.uleb128 0xb
 1401 010d 93100000 		.4byte	.LASF24
 1402 0111 06       		.byte	0x6
 1403 0112 0B       		.uleb128 0xb
 1404 0113 7A150000 		.4byte	.LASF25
 1405 0117 20       		.byte	0x20
 1406 0118 0B       		.uleb128 0xb
 1407 0119 2E020000 		.4byte	.LASF26
 1408 011d 21       		.byte	0x21
 1409 011e 0B       		.uleb128 0xb
 1410 011f 910B0000 		.4byte	.LASF27
 1411 0123 22       		.byte	0x22
 1412 0124 0B       		.uleb128 0xb
 1413 0125 770F0000 		.4byte	.LASF28
 1414 0129 23       		.byte	0x23
 1415 012a 0B       		.uleb128 0xb
 1416 012b 93090000 		.4byte	.LASF29
 1417 012f 24       		.byte	0x24
 1418 0130 0B       		.uleb128 0xb
 1419 0131 BF090000 		.4byte	.LASF30
 1420 0135 25       		.byte	0x25
 1421 0136 0B       		.uleb128 0xb
 1422 0137 D0130000 		.4byte	.LASF31
 1423 013b 26       		.byte	0x26
 1424 013c 0B       		.uleb128 0xb
 1425 013d 5A000000 		.4byte	.LASF32
 1426 0141 27       		.byte	0x27
 1427 0142 0B       		.uleb128 0xb
 1428 0143 D1180000 		.4byte	.LASF33
 1429 0147 28       		.byte	0x28
 1430 0148 0B       		.uleb128 0xb
 1431 0149 D2100000 		.4byte	.LASF34
 1432 014d 29       		.byte	0x29
 1433 014e 0B       		.uleb128 0xb
 1434 014f F60A0000 		.4byte	.LASF35
 1435 0153 2A       		.byte	0x2a
 1436 0154 0B       		.uleb128 0xb
 1437 0155 C60E0000 		.4byte	.LASF36
 1438 0159 2B       		.byte	0x2b
 1439 015a 0B       		.uleb128 0xb
 1440 015b 3C170000 		.4byte	.LASF37
 1441 015f 2C       		.byte	0x2c
 1442 0160 0B       		.uleb128 0xb
 1443 0161 27000000 		.4byte	.LASF38
 1444 0165 2D       		.byte	0x2d
 1445 0166 0B       		.uleb128 0xb
 1446 0167 3A140000 		.4byte	.LASF39
 1447 016b 2E       		.byte	0x2e
 1448 016c 0B       		.uleb128 0xb
ARM GAS  C:\Users\Intern\AppData\Local\Temp\ccD9JYVi.s 			page 54


 1449 016d BF020000 		.4byte	.LASF40
 1450 0171 2F       		.byte	0x2f
 1451 0172 0B       		.uleb128 0xb
 1452 0173 73060000 		.4byte	.LASF41
 1453 0177 30       		.byte	0x30
 1454 0178 0B       		.uleb128 0xb
 1455 0179 D90C0000 		.4byte	.LASF42
 1456 017d 31       		.byte	0x31
 1457 017e 0B       		.uleb128 0xb
 1458 017f 1F070000 		.4byte	.LASF43
 1459 0183 32       		.byte	0x32
 1460 0184 0B       		.uleb128 0xb
 1461 0185 A3050000 		.4byte	.LASF44
 1462 0189 33       		.byte	0x33
 1463 018a 0B       		.uleb128 0xb
 1464 018b CA050000 		.4byte	.LASF45
 1465 018f 34       		.byte	0x34
 1466 0190 0B       		.uleb128 0xb
 1467 0191 EA150000 		.4byte	.LASF46
 1468 0195 35       		.byte	0x35
 1469 0196 0B       		.uleb128 0xb
 1470 0197 86020000 		.4byte	.LASF47
 1471 019b 36       		.byte	0x36
 1472 019c 0B       		.uleb128 0xb
 1473 019d 0D110000 		.4byte	.LASF48
 1474 01a1 37       		.byte	0x37
 1475 01a2 0B       		.uleb128 0xb
 1476 01a3 F1140000 		.4byte	.LASF49
 1477 01a7 40       		.byte	0x40
 1478 01a8 0B       		.uleb128 0xb
 1479 01a9 79000000 		.4byte	.LASF50
 1480 01ad 41       		.byte	0x41
 1481 01ae 0B       		.uleb128 0xb
 1482 01af 6C180000 		.4byte	.LASF51
 1483 01b3 42       		.byte	0x42
 1484 01b4 0B       		.uleb128 0xb
 1485 01b5 EF100000 		.4byte	.LASF52
 1486 01b9 43       		.byte	0x43
 1487 01ba 0B       		.uleb128 0xb
 1488 01bb 85050000 		.4byte	.LASF53
 1489 01bf 44       		.byte	0x44
 1490 01c0 0B       		.uleb128 0xb
 1491 01c1 3C050000 		.4byte	.LASF54
 1492 01c5 45       		.byte	0x45
 1493 01c6 0B       		.uleb128 0xb
 1494 01c7 C9120000 		.4byte	.LASF55
 1495 01cb 46       		.byte	0x46
 1496 01cc 0B       		.uleb128 0xb
 1497 01cd AB120000 		.4byte	.LASF56
 1498 01d1 47       		.byte	0x47
 1499 01d2 0B       		.uleb128 0xb
 1500 01d3 4C060000 		.4byte	.LASF57
 1501 01d7 48       		.byte	0x48
 1502 01d8 0B       		.uleb128 0xb
 1503 01d9 CF0F0000 		.4byte	.LASF58
 1504 01dd 49       		.byte	0x49
 1505 01de 0B       		.uleb128 0xb
ARM GAS  C:\Users\Intern\AppData\Local\Temp\ccD9JYVi.s 			page 55


 1506 01df 5D070000 		.4byte	.LASF59
 1507 01e3 4A       		.byte	0x4a
 1508 01e4 0B       		.uleb128 0xb
 1509 01e5 B7060000 		.4byte	.LASF60
 1510 01e9 4B       		.byte	0x4b
 1511 01ea 0B       		.uleb128 0xb
 1512 01eb 070F0000 		.4byte	.LASF61
 1513 01ef 4C       		.byte	0x4c
 1514 01f0 0B       		.uleb128 0xb
 1515 01f1 66130000 		.4byte	.LASF62
 1516 01f5 4D       		.byte	0x4d
 1517 01f6 0B       		.uleb128 0xb
 1518 01f7 0A030000 		.4byte	.LASF63
 1519 01fb 4E       		.byte	0x4e
 1520 01fc 0B       		.uleb128 0xb
 1521 01fd FC0D0000 		.4byte	.LASF64
 1522 0201 4F       		.byte	0x4f
 1523 0202 0B       		.uleb128 0xb
 1524 0203 5B150000 		.4byte	.LASF65
 1525 0207 50       		.byte	0x50
 1526 0208 0B       		.uleb128 0xb
 1527 0209 7B070000 		.4byte	.LASF66
 1528 020d 51       		.byte	0x51
 1529 020e 0B       		.uleb128 0xb
 1530 020f 0D020000 		.4byte	.LASF67
 1531 0213 52       		.byte	0x52
 1532 0214 0B       		.uleb128 0xb
 1533 0215 DA160000 		.4byte	.LASF68
 1534 0219 53       		.byte	0x53
 1535 021a 0B       		.uleb128 0xb
 1536 021b F3180000 		.4byte	.LASF69
 1537 021f 54       		.byte	0x54
 1538 0220 0B       		.uleb128 0xb
 1539 0221 290F0000 		.4byte	.LASF70
 1540 0225 55       		.byte	0x55
 1541 0226 0B       		.uleb128 0xb
 1542 0227 A5070000 		.4byte	.LASF71
 1543 022b 56       		.byte	0x56
 1544 022c 0B       		.uleb128 0xb
 1545 022d 980D0000 		.4byte	.LASF72
 1546 0231 57       		.byte	0x57
 1547 0232 0B       		.uleb128 0xb
 1548 0233 AE180000 		.4byte	.LASF73
 1549 0237 58       		.byte	0x58
 1550 0238 0B       		.uleb128 0xb
 1551 0239 60170000 		.4byte	.LASF74
 1552 023d 70       		.byte	0x70
 1553 023e 0B       		.uleb128 0xb
 1554 023f 2B090000 		.4byte	.LASF75
 1555 0243 71       		.byte	0x71
 1556 0244 0B       		.uleb128 0xb
 1557 0245 8A040000 		.4byte	.LASF76
 1558 0249 72       		.byte	0x72
 1559 024a 0B       		.uleb128 0xb
 1560 024b 3D150000 		.4byte	.LASF77
 1561 024f 73       		.byte	0x73
 1562 0250 0B       		.uleb128 0xb
ARM GAS  C:\Users\Intern\AppData\Local\Temp\ccD9JYVi.s 			page 56


 1563 0251 14100000 		.4byte	.LASF78
 1564 0255 74       		.byte	0x74
 1565 0256 0B       		.uleb128 0xb
 1566 0257 650B0000 		.4byte	.LASF79
 1567 025b 75       		.byte	0x75
 1568 025c 0B       		.uleb128 0xb
 1569 025d 2B060000 		.4byte	.LASF80
 1570 0261 76       		.byte	0x76
 1571 0262 0B       		.uleb128 0xb
 1572 0263 CB110000 		.4byte	.LASF81
 1573 0267 77       		.byte	0x77
 1574 0268 0B       		.uleb128 0xb
 1575 0269 30010000 		.4byte	.LASF82
 1576 026d 78       		.byte	0x78
 1577 026e 0B       		.uleb128 0xb
 1578 026f 28030000 		.4byte	.LASF83
 1579 0273 79       		.byte	0x79
 1580 0274 0B       		.uleb128 0xb
 1581 0275 8A180000 		.4byte	.LASF84
 1582 0279 7A       		.byte	0x7a
 1583 027a 0B       		.uleb128 0xb
 1584 027b 790C0000 		.4byte	.LASF85
 1585 027f FA       		.byte	0xfa
 1586 0280 0B       		.uleb128 0xb
 1587 0281 94160000 		.4byte	.LASF86
 1588 0285 FB       		.byte	0xfb
 1589 0286 0B       		.uleb128 0xb
 1590 0287 51090000 		.4byte	.LASF87
 1591 028b FC       		.byte	0xfc
 1592 028c 0B       		.uleb128 0xb
 1593 028d 64100000 		.4byte	.LASF88
 1594 0291 FD       		.byte	0xfd
 1595 0292 0B       		.uleb128 0xb
 1596 0293 B80E0000 		.4byte	.LASF89
 1597 0297 FF       		.byte	0xff
 1598 0298 00       		.byte	0
 1599 0299 0A       		.uleb128 0xa
 1600 029a 02       		.byte	0x2
 1601 029b 3A000000 		.4byte	0x3a
 1602 029f 03       		.byte	0x3
 1603 02a0 E703     		.2byte	0x3e7
 1604 02a2 78030000 		.4byte	0x378
 1605 02a6 0B       		.uleb128 0xb
 1606 02a7 2D050000 		.4byte	.LASF90
 1607 02ab 00       		.byte	0
 1608 02ac 0B       		.uleb128 0xb
 1609 02ad 47080000 		.4byte	.LASF91
 1610 02b1 01       		.byte	0x1
 1611 02b2 0B       		.uleb128 0xb
 1612 02b3 30180000 		.4byte	.LASF92
 1613 02b7 02       		.byte	0x2
 1614 02b8 0B       		.uleb128 0xb
 1615 02b9 C3080000 		.4byte	.LASF93
 1616 02bd 03       		.byte	0x3
 1617 02be 0B       		.uleb128 0xb
 1618 02bf 140A0000 		.4byte	.LASF94
 1619 02c3 04       		.byte	0x4
ARM GAS  C:\Users\Intern\AppData\Local\Temp\ccD9JYVi.s 			page 57


 1620 02c4 0B       		.uleb128 0xb
 1621 02c5 320C0000 		.4byte	.LASF95
 1622 02c9 05       		.byte	0x5
 1623 02ca 0B       		.uleb128 0xb
 1624 02cb 67160000 		.4byte	.LASF96
 1625 02cf 06       		.byte	0x6
 1626 02d0 0B       		.uleb128 0xb
 1627 02d1 40070000 		.4byte	.LASF97
 1628 02d5 07       		.byte	0x7
 1629 02d6 0B       		.uleb128 0xb
 1630 02d7 4F0D0000 		.4byte	.LASF98
 1631 02db 08       		.byte	0x8
 1632 02dc 0B       		.uleb128 0xb
 1633 02dd C0150000 		.4byte	.LASF99
 1634 02e1 09       		.byte	0x9
 1635 02e2 0B       		.uleb128 0xb
 1636 02e3 27190000 		.4byte	.LASF100
 1637 02e7 0A       		.byte	0xa
 1638 02e8 0B       		.uleb128 0xb
 1639 02e9 66020000 		.4byte	.LASF101
 1640 02ed 0B       		.byte	0xb
 1641 02ee 0B       		.uleb128 0xb
 1642 02ef FB160000 		.4byte	.LASF102
 1643 02f3 0C       		.byte	0xc
 1644 02f4 0B       		.uleb128 0xb
 1645 02f5 3E0E0000 		.4byte	.LASF103
 1646 02f9 0D       		.byte	0xd
 1647 02fa 0B       		.uleb128 0xb
 1648 02fb A30A0000 		.4byte	.LASF104
 1649 02ff 0E       		.byte	0xe
 1650 0300 0B       		.uleb128 0xb
 1651 0301 0D0C0000 		.4byte	.LASF105
 1652 0305 0F       		.byte	0xf
 1653 0306 0B       		.uleb128 0xb
 1654 0307 C7000000 		.4byte	.LASF106
 1655 030b 10       		.byte	0x10
 1656 030c 0B       		.uleb128 0xb
 1657 030d FD0C0000 		.4byte	.LASF107
 1658 0311 11       		.byte	0x11
 1659 0312 0B       		.uleb128 0xb
 1660 0313 D6030000 		.4byte	.LASF108
 1661 0317 12       		.byte	0x12
 1662 0318 0B       		.uleb128 0xb
 1663 0319 B8040000 		.4byte	.LASF109
 1664 031d 13       		.byte	0x13
 1665 031e 0B       		.uleb128 0xb
 1666 031f 570C0000 		.4byte	.LASF110
 1667 0323 27       		.byte	0x27
 1668 0324 0B       		.uleb128 0xb
 1669 0325 730D0000 		.4byte	.LASF111
 1670 0329 28       		.byte	0x28
 1671 032a 0B       		.uleb128 0xb
 1672 032b F5000000 		.4byte	.LASF112
 1673 032f 29       		.byte	0x29
 1674 0330 0B       		.uleb128 0xb
 1675 0331 BE140000 		.4byte	.LASF113
 1676 0335 2A       		.byte	0x2a
ARM GAS  C:\Users\Intern\AppData\Local\Temp\ccD9JYVi.s 			page 58


 1677 0336 0B       		.uleb128 0xb
 1678 0337 490A0000 		.4byte	.LASF114
 1679 033b 2B       		.byte	0x2b
 1680 033c 0B       		.uleb128 0xb
 1681 033d 0C120000 		.4byte	.LASF115
 1682 0341 2C       		.byte	0x2c
 1683 0342 0B       		.uleb128 0xb
 1684 0343 3C130000 		.4byte	.LASF116
 1685 0347 2D       		.byte	0x2d
 1686 0348 0B       		.uleb128 0xb
 1687 0349 2B080000 		.4byte	.LASF117
 1688 034d FE       		.byte	0xfe
 1689 034e 0B       		.uleb128 0xb
 1690 034f 1B090000 		.4byte	.LASF118
 1691 0353 FF       		.byte	0xff
 1692 0354 0C       		.uleb128 0xc
 1693 0355 B60F0000 		.4byte	.LASF119
 1694 0359 0001     		.2byte	0x100
 1695 035b 0C       		.uleb128 0xc
 1696 035c 9D0F0000 		.4byte	.LASF120
 1697 0360 0101     		.2byte	0x101
 1698 0362 0C       		.uleb128 0xc
 1699 0363 35040000 		.4byte	.LASF121
 1700 0367 0201     		.2byte	0x102
 1701 0369 0C       		.uleb128 0xc
 1702 036a 78110000 		.4byte	.LASF122
 1703 036e 0301     		.2byte	0x103
 1704 0370 0C       		.uleb128 0xc
 1705 0371 D9090000 		.4byte	.LASF123
 1706 0375 0401     		.2byte	0x104
 1707 0377 00       		.byte	0
 1708 0378 04       		.uleb128 0x4
 1709 0379 B3160000 		.4byte	.LASF124
 1710 037d 03       		.byte	0x3
 1711 037e 5904     		.2byte	0x459
 1712 0380 99020000 		.4byte	0x299
 1713 0384 0D       		.uleb128 0xd
 1714 0385 07       		.byte	0x7
 1715 0386 03       		.byte	0x3
 1716 0387 2705     		.2byte	0x527
 1717 0389 A8030000 		.4byte	0x3a8
 1718 038d 0E       		.uleb128 0xe
 1719 038e 27160000 		.4byte	.LASF125
 1720 0392 03       		.byte	0x3
 1721 0393 2A05     		.2byte	0x52a
 1722 0395 A8030000 		.4byte	0x3a8
 1723 0399 00       		.byte	0
 1724 039a 0E       		.uleb128 0xe
 1725 039b F7010000 		.4byte	.LASF126
 1726 039f 03       		.byte	0x3
 1727 03a0 2C05     		.2byte	0x52c
 1728 03a2 6B000000 		.4byte	0x6b
 1729 03a6 06       		.byte	0x6
 1730 03a7 00       		.byte	0
 1731 03a8 0F       		.uleb128 0xf
 1732 03a9 6B000000 		.4byte	0x6b
 1733 03ad B8030000 		.4byte	0x3b8
ARM GAS  C:\Users\Intern\AppData\Local\Temp\ccD9JYVi.s 			page 59


 1734 03b1 10       		.uleb128 0x10
 1735 03b2 BC000000 		.4byte	0xbc
 1736 03b6 05       		.byte	0x5
 1737 03b7 00       		.byte	0
 1738 03b8 04       		.uleb128 0x4
 1739 03b9 31120000 		.4byte	.LASF127
 1740 03bd 03       		.byte	0x3
 1741 03be 2D05     		.2byte	0x52d
 1742 03c0 84030000 		.4byte	0x384
 1743 03c4 0D       		.uleb128 0xd
 1744 03c5 04       		.byte	0x4
 1745 03c6 03       		.byte	0x3
 1746 03c7 3705     		.2byte	0x537
 1747 03c9 E8030000 		.4byte	0x3e8
 1748 03cd 0E       		.uleb128 0xe
 1749 03ce 88100000 		.4byte	.LASF128
 1750 03d2 03       		.byte	0x3
 1751 03d3 3A05     		.2byte	0x53a
 1752 03d5 77000000 		.4byte	0x77
 1753 03d9 00       		.byte	0
 1754 03da 0E       		.uleb128 0xe
 1755 03db 08050000 		.4byte	.LASF129
 1756 03df 03       		.byte	0x3
 1757 03e0 3C05     		.2byte	0x53c
 1758 03e2 6B000000 		.4byte	0x6b
 1759 03e6 02       		.byte	0x2
 1760 03e7 00       		.byte	0
 1761 03e8 04       		.uleb128 0x4
 1762 03e9 7E030000 		.4byte	.LASF130
 1763 03ed 03       		.byte	0x3
 1764 03ee 3D05     		.2byte	0x53d
 1765 03f0 C4030000 		.4byte	0x3c4
 1766 03f4 0D       		.uleb128 0xd
 1767 03f5 06       		.byte	0x6
 1768 03f6 03       		.byte	0x3
 1769 03f7 4105     		.2byte	0x541
 1770 03f9 25040000 		.4byte	0x425
 1771 03fd 0E       		.uleb128 0xe
 1772 03fe D00B0000 		.4byte	.LASF131
 1773 0402 03       		.byte	0x3
 1774 0403 4405     		.2byte	0x544
 1775 0405 77000000 		.4byte	0x77
 1776 0409 00       		.byte	0
 1777 040a 0E       		.uleb128 0xe
 1778 040b E3170000 		.4byte	.LASF132
 1779 040f 03       		.byte	0x3
 1780 0410 4705     		.2byte	0x547
 1781 0412 77000000 		.4byte	0x77
 1782 0416 02       		.byte	0x2
 1783 0417 0E       		.uleb128 0xe
 1784 0418 D30D0000 		.4byte	.LASF133
 1785 041c 03       		.byte	0x3
 1786 041d 4A05     		.2byte	0x54a
 1787 041f 6B000000 		.4byte	0x6b
 1788 0423 04       		.byte	0x4
 1789 0424 00       		.byte	0
 1790 0425 04       		.uleb128 0x4
ARM GAS  C:\Users\Intern\AppData\Local\Temp\ccD9JYVi.s 			page 60


 1791 0426 F1020000 		.4byte	.LASF134
 1792 042a 03       		.byte	0x3
 1793 042b 4B05     		.2byte	0x54b
 1794 042d F4030000 		.4byte	0x3f4
 1795 0431 0D       		.uleb128 0xd
 1796 0432 01       		.byte	0x1
 1797 0433 03       		.byte	0x3
 1798 0434 4E05     		.2byte	0x54e
 1799 0436 48040000 		.4byte	0x448
 1800 043a 0E       		.uleb128 0xe
 1801 043b 910A0000 		.4byte	.LASF135
 1802 043f 03       		.byte	0x3
 1803 0440 5105     		.2byte	0x551
 1804 0442 6B000000 		.4byte	0x6b
 1805 0446 00       		.byte	0
 1806 0447 00       		.byte	0
 1807 0448 04       		.uleb128 0x4
 1808 0449 210D0000 		.4byte	.LASF136
 1809 044d 03       		.byte	0x3
 1810 044e 5205     		.2byte	0x552
 1811 0450 31040000 		.4byte	0x431
 1812 0454 0D       		.uleb128 0xd
 1813 0455 0C       		.byte	0xc
 1814 0456 03       		.byte	0x3
 1815 0457 5805     		.2byte	0x558
 1816 0459 85040000 		.4byte	0x485
 1817 045d 0E       		.uleb128 0xe
 1818 045e 98030000 		.4byte	.LASF137
 1819 0462 03       		.byte	0x3
 1820 0463 5B05     		.2byte	0x55b
 1821 0465 85040000 		.4byte	0x485
 1822 0469 00       		.byte	0
 1823 046a 0E       		.uleb128 0xe
 1824 046b 4C120000 		.4byte	.LASF138
 1825 046f 03       		.byte	0x3
 1826 0470 5E05     		.2byte	0x55e
 1827 0472 8B040000 		.4byte	0x48b
 1828 0476 04       		.byte	0x4
 1829 0477 0E       		.uleb128 0xe
 1830 0478 EF0D0000 		.4byte	.LASF139
 1831 047c 03       		.byte	0x3
 1832 047d 6405     		.2byte	0x564
 1833 047f 77000000 		.4byte	0x77
 1834 0483 08       		.byte	0x8
 1835 0484 00       		.byte	0
 1836 0485 07       		.uleb128 0x7
 1837 0486 04       		.byte	0x4
 1838 0487 25040000 		.4byte	0x425
 1839 048b 07       		.uleb128 0x7
 1840 048c 04       		.byte	0x4
 1841 048d 48040000 		.4byte	0x448
 1842 0491 04       		.uleb128 0x4
 1843 0492 B50B0000 		.4byte	.LASF140
 1844 0496 03       		.byte	0x3
 1845 0497 6505     		.2byte	0x565
 1846 0499 54040000 		.4byte	0x454
 1847 049d 07       		.uleb128 0x7
ARM GAS  C:\Users\Intern\AppData\Local\Temp\ccD9JYVi.s 			page 61


 1848 049e 04       		.byte	0x4
 1849 049f 6B000000 		.4byte	0x6b
 1850 04a3 11       		.uleb128 0x11
 1851 04a4 01       		.byte	0x1
 1852 04a5 2C000000 		.4byte	0x2c
 1853 04a9 04       		.byte	0x4
 1854 04aa E0       		.byte	0xe0
 1855 04ab CE040000 		.4byte	0x4ce
 1856 04af 0B       		.uleb128 0xb
 1857 04b0 04180000 		.4byte	.LASF141
 1858 04b4 00       		.byte	0
 1859 04b5 0B       		.uleb128 0xb
 1860 04b6 E80F0000 		.4byte	.LASF142
 1861 04ba 01       		.byte	0x1
 1862 04bb 0B       		.uleb128 0xb
 1863 04bc 19150000 		.4byte	.LASF143
 1864 04c0 02       		.byte	0x2
 1865 04c1 0B       		.uleb128 0xb
 1866 04c2 60040000 		.4byte	.LASF144
 1867 04c6 03       		.byte	0x3
 1868 04c7 0B       		.uleb128 0xb
 1869 04c8 98080000 		.4byte	.LASF145
 1870 04cc 04       		.byte	0x4
 1871 04cd 00       		.byte	0
 1872 04ce 12       		.uleb128 0x12
 1873 04cf F60E0000 		.4byte	.LASF146
 1874 04d3 04       		.byte	0x4
 1875 04d4 F0       		.byte	0xf0
 1876 04d5 A3040000 		.4byte	0x4a3
 1877 04d9 0F       		.uleb128 0xf
 1878 04da 6B000000 		.4byte	0x6b
 1879 04de E9040000 		.4byte	0x4e9
 1880 04e2 10       		.uleb128 0x10
 1881 04e3 BC000000 		.4byte	0xbc
 1882 04e7 09       		.byte	0x9
 1883 04e8 00       		.byte	0
 1884 04e9 0D       		.uleb128 0xd
 1885 04ea 10       		.byte	0x10
 1886 04eb 04       		.byte	0x4
 1887 04ec 2102     		.2byte	0x221
 1888 04ee 5B050000 		.4byte	0x55b
 1889 04f2 0E       		.uleb128 0xe
 1890 04f3 E2050000 		.4byte	.LASF147
 1891 04f7 04       		.byte	0x4
 1892 04f8 2702     		.2byte	0x227
 1893 04fa 77000000 		.4byte	0x77
 1894 04fe 00       		.byte	0
 1895 04ff 0E       		.uleb128 0xe
 1896 0500 41190000 		.4byte	.LASF148
 1897 0504 04       		.byte	0x4
 1898 0505 2D02     		.2byte	0x22d
 1899 0507 77000000 		.4byte	0x77
 1900 050b 02       		.byte	0x2
 1901 050c 0E       		.uleb128 0xe
 1902 050d 0C0A0000 		.4byte	.LASF149
 1903 0511 04       		.byte	0x4
 1904 0512 3602     		.2byte	0x236
ARM GAS  C:\Users\Intern\AppData\Local\Temp\ccD9JYVi.s 			page 62


 1905 0514 CE040000 		.4byte	0x4ce
 1906 0518 04       		.byte	0x4
 1907 0519 0E       		.uleb128 0xe
 1908 051a 1B190000 		.4byte	.LASF150
 1909 051e 04       		.byte	0x4
 1910 051f 3E02     		.2byte	0x23e
 1911 0521 6B000000 		.4byte	0x6b
 1912 0525 05       		.byte	0x5
 1913 0526 0E       		.uleb128 0xe
 1914 0527 CA0C0000 		.4byte	.LASF151
 1915 052b 04       		.byte	0x4
 1916 052c 4502     		.2byte	0x245
 1917 052e 6B000000 		.4byte	0x6b
 1918 0532 06       		.byte	0x6
 1919 0533 0E       		.uleb128 0xe
 1920 0534 C2170000 		.4byte	.LASF152
 1921 0538 04       		.byte	0x4
 1922 0539 4B02     		.2byte	0x24b
 1923 053b A8030000 		.4byte	0x3a8
 1924 053f 07       		.byte	0x7
 1925 0540 0E       		.uleb128 0xe
 1926 0541 F6170000 		.4byte	.LASF153
 1927 0545 04       		.byte	0x4
 1928 0546 5302     		.2byte	0x253
 1929 0548 6B000000 		.4byte	0x6b
 1930 054c 0D       		.byte	0xd
 1931 054d 0E       		.uleb128 0xe
 1932 054e AF090000 		.4byte	.LASF154
 1933 0552 04       		.byte	0x4
 1934 0553 5F02     		.2byte	0x25f
 1935 0555 6B000000 		.4byte	0x6b
 1936 0559 0E       		.byte	0xe
 1937 055a 00       		.byte	0
 1938 055b 04       		.uleb128 0x4
 1939 055c 71090000 		.4byte	.LASF155
 1940 0560 04       		.byte	0x4
 1941 0561 6102     		.2byte	0x261
 1942 0563 E9040000 		.4byte	0x4e9
 1943 0567 0D       		.uleb128 0xd
 1944 0568 20       		.byte	0x20
 1945 0569 04       		.byte	0x4
 1946 056a 6402     		.2byte	0x264
 1947 056c 8B050000 		.4byte	0x58b
 1948 0570 0E       		.uleb128 0xe
 1949 0571 210F0000 		.4byte	.LASF156
 1950 0575 04       		.byte	0x4
 1951 0576 6702     		.2byte	0x267
 1952 0578 8B050000 		.4byte	0x58b
 1953 057c 00       		.byte	0
 1954 057d 0E       		.uleb128 0xe
 1955 057e 67120000 		.4byte	.LASF157
 1956 0582 04       		.byte	0x4
 1957 0583 6A02     		.2byte	0x26a
 1958 0585 6B000000 		.4byte	0x6b
 1959 0589 1F       		.byte	0x1f
 1960 058a 00       		.byte	0
 1961 058b 0F       		.uleb128 0xf
ARM GAS  C:\Users\Intern\AppData\Local\Temp\ccD9JYVi.s 			page 63


 1962 058c 6B000000 		.4byte	0x6b
 1963 0590 9B050000 		.4byte	0x59b
 1964 0594 10       		.uleb128 0x10
 1965 0595 BC000000 		.4byte	0xbc
 1966 0599 1E       		.byte	0x1e
 1967 059a 00       		.byte	0
 1968 059b 04       		.uleb128 0x4
 1969 059c 14060000 		.4byte	.LASF158
 1970 05a0 04       		.byte	0x4
 1971 05a1 6C02     		.2byte	0x26c
 1972 05a3 67050000 		.4byte	0x567
 1973 05a7 0D       		.uleb128 0xd
 1974 05a8 20       		.byte	0x20
 1975 05a9 04       		.byte	0x4
 1976 05aa 6F02     		.2byte	0x26f
 1977 05ac CB050000 		.4byte	0x5cb
 1978 05b0 0E       		.uleb128 0xe
 1979 05b1 12000000 		.4byte	.LASF159
 1980 05b5 04       		.byte	0x4
 1981 05b6 7302     		.2byte	0x273
 1982 05b8 8B050000 		.4byte	0x58b
 1983 05bc 00       		.byte	0
 1984 05bd 0E       		.uleb128 0xe
 1985 05be AF140000 		.4byte	.LASF160
 1986 05c2 04       		.byte	0x4
 1987 05c3 7602     		.2byte	0x276
 1988 05c5 6B000000 		.4byte	0x6b
 1989 05c9 1F       		.byte	0x1f
 1990 05ca 00       		.byte	0
 1991 05cb 04       		.uleb128 0x4
 1992 05cc F8130000 		.4byte	.LASF161
 1993 05d0 04       		.byte	0x4
 1994 05d1 7802     		.2byte	0x278
 1995 05d3 A7050000 		.4byte	0x5a7
 1996 05d7 0D       		.uleb128 0xd
 1997 05d8 14       		.byte	0x14
 1998 05d9 04       		.byte	0x4
 1999 05da 7B02     		.2byte	0x27b
 2000 05dc 22060000 		.4byte	0x622
 2001 05e0 0E       		.uleb128 0xe
 2002 05e1 BE000000 		.4byte	.LASF162
 2003 05e5 04       		.byte	0x4
 2004 05e6 8302     		.2byte	0x283
 2005 05e8 6B000000 		.4byte	0x6b
 2006 05ec 00       		.byte	0
 2007 05ed 0E       		.uleb128 0xe
 2008 05ee 040C0000 		.4byte	.LASF163
 2009 05f2 04       		.byte	0x4
 2010 05f3 8602     		.2byte	0x286
 2011 05f5 22060000 		.4byte	0x622
 2012 05f9 04       		.byte	0x4
 2013 05fa 0E       		.uleb128 0xe
 2014 05fb 210F0000 		.4byte	.LASF156
 2015 05ff 04       		.byte	0x4
 2016 0600 8802     		.2byte	0x288
 2017 0602 28060000 		.4byte	0x628
 2018 0606 08       		.byte	0x8
ARM GAS  C:\Users\Intern\AppData\Local\Temp\ccD9JYVi.s 			page 64


 2019 0607 0E       		.uleb128 0xe
 2020 0608 12000000 		.4byte	.LASF159
 2021 060c 04       		.byte	0x4
 2022 060d 8A02     		.2byte	0x28a
 2023 060f 2E060000 		.4byte	0x62e
 2024 0613 0C       		.byte	0xc
 2025 0614 0E       		.uleb128 0xe
 2026 0615 C7070000 		.4byte	.LASF164
 2027 0619 04       		.byte	0x4
 2028 061a 9402     		.2byte	0x294
 2029 061c 77000000 		.4byte	0x77
 2030 0620 10       		.byte	0x10
 2031 0621 00       		.byte	0
 2032 0622 07       		.uleb128 0x7
 2033 0623 04       		.byte	0x4
 2034 0624 5B050000 		.4byte	0x55b
 2035 0628 07       		.uleb128 0x7
 2036 0629 04       		.byte	0x4
 2037 062a 9B050000 		.4byte	0x59b
 2038 062e 07       		.uleb128 0x7
 2039 062f 04       		.byte	0x4
 2040 0630 CB050000 		.4byte	0x5cb
 2041 0634 04       		.uleb128 0x4
 2042 0635 77120000 		.4byte	.LASF165
 2043 0639 04       		.byte	0x4
 2044 063a 9602     		.2byte	0x296
 2045 063c D7050000 		.4byte	0x5d7
 2046 0640 04       		.uleb128 0x4
 2047 0641 92110000 		.4byte	.LASF166
 2048 0645 05       		.byte	0x5
 2049 0646 8901     		.2byte	0x189
 2050 0648 77000000 		.4byte	0x77
 2051 064c 0D       		.uleb128 0xd
 2052 064d 02       		.byte	0x2
 2053 064e 05       		.byte	0x5
 2054 064f 9301     		.2byte	0x193
 2055 0651 70060000 		.4byte	0x670
 2056 0655 0E       		.uleb128 0xe
 2057 0656 E8020000 		.4byte	.LASF167
 2058 065a 05       		.byte	0x5
 2059 065b 9A01     		.2byte	0x19a
 2060 065d 6B000000 		.4byte	0x6b
 2061 0661 00       		.byte	0
 2062 0662 0E       		.uleb128 0xe
 2063 0663 2A180000 		.4byte	.LASF168
 2064 0667 05       		.byte	0x5
 2065 0668 A001     		.2byte	0x1a0
 2066 066a 6B000000 		.4byte	0x6b
 2067 066e 01       		.byte	0x1
 2068 066f 00       		.byte	0
 2069 0670 04       		.uleb128 0x4
 2070 0671 45020000 		.4byte	.LASF169
 2071 0675 05       		.byte	0x5
 2072 0676 A201     		.2byte	0x1a2
 2073 0678 4C060000 		.4byte	0x64c
 2074 067c 13       		.uleb128 0x13
 2075 067d 08       		.byte	0x8
ARM GAS  C:\Users\Intern\AppData\Local\Temp\ccD9JYVi.s 			page 65


 2076 067e 06       		.byte	0x6
 2077 067f CE       		.byte	0xce
 2078 0680 9D060000 		.4byte	0x69d
 2079 0684 14       		.uleb128 0x14
 2080 0685 5A120000 		.4byte	.LASF170
 2081 0689 06       		.byte	0x6
 2082 068a D1       		.byte	0xd1
 2083 068b 77000000 		.4byte	0x77
 2084 068f 00       		.byte	0
 2085 0690 14       		.uleb128 0x14
 2086 0691 13140000 		.4byte	.LASF171
 2087 0695 06       		.byte	0x6
 2088 0696 D6       		.byte	0xd6
 2089 0697 C3000000 		.4byte	0xc3
 2090 069b 04       		.byte	0x4
 2091 069c 00       		.byte	0
 2092 069d 12       		.uleb128 0x12
 2093 069e 46100000 		.4byte	.LASF172
 2094 06a2 06       		.byte	0x6
 2095 06a3 D8       		.byte	0xd8
 2096 06a4 7C060000 		.4byte	0x67c
 2097 06a8 13       		.uleb128 0x13
 2098 06a9 08       		.byte	0x8
 2099 06aa 06       		.byte	0x6
 2100 06ab DB       		.byte	0xdb
 2101 06ac C9060000 		.4byte	0x6c9
 2102 06b0 14       		.uleb128 0x14
 2103 06b1 A9060000 		.4byte	.LASF173
 2104 06b5 06       		.byte	0x6
 2105 06b6 DE       		.byte	0xde
 2106 06b7 77000000 		.4byte	0x77
 2107 06bb 00       		.byte	0
 2108 06bc 14       		.uleb128 0x14
 2109 06bd 8F140000 		.4byte	.LASF174
 2110 06c1 06       		.byte	0x6
 2111 06c2 E3       		.byte	0xe3
 2112 06c3 C9060000 		.4byte	0x6c9
 2113 06c7 04       		.byte	0x4
 2114 06c8 00       		.byte	0
 2115 06c9 07       		.uleb128 0x7
 2116 06ca 04       		.byte	0x4
 2117 06cb 9D060000 		.4byte	0x69d
 2118 06cf 12       		.uleb128 0x12
 2119 06d0 B1130000 		.4byte	.LASF175
 2120 06d4 06       		.byte	0x6
 2121 06d5 E5       		.byte	0xe5
 2122 06d6 A8060000 		.4byte	0x6a8
 2123 06da 15       		.uleb128 0x15
 2124 06db 08       		.byte	0x8
 2125 06dc 06       		.byte	0x6
 2126 06dd E8       		.byte	0xe8
 2127 06de F9060000 		.4byte	0x6f9
 2128 06e2 16       		.uleb128 0x16
 2129 06e3 A0140000 		.4byte	.LASF176
 2130 06e7 06       		.byte	0x6
 2131 06e8 EF       		.byte	0xef
 2132 06e9 CF060000 		.4byte	0x6cf
ARM GAS  C:\Users\Intern\AppData\Local\Temp\ccD9JYVi.s 			page 66


 2133 06ed 16       		.uleb128 0x16
 2134 06ee CC0A0000 		.4byte	.LASF177
 2135 06f2 06       		.byte	0x6
 2136 06f3 F2       		.byte	0xf2
 2137 06f4 77000000 		.4byte	0x77
 2138 06f8 00       		.byte	0
 2139 06f9 12       		.uleb128 0x12
 2140 06fa 99130000 		.4byte	.LASF178
 2141 06fe 06       		.byte	0x6
 2142 06ff F4       		.byte	0xf4
 2143 0700 DA060000 		.4byte	0x6da
 2144 0704 13       		.uleb128 0x13
 2145 0705 14       		.byte	0x14
 2146 0706 06       		.byte	0x6
 2147 0707 F7       		.byte	0xf7
 2148 0708 4D070000 		.4byte	0x74d
 2149 070c 14       		.uleb128 0x14
 2150 070d ED050000 		.4byte	.LASF179
 2151 0711 06       		.byte	0x6
 2152 0712 FA       		.byte	0xfa
 2153 0713 77000000 		.4byte	0x77
 2154 0717 00       		.byte	0
 2155 0718 0E       		.uleb128 0xe
 2156 0719 58040000 		.4byte	.LASF180
 2157 071d 06       		.byte	0x6
 2158 071e 0001     		.2byte	0x100
 2159 0720 77000000 		.4byte	0x77
 2160 0724 02       		.byte	0x2
 2161 0725 0E       		.uleb128 0xe
 2162 0726 EC010000 		.4byte	.LASF181
 2163 072a 06       		.byte	0x6
 2164 072b 0B01     		.2byte	0x10b
 2165 072d 83000000 		.4byte	0x83
 2166 0731 04       		.byte	0x4
 2167 0732 0E       		.uleb128 0xe
 2168 0733 1B0E0000 		.4byte	.LASF182
 2169 0737 06       		.byte	0x6
 2170 0738 0E01     		.2byte	0x10e
 2171 073a 77000000 		.4byte	0x77
 2172 073e 08       		.byte	0x8
 2173 073f 0E       		.uleb128 0xe
 2174 0740 F0110000 		.4byte	.LASF183
 2175 0744 06       		.byte	0x6
 2176 0745 1701     		.2byte	0x117
 2177 0747 F9060000 		.4byte	0x6f9
 2178 074b 0C       		.byte	0xc
 2179 074c 00       		.byte	0
 2180 074d 04       		.uleb128 0x4
 2181 074e CD070000 		.4byte	.LASF184
 2182 0752 06       		.byte	0x6
 2183 0753 1801     		.2byte	0x118
 2184 0755 04070000 		.4byte	0x704
 2185 0759 04       		.uleb128 0x4
 2186 075a FC010000 		.4byte	.LASF185
 2187 075e 07       		.byte	0x7
 2188 075f 0302     		.2byte	0x203
 2189 0761 C5000000 		.4byte	0xc5
ARM GAS  C:\Users\Intern\AppData\Local\Temp\ccD9JYVi.s 			page 67


 2190 0765 17       		.uleb128 0x17
 2191 0766 AD02     		.2byte	0x2ad
 2192 0768 08       		.byte	0x8
 2193 0769 9D       		.byte	0x9d
 2194 076a A2070000 		.4byte	0x7a2
 2195 076e 14       		.uleb128 0x14
 2196 076f 63090000 		.4byte	.LASF186
 2197 0773 08       		.byte	0x8
 2198 0774 A0       		.byte	0xa0
 2199 0775 A2070000 		.4byte	0x7a2
 2200 0779 00       		.byte	0
 2201 077a 18       		.uleb128 0x18
 2202 077b 02090000 		.4byte	.LASF187
 2203 077f 08       		.byte	0x8
 2204 0780 A3       		.byte	0xa3
 2205 0781 B3070000 		.4byte	0x7b3
 2206 0785 7902     		.2byte	0x279
 2207 0787 18       		.uleb128 0x18
 2208 0788 9E150000 		.4byte	.LASF188
 2209 078c 08       		.byte	0x8
 2210 078d A6       		.byte	0xa6
 2211 078e 6B000000 		.4byte	0x6b
 2212 0792 AB02     		.2byte	0x2ab
 2213 0794 18       		.uleb128 0x18
 2214 0795 79080000 		.4byte	.LASF189
 2215 0799 08       		.byte	0x8
 2216 079a A9       		.byte	0xa9
 2217 079b 6B000000 		.4byte	0x6b
 2218 079f AC02     		.2byte	0x2ac
 2219 07a1 00       		.byte	0
 2220 07a2 0F       		.uleb128 0xf
 2221 07a3 6B000000 		.4byte	0x6b
 2222 07a7 B3070000 		.4byte	0x7b3
 2223 07ab 19       		.uleb128 0x19
 2224 07ac BC000000 		.4byte	0xbc
 2225 07b0 7802     		.2byte	0x278
 2226 07b2 00       		.byte	0
 2227 07b3 0F       		.uleb128 0xf
 2228 07b4 6B000000 		.4byte	0x6b
 2229 07b8 C9070000 		.4byte	0x7c9
 2230 07bc 10       		.uleb128 0x10
 2231 07bd BC000000 		.4byte	0xbc
 2232 07c1 04       		.byte	0x4
 2233 07c2 10       		.uleb128 0x10
 2234 07c3 BC000000 		.4byte	0xbc
 2235 07c7 09       		.byte	0x9
 2236 07c8 00       		.byte	0
 2237 07c9 12       		.uleb128 0x12
 2238 07ca 7C0A0000 		.4byte	.LASF190
 2239 07ce 08       		.byte	0x8
 2240 07cf AA       		.byte	0xaa
 2241 07d0 65070000 		.4byte	0x765
 2242 07d4 0A       		.uleb128 0xa
 2243 07d5 01       		.byte	0x1
 2244 07d6 2C000000 		.4byte	0x2c
 2245 07da 09       		.byte	0x9
 2246 07db 5A08     		.2byte	0x85a
ARM GAS  C:\Users\Intern\AppData\Local\Temp\ccD9JYVi.s 			page 68


 2247 07dd 00080000 		.4byte	0x800
 2248 07e1 0B       		.uleb128 0xb
 2249 07e2 63050000 		.4byte	.LASF191
 2250 07e6 00       		.byte	0
 2251 07e7 0B       		.uleb128 0xb
 2252 07e8 4C0B0000 		.4byte	.LASF192
 2253 07ec 01       		.byte	0x1
 2254 07ed 0B       		.uleb128 0xb
 2255 07ee CD170000 		.4byte	.LASF193
 2256 07f2 02       		.byte	0x2
 2257 07f3 0B       		.uleb128 0xb
 2258 07f4 A7020000 		.4byte	.LASF194
 2259 07f8 03       		.byte	0x3
 2260 07f9 0B       		.uleb128 0xb
 2261 07fa 80130000 		.4byte	.LASF195
 2262 07fe 04       		.byte	0x4
 2263 07ff 00       		.byte	0
 2264 0800 04       		.uleb128 0x4
 2265 0801 0B150000 		.4byte	.LASF196
 2266 0805 09       		.byte	0x9
 2267 0806 6808     		.2byte	0x868
 2268 0808 D4070000 		.4byte	0x7d4
 2269 080c 0D       		.uleb128 0xd
 2270 080d 0C       		.byte	0xc
 2271 080e 09       		.byte	0x9
 2272 080f A309     		.2byte	0x9a3
 2273 0811 64080000 		.4byte	0x864
 2274 0815 0E       		.uleb128 0xe
 2275 0816 9A170000 		.4byte	.LASF197
 2276 081a 09       		.byte	0x9
 2277 081b A609     		.2byte	0x9a6
 2278 081d 40060000 		.4byte	0x640
 2279 0821 00       		.byte	0
 2280 0822 0E       		.uleb128 0xe
 2281 0823 B50C0000 		.4byte	.LASF198
 2282 0827 09       		.byte	0x9
 2283 0828 A809     		.2byte	0x9a8
 2284 082a 40060000 		.4byte	0x640
 2285 082e 02       		.byte	0x2
 2286 082f 0E       		.uleb128 0xe
 2287 0830 BD100000 		.4byte	.LASF199
 2288 0834 09       		.byte	0x9
 2289 0835 AA09     		.2byte	0x9aa
 2290 0837 40060000 		.4byte	0x640
 2291 083b 04       		.byte	0x4
 2292 083c 0E       		.uleb128 0xe
 2293 083d 5F0F0000 		.4byte	.LASF200
 2294 0841 09       		.byte	0x9
 2295 0842 AD09     		.2byte	0x9ad
 2296 0844 40060000 		.4byte	0x640
 2297 0848 06       		.byte	0x6
 2298 0849 0E       		.uleb128 0xe
 2299 084a 07160000 		.4byte	.LASF201
 2300 084e 09       		.byte	0x9
 2301 084f AF09     		.2byte	0x9af
 2302 0851 40060000 		.4byte	0x640
 2303 0855 08       		.byte	0x8
ARM GAS  C:\Users\Intern\AppData\Local\Temp\ccD9JYVi.s 			page 69


 2304 0856 0E       		.uleb128 0xe
 2305 0857 A6040000 		.4byte	.LASF202
 2306 085b 09       		.byte	0x9
 2307 085c B109     		.2byte	0x9b1
 2308 085e 40060000 		.4byte	0x640
 2309 0862 0A       		.byte	0xa
 2310 0863 00       		.byte	0
 2311 0864 04       		.uleb128 0x4
 2312 0865 24120000 		.4byte	.LASF203
 2313 0869 09       		.byte	0x9
 2314 086a B209     		.2byte	0x9b2
 2315 086c 0C080000 		.4byte	0x80c
 2316 0870 1A       		.uleb128 0x1a
 2317 0871 94000000 		.4byte	.LASF276
 2318 0875 01       		.byte	0x1
 2319 0876 A904     		.2byte	0x4a9
 2320 0878 00000000 		.4byte	.LFB11
 2321 087c 78000000 		.4byte	.LFE11-.LFB11
 2322 0880 01       		.uleb128 0x1
 2323 0881 9C       		.byte	0x9c
 2324 0882 05090000 		.4byte	0x905
 2325 0886 1B       		.uleb128 0x1b
 2326 0887 21140000 		.4byte	.LASF204
 2327 088b 01       		.byte	0x1
 2328 088c A904     		.2byte	0x4a9
 2329 088e 05090000 		.4byte	0x905
 2330 0892 00000000 		.4byte	.LLST0
 2331 0896 1B       		.uleb128 0x1b
 2332 0897 72120000 		.4byte	.LASF205
 2333 089b 01       		.byte	0x1
 2334 089c A904     		.2byte	0x4a9
 2335 089e 6B000000 		.4byte	0x6b
 2336 08a2 21000000 		.4byte	.LLST1
 2337 08a6 1C       		.uleb128 0x1c
 2338 08a7 6900     		.ascii	"i\000"
 2339 08a9 01       		.byte	0x1
 2340 08aa AB04     		.2byte	0x4ab
 2341 08ac 6B000000 		.4byte	0x6b
 2342 08b0 5B000000 		.4byte	.LLST2
 2343 08b4 1D       		.uleb128 0x1d
 2344 08b5 280E0000 		.4byte	.LASF206
 2345 08b9 01       		.byte	0x1
 2346 08ba AC04     		.2byte	0x4ac
 2347 08bc 6B000000 		.4byte	0x6b
 2348 08c0 8F000000 		.4byte	.LLST3
 2349 08c4 1D       		.uleb128 0x1d
 2350 08c5 4E180000 		.4byte	.LASF207
 2351 08c9 01       		.byte	0x1
 2352 08ca AD04     		.2byte	0x4ad
 2353 08cc 6B000000 		.4byte	0x6b
 2354 08d0 AE000000 		.4byte	.LLST4
 2355 08d4 1D       		.uleb128 0x1d
 2356 08d5 88160000 		.4byte	.LASF208
 2357 08d9 01       		.byte	0x1
 2358 08da AE04     		.2byte	0x4ae
 2359 08dc 6B000000 		.4byte	0x6b
 2360 08e0 D8000000 		.4byte	.LLST5
ARM GAS  C:\Users\Intern\AppData\Local\Temp\ccD9JYVi.s 			page 70


 2361 08e4 1D       		.uleb128 0x1d
 2362 08e5 B3000000 		.4byte	.LASF209
 2363 08e9 01       		.byte	0x1
 2364 08ea AF04     		.2byte	0x4af
 2365 08ec 9D040000 		.4byte	0x49d
 2366 08f0 18010000 		.4byte	.LLST6
 2367 08f4 1D       		.uleb128 0x1d
 2368 08f5 89090000 		.4byte	.LASF210
 2369 08f9 01       		.byte	0x1
 2370 08fa B004     		.2byte	0x4b0
 2371 08fc 6B000000 		.4byte	0x6b
 2372 0900 4B010000 		.4byte	.LLST7
 2373 0904 00       		.byte	0
 2374 0905 07       		.uleb128 0x7
 2375 0906 04       		.byte	0x4
 2376 0907 0B090000 		.4byte	0x90b
 2377 090b 1E       		.uleb128 0x1e
 2378 090c 9D000000 		.4byte	0x9d
 2379 0910 1F       		.uleb128 0x1f
 2380 0911 54030000 		.4byte	.LASF211
 2381 0915 01       		.byte	0x1
 2382 0916 C9       		.byte	0xc9
 2383 0917 00000000 		.4byte	.LFB3
 2384 091b 08000000 		.4byte	.LFE3-.LFB3
 2385 091f 01       		.uleb128 0x1
 2386 0920 9C       		.byte	0x9c
 2387 0921 2F090000 		.4byte	0x92f
 2388 0925 20       		.uleb128 0x20
 2389 0926 06000000 		.4byte	.LVL28
 2390 092a 19100000 		.4byte	0x1019
 2391 092e 00       		.byte	0
 2392 092f 1F       		.uleb128 0x1f
 2393 0930 9A070000 		.4byte	.LASF212
 2394 0934 01       		.byte	0x1
 2395 0935 98       		.byte	0x98
 2396 0936 00000000 		.4byte	.LFB2
 2397 093a 34000000 		.4byte	.LFE2-.LFB2
 2398 093e 01       		.uleb128 0x1
 2399 093f 9C       		.byte	0x9c
 2400 0940 4E090000 		.4byte	0x94e
 2401 0944 20       		.uleb128 0x20
 2402 0945 14000000 		.4byte	.LVL29
 2403 0949 10090000 		.4byte	0x910
 2404 094d 00       		.byte	0
 2405 094e 21       		.uleb128 0x21
 2406 094f 0D130000 		.4byte	.LASF221
 2407 0953 01       		.byte	0x1
 2408 0954 9701     		.2byte	0x197
 2409 0956 78030000 		.4byte	0x378
 2410 095a 00000000 		.4byte	.LFB4
 2411 095e B0000000 		.4byte	.LFE4-.LFB4
 2412 0962 01       		.uleb128 0x1
 2413 0963 9C       		.byte	0x9c
 2414 0964 690A0000 		.4byte	0xa69
 2415 0968 1B       		.uleb128 0x1b
 2416 0969 59020000 		.4byte	.LASF213
 2417 096d 01       		.byte	0x1
ARM GAS  C:\Users\Intern\AppData\Local\Temp\ccD9JYVi.s 			page 71


 2418 096e 9701     		.2byte	0x197
 2419 0970 59070000 		.4byte	0x759
 2420 0974 69010000 		.4byte	.LLST8
 2421 0978 1D       		.uleb128 0x1d
 2422 0979 50000000 		.4byte	.LASF214
 2423 097d 01       		.byte	0x1
 2424 097e 9901     		.2byte	0x199
 2425 0980 78030000 		.4byte	0x378
 2426 0984 95010000 		.4byte	.LLST9
 2427 0988 22       		.uleb128 0x22
 2428 0989 65080000 		.4byte	.LASF215
 2429 098d 01       		.byte	0x1
 2430 098e 9D01     		.2byte	0x19d
 2431 0990 690A0000 		.4byte	0xa69
 2432 0994 02       		.uleb128 0x2
 2433 0995 91       		.byte	0x91
 2434 0996 64       		.sleb128 -28
 2435 0997 23       		.uleb128 0x23
 2436 0998 2E000000 		.4byte	.LBB2
 2437 099c 24000000 		.4byte	.LBE2-.LBB2
 2438 09a0 F7090000 		.4byte	0x9f7
 2439 09a4 22       		.uleb128 0x22
 2440 09a5 25130000 		.4byte	.LASF216
 2441 09a9 01       		.byte	0x1
 2442 09aa BF01     		.2byte	0x1bf
 2443 09ac 25040000 		.4byte	0x425
 2444 09b0 02       		.uleb128 0x2
 2445 09b1 91       		.byte	0x91
 2446 09b2 50       		.sleb128 -48
 2447 09b3 22       		.uleb128 0x22
 2448 09b4 32100000 		.4byte	.LASF217
 2449 09b8 01       		.byte	0x1
 2450 09b9 C001     		.2byte	0x1c0
 2451 09bb 48040000 		.4byte	0x448
 2452 09bf 02       		.uleb128 0x2
 2453 09c0 91       		.byte	0x91
 2454 09c1 4C       		.sleb128 -52
 2455 09c2 22       		.uleb128 0x22
 2456 09c3 B7030000 		.4byte	.LASF218
 2457 09c7 01       		.byte	0x1
 2458 09c8 C101     		.2byte	0x1c1
 2459 09ca 91040000 		.4byte	0x491
 2460 09ce 02       		.uleb128 0x2
 2461 09cf 91       		.byte	0x91
 2462 09d0 58       		.sleb128 -40
 2463 09d1 22       		.uleb128 0x22
 2464 09d2 89080000 		.4byte	.LASF219
 2465 09d6 01       		.byte	0x1
 2466 09d7 C201     		.2byte	0x1c2
 2467 09d9 77000000 		.4byte	0x77
 2468 09dd 02       		.uleb128 0x2
 2469 09de 91       		.byte	0x91
 2470 09df 4E       		.sleb128 -50
 2471 09e0 24       		.uleb128 0x24
 2472 09e1 52000000 		.4byte	.LVL35
 2473 09e5 24100000 		.4byte	0x1024
 2474 09e9 25       		.uleb128 0x25
ARM GAS  C:\Users\Intern\AppData\Local\Temp\ccD9JYVi.s 			page 72


 2475 09ea 01       		.uleb128 0x1
 2476 09eb 50       		.byte	0x50
 2477 09ec 02       		.uleb128 0x2
 2478 09ed 91       		.byte	0x91
 2479 09ee 58       		.sleb128 -40
 2480 09ef 25       		.uleb128 0x25
 2481 09f0 01       		.uleb128 0x1
 2482 09f1 51       		.byte	0x51
 2483 09f2 02       		.uleb128 0x2
 2484 09f3 91       		.byte	0x91
 2485 09f4 4E       		.sleb128 -50
 2486 09f5 00       		.byte	0
 2487 09f6 00       		.byte	0
 2488 09f7 26       		.uleb128 0x26
 2489 09f8 10000000 		.4byte	.LVL33
 2490 09fc 30100000 		.4byte	0x1030
 2491 0a00 190A0000 		.4byte	0xa19
 2492 0a04 25       		.uleb128 0x25
 2493 0a05 01       		.uleb128 0x1
 2494 0a06 50       		.byte	0x50
 2495 0a07 02       		.uleb128 0x2
 2496 0a08 91       		.byte	0x91
 2497 0a09 64       		.sleb128 -28
 2498 0a0a 25       		.uleb128 0x25
 2499 0a0b 01       		.uleb128 0x1
 2500 0a0c 51       		.byte	0x51
 2501 0a0d 05       		.uleb128 0x5
 2502 0a0e 03       		.byte	0x3
 2503 0a0f 00000000 		.4byte	.LANCHOR2
 2504 0a13 25       		.uleb128 0x25
 2505 0a14 01       		.uleb128 0x1
 2506 0a15 52       		.byte	0x52
 2507 0a16 01       		.uleb128 0x1
 2508 0a17 44       		.byte	0x44
 2509 0a18 00       		.byte	0
 2510 0a19 20       		.uleb128 0x20
 2511 0a1a 1E000000 		.4byte	.LVL34
 2512 0a1e 2F090000 		.4byte	0x92f
 2513 0a22 26       		.uleb128 0x26
 2514 0a23 70000000 		.4byte	.LVL37
 2515 0a27 39100000 		.4byte	0x1039
 2516 0a2b 540A0000 		.4byte	0xa54
 2517 0a2f 25       		.uleb128 0x25
 2518 0a30 01       		.uleb128 0x1
 2519 0a31 51       		.byte	0x51
 2520 0a32 05       		.uleb128 0x5
 2521 0a33 03       		.byte	0x3
 2522 0a34 00000000 		.4byte	.LANCHOR3
 2523 0a38 25       		.uleb128 0x25
 2524 0a39 01       		.uleb128 0x1
 2525 0a3a 52       		.byte	0x52
 2526 0a3b 03       		.uleb128 0x3
 2527 0a3c 0A       		.byte	0xa
 2528 0a3d E00A     		.2byte	0xae0
 2529 0a3f 25       		.uleb128 0x25
 2530 0a40 01       		.uleb128 0x1
 2531 0a41 53       		.byte	0x53
ARM GAS  C:\Users\Intern\AppData\Local\Temp\ccD9JYVi.s 			page 73


 2532 0a42 02       		.uleb128 0x2
 2533 0a43 91       		.byte	0x91
 2534 0a44 64       		.sleb128 -28
 2535 0a45 25       		.uleb128 0x25
 2536 0a46 02       		.uleb128 0x2
 2537 0a47 7D       		.byte	0x7d
 2538 0a48 00       		.sleb128 0
 2539 0a49 01       		.uleb128 0x1
 2540 0a4a 35       		.byte	0x35
 2541 0a4b 25       		.uleb128 0x25
 2542 0a4c 02       		.uleb128 0x2
 2543 0a4d 7D       		.byte	0x7d
 2544 0a4e 08       		.sleb128 8
 2545 0a4f 03       		.uleb128 0x3
 2546 0a50 0A       		.byte	0xa
 2547 0a51 7902     		.2byte	0x279
 2548 0a53 00       		.byte	0
 2549 0a54 24       		.uleb128 0x24
 2550 0a55 84000000 		.4byte	.LVL39
 2551 0a59 45100000 		.4byte	0x1045
 2552 0a5d 25       		.uleb128 0x25
 2553 0a5e 01       		.uleb128 0x1
 2554 0a5f 51       		.byte	0x51
 2555 0a60 01       		.uleb128 0x1
 2556 0a61 4E       		.byte	0x4e
 2557 0a62 25       		.uleb128 0x25
 2558 0a63 01       		.uleb128 0x1
 2559 0a64 52       		.byte	0x52
 2560 0a65 01       		.uleb128 0x1
 2561 0a66 3A       		.byte	0x3a
 2562 0a67 00       		.byte	0
 2563 0a68 00       		.byte	0
 2564 0a69 0F       		.uleb128 0xf
 2565 0a6a E8030000 		.4byte	0x3e8
 2566 0a6e 790A0000 		.4byte	0xa79
 2567 0a72 10       		.uleb128 0x10
 2568 0a73 BC000000 		.4byte	0xbc
 2569 0a77 04       		.byte	0x4
 2570 0a78 00       		.byte	0
 2571 0a79 27       		.uleb128 0x27
 2572 0a7a 860B0000 		.4byte	.LASF220
 2573 0a7e 01       		.byte	0x1
 2574 0a7f 1C02     		.2byte	0x21c
 2575 0a81 00000000 		.4byte	.LFB5
 2576 0a85 14000000 		.4byte	.LFE5-.LFB5
 2577 0a89 01       		.uleb128 0x1
 2578 0a8a 9C       		.byte	0x9c
 2579 0a8b 990A0000 		.4byte	0xa99
 2580 0a8f 20       		.uleb128 0x20
 2581 0a90 06000000 		.4byte	.LVL43
 2582 0a94 51100000 		.4byte	0x1051
 2583 0a98 00       		.byte	0
 2584 0a99 21       		.uleb128 0x21
 2585 0a9a 50160000 		.4byte	.LASF222
 2586 0a9e 01       		.byte	0x1
 2587 0a9f 5402     		.2byte	0x254
 2588 0aa1 78030000 		.4byte	0x378
ARM GAS  C:\Users\Intern\AppData\Local\Temp\ccD9JYVi.s 			page 74


 2589 0aa5 00000000 		.4byte	.LFB6
 2590 0aa9 04010000 		.4byte	.LFE6-.LFB6
 2591 0aad 01       		.uleb128 0x1
 2592 0aae 9C       		.byte	0x9c
 2593 0aaf AB0B0000 		.4byte	0xbab
 2594 0ab3 1B       		.uleb128 0x1b
 2595 0ab4 6B110000 		.4byte	.LASF223
 2596 0ab8 01       		.byte	0x1
 2597 0ab9 5402     		.2byte	0x254
 2598 0abb 6B000000 		.4byte	0x6b
 2599 0abf E1010000 		.4byte	.LLST10
 2600 0ac3 1D       		.uleb128 0x1d
 2601 0ac4 50000000 		.4byte	.LASF214
 2602 0ac8 01       		.byte	0x1
 2603 0ac9 5602     		.2byte	0x256
 2604 0acb 78030000 		.4byte	0x378
 2605 0acf 1B020000 		.4byte	.LLST11
 2606 0ad3 23       		.uleb128 0x23
 2607 0ad4 86000000 		.4byte	.LBB3
 2608 0ad8 26000000 		.4byte	.LBE3-.LBB3
 2609 0adc 2B0B0000 		.4byte	0xb2b
 2610 0ae0 22       		.uleb128 0x22
 2611 0ae1 C10D0000 		.4byte	.LASF224
 2612 0ae5 01       		.byte	0x1
 2613 0ae6 7A02     		.2byte	0x27a
 2614 0ae8 B3070000 		.4byte	0x7b3
 2615 0aec 02       		.uleb128 0x2
 2616 0aed 91       		.byte	0x91
 2617 0aee 44       		.sleb128 -60
 2618 0aef 26       		.uleb128 0x26
 2619 0af0 90000000 		.4byte	.LVL55
 2620 0af4 5D100000 		.4byte	0x105d
 2621 0af8 0E0B0000 		.4byte	0xb0e
 2622 0afc 25       		.uleb128 0x25
 2623 0afd 01       		.uleb128 0x1
 2624 0afe 50       		.byte	0x50
 2625 0aff 02       		.uleb128 0x2
 2626 0b00 91       		.byte	0x91
 2627 0b01 44       		.sleb128 -60
 2628 0b02 25       		.uleb128 0x25
 2629 0b03 01       		.uleb128 0x1
 2630 0b04 51       		.byte	0x51
 2631 0b05 01       		.uleb128 0x1
 2632 0b06 30       		.byte	0x30
 2633 0b07 25       		.uleb128 0x25
 2634 0b08 01       		.uleb128 0x1
 2635 0b09 52       		.byte	0x52
 2636 0b0a 02       		.uleb128 0x2
 2637 0b0b 08       		.byte	0x8
 2638 0b0c 32       		.byte	0x32
 2639 0b0d 00       		.byte	0
 2640 0b0e 24       		.uleb128 0x24
 2641 0b0f 9C000000 		.4byte	.LVL56
 2642 0b13 66100000 		.4byte	0x1066
 2643 0b17 25       		.uleb128 0x25
 2644 0b18 01       		.uleb128 0x1
 2645 0b19 50       		.byte	0x50
ARM GAS  C:\Users\Intern\AppData\Local\Temp\ccD9JYVi.s 			page 75


 2646 0b1a 02       		.uleb128 0x2
 2647 0b1b 91       		.byte	0x91
 2648 0b1c 44       		.sleb128 -60
 2649 0b1d 25       		.uleb128 0x25
 2650 0b1e 01       		.uleb128 0x1
 2651 0b1f 52       		.byte	0x52
 2652 0b20 02       		.uleb128 0x2
 2653 0b21 08       		.byte	0x8
 2654 0b22 32       		.byte	0x32
 2655 0b23 25       		.uleb128 0x25
 2656 0b24 01       		.uleb128 0x1
 2657 0b25 53       		.byte	0x53
 2658 0b26 02       		.uleb128 0x2
 2659 0b27 74       		.byte	0x74
 2660 0b28 00       		.sleb128 0
 2661 0b29 00       		.byte	0
 2662 0b2a 00       		.byte	0
 2663 0b2b 23       		.uleb128 0x23
 2664 0b2c AC000000 		.4byte	.LBB4
 2665 0b30 3C000000 		.4byte	.LBE4-.LBB4
 2666 0b34 810B0000 		.4byte	0xb81
 2667 0b38 22       		.uleb128 0x22
 2668 0b39 C10D0000 		.4byte	.LASF224
 2669 0b3d 01       		.byte	0x1
 2670 0b3e 8702     		.2byte	0x287
 2671 0b40 D9040000 		.4byte	0x4d9
 2672 0b44 02       		.uleb128 0x2
 2673 0b45 91       		.byte	0x91
 2674 0b46 44       		.sleb128 -60
 2675 0b47 26       		.uleb128 0x26
 2676 0b48 B6000000 		.4byte	.LVL58
 2677 0b4c 5D100000 		.4byte	0x105d
 2678 0b50 650B0000 		.4byte	0xb65
 2679 0b54 25       		.uleb128 0x25
 2680 0b55 01       		.uleb128 0x1
 2681 0b56 50       		.byte	0x50
 2682 0b57 02       		.uleb128 0x2
 2683 0b58 91       		.byte	0x91
 2684 0b59 44       		.sleb128 -60
 2685 0b5a 25       		.uleb128 0x25
 2686 0b5b 01       		.uleb128 0x1
 2687 0b5c 51       		.byte	0x51
 2688 0b5d 01       		.uleb128 0x1
 2689 0b5e 30       		.byte	0x30
 2690 0b5f 25       		.uleb128 0x25
 2691 0b60 01       		.uleb128 0x1
 2692 0b61 52       		.byte	0x52
 2693 0b62 01       		.uleb128 0x1
 2694 0b63 3A       		.byte	0x3a
 2695 0b64 00       		.byte	0
 2696 0b65 24       		.uleb128 0x24
 2697 0b66 DA000000 		.4byte	.LVL59
 2698 0b6a 66100000 		.4byte	0x1066
 2699 0b6e 25       		.uleb128 0x25
 2700 0b6f 01       		.uleb128 0x1
 2701 0b70 50       		.byte	0x50
 2702 0b71 02       		.uleb128 0x2
ARM GAS  C:\Users\Intern\AppData\Local\Temp\ccD9JYVi.s 			page 76


 2703 0b72 91       		.byte	0x91
 2704 0b73 44       		.sleb128 -60
 2705 0b74 25       		.uleb128 0x25
 2706 0b75 01       		.uleb128 0x1
 2707 0b76 52       		.byte	0x52
 2708 0b77 01       		.uleb128 0x1
 2709 0b78 3A       		.byte	0x3a
 2710 0b79 25       		.uleb128 0x25
 2711 0b7a 01       		.uleb128 0x1
 2712 0b7b 53       		.byte	0x53
 2713 0b7c 02       		.uleb128 0x2
 2714 0b7d 74       		.byte	0x74
 2715 0b7e 00       		.sleb128 0
 2716 0b7f 00       		.byte	0
 2717 0b80 00       		.byte	0
 2718 0b81 26       		.uleb128 0x26
 2719 0b82 12000000 		.4byte	.LVL46
 2720 0b86 71100000 		.4byte	0x1071
 2721 0b8a 950B0000 		.4byte	0xb95
 2722 0b8e 25       		.uleb128 0x25
 2723 0b8f 01       		.uleb128 0x1
 2724 0b90 50       		.byte	0x50
 2725 0b91 02       		.uleb128 0x2
 2726 0b92 74       		.byte	0x74
 2727 0b93 00       		.sleb128 0
 2728 0b94 00       		.byte	0
 2729 0b95 24       		.uleb128 0x24
 2730 0b96 62000000 		.4byte	.LVL52
 2731 0b9a 66100000 		.4byte	0x1066
 2732 0b9e 25       		.uleb128 0x25
 2733 0b9f 01       		.uleb128 0x1
 2734 0ba0 52       		.byte	0x52
 2735 0ba1 01       		.uleb128 0x1
 2736 0ba2 3A       		.byte	0x3a
 2737 0ba3 25       		.uleb128 0x25
 2738 0ba4 01       		.uleb128 0x1
 2739 0ba5 53       		.byte	0x53
 2740 0ba6 02       		.uleb128 0x2
 2741 0ba7 74       		.byte	0x74
 2742 0ba8 00       		.sleb128 0
 2743 0ba9 00       		.byte	0
 2744 0baa 00       		.byte	0
 2745 0bab 21       		.uleb128 0x21
 2746 0bac EC040000 		.4byte	.LASF225
 2747 0bb0 01       		.byte	0x1
 2748 0bb1 B602     		.2byte	0x2b6
 2749 0bb3 78030000 		.4byte	0x378
 2750 0bb7 00000000 		.4byte	.LFB7
 2751 0bbb 6C000000 		.4byte	.LFE7-.LFB7
 2752 0bbf 01       		.uleb128 0x1
 2753 0bc0 9C       		.byte	0x9c
 2754 0bc1 750C0000 		.4byte	0xc75
 2755 0bc5 1B       		.uleb128 0x1b
 2756 0bc6 27160000 		.4byte	.LASF125
 2757 0bca 01       		.byte	0x1
 2758 0bcb B602     		.2byte	0x2b6
 2759 0bcd 750C0000 		.4byte	0xc75
ARM GAS  C:\Users\Intern\AppData\Local\Temp\ccD9JYVi.s 			page 77


 2760 0bd1 72020000 		.4byte	.LLST12
 2761 0bd5 1D       		.uleb128 0x1d
 2762 0bd6 50000000 		.4byte	.LASF214
 2763 0bda 01       		.byte	0x1
 2764 0bdb B802     		.2byte	0x2b8
 2765 0bdd 78030000 		.4byte	0x378
 2766 0be1 B4020000 		.4byte	.LLST13
 2767 0be5 28       		.uleb128 0x28
 2768 0be6 0E000000 		.4byte	.LBB5
 2769 0bea 50000000 		.4byte	.LBE5-.LBB5
 2770 0bee 22       		.uleb128 0x22
 2771 0bef E1010000 		.4byte	.LASF226
 2772 0bf3 01       		.byte	0x1
 2773 0bf4 BF02     		.2byte	0x2bf
 2774 0bf6 6B000000 		.4byte	0x6b
 2775 0bfa 02       		.uleb128 0x2
 2776 0bfb 91       		.byte	0x91
 2777 0bfc 67       		.sleb128 -25
 2778 0bfd 22       		.uleb128 0x22
 2779 0bfe 12170000 		.4byte	.LASF227
 2780 0c02 01       		.byte	0x1
 2781 0c03 C002     		.2byte	0x2c0
 2782 0c05 B8030000 		.4byte	0x3b8
 2783 0c09 02       		.uleb128 0x2
 2784 0c0a 91       		.byte	0x91
 2785 0c0b 68       		.sleb128 -24
 2786 0c0c 26       		.uleb128 0x26
 2787 0c0d 18000000 		.4byte	.LVL64
 2788 0c11 5D100000 		.4byte	0x105d
 2789 0c15 2A0C0000 		.4byte	0xc2a
 2790 0c19 25       		.uleb128 0x25
 2791 0c1a 01       		.uleb128 0x1
 2792 0c1b 50       		.byte	0x50
 2793 0c1c 02       		.uleb128 0x2
 2794 0c1d 91       		.byte	0x91
 2795 0c1e 68       		.sleb128 -24
 2796 0c1f 25       		.uleb128 0x25
 2797 0c20 01       		.uleb128 0x1
 2798 0c21 51       		.byte	0x51
 2799 0c22 01       		.uleb128 0x1
 2800 0c23 30       		.byte	0x30
 2801 0c24 25       		.uleb128 0x25
 2802 0c25 01       		.uleb128 0x1
 2803 0c26 52       		.byte	0x52
 2804 0c27 01       		.uleb128 0x1
 2805 0c28 37       		.byte	0x37
 2806 0c29 00       		.byte	0
 2807 0c2a 26       		.uleb128 0x26
 2808 0c2b 22000000 		.4byte	.LVL65
 2809 0c2f 7C100000 		.4byte	0x107c
 2810 0c33 490C0000 		.4byte	0xc49
 2811 0c37 25       		.uleb128 0x25
 2812 0c38 01       		.uleb128 0x1
 2813 0c39 50       		.byte	0x50
 2814 0c3a 02       		.uleb128 0x2
 2815 0c3b 75       		.byte	0x75
 2816 0c3c 00       		.sleb128 0
ARM GAS  C:\Users\Intern\AppData\Local\Temp\ccD9JYVi.s 			page 78


 2817 0c3d 25       		.uleb128 0x25
 2818 0c3e 01       		.uleb128 0x1
 2819 0c3f 51       		.byte	0x51
 2820 0c40 02       		.uleb128 0x2
 2821 0c41 91       		.byte	0x91
 2822 0c42 68       		.sleb128 -24
 2823 0c43 25       		.uleb128 0x25
 2824 0c44 01       		.uleb128 0x1
 2825 0c45 52       		.byte	0x52
 2826 0c46 01       		.uleb128 0x1
 2827 0c47 36       		.byte	0x36
 2828 0c48 00       		.byte	0
 2829 0c49 26       		.uleb128 0x26
 2830 0c4a 3A000000 		.4byte	.LVL66
 2831 0c4e 87100000 		.4byte	0x1087
 2832 0c52 630C0000 		.4byte	0xc63
 2833 0c56 25       		.uleb128 0x25
 2834 0c57 01       		.uleb128 0x1
 2835 0c58 50       		.byte	0x50
 2836 0c59 02       		.uleb128 0x2
 2837 0c5a 7D       		.byte	0x7d
 2838 0c5b 07       		.sleb128 7
 2839 0c5c 25       		.uleb128 0x25
 2840 0c5d 01       		.uleb128 0x1
 2841 0c5e 51       		.byte	0x51
 2842 0c5f 02       		.uleb128 0x2
 2843 0c60 75       		.byte	0x75
 2844 0c61 00       		.sleb128 0
 2845 0c62 00       		.byte	0
 2846 0c63 24       		.uleb128 0x24
 2847 0c64 5C000000 		.4byte	.LVL69
 2848 0c68 93100000 		.4byte	0x1093
 2849 0c6c 25       		.uleb128 0x25
 2850 0c6d 01       		.uleb128 0x1
 2851 0c6e 50       		.byte	0x50
 2852 0c6f 02       		.uleb128 0x2
 2853 0c70 75       		.byte	0x75
 2854 0c71 00       		.sleb128 0
 2855 0c72 00       		.byte	0
 2856 0c73 00       		.byte	0
 2857 0c74 00       		.byte	0
 2858 0c75 07       		.uleb128 0x7
 2859 0c76 04       		.byte	0x4
 2860 0c77 B8030000 		.4byte	0x3b8
 2861 0c7b 21       		.uleb128 0x21
 2862 0c7c F7050000 		.4byte	.LASF228
 2863 0c80 01       		.byte	0x1
 2864 0c81 1703     		.2byte	0x317
 2865 0c83 78030000 		.4byte	0x378
 2866 0c87 00000000 		.4byte	.LFB8
 2867 0c8b 88000000 		.4byte	.LFE8-.LFB8
 2868 0c8f 01       		.uleb128 0x1
 2869 0c90 9C       		.byte	0x9c
 2870 0c91 C90C0000 		.4byte	0xcc9
 2871 0c95 1B       		.uleb128 0x1b
 2872 0c96 66030000 		.4byte	.LASF229
 2873 0c9a 01       		.byte	0x1
ARM GAS  C:\Users\Intern\AppData\Local\Temp\ccD9JYVi.s 			page 79


 2874 0c9b 1703     		.2byte	0x317
 2875 0c9d 6B000000 		.4byte	0x6b
 2876 0ca1 F5020000 		.4byte	.LLST14
 2877 0ca5 1D       		.uleb128 0x1d
 2878 0ca6 50000000 		.4byte	.LASF214
 2879 0caa 01       		.byte	0x1
 2880 0cab 1903     		.2byte	0x319
 2881 0cad 78030000 		.4byte	0x378
 2882 0cb1 6D030000 		.4byte	.LLST15
 2883 0cb5 24       		.uleb128 0x24
 2884 0cb6 54000000 		.4byte	.LVL75
 2885 0cba 9F100000 		.4byte	0x109f
 2886 0cbe 25       		.uleb128 0x25
 2887 0cbf 01       		.uleb128 0x1
 2888 0cc0 50       		.byte	0x50
 2889 0cc1 05       		.uleb128 0x5
 2890 0cc2 03       		.byte	0x3
 2891 0cc3 20000000 		.4byte	.LANCHOR0+32
 2892 0cc7 00       		.byte	0
 2893 0cc8 00       		.byte	0
 2894 0cc9 27       		.uleb128 0x27
 2895 0cca 00080000 		.4byte	.LASF230
 2896 0cce 01       		.byte	0x1
 2897 0ccf 5403     		.2byte	0x354
 2898 0cd1 00000000 		.4byte	.LFB9
 2899 0cd5 18000000 		.4byte	.LFE9-.LFB9
 2900 0cd9 01       		.uleb128 0x1
 2901 0cda 9C       		.byte	0x9c
 2902 0cdb E90C0000 		.4byte	0xce9
 2903 0cdf 20       		.uleb128 0x20
 2904 0ce0 06000000 		.4byte	.LVL83
 2905 0ce4 AB100000 		.4byte	0x10ab
 2906 0ce8 00       		.byte	0
 2907 0ce9 27       		.uleb128 0x27
 2908 0cea 300B0000 		.4byte	.LASF231
 2909 0cee 01       		.byte	0x1
 2910 0cef 6A03     		.2byte	0x36a
 2911 0cf1 00000000 		.4byte	.LFB10
 2912 0cf5 02000000 		.4byte	.LFE10-.LFB10
 2913 0cf9 01       		.uleb128 0x1
 2914 0cfa 9C       		.byte	0x9c
 2915 0cfb 330D0000 		.4byte	0xd33
 2916 0cff 29       		.uleb128 0x29
 2917 0d00 27160000 		.4byte	.LASF125
 2918 0d04 01       		.byte	0x1
 2919 0d05 6A03     		.2byte	0x36a
 2920 0d07 330D0000 		.4byte	0xd33
 2921 0d0b 01       		.uleb128 0x1
 2922 0d0c 50       		.byte	0x50
 2923 0d0d 29       		.uleb128 0x29
 2924 0d0e 72120000 		.4byte	.LASF205
 2925 0d12 01       		.byte	0x1
 2926 0d13 6A03     		.2byte	0x36a
 2927 0d15 6B000000 		.4byte	0x6b
 2928 0d19 01       		.uleb128 0x1
 2929 0d1a 51       		.byte	0x51
 2930 0d1b 2A       		.uleb128 0x2a
ARM GAS  C:\Users\Intern\AppData\Local\Temp\ccD9JYVi.s 			page 80


 2931 0d1c 6900     		.ascii	"i\000"
 2932 0d1e 01       		.byte	0x1
 2933 0d1f 6C03     		.2byte	0x36c
 2934 0d21 6B000000 		.4byte	0x6b
 2935 0d25 2B       		.uleb128 0x2b
 2936 0d26 B3000000 		.4byte	.LASF209
 2937 0d2a 01       		.byte	0x1
 2938 0d2b 6D03     		.2byte	0x36d
 2939 0d2d 9D040000 		.4byte	0x49d
 2940 0d31 00       		.byte	0
 2941 0d32 00       		.byte	0
 2942 0d33 07       		.uleb128 0x7
 2943 0d34 04       		.byte	0x4
 2944 0d35 390D0000 		.4byte	0xd39
 2945 0d39 1E       		.uleb128 0x1e
 2946 0d3a B8030000 		.4byte	0x3b8
 2947 0d3e 21       		.uleb128 0x21
 2948 0d3f 79140000 		.4byte	.LASF232
 2949 0d43 01       		.byte	0x1
 2950 0d44 0E05     		.2byte	0x50e
 2951 0d46 78030000 		.4byte	0x378
 2952 0d4a 00000000 		.4byte	.LFB12
 2953 0d4e 60000000 		.4byte	.LFE12-.LFB12
 2954 0d52 01       		.uleb128 0x1
 2955 0d53 9C       		.byte	0x9c
 2956 0d54 D50D0000 		.4byte	0xdd5
 2957 0d58 1B       		.uleb128 0x1b
 2958 0d59 21140000 		.4byte	.LASF204
 2959 0d5d 01       		.byte	0x1
 2960 0d5e 0E05     		.2byte	0x50e
 2961 0d60 05090000 		.4byte	0x905
 2962 0d64 8B030000 		.4byte	.LLST16
 2963 0d68 1D       		.uleb128 0x1d
 2964 0d69 50000000 		.4byte	.LASF214
 2965 0d6d 01       		.byte	0x1
 2966 0d6e 1005     		.2byte	0x510
 2967 0d70 78030000 		.4byte	0x378
 2968 0d74 CD030000 		.4byte	.LLST17
 2969 0d78 1C       		.uleb128 0x1c
 2970 0d79 6900     		.ascii	"i\000"
 2971 0d7b 01       		.byte	0x1
 2972 0d7c 1105     		.2byte	0x511
 2973 0d7e 6B000000 		.4byte	0x6b
 2974 0d82 EC030000 		.4byte	.LLST18
 2975 0d86 1C       		.uleb128 0x1c
 2976 0d87 70747200 		.ascii	"ptr\000"
 2977 0d8b 01       		.byte	0x1
 2978 0d8c 1205     		.2byte	0x512
 2979 0d8e D50D0000 		.4byte	0xdd5
 2980 0d92 16040000 		.4byte	.LLST19
 2981 0d96 1D       		.uleb128 0x1d
 2982 0d97 630E0000 		.4byte	.LASF233
 2983 0d9b 01       		.byte	0x1
 2984 0d9c 1305     		.2byte	0x513
 2985 0d9e 6B000000 		.4byte	0x6b
 2986 0da2 29040000 		.4byte	.LLST20
 2987 0da6 26       		.uleb128 0x26
ARM GAS  C:\Users\Intern\AppData\Local\Temp\ccD9JYVi.s 			page 81


 2988 0da7 48000000 		.4byte	.LVL96
 2989 0dab 70080000 		.4byte	0x870
 2990 0daf BF0D0000 		.4byte	0xdbf
 2991 0db3 25       		.uleb128 0x25
 2992 0db4 01       		.uleb128 0x1
 2993 0db5 50       		.byte	0x50
 2994 0db6 02       		.uleb128 0x2
 2995 0db7 74       		.byte	0x74
 2996 0db8 00       		.sleb128 0
 2997 0db9 25       		.uleb128 0x25
 2998 0dba 01       		.uleb128 0x1
 2999 0dbb 51       		.byte	0x51
 3000 0dbc 01       		.uleb128 0x1
 3001 0dbd 30       		.byte	0x30
 3002 0dbe 00       		.byte	0
 3003 0dbf 24       		.uleb128 0x24
 3004 0dc0 50000000 		.4byte	.LVL97
 3005 0dc4 70080000 		.4byte	0x870
 3006 0dc8 25       		.uleb128 0x25
 3007 0dc9 01       		.uleb128 0x1
 3008 0dca 50       		.byte	0x50
 3009 0dcb 02       		.uleb128 0x2
 3010 0dcc 74       		.byte	0x74
 3011 0dcd 00       		.sleb128 0
 3012 0dce 25       		.uleb128 0x25
 3013 0dcf 01       		.uleb128 0x1
 3014 0dd0 51       		.byte	0x51
 3015 0dd1 01       		.uleb128 0x1
 3016 0dd2 31       		.byte	0x31
 3017 0dd3 00       		.byte	0
 3018 0dd4 00       		.byte	0
 3019 0dd5 07       		.uleb128 0x7
 3020 0dd6 04       		.byte	0x4
 3021 0dd7 9D000000 		.4byte	0x9d
 3022 0ddb 21       		.uleb128 0x21
 3023 0ddc 09070000 		.4byte	.LASF234
 3024 0de0 01       		.byte	0x1
 3025 0de1 5605     		.2byte	0x556
 3026 0de3 78030000 		.4byte	0x378
 3027 0de7 00000000 		.4byte	.LFB13
 3028 0deb 48000000 		.4byte	.LFE13-.LFB13
 3029 0def 01       		.uleb128 0x1
 3030 0df0 9C       		.byte	0x9c
 3031 0df1 440E0000 		.4byte	0xe44
 3032 0df5 1B       		.uleb128 0x1b
 3033 0df6 21140000 		.4byte	.LASF204
 3034 0dfa 01       		.byte	0x1
 3035 0dfb 5605     		.2byte	0x556
 3036 0dfd D50D0000 		.4byte	0xdd5
 3037 0e01 3C040000 		.4byte	.LLST21
 3038 0e05 1D       		.uleb128 0x1d
 3039 0e06 50000000 		.4byte	.LASF214
 3040 0e0a 01       		.byte	0x1
 3041 0e0b 5805     		.2byte	0x558
 3042 0e0d 78030000 		.4byte	0x378
 3043 0e11 76040000 		.4byte	.LLST22
 3044 0e15 1D       		.uleb128 0x1d
ARM GAS  C:\Users\Intern\AppData\Local\Temp\ccD9JYVi.s 			page 82


 3045 0e16 630E0000 		.4byte	.LASF233
 3046 0e1a 01       		.byte	0x1
 3047 0e1b 5905     		.2byte	0x559
 3048 0e1d 6B000000 		.4byte	0x6b
 3049 0e21 95040000 		.4byte	.LLST23
 3050 0e25 1C       		.uleb128 0x1c
 3051 0e26 6900     		.ascii	"i\000"
 3052 0e28 01       		.byte	0x1
 3053 0e29 5A05     		.2byte	0x55a
 3054 0e2b 6B000000 		.4byte	0x6b
 3055 0e2f A8040000 		.4byte	.LLST24
 3056 0e33 1C       		.uleb128 0x1c
 3057 0e34 70747200 		.ascii	"ptr\000"
 3058 0e38 01       		.byte	0x1
 3059 0e39 5B05     		.2byte	0x55b
 3060 0e3b D50D0000 		.4byte	0xdd5
 3061 0e3f D2040000 		.4byte	.LLST25
 3062 0e43 00       		.byte	0
 3063 0e44 21       		.uleb128 0x21
 3064 0e45 AC100000 		.4byte	.LASF235
 3065 0e49 01       		.byte	0x1
 3066 0e4a 8805     		.2byte	0x588
 3067 0e4c 77000000 		.4byte	0x77
 3068 0e50 00000000 		.4byte	.LFB14
 3069 0e54 0A000000 		.4byte	.LFE14-.LFB14
 3070 0e58 01       		.uleb128 0x1
 3071 0e59 9C       		.byte	0x9c
 3072 0e5a 6F0E0000 		.4byte	0xe6f
 3073 0e5e 2C       		.uleb128 0x2c
 3074 0e5f 70747200 		.ascii	"ptr\000"
 3075 0e63 01       		.byte	0x1
 3076 0e64 8805     		.2byte	0x588
 3077 0e66 6F0E0000 		.4byte	0xe6f
 3078 0e6a E5040000 		.4byte	.LLST26
 3079 0e6e 00       		.byte	0
 3080 0e6f 07       		.uleb128 0x7
 3081 0e70 04       		.byte	0x4
 3082 0e71 750E0000 		.4byte	0xe75
 3083 0e75 1E       		.uleb128 0x1e
 3084 0e76 6B000000 		.4byte	0x6b
 3085 0e7a 27       		.uleb128 0x27
 3086 0e7b 2D0E0000 		.4byte	.LASF236
 3087 0e7f 01       		.byte	0x1
 3088 0e80 9B05     		.2byte	0x59b
 3089 0e82 00000000 		.4byte	.LFB15
 3090 0e86 08000000 		.4byte	.LFE15-.LFB15
 3091 0e8a 01       		.uleb128 0x1
 3092 0e8b 9C       		.byte	0x9c
 3093 0e8c AF0E0000 		.4byte	0xeaf
 3094 0e90 2D       		.uleb128 0x2d
 3095 0e91 70747200 		.ascii	"ptr\000"
 3096 0e95 01       		.byte	0x1
 3097 0e96 9B05     		.2byte	0x59b
 3098 0e98 9D040000 		.4byte	0x49d
 3099 0e9c 01       		.uleb128 0x1
 3100 0e9d 50       		.byte	0x50
 3101 0e9e 1B       		.uleb128 0x1b
ARM GAS  C:\Users\Intern\AppData\Local\Temp\ccD9JYVi.s 			page 83


 3102 0e9f EA110000 		.4byte	.LASF237
 3103 0ea3 01       		.byte	0x1
 3104 0ea4 9B05     		.2byte	0x59b
 3105 0ea6 77000000 		.4byte	0x77
 3106 0eaa 06050000 		.4byte	.LLST27
 3107 0eae 00       		.byte	0
 3108 0eaf 2E       		.uleb128 0x2e
 3109 0eb0 DE070000 		.4byte	.LASF238
 3110 0eb4 01       		.byte	0x1
 3111 0eb5 84       		.byte	0x84
 3112 0eb6 6B000000 		.4byte	0x6b
 3113 0eba 05       		.uleb128 0x5
 3114 0ebb 03       		.byte	0x3
 3115 0ebc 21000000 		.4byte	cyBle_pendingFlashClearCccdHandle
 3116 0ec0 2F       		.uleb128 0x2f
 3117 0ec1 F9110000 		.4byte	.LASF239
 3118 0ec5 01       		.byte	0x1
 3119 0ec6 89       		.byte	0x89
 3120 0ec7 59070000 		.4byte	0x759
 3121 0ecb 05       		.uleb128 0x5
 3122 0ecc 03       		.byte	0x3
 3123 0ecd 00000000 		.4byte	CyBle_ApplCallback
 3124 0ed1 2F       		.uleb128 0x2f
 3125 0ed2 2C140000 		.4byte	.LASF240
 3126 0ed6 01       		.byte	0x1
 3127 0ed7 2B       		.byte	0x2b
 3128 0ed8 6B000000 		.4byte	0x6b
 3129 0edc 05       		.uleb128 0x5
 3130 0edd 03       		.byte	0x3
 3131 0ede 00000000 		.4byte	cyBle_initVar
 3132 0ee2 0F       		.uleb128 0xf
 3133 0ee3 6B000000 		.4byte	0x6b
 3134 0ee7 F30E0000 		.4byte	0xef3
 3135 0eeb 19       		.uleb128 0x19
 3136 0eec BC000000 		.4byte	0xbc
 3137 0ef0 DF0A     		.2byte	0xadf
 3138 0ef2 00       		.byte	0
 3139 0ef3 2F       		.uleb128 0x2f
 3140 0ef4 D5150000 		.4byte	.LASF241
 3141 0ef8 01       		.byte	0x1
 3142 0ef9 36       		.byte	0x36
 3143 0efa E20E0000 		.4byte	0xee2
 3144 0efe 05       		.uleb128 0x5
 3145 0eff 03       		.byte	0x3
 3146 0f00 00000000 		.4byte	cyBle_stackMemoryRam
 3147 0f04 30       		.uleb128 0x30
 3148 0f05 39160000 		.4byte	.LASF242
 3149 0f09 07       		.byte	0x7
 3150 0f0a A302     		.2byte	0x2a3
 3151 0f0c B0000000 		.4byte	0xb0
 3152 0f10 2F       		.uleb128 0x2f
 3153 0f11 21040000 		.4byte	.LASF243
 3154 0f15 01       		.byte	0x1
 3155 0f16 8A       		.byte	0x8a
 3156 0f17 B8030000 		.4byte	0x3b8
 3157 0f1b 05       		.uleb128 0x5
 3158 0f1c 03       		.byte	0x3
ARM GAS  C:\Users\Intern\AppData\Local\Temp\ccD9JYVi.s 			page 84


 3159 0f1d 00000000 		.4byte	cyBle_deviceAddress
 3160 0f21 2F       		.uleb128 0x2f
 3161 0f22 E8080000 		.4byte	.LASF244
 3162 0f26 01       		.byte	0x1
 3163 0f27 8B       		.byte	0x8b
 3164 0f28 750C0000 		.4byte	0xc75
 3165 0f2c 05       		.uleb128 0x5
 3166 0f2d 03       		.byte	0x3
 3167 0f2e 00000000 		.4byte	cyBle_sflashDeviceAddress
 3168 0f32 2F       		.uleb128 0x2f
 3169 0f33 F9030000 		.4byte	.LASF245
 3170 0f37 01       		.byte	0x1
 3171 0f38 3C       		.byte	0x3c
 3172 0f39 5B050000 		.4byte	0x55b
 3173 0f3d 05       		.uleb128 0x5
 3174 0f3e 03       		.byte	0x3
 3175 0f3f 00000000 		.4byte	cyBle_discoveryParam
 3176 0f43 2F       		.uleb128 0x2f
 3177 0f44 86170000 		.4byte	.LASF246
 3178 0f48 01       		.byte	0x1
 3179 0f49 48       		.byte	0x48
 3180 0f4a 9B050000 		.4byte	0x59b
 3181 0f4e 05       		.uleb128 0x5
 3182 0f4f 03       		.byte	0x3
 3183 0f50 00000000 		.4byte	cyBle_discoveryData
 3184 0f54 2F       		.uleb128 0x2f
 3185 0f55 4D0F0000 		.4byte	.LASF247
 3186 0f59 01       		.byte	0x1
 3187 0f5a 51       		.byte	0x51
 3188 0f5b CB050000 		.4byte	0x5cb
 3189 0f5f 05       		.uleb128 0x5
 3190 0f60 03       		.byte	0x3
 3191 0f61 00000000 		.4byte	cyBle_scanRspData
 3192 0f65 2F       		.uleb128 0x2f
 3193 0f66 A8150000 		.4byte	.LASF248
 3194 0f6a 01       		.byte	0x1
 3195 0f6b 61       		.byte	0x61
 3196 0f6c 34060000 		.4byte	0x634
 3197 0f70 05       		.uleb128 0x5
 3198 0f71 03       		.byte	0x3
 3199 0f72 00000000 		.4byte	cyBle_discoveryModeInfo
 3200 0f76 2F       		.uleb128 0x2f
 3201 0f77 93120000 		.4byte	.LASF249
 3202 0f7b 01       		.byte	0x1
 3203 0f7c 81       		.byte	0x81
 3204 0f7d 6B000000 		.4byte	0x6b
 3205 0f81 05       		.uleb128 0x5
 3206 0f82 03       		.byte	0x3
 3207 0f83 00000000 		.4byte	cyBle_pendingFlashWrite
 3208 0f87 2F       		.uleb128 0x2f
 3209 0f88 00000000 		.4byte	.LASF250
 3210 0f8c 01       		.byte	0x1
 3211 0f8d 80       		.byte	0x80
 3212 0f8e 6B000000 		.4byte	0x6b
 3213 0f92 05       		.uleb128 0x5
 3214 0f93 03       		.byte	0x3
 3215 0f94 00000000 		.4byte	cyBle_peerBonding
ARM GAS  C:\Users\Intern\AppData\Local\Temp\ccD9JYVi.s 			page 85


 3216 0f98 0F       		.uleb128 0xf
 3217 0f99 A80F0000 		.4byte	0xfa8
 3218 0f9d A80F0000 		.4byte	0xfa8
 3219 0fa1 10       		.uleb128 0x10
 3220 0fa2 BC000000 		.4byte	0xbc
 3221 0fa6 1D       		.byte	0x1d
 3222 0fa7 00       		.byte	0
 3223 0fa8 1E       		.uleb128 0x1e
 3224 0fa9 4D070000 		.4byte	0x74d
 3225 0fad 31       		.uleb128 0x31
 3226 0fae 420D0000 		.4byte	.LASF251
 3227 0fb2 08       		.byte	0x8
 3228 0fb3 E9       		.byte	0xe9
 3229 0fb4 B80F0000 		.4byte	0xfb8
 3230 0fb8 1E       		.uleb128 0x1e
 3231 0fb9 980F0000 		.4byte	0xf98
 3232 0fbd 31       		.uleb128 0x31
 3233 0fbe C6160000 		.4byte	.LASF252
 3234 0fc2 08       		.byte	0x8
 3235 0fc3 ED       		.byte	0xed
 3236 0fc4 D9040000 		.4byte	0x4d9
 3237 0fc8 31       		.uleb128 0x31
 3238 0fc9 E30B0000 		.4byte	.LASF253
 3239 0fcd 08       		.byte	0x8
 3240 0fce F5       		.byte	0xf5
 3241 0fcf D30F0000 		.4byte	0xfd3
 3242 0fd3 1E       		.uleb128 0x1e
 3243 0fd4 C9070000 		.4byte	0x7c9
 3244 0fd8 30       		.uleb128 0x30
 3245 0fd9 19130000 		.4byte	.LASF254
 3246 0fdd 09       		.byte	0x9
 3247 0fde B30A     		.2byte	0xab3
 3248 0fe0 00080000 		.4byte	0x800
 3249 0fe4 30       		.uleb128 0x30
 3250 0fe5 5E140000 		.4byte	.LASF255
 3251 0fe9 09       		.byte	0x9
 3252 0fea B40A     		.2byte	0xab4
 3253 0fec 70060000 		.4byte	0x670
 3254 0ff0 30       		.uleb128 0x30
 3255 0ff1 1F0B0000 		.4byte	.LASF256
 3256 0ff5 09       		.byte	0x9
 3257 0ff6 B50A     		.2byte	0xab5
 3258 0ff8 B0000000 		.4byte	0xb0
 3259 0ffc 30       		.uleb128 0x30
 3260 0ffd 2E160000 		.4byte	.LASF257
 3261 1001 09       		.byte	0x9
 3262 1002 B60A     		.2byte	0xab6
 3263 1004 08100000 		.4byte	0x1008
 3264 1008 1E       		.uleb128 0x1e
 3265 1009 64080000 		.4byte	0x864
 3266 100d 30       		.uleb128 0x30
 3267 100e 970C0000 		.4byte	.LASF258
 3268 1012 09       		.byte	0x9
 3269 1013 B90A     		.2byte	0xab9
 3270 1015 6B000000 		.4byte	0x6b
 3271 1019 32       		.uleb128 0x32
 3272 101a E50E0000 		.4byte	.LASF259
ARM GAS  C:\Users\Intern\AppData\Local\Temp\ccD9JYVi.s 			page 86


 3273 101e E50E0000 		.4byte	.LASF259
 3274 1022 0A       		.byte	0xa
 3275 1023 B9       		.byte	0xb9
 3276 1024 33       		.uleb128 0x33
 3277 1025 F0090000 		.4byte	.LASF260
 3278 1029 F0090000 		.4byte	.LASF260
 3279 102d 03       		.byte	0x3
 3280 102e 0E06     		.2byte	0x60e
 3281 1030 34       		.uleb128 0x34
 3282 1031 81160000 		.4byte	.LASF264
 3283 1035 81160000 		.4byte	.LASF264
 3284 1039 33       		.uleb128 0x33
 3285 103a 99060000 		.4byte	.LASF261
 3286 103e 99060000 		.4byte	.LASF261
 3287 1042 03       		.byte	0x3
 3288 1043 D606     		.2byte	0x6d6
 3289 1045 33       		.uleb128 0x33
 3290 1046 DB140000 		.4byte	.LASF262
 3291 104a DB140000 		.4byte	.LASF262
 3292 104e 06       		.byte	0x6
 3293 104f 5A01     		.2byte	0x15a
 3294 1051 33       		.uleb128 0x33
 3295 1052 1C080000 		.4byte	.LASF263
 3296 1056 1C080000 		.4byte	.LASF263
 3297 105a 03       		.byte	0x3
 3298 105b F106     		.2byte	0x6f1
 3299 105d 34       		.uleb128 0x34
 3300 105e 45120000 		.4byte	.LASF265
 3301 1062 45120000 		.4byte	.LASF265
 3302 1066 32       		.uleb128 0x32
 3303 1067 0E040000 		.4byte	.LASF266
 3304 106b 0E040000 		.4byte	.LASF266
 3305 106f 0B       		.byte	0xb
 3306 1070 82       		.byte	0x82
 3307 1071 32       		.uleb128 0x32
 3308 1072 A2030000 		.4byte	.LASF267
 3309 1076 A2030000 		.4byte	.LASF267
 3310 107a 0B       		.byte	0xb
 3311 107b 64       		.byte	0x64
 3312 107c 32       		.uleb128 0x32
 3313 107d 35130000 		.4byte	.LASF268
 3314 1081 35130000 		.4byte	.LASF268
 3315 1085 0C       		.byte	0xc
 3316 1086 16       		.byte	0x16
 3317 1087 33       		.uleb128 0x33
 3318 1088 11010000 		.4byte	.LASF269
 3319 108c 11010000 		.4byte	.LASF269
 3320 1090 04       		.byte	0x4
 3321 1091 9005     		.2byte	0x590
 3322 1093 33       		.uleb128 0x33
 3323 1094 EA120000 		.4byte	.LASF270
 3324 1098 EA120000 		.4byte	.LASF270
 3325 109c 04       		.byte	0x4
 3326 109d C108     		.2byte	0x8c1
 3327 109f 33       		.uleb128 0x33
 3328 10a0 D90A0000 		.4byte	.LASF271
 3329 10a4 D90A0000 		.4byte	.LASF271
ARM GAS  C:\Users\Intern\AppData\Local\Temp\ccD9JYVi.s 			page 87


 3330 10a8 04       		.byte	0x4
 3331 10a9 EA05     		.2byte	0x5ea
 3332 10ab 33       		.uleb128 0x33
 3333 10ac ED060000 		.4byte	.LASF272
 3334 10b0 ED060000 		.4byte	.LASF272
 3335 10b4 04       		.byte	0x4
 3336 10b5 FB05     		.2byte	0x5fb
 3337 10b7 00       		.byte	0
 3338              		.section	.debug_abbrev,"",%progbits
 3339              	.Ldebug_abbrev0:
 3340 0000 01       		.uleb128 0x1
 3341 0001 11       		.uleb128 0x11
 3342 0002 01       		.byte	0x1
 3343 0003 25       		.uleb128 0x25
 3344 0004 0E       		.uleb128 0xe
 3345 0005 13       		.uleb128 0x13
 3346 0006 0B       		.uleb128 0xb
 3347 0007 03       		.uleb128 0x3
 3348 0008 0E       		.uleb128 0xe
 3349 0009 1B       		.uleb128 0x1b
 3350 000a 0E       		.uleb128 0xe
 3351 000b 55       		.uleb128 0x55
 3352 000c 17       		.uleb128 0x17
 3353 000d 11       		.uleb128 0x11
 3354 000e 01       		.uleb128 0x1
 3355 000f 10       		.uleb128 0x10
 3356 0010 17       		.uleb128 0x17
 3357 0011 00       		.byte	0
 3358 0012 00       		.byte	0
 3359 0013 02       		.uleb128 0x2
 3360 0014 24       		.uleb128 0x24
 3361 0015 00       		.byte	0
 3362 0016 0B       		.uleb128 0xb
 3363 0017 0B       		.uleb128 0xb
 3364 0018 3E       		.uleb128 0x3e
 3365 0019 0B       		.uleb128 0xb
 3366 001a 03       		.uleb128 0x3
 3367 001b 0E       		.uleb128 0xe
 3368 001c 00       		.byte	0
 3369 001d 00       		.byte	0
 3370 001e 03       		.uleb128 0x3
 3371 001f 24       		.uleb128 0x24
 3372 0020 00       		.byte	0
 3373 0021 0B       		.uleb128 0xb
 3374 0022 0B       		.uleb128 0xb
 3375 0023 3E       		.uleb128 0x3e
 3376 0024 0B       		.uleb128 0xb
 3377 0025 03       		.uleb128 0x3
 3378 0026 08       		.uleb128 0x8
 3379 0027 00       		.byte	0
 3380 0028 00       		.byte	0
 3381 0029 04       		.uleb128 0x4
 3382 002a 16       		.uleb128 0x16
 3383 002b 00       		.byte	0
 3384 002c 03       		.uleb128 0x3
 3385 002d 0E       		.uleb128 0xe
 3386 002e 3A       		.uleb128 0x3a
ARM GAS  C:\Users\Intern\AppData\Local\Temp\ccD9JYVi.s 			page 88


 3387 002f 0B       		.uleb128 0xb
 3388 0030 3B       		.uleb128 0x3b
 3389 0031 05       		.uleb128 0x5
 3390 0032 49       		.uleb128 0x49
 3391 0033 13       		.uleb128 0x13
 3392 0034 00       		.byte	0
 3393 0035 00       		.byte	0
 3394 0036 05       		.uleb128 0x5
 3395 0037 35       		.uleb128 0x35
 3396 0038 00       		.byte	0
 3397 0039 49       		.uleb128 0x49
 3398 003a 13       		.uleb128 0x13
 3399 003b 00       		.byte	0
 3400 003c 00       		.byte	0
 3401 003d 06       		.uleb128 0x6
 3402 003e 0F       		.uleb128 0xf
 3403 003f 00       		.byte	0
 3404 0040 0B       		.uleb128 0xb
 3405 0041 0B       		.uleb128 0xb
 3406 0042 00       		.byte	0
 3407 0043 00       		.byte	0
 3408 0044 07       		.uleb128 0x7
 3409 0045 0F       		.uleb128 0xf
 3410 0046 00       		.byte	0
 3411 0047 0B       		.uleb128 0xb
 3412 0048 0B       		.uleb128 0xb
 3413 0049 49       		.uleb128 0x49
 3414 004a 13       		.uleb128 0x13
 3415 004b 00       		.byte	0
 3416 004c 00       		.byte	0
 3417 004d 08       		.uleb128 0x8
 3418 004e 15       		.uleb128 0x15
 3419 004f 01       		.byte	0x1
 3420 0050 27       		.uleb128 0x27
 3421 0051 19       		.uleb128 0x19
 3422 0052 01       		.uleb128 0x1
 3423 0053 13       		.uleb128 0x13
 3424 0054 00       		.byte	0
 3425 0055 00       		.byte	0
 3426 0056 09       		.uleb128 0x9
 3427 0057 05       		.uleb128 0x5
 3428 0058 00       		.byte	0
 3429 0059 49       		.uleb128 0x49
 3430 005a 13       		.uleb128 0x13
 3431 005b 00       		.byte	0
 3432 005c 00       		.byte	0
 3433 005d 0A       		.uleb128 0xa
 3434 005e 04       		.uleb128 0x4
 3435 005f 01       		.byte	0x1
 3436 0060 0B       		.uleb128 0xb
 3437 0061 0B       		.uleb128 0xb
 3438 0062 49       		.uleb128 0x49
 3439 0063 13       		.uleb128 0x13
 3440 0064 3A       		.uleb128 0x3a
 3441 0065 0B       		.uleb128 0xb
 3442 0066 3B       		.uleb128 0x3b
 3443 0067 05       		.uleb128 0x5
ARM GAS  C:\Users\Intern\AppData\Local\Temp\ccD9JYVi.s 			page 89


 3444 0068 01       		.uleb128 0x1
 3445 0069 13       		.uleb128 0x13
 3446 006a 00       		.byte	0
 3447 006b 00       		.byte	0
 3448 006c 0B       		.uleb128 0xb
 3449 006d 28       		.uleb128 0x28
 3450 006e 00       		.byte	0
 3451 006f 03       		.uleb128 0x3
 3452 0070 0E       		.uleb128 0xe
 3453 0071 1C       		.uleb128 0x1c
 3454 0072 0B       		.uleb128 0xb
 3455 0073 00       		.byte	0
 3456 0074 00       		.byte	0
 3457 0075 0C       		.uleb128 0xc
 3458 0076 28       		.uleb128 0x28
 3459 0077 00       		.byte	0
 3460 0078 03       		.uleb128 0x3
 3461 0079 0E       		.uleb128 0xe
 3462 007a 1C       		.uleb128 0x1c
 3463 007b 05       		.uleb128 0x5
 3464 007c 00       		.byte	0
 3465 007d 00       		.byte	0
 3466 007e 0D       		.uleb128 0xd
 3467 007f 13       		.uleb128 0x13
 3468 0080 01       		.byte	0x1
 3469 0081 0B       		.uleb128 0xb
 3470 0082 0B       		.uleb128 0xb
 3471 0083 3A       		.uleb128 0x3a
 3472 0084 0B       		.uleb128 0xb
 3473 0085 3B       		.uleb128 0x3b
 3474 0086 05       		.uleb128 0x5
 3475 0087 01       		.uleb128 0x1
 3476 0088 13       		.uleb128 0x13
 3477 0089 00       		.byte	0
 3478 008a 00       		.byte	0
 3479 008b 0E       		.uleb128 0xe
 3480 008c 0D       		.uleb128 0xd
 3481 008d 00       		.byte	0
 3482 008e 03       		.uleb128 0x3
 3483 008f 0E       		.uleb128 0xe
 3484 0090 3A       		.uleb128 0x3a
 3485 0091 0B       		.uleb128 0xb
 3486 0092 3B       		.uleb128 0x3b
 3487 0093 05       		.uleb128 0x5
 3488 0094 49       		.uleb128 0x49
 3489 0095 13       		.uleb128 0x13
 3490 0096 38       		.uleb128 0x38
 3491 0097 0B       		.uleb128 0xb
 3492 0098 00       		.byte	0
 3493 0099 00       		.byte	0
 3494 009a 0F       		.uleb128 0xf
 3495 009b 01       		.uleb128 0x1
 3496 009c 01       		.byte	0x1
 3497 009d 49       		.uleb128 0x49
 3498 009e 13       		.uleb128 0x13
 3499 009f 01       		.uleb128 0x1
 3500 00a0 13       		.uleb128 0x13
ARM GAS  C:\Users\Intern\AppData\Local\Temp\ccD9JYVi.s 			page 90


 3501 00a1 00       		.byte	0
 3502 00a2 00       		.byte	0
 3503 00a3 10       		.uleb128 0x10
 3504 00a4 21       		.uleb128 0x21
 3505 00a5 00       		.byte	0
 3506 00a6 49       		.uleb128 0x49
 3507 00a7 13       		.uleb128 0x13
 3508 00a8 2F       		.uleb128 0x2f
 3509 00a9 0B       		.uleb128 0xb
 3510 00aa 00       		.byte	0
 3511 00ab 00       		.byte	0
 3512 00ac 11       		.uleb128 0x11
 3513 00ad 04       		.uleb128 0x4
 3514 00ae 01       		.byte	0x1
 3515 00af 0B       		.uleb128 0xb
 3516 00b0 0B       		.uleb128 0xb
 3517 00b1 49       		.uleb128 0x49
 3518 00b2 13       		.uleb128 0x13
 3519 00b3 3A       		.uleb128 0x3a
 3520 00b4 0B       		.uleb128 0xb
 3521 00b5 3B       		.uleb128 0x3b
 3522 00b6 0B       		.uleb128 0xb
 3523 00b7 01       		.uleb128 0x1
 3524 00b8 13       		.uleb128 0x13
 3525 00b9 00       		.byte	0
 3526 00ba 00       		.byte	0
 3527 00bb 12       		.uleb128 0x12
 3528 00bc 16       		.uleb128 0x16
 3529 00bd 00       		.byte	0
 3530 00be 03       		.uleb128 0x3
 3531 00bf 0E       		.uleb128 0xe
 3532 00c0 3A       		.uleb128 0x3a
 3533 00c1 0B       		.uleb128 0xb
 3534 00c2 3B       		.uleb128 0x3b
 3535 00c3 0B       		.uleb128 0xb
 3536 00c4 49       		.uleb128 0x49
 3537 00c5 13       		.uleb128 0x13
 3538 00c6 00       		.byte	0
 3539 00c7 00       		.byte	0
 3540 00c8 13       		.uleb128 0x13
 3541 00c9 13       		.uleb128 0x13
 3542 00ca 01       		.byte	0x1
 3543 00cb 0B       		.uleb128 0xb
 3544 00cc 0B       		.uleb128 0xb
 3545 00cd 3A       		.uleb128 0x3a
 3546 00ce 0B       		.uleb128 0xb
 3547 00cf 3B       		.uleb128 0x3b
 3548 00d0 0B       		.uleb128 0xb
 3549 00d1 01       		.uleb128 0x1
 3550 00d2 13       		.uleb128 0x13
 3551 00d3 00       		.byte	0
 3552 00d4 00       		.byte	0
 3553 00d5 14       		.uleb128 0x14
 3554 00d6 0D       		.uleb128 0xd
 3555 00d7 00       		.byte	0
 3556 00d8 03       		.uleb128 0x3
 3557 00d9 0E       		.uleb128 0xe
ARM GAS  C:\Users\Intern\AppData\Local\Temp\ccD9JYVi.s 			page 91


 3558 00da 3A       		.uleb128 0x3a
 3559 00db 0B       		.uleb128 0xb
 3560 00dc 3B       		.uleb128 0x3b
 3561 00dd 0B       		.uleb128 0xb
 3562 00de 49       		.uleb128 0x49
 3563 00df 13       		.uleb128 0x13
 3564 00e0 38       		.uleb128 0x38
 3565 00e1 0B       		.uleb128 0xb
 3566 00e2 00       		.byte	0
 3567 00e3 00       		.byte	0
 3568 00e4 15       		.uleb128 0x15
 3569 00e5 17       		.uleb128 0x17
 3570 00e6 01       		.byte	0x1
 3571 00e7 0B       		.uleb128 0xb
 3572 00e8 0B       		.uleb128 0xb
 3573 00e9 3A       		.uleb128 0x3a
 3574 00ea 0B       		.uleb128 0xb
 3575 00eb 3B       		.uleb128 0x3b
 3576 00ec 0B       		.uleb128 0xb
 3577 00ed 01       		.uleb128 0x1
 3578 00ee 13       		.uleb128 0x13
 3579 00ef 00       		.byte	0
 3580 00f0 00       		.byte	0
 3581 00f1 16       		.uleb128 0x16
 3582 00f2 0D       		.uleb128 0xd
 3583 00f3 00       		.byte	0
 3584 00f4 03       		.uleb128 0x3
 3585 00f5 0E       		.uleb128 0xe
 3586 00f6 3A       		.uleb128 0x3a
 3587 00f7 0B       		.uleb128 0xb
 3588 00f8 3B       		.uleb128 0x3b
 3589 00f9 0B       		.uleb128 0xb
 3590 00fa 49       		.uleb128 0x49
 3591 00fb 13       		.uleb128 0x13
 3592 00fc 00       		.byte	0
 3593 00fd 00       		.byte	0
 3594 00fe 17       		.uleb128 0x17
 3595 00ff 13       		.uleb128 0x13
 3596 0100 01       		.byte	0x1
 3597 0101 0B       		.uleb128 0xb
 3598 0102 05       		.uleb128 0x5
 3599 0103 3A       		.uleb128 0x3a
 3600 0104 0B       		.uleb128 0xb
 3601 0105 3B       		.uleb128 0x3b
 3602 0106 0B       		.uleb128 0xb
 3603 0107 01       		.uleb128 0x1
 3604 0108 13       		.uleb128 0x13
 3605 0109 00       		.byte	0
 3606 010a 00       		.byte	0
 3607 010b 18       		.uleb128 0x18
 3608 010c 0D       		.uleb128 0xd
 3609 010d 00       		.byte	0
 3610 010e 03       		.uleb128 0x3
 3611 010f 0E       		.uleb128 0xe
 3612 0110 3A       		.uleb128 0x3a
 3613 0111 0B       		.uleb128 0xb
 3614 0112 3B       		.uleb128 0x3b
ARM GAS  C:\Users\Intern\AppData\Local\Temp\ccD9JYVi.s 			page 92


 3615 0113 0B       		.uleb128 0xb
 3616 0114 49       		.uleb128 0x49
 3617 0115 13       		.uleb128 0x13
 3618 0116 38       		.uleb128 0x38
 3619 0117 05       		.uleb128 0x5
 3620 0118 00       		.byte	0
 3621 0119 00       		.byte	0
 3622 011a 19       		.uleb128 0x19
 3623 011b 21       		.uleb128 0x21
 3624 011c 00       		.byte	0
 3625 011d 49       		.uleb128 0x49
 3626 011e 13       		.uleb128 0x13
 3627 011f 2F       		.uleb128 0x2f
 3628 0120 05       		.uleb128 0x5
 3629 0121 00       		.byte	0
 3630 0122 00       		.byte	0
 3631 0123 1A       		.uleb128 0x1a
 3632 0124 2E       		.uleb128 0x2e
 3633 0125 01       		.byte	0x1
 3634 0126 03       		.uleb128 0x3
 3635 0127 0E       		.uleb128 0xe
 3636 0128 3A       		.uleb128 0x3a
 3637 0129 0B       		.uleb128 0xb
 3638 012a 3B       		.uleb128 0x3b
 3639 012b 05       		.uleb128 0x5
 3640 012c 27       		.uleb128 0x27
 3641 012d 19       		.uleb128 0x19
 3642 012e 11       		.uleb128 0x11
 3643 012f 01       		.uleb128 0x1
 3644 0130 12       		.uleb128 0x12
 3645 0131 06       		.uleb128 0x6
 3646 0132 40       		.uleb128 0x40
 3647 0133 18       		.uleb128 0x18
 3648 0134 9742     		.uleb128 0x2117
 3649 0136 19       		.uleb128 0x19
 3650 0137 01       		.uleb128 0x1
 3651 0138 13       		.uleb128 0x13
 3652 0139 00       		.byte	0
 3653 013a 00       		.byte	0
 3654 013b 1B       		.uleb128 0x1b
 3655 013c 05       		.uleb128 0x5
 3656 013d 00       		.byte	0
 3657 013e 03       		.uleb128 0x3
 3658 013f 0E       		.uleb128 0xe
 3659 0140 3A       		.uleb128 0x3a
 3660 0141 0B       		.uleb128 0xb
 3661 0142 3B       		.uleb128 0x3b
 3662 0143 05       		.uleb128 0x5
 3663 0144 49       		.uleb128 0x49
 3664 0145 13       		.uleb128 0x13
 3665 0146 02       		.uleb128 0x2
 3666 0147 17       		.uleb128 0x17
 3667 0148 00       		.byte	0
 3668 0149 00       		.byte	0
 3669 014a 1C       		.uleb128 0x1c
 3670 014b 34       		.uleb128 0x34
 3671 014c 00       		.byte	0
ARM GAS  C:\Users\Intern\AppData\Local\Temp\ccD9JYVi.s 			page 93


 3672 014d 03       		.uleb128 0x3
 3673 014e 08       		.uleb128 0x8
 3674 014f 3A       		.uleb128 0x3a
 3675 0150 0B       		.uleb128 0xb
 3676 0151 3B       		.uleb128 0x3b
 3677 0152 05       		.uleb128 0x5
 3678 0153 49       		.uleb128 0x49
 3679 0154 13       		.uleb128 0x13
 3680 0155 02       		.uleb128 0x2
 3681 0156 17       		.uleb128 0x17
 3682 0157 00       		.byte	0
 3683 0158 00       		.byte	0
 3684 0159 1D       		.uleb128 0x1d
 3685 015a 34       		.uleb128 0x34
 3686 015b 00       		.byte	0
 3687 015c 03       		.uleb128 0x3
 3688 015d 0E       		.uleb128 0xe
 3689 015e 3A       		.uleb128 0x3a
 3690 015f 0B       		.uleb128 0xb
 3691 0160 3B       		.uleb128 0x3b
 3692 0161 05       		.uleb128 0x5
 3693 0162 49       		.uleb128 0x49
 3694 0163 13       		.uleb128 0x13
 3695 0164 02       		.uleb128 0x2
 3696 0165 17       		.uleb128 0x17
 3697 0166 00       		.byte	0
 3698 0167 00       		.byte	0
 3699 0168 1E       		.uleb128 0x1e
 3700 0169 26       		.uleb128 0x26
 3701 016a 00       		.byte	0
 3702 016b 49       		.uleb128 0x49
 3703 016c 13       		.uleb128 0x13
 3704 016d 00       		.byte	0
 3705 016e 00       		.byte	0
 3706 016f 1F       		.uleb128 0x1f
 3707 0170 2E       		.uleb128 0x2e
 3708 0171 01       		.byte	0x1
 3709 0172 3F       		.uleb128 0x3f
 3710 0173 19       		.uleb128 0x19
 3711 0174 03       		.uleb128 0x3
 3712 0175 0E       		.uleb128 0xe
 3713 0176 3A       		.uleb128 0x3a
 3714 0177 0B       		.uleb128 0xb
 3715 0178 3B       		.uleb128 0x3b
 3716 0179 0B       		.uleb128 0xb
 3717 017a 27       		.uleb128 0x27
 3718 017b 19       		.uleb128 0x19
 3719 017c 11       		.uleb128 0x11
 3720 017d 01       		.uleb128 0x1
 3721 017e 12       		.uleb128 0x12
 3722 017f 06       		.uleb128 0x6
 3723 0180 40       		.uleb128 0x40
 3724 0181 18       		.uleb128 0x18
 3725 0182 9742     		.uleb128 0x2117
 3726 0184 19       		.uleb128 0x19
 3727 0185 01       		.uleb128 0x1
 3728 0186 13       		.uleb128 0x13
ARM GAS  C:\Users\Intern\AppData\Local\Temp\ccD9JYVi.s 			page 94


 3729 0187 00       		.byte	0
 3730 0188 00       		.byte	0
 3731 0189 20       		.uleb128 0x20
 3732 018a 898201   		.uleb128 0x4109
 3733 018d 00       		.byte	0
 3734 018e 11       		.uleb128 0x11
 3735 018f 01       		.uleb128 0x1
 3736 0190 31       		.uleb128 0x31
 3737 0191 13       		.uleb128 0x13
 3738 0192 00       		.byte	0
 3739 0193 00       		.byte	0
 3740 0194 21       		.uleb128 0x21
 3741 0195 2E       		.uleb128 0x2e
 3742 0196 01       		.byte	0x1
 3743 0197 3F       		.uleb128 0x3f
 3744 0198 19       		.uleb128 0x19
 3745 0199 03       		.uleb128 0x3
 3746 019a 0E       		.uleb128 0xe
 3747 019b 3A       		.uleb128 0x3a
 3748 019c 0B       		.uleb128 0xb
 3749 019d 3B       		.uleb128 0x3b
 3750 019e 05       		.uleb128 0x5
 3751 019f 27       		.uleb128 0x27
 3752 01a0 19       		.uleb128 0x19
 3753 01a1 49       		.uleb128 0x49
 3754 01a2 13       		.uleb128 0x13
 3755 01a3 11       		.uleb128 0x11
 3756 01a4 01       		.uleb128 0x1
 3757 01a5 12       		.uleb128 0x12
 3758 01a6 06       		.uleb128 0x6
 3759 01a7 40       		.uleb128 0x40
 3760 01a8 18       		.uleb128 0x18
 3761 01a9 9742     		.uleb128 0x2117
 3762 01ab 19       		.uleb128 0x19
 3763 01ac 01       		.uleb128 0x1
 3764 01ad 13       		.uleb128 0x13
 3765 01ae 00       		.byte	0
 3766 01af 00       		.byte	0
 3767 01b0 22       		.uleb128 0x22
 3768 01b1 34       		.uleb128 0x34
 3769 01b2 00       		.byte	0
 3770 01b3 03       		.uleb128 0x3
 3771 01b4 0E       		.uleb128 0xe
 3772 01b5 3A       		.uleb128 0x3a
 3773 01b6 0B       		.uleb128 0xb
 3774 01b7 3B       		.uleb128 0x3b
 3775 01b8 05       		.uleb128 0x5
 3776 01b9 49       		.uleb128 0x49
 3777 01ba 13       		.uleb128 0x13
 3778 01bb 02       		.uleb128 0x2
 3779 01bc 18       		.uleb128 0x18
 3780 01bd 00       		.byte	0
 3781 01be 00       		.byte	0
 3782 01bf 23       		.uleb128 0x23
 3783 01c0 0B       		.uleb128 0xb
 3784 01c1 01       		.byte	0x1
 3785 01c2 11       		.uleb128 0x11
ARM GAS  C:\Users\Intern\AppData\Local\Temp\ccD9JYVi.s 			page 95


 3786 01c3 01       		.uleb128 0x1
 3787 01c4 12       		.uleb128 0x12
 3788 01c5 06       		.uleb128 0x6
 3789 01c6 01       		.uleb128 0x1
 3790 01c7 13       		.uleb128 0x13
 3791 01c8 00       		.byte	0
 3792 01c9 00       		.byte	0
 3793 01ca 24       		.uleb128 0x24
 3794 01cb 898201   		.uleb128 0x4109
 3795 01ce 01       		.byte	0x1
 3796 01cf 11       		.uleb128 0x11
 3797 01d0 01       		.uleb128 0x1
 3798 01d1 31       		.uleb128 0x31
 3799 01d2 13       		.uleb128 0x13
 3800 01d3 00       		.byte	0
 3801 01d4 00       		.byte	0
 3802 01d5 25       		.uleb128 0x25
 3803 01d6 8A8201   		.uleb128 0x410a
 3804 01d9 00       		.byte	0
 3805 01da 02       		.uleb128 0x2
 3806 01db 18       		.uleb128 0x18
 3807 01dc 9142     		.uleb128 0x2111
 3808 01de 18       		.uleb128 0x18
 3809 01df 00       		.byte	0
 3810 01e0 00       		.byte	0
 3811 01e1 26       		.uleb128 0x26
 3812 01e2 898201   		.uleb128 0x4109
 3813 01e5 01       		.byte	0x1
 3814 01e6 11       		.uleb128 0x11
 3815 01e7 01       		.uleb128 0x1
 3816 01e8 31       		.uleb128 0x31
 3817 01e9 13       		.uleb128 0x13
 3818 01ea 01       		.uleb128 0x1
 3819 01eb 13       		.uleb128 0x13
 3820 01ec 00       		.byte	0
 3821 01ed 00       		.byte	0
 3822 01ee 27       		.uleb128 0x27
 3823 01ef 2E       		.uleb128 0x2e
 3824 01f0 01       		.byte	0x1
 3825 01f1 3F       		.uleb128 0x3f
 3826 01f2 19       		.uleb128 0x19
 3827 01f3 03       		.uleb128 0x3
 3828 01f4 0E       		.uleb128 0xe
 3829 01f5 3A       		.uleb128 0x3a
 3830 01f6 0B       		.uleb128 0xb
 3831 01f7 3B       		.uleb128 0x3b
 3832 01f8 05       		.uleb128 0x5
 3833 01f9 27       		.uleb128 0x27
 3834 01fa 19       		.uleb128 0x19
 3835 01fb 11       		.uleb128 0x11
 3836 01fc 01       		.uleb128 0x1
 3837 01fd 12       		.uleb128 0x12
 3838 01fe 06       		.uleb128 0x6
 3839 01ff 40       		.uleb128 0x40
 3840 0200 18       		.uleb128 0x18
 3841 0201 9742     		.uleb128 0x2117
 3842 0203 19       		.uleb128 0x19
ARM GAS  C:\Users\Intern\AppData\Local\Temp\ccD9JYVi.s 			page 96


 3843 0204 01       		.uleb128 0x1
 3844 0205 13       		.uleb128 0x13
 3845 0206 00       		.byte	0
 3846 0207 00       		.byte	0
 3847 0208 28       		.uleb128 0x28
 3848 0209 0B       		.uleb128 0xb
 3849 020a 01       		.byte	0x1
 3850 020b 11       		.uleb128 0x11
 3851 020c 01       		.uleb128 0x1
 3852 020d 12       		.uleb128 0x12
 3853 020e 06       		.uleb128 0x6
 3854 020f 00       		.byte	0
 3855 0210 00       		.byte	0
 3856 0211 29       		.uleb128 0x29
 3857 0212 05       		.uleb128 0x5
 3858 0213 00       		.byte	0
 3859 0214 03       		.uleb128 0x3
 3860 0215 0E       		.uleb128 0xe
 3861 0216 3A       		.uleb128 0x3a
 3862 0217 0B       		.uleb128 0xb
 3863 0218 3B       		.uleb128 0x3b
 3864 0219 05       		.uleb128 0x5
 3865 021a 49       		.uleb128 0x49
 3866 021b 13       		.uleb128 0x13
 3867 021c 02       		.uleb128 0x2
 3868 021d 18       		.uleb128 0x18
 3869 021e 00       		.byte	0
 3870 021f 00       		.byte	0
 3871 0220 2A       		.uleb128 0x2a
 3872 0221 34       		.uleb128 0x34
 3873 0222 00       		.byte	0
 3874 0223 03       		.uleb128 0x3
 3875 0224 08       		.uleb128 0x8
 3876 0225 3A       		.uleb128 0x3a
 3877 0226 0B       		.uleb128 0xb
 3878 0227 3B       		.uleb128 0x3b
 3879 0228 05       		.uleb128 0x5
 3880 0229 49       		.uleb128 0x49
 3881 022a 13       		.uleb128 0x13
 3882 022b 00       		.byte	0
 3883 022c 00       		.byte	0
 3884 022d 2B       		.uleb128 0x2b
 3885 022e 34       		.uleb128 0x34
 3886 022f 00       		.byte	0
 3887 0230 03       		.uleb128 0x3
 3888 0231 0E       		.uleb128 0xe
 3889 0232 3A       		.uleb128 0x3a
 3890 0233 0B       		.uleb128 0xb
 3891 0234 3B       		.uleb128 0x3b
 3892 0235 05       		.uleb128 0x5
 3893 0236 49       		.uleb128 0x49
 3894 0237 13       		.uleb128 0x13
 3895 0238 1C       		.uleb128 0x1c
 3896 0239 0B       		.uleb128 0xb
 3897 023a 00       		.byte	0
 3898 023b 00       		.byte	0
 3899 023c 2C       		.uleb128 0x2c
ARM GAS  C:\Users\Intern\AppData\Local\Temp\ccD9JYVi.s 			page 97


 3900 023d 05       		.uleb128 0x5
 3901 023e 00       		.byte	0
 3902 023f 03       		.uleb128 0x3
 3903 0240 08       		.uleb128 0x8
 3904 0241 3A       		.uleb128 0x3a
 3905 0242 0B       		.uleb128 0xb
 3906 0243 3B       		.uleb128 0x3b
 3907 0244 05       		.uleb128 0x5
 3908 0245 49       		.uleb128 0x49
 3909 0246 13       		.uleb128 0x13
 3910 0247 02       		.uleb128 0x2
 3911 0248 17       		.uleb128 0x17
 3912 0249 00       		.byte	0
 3913 024a 00       		.byte	0
 3914 024b 2D       		.uleb128 0x2d
 3915 024c 05       		.uleb128 0x5
 3916 024d 00       		.byte	0
 3917 024e 03       		.uleb128 0x3
 3918 024f 08       		.uleb128 0x8
 3919 0250 3A       		.uleb128 0x3a
 3920 0251 0B       		.uleb128 0xb
 3921 0252 3B       		.uleb128 0x3b
 3922 0253 05       		.uleb128 0x5
 3923 0254 49       		.uleb128 0x49
 3924 0255 13       		.uleb128 0x13
 3925 0256 02       		.uleb128 0x2
 3926 0257 18       		.uleb128 0x18
 3927 0258 00       		.byte	0
 3928 0259 00       		.byte	0
 3929 025a 2E       		.uleb128 0x2e
 3930 025b 34       		.uleb128 0x34
 3931 025c 00       		.byte	0
 3932 025d 03       		.uleb128 0x3
 3933 025e 0E       		.uleb128 0xe
 3934 025f 3A       		.uleb128 0x3a
 3935 0260 0B       		.uleb128 0xb
 3936 0261 3B       		.uleb128 0x3b
 3937 0262 0B       		.uleb128 0xb
 3938 0263 49       		.uleb128 0x49
 3939 0264 13       		.uleb128 0x13
 3940 0265 02       		.uleb128 0x2
 3941 0266 18       		.uleb128 0x18
 3942 0267 00       		.byte	0
 3943 0268 00       		.byte	0
 3944 0269 2F       		.uleb128 0x2f
 3945 026a 34       		.uleb128 0x34
 3946 026b 00       		.byte	0
 3947 026c 03       		.uleb128 0x3
 3948 026d 0E       		.uleb128 0xe
 3949 026e 3A       		.uleb128 0x3a
 3950 026f 0B       		.uleb128 0xb
 3951 0270 3B       		.uleb128 0x3b
 3952 0271 0B       		.uleb128 0xb
 3953 0272 49       		.uleb128 0x49
 3954 0273 13       		.uleb128 0x13
 3955 0274 3F       		.uleb128 0x3f
 3956 0275 19       		.uleb128 0x19
ARM GAS  C:\Users\Intern\AppData\Local\Temp\ccD9JYVi.s 			page 98


 3957 0276 02       		.uleb128 0x2
 3958 0277 18       		.uleb128 0x18
 3959 0278 00       		.byte	0
 3960 0279 00       		.byte	0
 3961 027a 30       		.uleb128 0x30
 3962 027b 34       		.uleb128 0x34
 3963 027c 00       		.byte	0
 3964 027d 03       		.uleb128 0x3
 3965 027e 0E       		.uleb128 0xe
 3966 027f 3A       		.uleb128 0x3a
 3967 0280 0B       		.uleb128 0xb
 3968 0281 3B       		.uleb128 0x3b
 3969 0282 05       		.uleb128 0x5
 3970 0283 49       		.uleb128 0x49
 3971 0284 13       		.uleb128 0x13
 3972 0285 3F       		.uleb128 0x3f
 3973 0286 19       		.uleb128 0x19
 3974 0287 3C       		.uleb128 0x3c
 3975 0288 19       		.uleb128 0x19
 3976 0289 00       		.byte	0
 3977 028a 00       		.byte	0
 3978 028b 31       		.uleb128 0x31
 3979 028c 34       		.uleb128 0x34
 3980 028d 00       		.byte	0
 3981 028e 03       		.uleb128 0x3
 3982 028f 0E       		.uleb128 0xe
 3983 0290 3A       		.uleb128 0x3a
 3984 0291 0B       		.uleb128 0xb
 3985 0292 3B       		.uleb128 0x3b
 3986 0293 0B       		.uleb128 0xb
 3987 0294 49       		.uleb128 0x49
 3988 0295 13       		.uleb128 0x13
 3989 0296 3F       		.uleb128 0x3f
 3990 0297 19       		.uleb128 0x19
 3991 0298 3C       		.uleb128 0x3c
 3992 0299 19       		.uleb128 0x19
 3993 029a 00       		.byte	0
 3994 029b 00       		.byte	0
 3995 029c 32       		.uleb128 0x32
 3996 029d 2E       		.uleb128 0x2e
 3997 029e 00       		.byte	0
 3998 029f 3F       		.uleb128 0x3f
 3999 02a0 19       		.uleb128 0x19
 4000 02a1 3C       		.uleb128 0x3c
 4001 02a2 19       		.uleb128 0x19
 4002 02a3 6E       		.uleb128 0x6e
 4003 02a4 0E       		.uleb128 0xe
 4004 02a5 03       		.uleb128 0x3
 4005 02a6 0E       		.uleb128 0xe
 4006 02a7 3A       		.uleb128 0x3a
 4007 02a8 0B       		.uleb128 0xb
 4008 02a9 3B       		.uleb128 0x3b
 4009 02aa 0B       		.uleb128 0xb
 4010 02ab 00       		.byte	0
 4011 02ac 00       		.byte	0
 4012 02ad 33       		.uleb128 0x33
 4013 02ae 2E       		.uleb128 0x2e
ARM GAS  C:\Users\Intern\AppData\Local\Temp\ccD9JYVi.s 			page 99


 4014 02af 00       		.byte	0
 4015 02b0 3F       		.uleb128 0x3f
 4016 02b1 19       		.uleb128 0x19
 4017 02b2 3C       		.uleb128 0x3c
 4018 02b3 19       		.uleb128 0x19
 4019 02b4 6E       		.uleb128 0x6e
 4020 02b5 0E       		.uleb128 0xe
 4021 02b6 03       		.uleb128 0x3
 4022 02b7 0E       		.uleb128 0xe
 4023 02b8 3A       		.uleb128 0x3a
 4024 02b9 0B       		.uleb128 0xb
 4025 02ba 3B       		.uleb128 0x3b
 4026 02bb 05       		.uleb128 0x5
 4027 02bc 00       		.byte	0
 4028 02bd 00       		.byte	0
 4029 02be 34       		.uleb128 0x34
 4030 02bf 2E       		.uleb128 0x2e
 4031 02c0 00       		.byte	0
 4032 02c1 3F       		.uleb128 0x3f
 4033 02c2 19       		.uleb128 0x19
 4034 02c3 3C       		.uleb128 0x3c
 4035 02c4 19       		.uleb128 0x19
 4036 02c5 6E       		.uleb128 0x6e
 4037 02c6 0E       		.uleb128 0xe
 4038 02c7 03       		.uleb128 0x3
 4039 02c8 0E       		.uleb128 0xe
 4040 02c9 00       		.byte	0
 4041 02ca 00       		.byte	0
 4042 02cb 00       		.byte	0
 4043              		.section	.debug_loc,"",%progbits
 4044              	.Ldebug_loc0:
 4045              	.LLST0:
 4046 0000 00000000 		.4byte	.LVL0
 4047 0004 60000000 		.4byte	.LVL22
 4048 0008 0100     		.2byte	0x1
 4049 000a 50       		.byte	0x50
 4050 000b 60000000 		.4byte	.LVL22
 4051 000f 78000000 		.4byte	.LFE11
 4052 0013 0400     		.2byte	0x4
 4053 0015 F3       		.byte	0xf3
 4054 0016 01       		.uleb128 0x1
 4055 0017 50       		.byte	0x50
 4056 0018 9F       		.byte	0x9f
 4057 0019 00000000 		.4byte	0
 4058 001d 00000000 		.4byte	0
 4059              	.LLST1:
 4060 0021 00000000 		.4byte	.LVL0
 4061 0025 08000000 		.4byte	.LVL3
 4062 0029 0100     		.2byte	0x1
 4063 002b 51       		.byte	0x51
 4064 002c 08000000 		.4byte	.LVL3
 4065 0030 12000000 		.4byte	.LVL5
 4066 0034 0400     		.2byte	0x4
 4067 0036 F3       		.byte	0xf3
 4068 0037 01       		.uleb128 0x1
 4069 0038 51       		.byte	0x51
 4070 0039 9F       		.byte	0x9f
ARM GAS  C:\Users\Intern\AppData\Local\Temp\ccD9JYVi.s 			page 100


 4071 003a 12000000 		.4byte	.LVL5
 4072 003e 14000000 		.4byte	.LVL6
 4073 0042 0100     		.2byte	0x1
 4074 0044 51       		.byte	0x51
 4075 0045 14000000 		.4byte	.LVL6
 4076 0049 78000000 		.4byte	.LFE11
 4077 004d 0400     		.2byte	0x4
 4078 004f F3       		.byte	0xf3
 4079 0050 01       		.uleb128 0x1
 4080 0051 51       		.byte	0x51
 4081 0052 9F       		.byte	0x9f
 4082 0053 00000000 		.4byte	0
 4083 0057 00000000 		.4byte	0
 4084              	.LLST2:
 4085 005b 48000000 		.4byte	.LVL18
 4086 005f 4C000000 		.4byte	.LVL19
 4087 0063 0100     		.2byte	0x1
 4088 0065 53       		.byte	0x53
 4089 0066 4C000000 		.4byte	.LVL19
 4090 006a 50000000 		.4byte	.LVL20
 4091 006e 0100     		.2byte	0x1
 4092 0070 52       		.byte	0x52
 4093 0071 52000000 		.4byte	.LVL21
 4094 0075 68000000 		.4byte	.LVL23
 4095 0079 0100     		.2byte	0x1
 4096 007b 52       		.byte	0x52
 4097 007c 6A000000 		.4byte	.LVL24
 4098 0080 6E000000 		.4byte	.LVL25
 4099 0084 0100     		.2byte	0x1
 4100 0086 52       		.byte	0x52
 4101 0087 00000000 		.4byte	0
 4102 008b 00000000 		.4byte	0
 4103              	.LLST3:
 4104 008f 02000000 		.4byte	.LVL1
 4105 0093 18000000 		.4byte	.LVL8
 4106 0097 0200     		.2byte	0x2
 4107 0099 30       		.byte	0x30
 4108 009a 9F       		.byte	0x9f
 4109 009b 18000000 		.4byte	.LVL8
 4110 009f 4C000000 		.4byte	.LVL19
 4111 00a3 0100     		.2byte	0x1
 4112 00a5 55       		.byte	0x55
 4113 00a6 00000000 		.4byte	0
 4114 00aa 00000000 		.4byte	0
 4115              	.LLST4:
 4116 00ae 02000000 		.4byte	.LVL1
 4117 00b2 18000000 		.4byte	.LVL8
 4118 00b6 0200     		.2byte	0x2
 4119 00b8 30       		.byte	0x30
 4120 00b9 9F       		.byte	0x9f
 4121 00ba 18000000 		.4byte	.LVL8
 4122 00be 42000000 		.4byte	.LVL15
 4123 00c2 0100     		.2byte	0x1
 4124 00c4 54       		.byte	0x54
 4125 00c5 44000000 		.4byte	.LVL16
 4126 00c9 6E000000 		.4byte	.LVL26
 4127 00cd 0100     		.2byte	0x1
ARM GAS  C:\Users\Intern\AppData\Local\Temp\ccD9JYVi.s 			page 101


 4128 00cf 54       		.byte	0x54
 4129 00d0 00000000 		.4byte	0
 4130 00d4 00000000 		.4byte	0
 4131              	.LLST5:
 4132 00d8 02000000 		.4byte	.LVL1
 4133 00dc 18000000 		.4byte	.LVL8
 4134 00e0 0200     		.2byte	0x2
 4135 00e2 30       		.byte	0x30
 4136 00e3 9F       		.byte	0x9f
 4137 00e4 18000000 		.4byte	.LVL8
 4138 00e8 20000000 		.4byte	.LVL10
 4139 00ec 0100     		.2byte	0x1
 4140 00ee 53       		.byte	0x53
 4141 00ef 22000000 		.4byte	.LVL11
 4142 00f3 2E000000 		.4byte	.LVL12
 4143 00f7 0100     		.2byte	0x1
 4144 00f9 53       		.byte	0x53
 4145 00fa 30000000 		.4byte	.LVL13
 4146 00fe 46000000 		.4byte	.LVL17
 4147 0102 0100     		.2byte	0x1
 4148 0104 53       		.byte	0x53
 4149 0105 48000000 		.4byte	.LVL18
 4150 0109 60000000 		.4byte	.LVL22
 4151 010d 0100     		.2byte	0x1
 4152 010f 53       		.byte	0x53
 4153 0110 00000000 		.4byte	0
 4154 0114 00000000 		.4byte	0
 4155              	.LLST6:
 4156 0118 06000000 		.4byte	.LVL2
 4157 011c 0A000000 		.4byte	.LVL4
 4158 0120 0600     		.2byte	0x6
 4159 0122 03       		.byte	0x3
 4160 0123 00000000 		.4byte	cyBle_discoveryData
 4161 0127 9F       		.byte	0x9f
 4162 0128 12000000 		.4byte	.LVL5
 4163 012c 18000000 		.4byte	.LVL8
 4164 0130 0600     		.2byte	0x6
 4165 0132 03       		.byte	0x3
 4166 0133 00000000 		.4byte	cyBle_scanRspData
 4167 0137 9F       		.byte	0x9f
 4168 0138 18000000 		.4byte	.LVL8
 4169 013c 78000000 		.4byte	.LFE11
 4170 0140 0100     		.2byte	0x1
 4171 0142 51       		.byte	0x51
 4172 0143 00000000 		.4byte	0
 4173 0147 00000000 		.4byte	0
 4174              	.LLST7:
 4175 014b 0A000000 		.4byte	.LVL4
 4176 014f 12000000 		.4byte	.LVL5
 4177 0153 0100     		.2byte	0x1
 4178 0155 56       		.byte	0x56
 4179 0156 16000000 		.4byte	.LVL7
 4180 015a 6E000000 		.4byte	.LVL27
 4181 015e 0100     		.2byte	0x1
 4182 0160 56       		.byte	0x56
 4183 0161 00000000 		.4byte	0
 4184 0165 00000000 		.4byte	0
ARM GAS  C:\Users\Intern\AppData\Local\Temp\ccD9JYVi.s 			page 102


 4185              	.LLST8:
 4186 0169 00000000 		.4byte	.LVL30
 4187 016d 0C000000 		.4byte	.LVL32
 4188 0171 0100     		.2byte	0x1
 4189 0173 50       		.byte	0x50
 4190 0174 0C000000 		.4byte	.LVL32
 4191 0178 8A000000 		.4byte	.LVL42
 4192 017c 0100     		.2byte	0x1
 4193 017e 54       		.byte	0x54
 4194 017f 8A000000 		.4byte	.LVL42
 4195 0183 B0000000 		.4byte	.LFE4
 4196 0187 0400     		.2byte	0x4
 4197 0189 F3       		.byte	0xf3
 4198 018a 01       		.uleb128 0x1
 4199 018b 50       		.byte	0x50
 4200 018c 9F       		.byte	0x9f
 4201 018d 00000000 		.4byte	0
 4202 0191 00000000 		.4byte	0
 4203              	.LLST9:
 4204 0195 06000000 		.4byte	.LVL31
 4205 0199 52000000 		.4byte	.LVL35
 4206 019d 0200     		.2byte	0x2
 4207 019f 30       		.byte	0x30
 4208 01a0 9F       		.byte	0x9f
 4209 01a1 52000000 		.4byte	.LVL35
 4210 01a5 6C000000 		.4byte	.LVL36
 4211 01a9 0100     		.2byte	0x1
 4212 01ab 50       		.byte	0x50
 4213 01ac 70000000 		.4byte	.LVL37
 4214 01b0 80000000 		.4byte	.LVL38
 4215 01b4 0100     		.2byte	0x1
 4216 01b6 50       		.byte	0x50
 4217 01b7 84000000 		.4byte	.LVL39
 4218 01bb 86000000 		.4byte	.LVL40
 4219 01bf 0100     		.2byte	0x1
 4220 01c1 50       		.byte	0x50
 4221 01c2 86000000 		.4byte	.LVL40
 4222 01c6 88000000 		.4byte	.LVL41
 4223 01ca 0200     		.2byte	0x2
 4224 01cc 30       		.byte	0x30
 4225 01cd 9F       		.byte	0x9f
 4226 01ce 88000000 		.4byte	.LVL41
 4227 01d2 B0000000 		.4byte	.LFE4
 4228 01d6 0100     		.2byte	0x1
 4229 01d8 50       		.byte	0x50
 4230 01d9 00000000 		.4byte	0
 4231 01dd 00000000 		.4byte	0
 4232              	.LLST10:
 4233 01e1 00000000 		.4byte	.LVL44
 4234 01e5 11000000 		.4byte	.LVL46-1
 4235 01e9 0100     		.2byte	0x1
 4236 01eb 50       		.byte	0x50
 4237 01ec 11000000 		.4byte	.LVL46-1
 4238 01f0 26000000 		.4byte	.LVL47
 4239 01f4 0400     		.2byte	0x4
 4240 01f6 F3       		.byte	0xf3
 4241 01f7 01       		.uleb128 0x1
ARM GAS  C:\Users\Intern\AppData\Local\Temp\ccD9JYVi.s 			page 103


 4242 01f8 50       		.byte	0x50
 4243 01f9 9F       		.byte	0x9f
 4244 01fa 26000000 		.4byte	.LVL47
 4245 01fe 28000000 		.4byte	.LVL48
 4246 0202 0100     		.2byte	0x1
 4247 0204 50       		.byte	0x50
 4248 0205 28000000 		.4byte	.LVL48
 4249 0209 04010000 		.4byte	.LFE6
 4250 020d 0400     		.2byte	0x4
 4251 020f F3       		.byte	0xf3
 4252 0210 01       		.uleb128 0x1
 4253 0211 50       		.byte	0x50
 4254 0212 9F       		.byte	0x9f
 4255 0213 00000000 		.4byte	0
 4256 0217 00000000 		.4byte	0
 4257              	.LLST11:
 4258 021b 06000000 		.4byte	.LVL45
 4259 021f 12000000 		.4byte	.LVL46
 4260 0223 0200     		.2byte	0x2
 4261 0225 30       		.byte	0x30
 4262 0226 9F       		.byte	0x9f
 4263 0227 12000000 		.4byte	.LVL46
 4264 022b 26000000 		.4byte	.LVL47
 4265 022f 0100     		.2byte	0x1
 4266 0231 50       		.byte	0x50
 4267 0232 26000000 		.4byte	.LVL47
 4268 0236 2A000000 		.4byte	.LVL49
 4269 023a 0200     		.2byte	0x2
 4270 023c 30       		.byte	0x30
 4271 023d 9F       		.byte	0x9f
 4272 023e 2A000000 		.4byte	.LVL49
 4273 0242 5E000000 		.4byte	.LVL51
 4274 0246 0100     		.2byte	0x1
 4275 0248 50       		.byte	0x50
 4276 0249 62000000 		.4byte	.LVL52
 4277 024d 8C000000 		.4byte	.LVL54
 4278 0251 0100     		.2byte	0x1
 4279 0253 50       		.byte	0x50
 4280 0254 9C000000 		.4byte	.LVL56
 4281 0258 B2000000 		.4byte	.LVL57
 4282 025c 0100     		.2byte	0x1
 4283 025e 50       		.byte	0x50
 4284 025f DA000000 		.4byte	.LVL59
 4285 0263 04010000 		.4byte	.LFE6
 4286 0267 0100     		.2byte	0x1
 4287 0269 50       		.byte	0x50
 4288 026a 00000000 		.4byte	0
 4289 026e 00000000 		.4byte	0
 4290              	.LLST12:
 4291 0272 00000000 		.4byte	.LVL61
 4292 0276 14000000 		.4byte	.LVL63
 4293 027a 0100     		.2byte	0x1
 4294 027c 50       		.byte	0x50
 4295 027d 14000000 		.4byte	.LVL63
 4296 0281 5E000000 		.4byte	.LVL70
 4297 0285 0100     		.2byte	0x1
 4298 0287 55       		.byte	0x55
ARM GAS  C:\Users\Intern\AppData\Local\Temp\ccD9JYVi.s 			page 104


 4299 0288 5E000000 		.4byte	.LVL70
 4300 028c 60000000 		.4byte	.LVL71
 4301 0290 0100     		.2byte	0x1
 4302 0292 50       		.byte	0x50
 4303 0293 60000000 		.4byte	.LVL71
 4304 0297 62000000 		.4byte	.LVL72
 4305 029b 0100     		.2byte	0x1
 4306 029d 55       		.byte	0x55
 4307 029e 62000000 		.4byte	.LVL72
 4308 02a2 6C000000 		.4byte	.LFE7
 4309 02a6 0400     		.2byte	0x4
 4310 02a8 F3       		.byte	0xf3
 4311 02a9 01       		.uleb128 0x1
 4312 02aa 50       		.byte	0x50
 4313 02ab 9F       		.byte	0x9f
 4314 02ac 00000000 		.4byte	0
 4315 02b0 00000000 		.4byte	0
 4316              	.LLST13:
 4317 02b4 06000000 		.4byte	.LVL62
 4318 02b8 3A000000 		.4byte	.LVL66
 4319 02bc 0200     		.2byte	0x2
 4320 02be 30       		.byte	0x30
 4321 02bf 9F       		.byte	0x9f
 4322 02c0 3A000000 		.4byte	.LVL66
 4323 02c4 58000000 		.4byte	.LVL68
 4324 02c8 0100     		.2byte	0x1
 4325 02ca 50       		.byte	0x50
 4326 02cb 5C000000 		.4byte	.LVL69
 4327 02cf 5E000000 		.4byte	.LVL70
 4328 02d3 0100     		.2byte	0x1
 4329 02d5 50       		.byte	0x50
 4330 02d6 5E000000 		.4byte	.LVL70
 4331 02da 60000000 		.4byte	.LVL71
 4332 02de 0200     		.2byte	0x2
 4333 02e0 30       		.byte	0x30
 4334 02e1 9F       		.byte	0x9f
 4335 02e2 60000000 		.4byte	.LVL71
 4336 02e6 6C000000 		.4byte	.LFE7
 4337 02ea 0100     		.2byte	0x1
 4338 02ec 50       		.byte	0x50
 4339 02ed 00000000 		.4byte	0
 4340 02f1 00000000 		.4byte	0
 4341              	.LLST14:
 4342 02f5 00000000 		.4byte	.LVL73
 4343 02f9 4E000000 		.4byte	.LVL74
 4344 02fd 0100     		.2byte	0x1
 4345 02ff 50       		.byte	0x50
 4346 0300 4E000000 		.4byte	.LVL74
 4347 0304 53000000 		.4byte	.LVL75-1
 4348 0308 0200     		.2byte	0x2
 4349 030a 73       		.byte	0x73
 4350 030b 00       		.sleb128 0
 4351 030c 53000000 		.4byte	.LVL75-1
 4352 0310 66000000 		.4byte	.LVL76
 4353 0314 0400     		.2byte	0x4
 4354 0316 F3       		.byte	0xf3
 4355 0317 01       		.uleb128 0x1
ARM GAS  C:\Users\Intern\AppData\Local\Temp\ccD9JYVi.s 			page 105


 4356 0318 50       		.byte	0x50
 4357 0319 9F       		.byte	0x9f
 4358 031a 66000000 		.4byte	.LVL76
 4359 031e 68000000 		.4byte	.LVL77
 4360 0322 0100     		.2byte	0x1
 4361 0324 50       		.byte	0x50
 4362 0325 68000000 		.4byte	.LVL77
 4363 0329 6A000000 		.4byte	.LVL78
 4364 032d 0400     		.2byte	0x4
 4365 032f F3       		.byte	0xf3
 4366 0330 01       		.uleb128 0x1
 4367 0331 50       		.byte	0x50
 4368 0332 9F       		.byte	0x9f
 4369 0333 6A000000 		.4byte	.LVL78
 4370 0337 6C000000 		.4byte	.LVL79
 4371 033b 0100     		.2byte	0x1
 4372 033d 50       		.byte	0x50
 4373 033e 6C000000 		.4byte	.LVL79
 4374 0342 70000000 		.4byte	.LVL80
 4375 0346 0400     		.2byte	0x4
 4376 0348 F3       		.byte	0xf3
 4377 0349 01       		.uleb128 0x1
 4378 034a 50       		.byte	0x50
 4379 034b 9F       		.byte	0x9f
 4380 034c 70000000 		.4byte	.LVL80
 4381 0350 72000000 		.4byte	.LVL81
 4382 0354 0100     		.2byte	0x1
 4383 0356 50       		.byte	0x50
 4384 0357 72000000 		.4byte	.LVL81
 4385 035b 88000000 		.4byte	.LFE8
 4386 035f 0400     		.2byte	0x4
 4387 0361 F3       		.byte	0xf3
 4388 0362 01       		.uleb128 0x1
 4389 0363 50       		.byte	0x50
 4390 0364 9F       		.byte	0x9f
 4391 0365 00000000 		.4byte	0
 4392 0369 00000000 		.4byte	0
 4393              	.LLST15:
 4394 036d 54000000 		.4byte	.LVL75
 4395 0371 66000000 		.4byte	.LVL76
 4396 0375 0100     		.2byte	0x1
 4397 0377 50       		.byte	0x50
 4398 0378 74000000 		.4byte	.LVL82
 4399 037c 88000000 		.4byte	.LFE8
 4400 0380 0100     		.2byte	0x1
 4401 0382 50       		.byte	0x50
 4402 0383 00000000 		.4byte	0
 4403 0387 00000000 		.4byte	0
 4404              	.LLST16:
 4405 038b 00000000 		.4byte	.LVL85
 4406 038f 12000000 		.4byte	.LVL87
 4407 0393 0100     		.2byte	0x1
 4408 0395 50       		.byte	0x50
 4409 0396 12000000 		.4byte	.LVL87
 4410 039a 54000000 		.4byte	.LVL98
 4411 039e 0100     		.2byte	0x1
 4412 03a0 54       		.byte	0x54
ARM GAS  C:\Users\Intern\AppData\Local\Temp\ccD9JYVi.s 			page 106


 4413 03a1 54000000 		.4byte	.LVL98
 4414 03a5 56000000 		.4byte	.LVL99
 4415 03a9 0100     		.2byte	0x1
 4416 03ab 50       		.byte	0x50
 4417 03ac 56000000 		.4byte	.LVL99
 4418 03b0 56000000 		.4byte	.LVL100
 4419 03b4 0100     		.2byte	0x1
 4420 03b6 54       		.byte	0x54
 4421 03b7 56000000 		.4byte	.LVL100
 4422 03bb 60000000 		.4byte	.LFE12
 4423 03bf 0400     		.2byte	0x4
 4424 03c1 F3       		.byte	0xf3
 4425 03c2 01       		.uleb128 0x1
 4426 03c3 50       		.byte	0x50
 4427 03c4 9F       		.byte	0x9f
 4428 03c5 00000000 		.4byte	0
 4429 03c9 00000000 		.4byte	0
 4430              	.LLST17:
 4431 03cd 04000000 		.4byte	.LVL86
 4432 03d1 56000000 		.4byte	.LVL99
 4433 03d5 0200     		.2byte	0x2
 4434 03d7 30       		.byte	0x30
 4435 03d8 9F       		.byte	0x9f
 4436 03d9 56000000 		.4byte	.LVL99
 4437 03dd 60000000 		.4byte	.LFE12
 4438 03e1 0100     		.2byte	0x1
 4439 03e3 50       		.byte	0x50
 4440 03e4 00000000 		.4byte	0
 4441 03e8 00000000 		.4byte	0
 4442              	.LLST18:
 4443 03ec 22000000 		.4byte	.LVL89
 4444 03f0 26000000 		.4byte	.LVL90
 4445 03f4 0200     		.2byte	0x2
 4446 03f6 30       		.byte	0x30
 4447 03f7 9F       		.byte	0x9f
 4448 03f8 26000000 		.4byte	.LVL90
 4449 03fc 2A000000 		.4byte	.LVL91
 4450 0400 0100     		.2byte	0x1
 4451 0402 53       		.byte	0x53
 4452 0403 2C000000 		.4byte	.LVL92
 4453 0407 3C000000 		.4byte	.LVL93
 4454 040b 0100     		.2byte	0x1
 4455 040d 53       		.byte	0x53
 4456 040e 00000000 		.4byte	0
 4457 0412 00000000 		.4byte	0
 4458              	.LLST19:
 4459 0416 1A000000 		.4byte	.LVL88
 4460 041a 44000000 		.4byte	.LVL95
 4461 041e 0100     		.2byte	0x1
 4462 0420 50       		.byte	0x50
 4463 0421 00000000 		.4byte	0
 4464 0425 00000000 		.4byte	0
 4465              	.LLST20:
 4466 0429 22000000 		.4byte	.LVL89
 4467 042d 42000000 		.4byte	.LVL94
 4468 0431 0100     		.2byte	0x1
 4469 0433 51       		.byte	0x51
ARM GAS  C:\Users\Intern\AppData\Local\Temp\ccD9JYVi.s 			page 107


 4470 0434 00000000 		.4byte	0
 4471 0438 00000000 		.4byte	0
 4472              	.LLST21:
 4473 043c 00000000 		.4byte	.LVL101
 4474 0440 38000000 		.4byte	.LVL109
 4475 0444 0100     		.2byte	0x1
 4476 0446 50       		.byte	0x50
 4477 0447 38000000 		.4byte	.LVL109
 4478 044b 3A000000 		.4byte	.LVL110
 4479 044f 0400     		.2byte	0x4
 4480 0451 F3       		.byte	0xf3
 4481 0452 01       		.uleb128 0x1
 4482 0453 50       		.byte	0x50
 4483 0454 9F       		.byte	0x9f
 4484 0455 3A000000 		.4byte	.LVL110
 4485 0459 3C000000 		.4byte	.LVL111
 4486 045d 0100     		.2byte	0x1
 4487 045f 50       		.byte	0x50
 4488 0460 3C000000 		.4byte	.LVL111
 4489 0464 48000000 		.4byte	.LFE13
 4490 0468 0400     		.2byte	0x4
 4491 046a F3       		.byte	0xf3
 4492 046b 01       		.uleb128 0x1
 4493 046c 50       		.byte	0x50
 4494 046d 9F       		.byte	0x9f
 4495 046e 00000000 		.4byte	0
 4496 0472 00000000 		.4byte	0
 4497              	.LLST22:
 4498 0476 02000000 		.4byte	.LVL102
 4499 047a 3C000000 		.4byte	.LVL111
 4500 047e 0200     		.2byte	0x2
 4501 0480 30       		.byte	0x30
 4502 0481 9F       		.byte	0x9f
 4503 0482 3C000000 		.4byte	.LVL111
 4504 0486 48000000 		.4byte	.LFE13
 4505 048a 0100     		.2byte	0x1
 4506 048c 50       		.byte	0x50
 4507 048d 00000000 		.4byte	0
 4508 0491 00000000 		.4byte	0
 4509              	.LLST23:
 4510 0495 1C000000 		.4byte	.LVL104
 4511 0499 3A000000 		.4byte	.LVL110
 4512 049d 0100     		.2byte	0x1
 4513 049f 51       		.byte	0x51
 4514 04a0 00000000 		.4byte	0
 4515 04a4 00000000 		.4byte	0
 4516              	.LLST24:
 4517 04a8 1C000000 		.4byte	.LVL104
 4518 04ac 20000000 		.4byte	.LVL105
 4519 04b0 0200     		.2byte	0x2
 4520 04b2 30       		.byte	0x30
 4521 04b3 9F       		.byte	0x9f
 4522 04b4 20000000 		.4byte	.LVL105
 4523 04b8 24000000 		.4byte	.LVL106
 4524 04bc 0100     		.2byte	0x1
 4525 04be 53       		.byte	0x53
 4526 04bf 26000000 		.4byte	.LVL107
ARM GAS  C:\Users\Intern\AppData\Local\Temp\ccD9JYVi.s 			page 108


 4527 04c3 32000000 		.4byte	.LVL108
 4528 04c7 0100     		.2byte	0x1
 4529 04c9 53       		.byte	0x53
 4530 04ca 00000000 		.4byte	0
 4531 04ce 00000000 		.4byte	0
 4532              	.LLST25:
 4533 04d2 1A000000 		.4byte	.LVL103
 4534 04d6 3A000000 		.4byte	.LVL110
 4535 04da 0100     		.2byte	0x1
 4536 04dc 54       		.byte	0x54
 4537 04dd 00000000 		.4byte	0
 4538 04e1 00000000 		.4byte	0
 4539              	.LLST26:
 4540 04e5 00000000 		.4byte	.LVL112
 4541 04e9 04000000 		.4byte	.LVL113
 4542 04ed 0100     		.2byte	0x1
 4543 04ef 50       		.byte	0x50
 4544 04f0 04000000 		.4byte	.LVL113
 4545 04f4 0A000000 		.4byte	.LFE14
 4546 04f8 0400     		.2byte	0x4
 4547 04fa F3       		.byte	0xf3
 4548 04fb 01       		.uleb128 0x1
 4549 04fc 50       		.byte	0x50
 4550 04fd 9F       		.byte	0x9f
 4551 04fe 00000000 		.4byte	0
 4552 0502 00000000 		.4byte	0
 4553              	.LLST27:
 4554 0506 00000000 		.4byte	.LVL114
 4555 050a 04000000 		.4byte	.LVL115
 4556 050e 0100     		.2byte	0x1
 4557 0510 51       		.byte	0x51
 4558 0511 04000000 		.4byte	.LVL115
 4559 0515 08000000 		.4byte	.LFE15
 4560 0519 0400     		.2byte	0x4
 4561 051b F3       		.byte	0xf3
 4562 051c 01       		.uleb128 0x1
 4563 051d 51       		.byte	0x51
 4564 051e 9F       		.byte	0x9f
 4565 051f 00000000 		.4byte	0
 4566 0523 00000000 		.4byte	0
 4567              		.section	.debug_aranges,"",%progbits
 4568 0000 84000000 		.4byte	0x84
 4569 0004 0200     		.2byte	0x2
 4570 0006 00000000 		.4byte	.Ldebug_info0
 4571 000a 04       		.byte	0x4
 4572 000b 00       		.byte	0
 4573 000c 0000     		.2byte	0
 4574 000e 0000     		.2byte	0
 4575 0010 00000000 		.4byte	.LFB11
 4576 0014 78000000 		.4byte	.LFE11-.LFB11
 4577 0018 00000000 		.4byte	.LFB3
 4578 001c 08000000 		.4byte	.LFE3-.LFB3
 4579 0020 00000000 		.4byte	.LFB2
 4580 0024 34000000 		.4byte	.LFE2-.LFB2
 4581 0028 00000000 		.4byte	.LFB4
 4582 002c B0000000 		.4byte	.LFE4-.LFB4
 4583 0030 00000000 		.4byte	.LFB5
ARM GAS  C:\Users\Intern\AppData\Local\Temp\ccD9JYVi.s 			page 109


 4584 0034 14000000 		.4byte	.LFE5-.LFB5
 4585 0038 00000000 		.4byte	.LFB6
 4586 003c 04010000 		.4byte	.LFE6-.LFB6
 4587 0040 00000000 		.4byte	.LFB7
 4588 0044 6C000000 		.4byte	.LFE7-.LFB7
 4589 0048 00000000 		.4byte	.LFB8
 4590 004c 88000000 		.4byte	.LFE8-.LFB8
 4591 0050 00000000 		.4byte	.LFB9
 4592 0054 18000000 		.4byte	.LFE9-.LFB9
 4593 0058 00000000 		.4byte	.LFB10
 4594 005c 02000000 		.4byte	.LFE10-.LFB10
 4595 0060 00000000 		.4byte	.LFB12
 4596 0064 60000000 		.4byte	.LFE12-.LFB12
 4597 0068 00000000 		.4byte	.LFB13
 4598 006c 48000000 		.4byte	.LFE13-.LFB13
 4599 0070 00000000 		.4byte	.LFB14
 4600 0074 0A000000 		.4byte	.LFE14-.LFB14
 4601 0078 00000000 		.4byte	.LFB15
 4602 007c 08000000 		.4byte	.LFE15-.LFB15
 4603 0080 00000000 		.4byte	0
 4604 0084 00000000 		.4byte	0
 4605              		.section	.debug_ranges,"",%progbits
 4606              	.Ldebug_ranges0:
 4607 0000 00000000 		.4byte	.LFB11
 4608 0004 78000000 		.4byte	.LFE11
 4609 0008 00000000 		.4byte	.LFB3
 4610 000c 08000000 		.4byte	.LFE3
 4611 0010 00000000 		.4byte	.LFB2
 4612 0014 34000000 		.4byte	.LFE2
 4613 0018 00000000 		.4byte	.LFB4
 4614 001c B0000000 		.4byte	.LFE4
 4615 0020 00000000 		.4byte	.LFB5
 4616 0024 14000000 		.4byte	.LFE5
 4617 0028 00000000 		.4byte	.LFB6
 4618 002c 04010000 		.4byte	.LFE6
 4619 0030 00000000 		.4byte	.LFB7
 4620 0034 6C000000 		.4byte	.LFE7
 4621 0038 00000000 		.4byte	.LFB8
 4622 003c 88000000 		.4byte	.LFE8
 4623 0040 00000000 		.4byte	.LFB9
 4624 0044 18000000 		.4byte	.LFE9
 4625 0048 00000000 		.4byte	.LFB10
 4626 004c 02000000 		.4byte	.LFE10
 4627 0050 00000000 		.4byte	.LFB12
 4628 0054 60000000 		.4byte	.LFE12
 4629 0058 00000000 		.4byte	.LFB13
 4630 005c 48000000 		.4byte	.LFE13
 4631 0060 00000000 		.4byte	.LFB14
 4632 0064 0A000000 		.4byte	.LFE14
 4633 0068 00000000 		.4byte	.LFB15
 4634 006c 08000000 		.4byte	.LFE15
 4635 0070 00000000 		.4byte	0
 4636 0074 00000000 		.4byte	0
 4637              		.section	.debug_line,"",%progbits
 4638              	.Ldebug_line0:
 4639 0000 58030000 		.section	.debug_str,"MS",%progbits,1
 4639      02005101 
ARM GAS  C:\Users\Intern\AppData\Local\Temp\ccD9JYVi.s 			page 110


 4639      00000201 
 4639      FB0E0D00 
 4639      01010101 
 4640              	.LASF250:
 4641 0000 6379426C 		.ascii	"cyBle_peerBonding\000"
 4641      655F7065 
 4641      6572426F 
 4641      6E64696E 
 4641      6700
 4642              	.LASF159:
 4643 0012 7363616E 		.ascii	"scanRspData\000"
 4643      52737044 
 4643      61746100 
 4644              	.LASF17:
 4645 001e 73697A65 		.ascii	"sizetype\000"
 4645      74797065 
 4645      00
 4646              	.LASF38:
 4647 0027 4359424C 		.ascii	"CYBLE_EVT_GAP_NUMERIC_COMPARISON_REQUEST\000"
 4647      455F4556 
 4647      545F4741 
 4647      505F4E55 
 4647      4D455249 
 4648              	.LASF214:
 4649 0050 61706952 		.ascii	"apiResult\000"
 4649      6573756C 
 4649      7400
 4650              	.LASF32:
 4651 005a 4359424C 		.ascii	"CYBLE_EVT_GAP_DEVICE_CONNECTED\000"
 4651      455F4556 
 4651      545F4741 
 4651      505F4445 
 4651      56494345 
 4652              	.LASF50:
 4653 0079 4359424C 		.ascii	"CYBLE_EVT_GATT_CONNECT_IND\000"
 4653      455F4556 
 4653      545F4741 
 4653      54545F43 
 4653      4F4E4E45 
 4654              	.LASF276:
 4655 0094 4379426C 		.ascii	"CyBle_ChangeAdLocalName\000"
 4655      655F4368 
 4655      616E6765 
 4655      41644C6F 
 4655      63616C4E 
 4656              	.LASF11:
 4657 00ac 75696E74 		.ascii	"uint32\000"
 4657      333200
 4658              	.LASF209:
 4659 00b3 64657374 		.ascii	"destBuffer\000"
 4659      42756666 
 4659      657200
 4660              	.LASF162:
 4661 00be 64697363 		.ascii	"discMode\000"
 4661      4D6F6465 
 4661      00
 4662              	.LASF106:
ARM GAS  C:\Users\Intern\AppData\Local\Temp\ccD9JYVi.s 			page 111


 4663 00c7 4359424C 		.ascii	"CYBLE_ERROR_L2CAP_CONNECTION_ENTITY_NOT_FOUND\000"
 4663      455F4552 
 4663      524F525F 
 4663      4C324341 
 4663      505F434F 
 4664              	.LASF112:
 4665 00f5 4359424C 		.ascii	"CYBLE_ERROR_MIC_AUTH_FAILED\000"
 4665      455F4552 
 4665      524F525F 
 4665      4D49435F 
 4665      41555448 
 4666              	.LASF269:
 4667 0111 4379426C 		.ascii	"CyBle_GapGetPeerBdHandle\000"
 4667      655F4761 
 4667      70476574 
 4667      50656572 
 4667      42644861 
 4668              	.LASF14:
 4669 012a 63686172 		.ascii	"char8\000"
 4669      3800
 4670              	.LASF82:
 4671 0130 4359424C 		.ascii	"CYBLE_EVT_L2CAP_CBFC_RX_CREDIT_IND\000"
 4671      455F4556 
 4671      545F4C32 
 4671      4341505F 
 4671      43424643 
 4672              	.LASF273:
 4673 0153 474E5520 		.ascii	"GNU C11 5.4.1 20160609 (release) [ARM/embedded-5-br"
 4673      43313120 
 4673      352E342E 
 4673      31203230 
 4673      31363036 
 4674 0186 616E6368 		.ascii	"anch revision 237715] -mcpu=cortex-m0 -mthumb -g -O"
 4674      20726576 
 4674      6973696F 
 4674      6E203233 
 4674      37373135 
 4675 01b9 67202D66 		.ascii	"g -ffunction-sections -ffat-lto-objects\000"
 4675      66756E63 
 4675      74696F6E 
 4675      2D736563 
 4675      74696F6E 
 4676              	.LASF226:
 4677 01e1 62446576 		.ascii	"bDevHandle\000"
 4677      48616E64 
 4677      6C6500
 4678              	.LASF181:
 4679 01ec 7065726D 		.ascii	"permission\000"
 4679      69737369 
 4679      6F6E00
 4680              	.LASF126:
 4681 01f7 74797065 		.ascii	"type\000"
 4681      00
 4682              	.LASF185:
 4683 01fc 4359424C 		.ascii	"CYBLE_CALLBACK_T\000"
 4683      455F4341 
 4683      4C4C4241 
ARM GAS  C:\Users\Intern\AppData\Local\Temp\ccD9JYVi.s 			page 112


 4683      434B5F54 
 4683      00
 4684              	.LASF67:
 4685 020d 4359424C 		.ascii	"CYBLE_EVT_GATTC_HANDLE_VALUE_NTF\000"
 4685      455F4556 
 4685      545F4741 
 4685      5454435F 
 4685      48414E44 
 4686              	.LASF26:
 4687 022e 4359424C 		.ascii	"CYBLE_EVT_GAP_AUTH_REQ\000"
 4687      455F4556 
 4687      545F4741 
 4687      505F4155 
 4687      54485F52 
 4688              	.LASF169:
 4689 0245 4359424C 		.ascii	"CYBLE_CONN_HANDLE_T\000"
 4689      455F434F 
 4689      4E4E5F48 
 4689      414E444C 
 4689      455F5400 
 4690              	.LASF213:
 4691 0259 63616C6C 		.ascii	"callbackFunc\000"
 4691      6261636B 
 4691      46756E63 
 4691      00
 4692              	.LASF101:
 4693 0266 4359424C 		.ascii	"CYBLE_ERROR_BT_ON_NOT_COMPLETED\000"
 4693      455F4552 
 4693      524F525F 
 4693      42545F4F 
 4693      4E5F4E4F 
 4694              	.LASF47:
 4695 0286 4359424C 		.ascii	"CYBLE_EVT_GAP_AUTH_REQ_REPLY_ERR\000"
 4695      455F4556 
 4695      545F4741 
 4695      505F4155 
 4695      54485F52 
 4696              	.LASF194:
 4697 02a7 4359424C 		.ascii	"CYBLE_STATE_ADVERTISING\000"
 4697      455F5354 
 4697      4154455F 
 4697      41445645 
 4697      52544953 
 4698              	.LASF40:
 4699 02bf 4359424C 		.ascii	"CYBLE_EVT_GAP_OOB_GENERATED_NOTIFICATION\000"
 4699      455F4556 
 4699      545F4741 
 4699      505F4F4F 
 4699      425F4745 
 4700              	.LASF167:
 4701 02e8 62644861 		.ascii	"bdHandle\000"
 4701      6E646C65 
 4701      00
 4702              	.LASF134:
 4703 02f1 4359424C 		.ascii	"CYBLE_DLE_CONFIG_PARAM_T\000"
 4703      455F444C 
 4703      455F434F 
ARM GAS  C:\Users\Intern\AppData\Local\Temp\ccD9JYVi.s 			page 113


 4703      4E464947 
 4703      5F504152 
 4704              	.LASF63:
 4705 030a 4359424C 		.ascii	"CYBLE_EVT_GATTS_WRITE_CMD_REQ\000"
 4705      455F4556 
 4705      545F4741 
 4705      5454535F 
 4705      57524954 
 4706              	.LASF83:
 4707 0328 4359424C 		.ascii	"CYBLE_EVT_L2CAP_CBFC_TX_CREDIT_IND\000"
 4707      455F4556 
 4707      545F4C32 
 4707      4341505F 
 4707      43424643 
 4708              	.LASF4:
 4709 034b 6C6F6E67 		.ascii	"long int\000"
 4709      20696E74 
 4709      00
 4710              	.LASF211:
 4711 0354 4379426C 		.ascii	"CyBle_ServiceInit\000"
 4711      655F5365 
 4711      72766963 
 4711      65496E69 
 4711      7400
 4712              	.LASF229:
 4713 0366 61647665 		.ascii	"advertisingIntervalType\000"
 4713      72746973 
 4713      696E6749 
 4713      6E746572 
 4713      76616C54 
 4714              	.LASF130:
 4715 037e 4359424C 		.ascii	"CYBLE_STK_APP_DATA_BUFF_T\000"
 4715      455F5354 
 4715      4B5F4150 
 4715      505F4441 
 4715      54415F42 
 4716              	.LASF137:
 4717 0398 646C6543 		.ascii	"dleConfig\000"
 4717      6F6E6669 
 4717      6700
 4718              	.LASF267:
 4719 03a2 4379426C 		.ascii	"CyBle_StoreStackData\000"
 4719      655F5374 
 4719      6F726553 
 4719      7461636B 
 4719      44617461 
 4720              	.LASF218:
 4721 03b7 73746163 		.ascii	"stackConfig\000"
 4721      6B436F6E 
 4721      66696700 
 4722              	.LASF19:
 4723 03c3 4359424C 		.ascii	"CYBLE_EVT_STACK_ON\000"
 4723      455F4556 
 4723      545F5354 
 4723      41434B5F 
 4723      4F4E00
 4724              	.LASF108:
ARM GAS  C:\Users\Intern\AppData\Local\Temp\ccD9JYVi.s 			page 114


 4725 03d6 4359424C 		.ascii	"CYBLE_ERROR_L2CAP_PSM_NOT_IN_RANGE\000"
 4725      455F4552 
 4725      524F525F 
 4725      4C324341 
 4725      505F5053 
 4726              	.LASF245:
 4727 03f9 6379426C 		.ascii	"cyBle_discoveryParam\000"
 4727      655F6469 
 4727      73636F76 
 4727      65727950 
 4727      6172616D 
 4728              	.LASF266:
 4729 040e 4379426C 		.ascii	"CyBle_StoreAppData\000"
 4729      655F5374 
 4729      6F726541 
 4729      70704461 
 4729      746100
 4730              	.LASF243:
 4731 0421 6379426C 		.ascii	"cyBle_deviceAddress\000"
 4731      655F6465 
 4731      76696365 
 4731      41646472 
 4731      65737300 
 4732              	.LASF121:
 4733 0435 4359424C 		.ascii	"CYBLE_ERROR_CHAR_IS_NOT_DISCOVERED\000"
 4733      455F4552 
 4733      524F525F 
 4733      43484152 
 4733      5F49535F 
 4734              	.LASF180:
 4735 0458 61747454 		.ascii	"attType\000"
 4735      79706500 
 4736              	.LASF144:
 4737 0460 4359424C 		.ascii	"CYBLE_GAPP_NON_CONNECTABLE_UNDIRECTED_ADV\000"
 4737      455F4741 
 4737      50505F4E 
 4737      4F4E5F43 
 4737      4F4E4E45 
 4738              	.LASF76:
 4739 048a 4359424C 		.ascii	"CYBLE_EVT_L2CAP_COMMAND_REJ\000"
 4739      455F4556 
 4739      545F4C32 
 4739      4341505F 
 4739      434F4D4D 
 4740              	.LASF202:
 4741 04a6 7270614F 		.ascii	"rpaOnlyCharHandle\000"
 4741      6E6C7943 
 4741      68617248 
 4741      616E646C 
 4741      6500
 4742              	.LASF109:
 4743 04b8 4359424C 		.ascii	"CYBLE_ERROR_GATT_DB_INVALID_ATTR_HANDLE\000"
 4743      455F4552 
 4743      524F525F 
 4743      47415454 
 4743      5F44425F 
 4744              	.LASF0:
ARM GAS  C:\Users\Intern\AppData\Local\Temp\ccD9JYVi.s 			page 115


 4745 04e0 7369676E 		.ascii	"signed char\000"
 4745      65642063 
 4745      68617200 
 4746              	.LASF225:
 4747 04ec 4379426C 		.ascii	"CyBle_GapRemoveBondedDevice\000"
 4747      655F4761 
 4747      7052656D 
 4747      6F766542 
 4747      6F6E6465 
 4748              	.LASF129:
 4749 0508 62756666 		.ascii	"bufferUnits\000"
 4749      6572556E 
 4749      69747300 
 4750              	.LASF21:
 4751 0514 4359424C 		.ascii	"CYBLE_EVT_HARDWARE_ERROR\000"
 4751      455F4556 
 4751      545F4841 
 4751      52445741 
 4751      52455F45 
 4752              	.LASF90:
 4753 052d 4359424C 		.ascii	"CYBLE_ERROR_OK\000"
 4753      455F4552 
 4753      524F525F 
 4753      4F4B00
 4754              	.LASF54:
 4755 053c 4359424C 		.ascii	"CYBLE_EVT_GATTC_READ_BY_GROUP_TYPE_RSP\000"
 4755      455F4556 
 4755      545F4741 
 4755      5454435F 
 4755      52454144 
 4756              	.LASF191:
 4757 0563 4359424C 		.ascii	"CYBLE_STATE_STOPPED\000"
 4757      455F5354 
 4757      4154455F 
 4757      53544F50 
 4757      50454400 
 4758              	.LASF1:
 4759 0577 756E7369 		.ascii	"unsigned char\000"
 4759      676E6564 
 4759      20636861 
 4759      7200
 4760              	.LASF53:
 4761 0585 4359424C 		.ascii	"CYBLE_EVT_GATTC_XCHNG_MTU_RSP\000"
 4761      455F4556 
 4761      545F4741 
 4761      5454435F 
 4761      5843484E 
 4762              	.LASF44:
 4763 05a3 4359424C 		.ascii	"CYBLE_EVT_GAP_SMP_NEGOTIATED_AUTH_INFO\000"
 4763      455F4556 
 4763      545F4741 
 4763      505F534D 
 4763      505F4E45 
 4764              	.LASF45:
 4765 05ca 4359424C 		.ascii	"CYBLE_EVT_GAP_CONN_ESTB\000"
 4765      455F4556 
 4765      545F4741 
ARM GAS  C:\Users\Intern\AppData\Local\Temp\ccD9JYVi.s 			page 116


 4765      505F434F 
 4765      4E4E5F45 
 4766              	.LASF147:
 4767 05e2 61647649 		.ascii	"advIntvMin\000"
 4767      6E74764D 
 4767      696E00
 4768              	.LASF179:
 4769 05ed 61747448 		.ascii	"attHandle\000"
 4769      616E646C 
 4769      6500
 4770              	.LASF228:
 4771 05f7 4379426C 		.ascii	"CyBle_GappStartAdvertisement\000"
 4771      655F4761 
 4771      70705374 
 4771      61727441 
 4771      64766572 
 4772              	.LASF158:
 4773 0614 4359424C 		.ascii	"CYBLE_GAPP_DISC_DATA_T\000"
 4773      455F4741 
 4773      50505F44 
 4773      4953435F 
 4773      44415441 
 4774              	.LASF80:
 4775 062b 4359424C 		.ascii	"CYBLE_EVT_L2CAP_CBFC_DISCONN_CNF\000"
 4775      455F4556 
 4775      545F4C32 
 4775      4341505F 
 4775      43424643 
 4776              	.LASF57:
 4777 064c 4359424C 		.ascii	"CYBLE_EVT_GATTC_FIND_BY_TYPE_VALUE_RSP\000"
 4777      455F4556 
 4777      545F4741 
 4777      5454435F 
 4777      46494E44 
 4778              	.LASF41:
 4779 0673 4359424C 		.ascii	"CYBLE_EVT_GAP_DATA_LENGTH_CHANGE\000"
 4779      455F4556 
 4779      545F4741 
 4779      505F4441 
 4779      54415F4C 
 4780              	.LASF15:
 4781 0694 63686172 		.ascii	"char\000"
 4781      00
 4782              	.LASF261:
 4783 0699 4379426C 		.ascii	"CyBle_StackInit\000"
 4783      655F5374 
 4783      61636B49 
 4783      6E697400 
 4784              	.LASF173:
 4785 06a9 6D617841 		.ascii	"maxAttrLength\000"
 4785      7474724C 
 4785      656E6774 
 4785      6800
 4786              	.LASF60:
 4787 06b7 4359424C 		.ascii	"CYBLE_EVT_GATTC_READ_MULTI_RSP\000"
 4787      455F4556 
 4787      545F4741 
ARM GAS  C:\Users\Intern\AppData\Local\Temp\ccD9JYVi.s 			page 117


 4787      5454435F 
 4787      52454144 
 4788              	.LASF18:
 4789 06d6 4359424C 		.ascii	"CYBLE_EVT_HOST_INVALID\000"
 4789      455F4556 
 4789      545F484F 
 4789      53545F49 
 4789      4E56414C 
 4790              	.LASF272:
 4791 06ed 4379426C 		.ascii	"CyBle_GappExitDiscoveryMode\000"
 4791      655F4761 
 4791      70704578 
 4791      69744469 
 4791      73636F76 
 4792              	.LASF234:
 4793 0709 4379426C 		.ascii	"CyBle_GapGetLocalName\000"
 4793      655F4761 
 4793      70476574 
 4793      4C6F6361 
 4793      6C4E616D 
 4794              	.LASF43:
 4795 071f 4359424C 		.ascii	"CYBLE_EVT_GAPC_DIRECT_ADV_REPORT\000"
 4795      455F4556 
 4795      545F4741 
 4795      50435F44 
 4795      49524543 
 4796              	.LASF97:
 4797 0740 4359424C 		.ascii	"CYBLE_ERROR_NO_DEVICE_ENTITY\000"
 4797      455F4552 
 4797      524F525F 
 4797      4E4F5F44 
 4797      45564943 
 4798              	.LASF59:
 4799 075d 4359424C 		.ascii	"CYBLE_EVT_GATTC_READ_BLOB_RSP\000"
 4799      455F4556 
 4799      545F4741 
 4799      5454435F 
 4799      52454144 
 4800              	.LASF66:
 4801 077b 4359424C 		.ascii	"CYBLE_EVT_GATTC_EXEC_WRITE_RSP\000"
 4801      455F4556 
 4801      545F4741 
 4801      5454435F 
 4801      45584543 
 4802              	.LASF212:
 4803 079a 4379426C 		.ascii	"CyBle_Init\000"
 4803      655F496E 
 4803      697400
 4804              	.LASF71:
 4805 07a5 4359424C 		.ascii	"CYBLE_EVT_GATTC_STOP_CMD_COMPLETE\000"
 4805      455F4556 
 4805      545F4741 
 4805      5454435F 
 4805      53544F50 
 4806              	.LASF164:
 4807 07c7 61647654 		.ascii	"advTo\000"
 4807      6F00
ARM GAS  C:\Users\Intern\AppData\Local\Temp\ccD9JYVi.s 			page 118


 4808              	.LASF184:
 4809 07cd 4359424C 		.ascii	"CYBLE_GATTS_DB_T\000"
 4809      455F4741 
 4809      5454535F 
 4809      44425F54 
 4809      00
 4810              	.LASF238:
 4811 07de 6379426C 		.ascii	"cyBle_pendingFlashClearCccdHandle\000"
 4811      655F7065 
 4811      6E64696E 
 4811      67466C61 
 4811      7368436C 
 4812              	.LASF230:
 4813 0800 4379426C 		.ascii	"CyBle_GappStopAdvertisement\000"
 4813      655F4761 
 4813      70705374 
 4813      6F704164 
 4813      76657274 
 4814              	.LASF263:
 4815 081c 4379426C 		.ascii	"CyBle_Shutdown\000"
 4815      655F5368 
 4815      7574646F 
 4815      776E00
 4816              	.LASF117:
 4817 082b 4359424C 		.ascii	"CYBLE_ERROR_CONTROLLER_BUSY\000"
 4817      455F4552 
 4817      524F525F 
 4817      434F4E54 
 4817      524F4C4C 
 4818              	.LASF91:
 4819 0847 4359424C 		.ascii	"CYBLE_ERROR_INVALID_PARAMETER\000"
 4819      455F4552 
 4819      524F525F 
 4819      494E5641 
 4819      4C49445F 
 4820              	.LASF215:
 4821 0865 6379426C 		.ascii	"cyBle_stackDataBuff\000"
 4821      655F7374 
 4821      61636B44 
 4821      61746142 
 4821      75666600 
 4822              	.LASF189:
 4823 0879 626F756E 		.ascii	"boundedDevCount\000"
 4823      64656444 
 4823      6576436F 
 4823      756E7400 
 4824              	.LASF219:
 4825 0889 66656174 		.ascii	"featureHeapReq\000"
 4825      75726548 
 4825      65617052 
 4825      657100
 4826              	.LASF145:
 4827 0898 4359424C 		.ascii	"CYBLE_GAPP_CONNECTABLE_LOW_DC_DIRECTED_ADV\000"
 4827      455F4741 
 4827      50505F43 
 4827      4F4E4E45 
 4827      43544142 
ARM GAS  C:\Users\Intern\AppData\Local\Temp\ccD9JYVi.s 			page 119


 4828              	.LASF93:
 4829 08c3 4359424C 		.ascii	"CYBLE_ERROR_MEMORY_ALLOCATION_FAILED\000"
 4829      455F4552 
 4829      524F525F 
 4829      4D454D4F 
 4829      52595F41 
 4830              	.LASF244:
 4831 08e8 6379426C 		.ascii	"cyBle_sflashDeviceAddress\000"
 4831      655F7366 
 4831      6C617368 
 4831      44657669 
 4831      63654164 
 4832              	.LASF187:
 4833 0902 61747456 		.ascii	"attValuesCCCDFlashMemory\000"
 4833      616C7565 
 4833      73434343 
 4833      44466C61 
 4833      73684D65 
 4834              	.LASF118:
 4835 091b 4359424C 		.ascii	"CYBLE_ERROR_MAX\000"
 4835      455F4552 
 4835      524F525F 
 4835      4D415800 
 4836              	.LASF75:
 4837 092b 4359424C 		.ascii	"CYBLE_EVT_L2CAP_CONN_PARAM_UPDATE_RSP\000"
 4837      455F4556 
 4837      545F4C32 
 4837      4341505F 
 4837      434F4E4E 
 4838              	.LASF87:
 4839 0951 4359424C 		.ascii	"CYBLE_EVT_HCI_PKT\000"
 4839      455F4556 
 4839      545F4843 
 4839      495F504B 
 4839      5400
 4840              	.LASF186:
 4841 0963 73746163 		.ascii	"stackFlashptr\000"
 4841      6B466C61 
 4841      73687074 
 4841      7200
 4842              	.LASF155:
 4843 0971 4359424C 		.ascii	"CYBLE_GAPP_DISC_PARAM_T\000"
 4843      455F4741 
 4843      50505F44 
 4843      4953435F 
 4843      50415241 
 4844              	.LASF210:
 4845 0989 6D61784C 		.ascii	"maxLength\000"
 4845      656E6774 
 4845      6800
 4846              	.LASF29:
 4847 0993 4359424C 		.ascii	"CYBLE_EVT_GAP_AUTH_COMPLETE\000"
 4847      455F4556 
 4847      545F4741 
 4847      505F4155 
 4847      54485F43 
 4848              	.LASF154:
ARM GAS  C:\Users\Intern\AppData\Local\Temp\ccD9JYVi.s 			page 120


 4849 09af 61647646 		.ascii	"advFilterPolicy\000"
 4849      696C7465 
 4849      72506F6C 
 4849      69637900 
 4850              	.LASF30:
 4851 09bf 4359424C 		.ascii	"CYBLE_EVT_GAP_AUTH_FAILED\000"
 4851      455F4556 
 4851      545F4741 
 4851      505F4155 
 4851      54485F46 
 4852              	.LASF123:
 4853 09d9 4359424C 		.ascii	"CYBLE_ERROR_STACK_BUSY\000"
 4853      455F4552 
 4853      524F525F 
 4853      53544143 
 4853      4B5F4255 
 4854              	.LASF260:
 4855 09f0 4379426C 		.ascii	"CyBle_StackSetFeatureConfig\000"
 4855      655F5374 
 4855      61636B53 
 4855      65744665 
 4855      61747572 
 4856              	.LASF149:
 4857 0a0c 61647654 		.ascii	"advType\000"
 4857      79706500 
 4858              	.LASF94:
 4859 0a14 4359424C 		.ascii	"CYBLE_ERROR_INSUFFICIENT_RESOURCES\000"
 4859      455F4552 
 4859      524F525F 
 4859      494E5355 
 4859      46464943 
 4860              	.LASF5:
 4861 0a37 6C6F6E67 		.ascii	"long unsigned int\000"
 4861      20756E73 
 4861      69676E65 
 4861      6420696E 
 4861      7400
 4862              	.LASF114:
 4863 0a49 4359424C 		.ascii	"CYBLE_ERROR_UNSUPPORTED_FEATURE_OR_PARAMETER_VALUE\000"
 4863      455F4552 
 4863      524F525F 
 4863      554E5355 
 4863      50504F52 
 4864              	.LASF190:
 4865 0a7c 43595F42 		.ascii	"CY_BLE_FLASH_STORAGE\000"
 4865      4C455F46 
 4865      4C415348 
 4865      5F53544F 
 4865      52414745 
 4866              	.LASF135:
 4867 0a91 7265736F 		.ascii	"resolvingListSize\000"
 4867      6C76696E 
 4867      674C6973 
 4867      7453697A 
 4867      6500
 4868              	.LASF104:
 4869 0aa3 4359424C 		.ascii	"CYBLE_ERROR_L2CAP_PSM_ALREADY_REGISTERED\000"
ARM GAS  C:\Users\Intern\AppData\Local\Temp\ccD9JYVi.s 			page 121


 4869      455F4552 
 4869      524F525F 
 4869      4C324341 
 4869      505F5053 
 4870              	.LASF177:
 4871 0acc 61747456 		.ascii	"attValueUuid\000"
 4871      616C7565 
 4871      55756964 
 4871      00
 4872              	.LASF271:
 4873 0ad9 4379426C 		.ascii	"CyBle_GappEnterDiscoveryMode\000"
 4873      655F4761 
 4873      7070456E 
 4873      74657244 
 4873      6973636F 
 4874              	.LASF35:
 4875 0af6 4359424C 		.ascii	"CYBLE_EVT_GAP_CONNECTION_UPDATE_COMPLETE\000"
 4875      455F4556 
 4875      545F4741 
 4875      505F434F 
 4875      4E4E4543 
 4876              	.LASF256:
 4877 0b1f 6379426C 		.ascii	"cyBle_busyStatus\000"
 4877      655F6275 
 4877      73795374 
 4877      61747573 
 4877      00
 4878              	.LASF231:
 4879 0b30 4379426C 		.ascii	"CyBle_ChangeAdDeviceAddress\000"
 4879      655F4368 
 4879      616E6765 
 4879      41644465 
 4879      76696365 
 4880              	.LASF192:
 4881 0b4c 4359424C 		.ascii	"CYBLE_STATE_INITIALIZING\000"
 4881      455F5354 
 4881      4154455F 
 4881      494E4954 
 4881      49414C49 
 4882              	.LASF79:
 4883 0b65 4359424C 		.ascii	"CYBLE_EVT_L2CAP_CBFC_DISCONN_IND\000"
 4883      455F4556 
 4883      545F4C32 
 4883      4341505F 
 4883      43424643 
 4884              	.LASF220:
 4885 0b86 4379426C 		.ascii	"CyBle_Stop\000"
 4885      655F5374 
 4885      6F7000
 4886              	.LASF27:
 4887 0b91 4359424C 		.ascii	"CYBLE_EVT_GAP_PASSKEY_ENTRY_REQUEST\000"
 4887      455F4556 
 4887      545F4741 
 4887      505F5041 
 4887      53534B45 
 4888              	.LASF140:
 4889 0bb5 4359424C 		.ascii	"CYBLE_STACK_CONFIG_PARAM_T\000"
ARM GAS  C:\Users\Intern\AppData\Local\Temp\ccD9JYVi.s 			page 122


 4889      455F5354 
 4889      41434B5F 
 4889      434F4E46 
 4889      49475F50 
 4890              	.LASF131:
 4891 0bd0 646C654D 		.ascii	"dleMaxTxCapability\000"
 4891      61785478 
 4891      43617061 
 4891      62696C69 
 4891      747900
 4892              	.LASF253:
 4893 0be3 6379426C 		.ascii	"cyBle_flashStorage\000"
 4893      655F666C 
 4893      61736853 
 4893      746F7261 
 4893      676500
 4894              	.LASF6:
 4895 0bf6 6C6F6E67 		.ascii	"long long int\000"
 4895      206C6F6E 
 4895      6720696E 
 4895      7400
 4896              	.LASF163:
 4897 0c04 61647650 		.ascii	"advParam\000"
 4897      6172616D 
 4897      00
 4898              	.LASF105:
 4899 0c0d 4359424C 		.ascii	"CYBLE_ERROR_L2CAP_PSM_NOT_REGISTERED\000"
 4899      455F4552 
 4899      524F525F 
 4899      4C324341 
 4899      505F5053 
 4900              	.LASF95:
 4901 0c32 4359424C 		.ascii	"CYBLE_ERROR_OOB_NOT_AVAILABLE\000"
 4901      455F4552 
 4901      524F525F 
 4901      4F4F425F 
 4901      4E4F545F 
 4902              	.LASF13:
 4903 0c50 646F7562 		.ascii	"double\000"
 4903      6C6500
 4904              	.LASF110:
 4905 0c57 4359424C 		.ascii	"CYBLE_ERROR_DEVICE_ALREADY_EXISTS\000"
 4905      455F4552 
 4905      524F525F 
 4905      44455649 
 4905      43455F41 
 4906              	.LASF85:
 4907 0c79 4359424C 		.ascii	"CYBLE_EVT_PENDING_FLASH_WRITE\000"
 4907      455F4556 
 4907      545F5045 
 4907      4E44494E 
 4907      475F464C 
 4908              	.LASF258:
 4909 0c97 6379426C 		.ascii	"cyBle_advertisingIntervalType\000"
 4909      655F6164 
 4909      76657274 
 4909      6973696E 
ARM GAS  C:\Users\Intern\AppData\Local\Temp\ccD9JYVi.s 			page 123


 4909      67496E74 
 4910              	.LASF198:
 4911 0cb5 64657669 		.ascii	"deviceNameCharHandle\000"
 4911      63654E61 
 4911      6D654368 
 4911      61724861 
 4911      6E646C65 
 4912              	.LASF151:
 4913 0cca 64697265 		.ascii	"directAddrType\000"
 4913      63744164 
 4913      64725479 
 4913      706500
 4914              	.LASF42:
 4915 0cd9 4359424C 		.ascii	"CYBLE_EVT_GAP_ENHANCE_CONN_COMPLETE\000"
 4915      455F4556 
 4915      545F4741 
 4915      505F454E 
 4915      48414E43 
 4916              	.LASF107:
 4917 0cfd 4359424C 		.ascii	"CYBLE_ERROR_L2CAP_CHANNEL_NOT_FOUND\000"
 4917      455F4552 
 4917      524F525F 
 4917      4C324341 
 4917      505F4348 
 4918              	.LASF136:
 4919 0d21 4359424C 		.ascii	"CYBLE_PRIVACY_1_2_CONFIG_PARAM_T\000"
 4919      455F5052 
 4919      49564143 
 4919      595F315F 
 4919      325F434F 
 4920              	.LASF251:
 4921 0d42 6379426C 		.ascii	"cyBle_gattDB\000"
 4921      655F6761 
 4921      74744442 
 4921      00
 4922              	.LASF98:
 4923 0d4f 4359424C 		.ascii	"CYBLE_ERROR_REPEATED_ATTEMPTS\000"
 4923      455F4552 
 4923      524F525F 
 4923      52455045 
 4923      41544544 
 4924              	.LASF12:
 4925 0d6d 666C6F61 		.ascii	"float\000"
 4925      7400
 4926              	.LASF111:
 4927 0d73 4359424C 		.ascii	"CYBLE_ERROR_FLASH_WRITE_NOT_PERMITED\000"
 4927      455F4552 
 4927      524F525F 
 4927      464C4153 
 4927      485F5752 
 4928              	.LASF72:
 4929 0d98 4359424C 		.ascii	"CYBLE_EVT_GATTS_READ_CHAR_VAL_ACCESS_REQ\000"
 4929      455F4556 
 4929      545F4741 
 4929      5454535F 
 4929      52454144 
 4930              	.LASF224:
ARM GAS  C:\Users\Intern\AppData\Local\Temp\ccD9JYVi.s 			page 124


 4931 0dc1 64656661 		.ascii	"defaultValuesCCCD\000"
 4931      756C7456 
 4931      616C7565 
 4931      73434343 
 4931      4400
 4932              	.LASF133:
 4933 0dd3 646C654E 		.ascii	"dleNumTxBuffer\000"
 4933      756D5478 
 4933      42756666 
 4933      657200
 4934              	.LASF8:
 4935 0de2 756E7369 		.ascii	"unsigned int\000"
 4935      676E6564 
 4935      20696E74 
 4935      00
 4936              	.LASF139:
 4937 0def 66656174 		.ascii	"feature_mask\000"
 4937      7572655F 
 4937      6D61736B 
 4937      00
 4938              	.LASF64:
 4939 0dfc 4359424C 		.ascii	"CYBLE_EVT_GATTS_PREP_WRITE_REQ\000"
 4939      455F4556 
 4939      545F4741 
 4939      5454535F 
 4939      50524550 
 4940              	.LASF182:
 4941 0e1b 61747445 		.ascii	"attEndHandle\000"
 4941      6E644861 
 4941      6E646C65 
 4941      00
 4942              	.LASF206:
 4943 0e28 666C6167 		.ascii	"flag\000"
 4943      00
 4944              	.LASF236:
 4945 0e2d 4379426C 		.ascii	"CyBle_Set16ByPtr\000"
 4945      655F5365 
 4945      74313642 
 4945      79507472 
 4945      00
 4946              	.LASF103:
 4947 0e3e 4359424C 		.ascii	"CYBLE_ERROR_L2CAP_PSM_WRONG_ENCODING\000"
 4947      455F4552 
 4947      524F525F 
 4947      4C324341 
 4947      505F5053 
 4948              	.LASF233:
 4949 0e63 63686172 		.ascii	"charLen\000"
 4949      4C656E00 
 4950              	.LASF275:
 4951 0e6b 433A5C55 		.ascii	"C:\\Users\\Intern\\Documents\\GitHub\\UV-Sticker\\P"
 4951      73657273 
 4951      5C496E74 
 4951      65726E5C 
 4951      446F6375 
 4952 0e98 736F635C 		.ascii	"soc\\UV-Project\\UV-SG-TEMP.cydsn\000"
 4952      55562D50 
ARM GAS  C:\Users\Intern\AppData\Local\Temp\ccD9JYVi.s 			page 125


 4952      726F6A65 
 4952      63745C55 
 4952      562D5347 
 4953              	.LASF89:
 4954 0eb8 4359424C 		.ascii	"CYBLE_EVT_MAX\000"
 4954      455F4556 
 4954      545F4D41 
 4954      5800
 4955              	.LASF36:
 4956 0ec6 4359424C 		.ascii	"CYBLE_EVT_GAPC_SCAN_START_STOP\000"
 4956      455F4556 
 4956      545F4741 
 4956      50435F53 
 4956      43414E5F 
 4957              	.LASF259:
 4958 0ee5 4379426C 		.ascii	"CyBle_CustomInit\000"
 4958      655F4375 
 4958      73746F6D 
 4958      496E6974 
 4958      00
 4959              	.LASF146:
 4960 0ef6 4359424C 		.ascii	"CYBLE_GAPP_ADV_T\000"
 4960      455F4741 
 4960      50505F41 
 4960      44565F54 
 4960      00
 4961              	.LASF61:
 4962 0f07 4359424C 		.ascii	"CYBLE_EVT_GATTS_WRITE_REQ\000"
 4962      455F4556 
 4962      545F4741 
 4962      5454535F 
 4962      57524954 
 4963              	.LASF156:
 4964 0f21 61647644 		.ascii	"advData\000"
 4964      61746100 
 4965              	.LASF70:
 4966 0f29 4359424C 		.ascii	"CYBLE_EVT_GATTS_DATA_SIGNED_CMD_REQ\000"
 4966      455F4556 
 4966      545F4741 
 4966      5454535F 
 4966      44415441 
 4967              	.LASF247:
 4968 0f4d 6379426C 		.ascii	"cyBle_scanRspData\000"
 4968      655F7363 
 4968      616E5273 
 4968      70446174 
 4968      6100
 4969              	.LASF200:
 4970 0f5f 70726566 		.ascii	"prefConnParamCharHandle\000"
 4970      436F6E6E 
 4970      50617261 
 4970      6D436861 
 4970      7248616E 
 4971              	.LASF28:
 4972 0f77 4359424C 		.ascii	"CYBLE_EVT_GAP_PASSKEY_DISPLAY_REQUEST\000"
 4972      455F4556 
 4972      545F4741 
ARM GAS  C:\Users\Intern\AppData\Local\Temp\ccD9JYVi.s 			page 126


 4972      505F5041 
 4972      53534B45 
 4973              	.LASF120:
 4974 0f9d 4359424C 		.ascii	"CYBLE_ERROR_IND_DISABLED\000"
 4974      455F4552 
 4974      524F525F 
 4974      494E445F 
 4974      44495341 
 4975              	.LASF119:
 4976 0fb6 4359424C 		.ascii	"CYBLE_ERROR_NTF_DISABLED\000"
 4976      455F4552 
 4976      524F525F 
 4976      4E54465F 
 4976      44495341 
 4977              	.LASF58:
 4978 0fcf 4359424C 		.ascii	"CYBLE_EVT_GATTC_READ_RSP\000"
 4978      455F4556 
 4978      545F4741 
 4978      5454435F 
 4978      52454144 
 4979              	.LASF142:
 4980 0fe8 4359424C 		.ascii	"CYBLE_GAPP_CONNECTABLE_HIGH_DC_DIRECTED_ADV\000"
 4980      455F4741 
 4980      50505F43 
 4980      4F4E4E45 
 4980      43544142 
 4981              	.LASF78:
 4982 1014 4359424C 		.ascii	"CYBLE_EVT_L2CAP_CBFC_CONN_CNF\000"
 4982      455F4556 
 4982      545F4C32 
 4982      4341505F 
 4982      43424643 
 4983              	.LASF217:
 4984 1032 70726976 		.ascii	"privacyConfigParams\000"
 4984      61637943 
 4984      6F6E6669 
 4984      67506172 
 4984      616D7300 
 4985              	.LASF172:
 4986 1046 4359424C 		.ascii	"CYBLE_GATTS_ATT_GEN_VAL_LEN_T\000"
 4986      455F4741 
 4986      5454535F 
 4986      4154545F 
 4986      47454E5F 
 4987              	.LASF88:
 4988 1064 4359424C 		.ascii	"CYBLE_EVT_FLASH_CORRUPT\000"
 4988      455F4556 
 4988      545F464C 
 4988      4153485F 
 4988      434F5252 
 4989              	.LASF16:
 4990 107c 6C6F6E67 		.ascii	"long double\000"
 4990      20646F75 
 4990      626C6500 
 4991              	.LASF128:
 4992 1088 62756666 		.ascii	"bufferSize\000"
 4992      65725369 
ARM GAS  C:\Users\Intern\AppData\Local\Temp\ccD9JYVi.s 			page 127


 4992      7A6500
 4993              	.LASF24:
 4994 1093 4359424C 		.ascii	"CYBLE_EVT_MEMORY_REQUEST\000"
 4994      455F4556 
 4994      545F4D45 
 4994      4D4F5259 
 4994      5F524551 
 4995              	.LASF235:
 4996 10ac 4379426C 		.ascii	"CyBle_Get16ByPtr\000"
 4996      655F4765 
 4996      74313642 
 4996      79507472 
 4996      00
 4997              	.LASF199:
 4998 10bd 61707065 		.ascii	"appearanceCharHandle\000"
 4998      6172616E 
 4998      63654368 
 4998      61724861 
 4998      6E646C65 
 4999              	.LASF34:
 5000 10d2 4359424C 		.ascii	"CYBLE_EVT_GAP_ENCRYPT_CHANGE\000"
 5000      455F4556 
 5000      545F4741 
 5000      505F454E 
 5000      43525950 
 5001              	.LASF52:
 5002 10ef 4359424C 		.ascii	"CYBLE_EVT_GATTS_XCNHG_MTU_REQ\000"
 5002      455F4556 
 5002      545F4741 
 5002      5454535F 
 5002      58434E48 
 5003              	.LASF48:
 5004 110d 4359424C 		.ascii	"CYBLE_EVT_GAP_SMP_LOC_P256_KEYS_GEN_AND_SET_COMPLET"
 5004      455F4556 
 5004      545F4741 
 5004      505F534D 
 5004      505F4C4F 
 5005 1140 4500     		.ascii	"E\000"
 5006              	.LASF7:
 5007 1142 6C6F6E67 		.ascii	"long long unsigned int\000"
 5007      206C6F6E 
 5007      6720756E 
 5007      7369676E 
 5007      65642069 
 5008              	.LASF20:
 5009 1159 4359424C 		.ascii	"CYBLE_EVT_TIMEOUT\000"
 5009      455F4556 
 5009      545F5449 
 5009      4D454F55 
 5009      5400
 5010              	.LASF223:
 5011 116b 6973466F 		.ascii	"isForceWrite\000"
 5011      72636557 
 5011      72697465 
 5011      00
 5012              	.LASF122:
 5013 1178 4359424C 		.ascii	"CYBLE_ERROR_INVALID_STATE\000"
ARM GAS  C:\Users\Intern\AppData\Local\Temp\ccD9JYVi.s 			page 128


 5013      455F4552 
 5013      524F525F 
 5013      494E5641 
 5013      4C49445F 
 5014              	.LASF166:
 5015 1192 4359424C 		.ascii	"CYBLE_GATT_DB_ATTR_HANDLE_T\000"
 5015      455F4741 
 5015      54545F44 
 5015      425F4154 
 5015      54525F48 
 5016              	.LASF274:
 5017 11ae 47656E65 		.ascii	"Generated_Source\\PSoC4\\BLE.c\000"
 5017      72617465 
 5017      645F536F 
 5017      75726365 
 5017      5C50536F 
 5018              	.LASF81:
 5019 11cb 4359424C 		.ascii	"CYBLE_EVT_L2CAP_CBFC_DATA_READ\000"
 5019      455F4556 
 5019      545F4C32 
 5019      4341505F 
 5019      43424643 
 5020              	.LASF237:
 5021 11ea 76616C75 		.ascii	"value\000"
 5021      6500
 5022              	.LASF183:
 5023 11f0 61747456 		.ascii	"attValue\000"
 5023      616C7565 
 5023      00
 5024              	.LASF239:
 5025 11f9 4379426C 		.ascii	"CyBle_ApplCallback\000"
 5025      655F4170 
 5025      706C4361 
 5025      6C6C6261 
 5025      636B00
 5026              	.LASF115:
 5027 120c 4359424C 		.ascii	"CYBLE_ERROR_FLASH_WRITE\000"
 5027      455F4552 
 5027      524F525F 
 5027      464C4153 
 5027      485F5752 
 5028              	.LASF203:
 5029 1224 4359424C 		.ascii	"CYBLE_GAPS_T\000"
 5029      455F4741 
 5029      50535F54 
 5029      00
 5030              	.LASF127:
 5031 1231 4359424C 		.ascii	"CYBLE_GAP_BD_ADDR_T\000"
 5031      455F4741 
 5031      505F4244 
 5031      5F414444 
 5031      525F5400 
 5032              	.LASF265:
 5033 1245 6D656D73 		.ascii	"memset\000"
 5033      657400
 5034              	.LASF138:
 5035 124c 70726976 		.ascii	"privacyConfig\000"
ARM GAS  C:\Users\Intern\AppData\Local\Temp\ccD9JYVi.s 			page 129


 5035      61637943 
 5035      6F6E6669 
 5035      6700
 5036              	.LASF170:
 5037 125a 61637475 		.ascii	"actualLength\000"
 5037      616C4C65 
 5037      6E677468 
 5037      00
 5038              	.LASF157:
 5039 1267 61647644 		.ascii	"advDataLen\000"
 5039      6174614C 
 5039      656E00
 5040              	.LASF205:
 5041 1272 64657374 		.ascii	"dest\000"
 5041      00
 5042              	.LASF165:
 5043 1277 4359424C 		.ascii	"CYBLE_GAPP_DISC_MODE_INFO_T\000"
 5043      455F4741 
 5043      50505F44 
 5043      4953435F 
 5043      4D4F4445 
 5044              	.LASF249:
 5045 1293 6379426C 		.ascii	"cyBle_pendingFlashWrite\000"
 5045      655F7065 
 5045      6E64696E 
 5045      67466C61 
 5045      73685772 
 5046              	.LASF56:
 5047 12ab 4359424C 		.ascii	"CYBLE_EVT_GATTC_FIND_INFO_RSP\000"
 5047      455F4556 
 5047      545F4741 
 5047      5454435F 
 5047      46494E44 
 5048              	.LASF55:
 5049 12c9 4359424C 		.ascii	"CYBLE_EVT_GATTC_READ_BY_TYPE_RSP\000"
 5049      455F4556 
 5049      545F4741 
 5049      5454435F 
 5049      52454144 
 5050              	.LASF270:
 5051 12ea 4379426C 		.ascii	"CyBle_GapRemoveDeviceFromWhiteList\000"
 5051      655F4761 
 5051      7052656D 
 5051      6F766544 
 5051      65766963 
 5052              	.LASF221:
 5053 130d 4379426C 		.ascii	"CyBle_Start\000"
 5053      655F5374 
 5053      61727400 
 5054              	.LASF254:
 5055 1319 6379426C 		.ascii	"cyBle_state\000"
 5055      655F7374 
 5055      61746500 
 5056              	.LASF216:
 5057 1325 646C6543 		.ascii	"dleConfigParams\000"
 5057      6F6E6669 
 5057      67506172 
ARM GAS  C:\Users\Intern\AppData\Local\Temp\ccD9JYVi.s 			page 130


 5057      616D7300 
 5058              	.LASF268:
 5059 1335 6D656D63 		.ascii	"memcmp\000"
 5059      6D7000
 5060              	.LASF116:
 5061 133c 4359424C 		.ascii	"CYBLE_ERROR_LL_SAME_TRANSACTION_COLLISION\000"
 5061      455F4552 
 5061      524F525F 
 5061      4C4C5F53 
 5061      414D455F 
 5062              	.LASF62:
 5063 1366 4359424C 		.ascii	"CYBLE_EVT_GATTC_WRITE_RSP\000"
 5063      455F4556 
 5063      545F4741 
 5063      5454435F 
 5063      57524954 
 5064              	.LASF195:
 5065 1380 4359424C 		.ascii	"CYBLE_STATE_DISCONNECTED\000"
 5065      455F5354 
 5065      4154455F 
 5065      44495343 
 5065      4F4E4E45 
 5066              	.LASF178:
 5067 1399 4359424C 		.ascii	"CYBLE_GATTS_ATT_VALUE_T\000"
 5067      455F4741 
 5067      5454535F 
 5067      4154545F 
 5067      56414C55 
 5068              	.LASF175:
 5069 13b1 4359424C 		.ascii	"CYBLE_GATTS_ATT_PACK_VAL_LEN_T\000"
 5069      455F4741 
 5069      5454535F 
 5069      4154545F 
 5069      5041434B 
 5070              	.LASF31:
 5071 13d0 4359424C 		.ascii	"CYBLE_EVT_GAPP_ADVERTISEMENT_START_STOP\000"
 5071      455F4556 
 5071      545F4741 
 5071      50505F41 
 5071      44564552 
 5072              	.LASF161:
 5073 13f8 4359424C 		.ascii	"CYBLE_GAPP_SCAN_RSP_DATA_T\000"
 5073      455F4741 
 5073      50505F53 
 5073      43414E5F 
 5073      5253505F 
 5074              	.LASF171:
 5075 1413 61747447 		.ascii	"attGenericVal\000"
 5075      656E6572 
 5075      69635661 
 5075      6C00
 5076              	.LASF204:
 5077 1421 6E616D65 		.ascii	"name\000"
 5077      00
 5078              	.LASF9:
 5079 1426 75696E74 		.ascii	"uint8\000"
 5079      3800
ARM GAS  C:\Users\Intern\AppData\Local\Temp\ccD9JYVi.s 			page 131


 5080              	.LASF240:
 5081 142c 6379426C 		.ascii	"cyBle_initVar\000"
 5081      655F696E 
 5081      69745661 
 5081      7200
 5082              	.LASF39:
 5083 143a 4359424C 		.ascii	"CYBLE_EVT_GAP_KEYPRESS_NOTIFICATION\000"
 5083      455F4556 
 5083      545F4741 
 5083      505F4B45 
 5083      59505245 
 5084              	.LASF255:
 5085 145e 6379426C 		.ascii	"cyBle_connHandle\000"
 5085      655F636F 
 5085      6E6E4861 
 5085      6E646C65 
 5085      00
 5086              	.LASF2:
 5087 146f 73686F72 		.ascii	"short int\000"
 5087      7420696E 
 5087      7400
 5088              	.LASF232:
 5089 1479 4379426C 		.ascii	"CyBle_GapSetLocalName\000"
 5089      655F4761 
 5089      70536574 
 5089      4C6F6361 
 5089      6C4E616D 
 5090              	.LASF174:
 5091 148f 61747447 		.ascii	"attGenericValLen\000"
 5091      656E6572 
 5091      69635661 
 5091      6C4C656E 
 5091      00
 5092              	.LASF176:
 5093 14a0 61747446 		.ascii	"attFormatValue\000"
 5093      6F726D61 
 5093      7456616C 
 5093      756500
 5094              	.LASF160:
 5095 14af 7363616E 		.ascii	"scanRspDataLen\000"
 5095      52737044 
 5095      6174614C 
 5095      656E00
 5096              	.LASF113:
 5097 14be 4359424C 		.ascii	"CYBLE_ERROR_HARDWARE_FAILURE\000"
 5097      455F4552 
 5097      524F525F 
 5097      48415244 
 5097      57415245 
 5098              	.LASF262:
 5099 14db 4379426C 		.ascii	"CyBle_GattsDbRegister\000"
 5099      655F4761 
 5099      74747344 
 5099      62526567 
 5099      69737465 
 5100              	.LASF49:
 5101 14f1 4359424C 		.ascii	"CYBLE_EVT_GATTC_ERROR_RSP\000"
ARM GAS  C:\Users\Intern\AppData\Local\Temp\ccD9JYVi.s 			page 132


 5101      455F4556 
 5101      545F4741 
 5101      5454435F 
 5101      4552524F 
 5102              	.LASF196:
 5103 150b 4359424C 		.ascii	"CYBLE_STATE_T\000"
 5103      455F5354 
 5103      4154455F 
 5103      5400
 5104              	.LASF143:
 5105 1519 4359424C 		.ascii	"CYBLE_GAPP_SCANNABLE_UNDIRECTED_ADV\000"
 5105      455F4741 
 5105      50505F53 
 5105      43414E4E 
 5105      41424C45 
 5106              	.LASF77:
 5107 153d 4359424C 		.ascii	"CYBLE_EVT_L2CAP_CBFC_CONN_IND\000"
 5107      455F4556 
 5107      545F4C32 
 5107      4341505F 
 5107      43424643 
 5108              	.LASF65:
 5109 155b 4359424C 		.ascii	"CYBLE_EVT_GATTS_EXEC_WRITE_REQ\000"
 5109      455F4556 
 5109      545F4741 
 5109      5454535F 
 5109      45584543 
 5110              	.LASF25:
 5111 157a 4359424C 		.ascii	"CYBLE_EVT_GAPC_SCAN_PROGRESS_RESULT\000"
 5111      455F4556 
 5111      545F4741 
 5111      50435F53 
 5111      43414E5F 
 5112              	.LASF188:
 5113 159e 63636364 		.ascii	"cccdCount\000"
 5113      436F756E 
 5113      7400
 5114              	.LASF248:
 5115 15a8 6379426C 		.ascii	"cyBle_discoveryModeInfo\000"
 5115      655F6469 
 5115      73636F76 
 5115      6572794D 
 5115      6F646549 
 5116              	.LASF99:
 5117 15c0 4359424C 		.ascii	"CYBLE_ERROR_GAP_ROLE\000"
 5117      455F4552 
 5117      524F525F 
 5117      4741505F 
 5117      524F4C45 
 5118              	.LASF241:
 5119 15d5 6379426C 		.ascii	"cyBle_stackMemoryRam\000"
 5119      655F7374 
 5119      61636B4D 
 5119      656D6F72 
 5119      7952616D 
 5120              	.LASF46:
 5121 15ea 4359424C 		.ascii	"CYBLE_EVT_GAP_SCAN_REQ_RECVD\000"
ARM GAS  C:\Users\Intern\AppData\Local\Temp\ccD9JYVi.s 			page 133


 5121      455F4556 
 5121      545F4741 
 5121      505F5343 
 5121      414E5F52 
 5122              	.LASF201:
 5123 1607 63656E74 		.ascii	"centralAddrResolutionCharHandle\000"
 5123      72616C41 
 5123      64647252 
 5123      65736F6C 
 5123      7574696F 
 5124              	.LASF125:
 5125 1627 62644164 		.ascii	"bdAddr\000"
 5125      647200
 5126              	.LASF257:
 5127 162e 6379426C 		.ascii	"cyBle_gaps\000"
 5127      655F6761 
 5127      707300
 5128              	.LASF242:
 5129 1639 6379426C 		.ascii	"cyBle_eventHandlerFlag\000"
 5129      655F6576 
 5129      656E7448 
 5129      616E646C 
 5129      6572466C 
 5130              	.LASF222:
 5131 1650 4379426C 		.ascii	"CyBle_StoreBondingData\000"
 5131      655F5374 
 5131      6F726542 
 5131      6F6E6469 
 5131      6E674461 
 5132              	.LASF96:
 5133 1667 4359424C 		.ascii	"CYBLE_ERROR_NO_CONNECTION\000"
 5133      455F4552 
 5133      524F525F 
 5133      4E4F5F43 
 5133      4F4E4E45 
 5134              	.LASF264:
 5135 1681 6D656D63 		.ascii	"memcpy\000"
 5135      707900
 5136              	.LASF208:
 5137 1688 62797465 		.ascii	"byteCounter\000"
 5137      436F756E 
 5137      74657200 
 5138              	.LASF86:
 5139 1694 4359424C 		.ascii	"CYBLE_EVT_LE_PING_AUTH_TIMEOUT\000"
 5139      455F4556 
 5139      545F4C45 
 5139      5F50494E 
 5139      475F4155 
 5140              	.LASF124:
 5141 16b3 4359424C 		.ascii	"CYBLE_API_RESULT_T\000"
 5141      455F4150 
 5141      495F5245 
 5141      53554C54 
 5141      5F5400
 5142              	.LASF252:
 5143 16c6 6379426C 		.ascii	"cyBle_attValuesCCCD\000"
 5143      655F6174 
ARM GAS  C:\Users\Intern\AppData\Local\Temp\ccD9JYVi.s 			page 134


 5143      7456616C 
 5143      75657343 
 5143      43434400 
 5144              	.LASF68:
 5145 16da 4359424C 		.ascii	"CYBLE_EVT_GATTC_HANDLE_VALUE_IND\000"
 5145      455F4556 
 5145      545F4741 
 5145      5454435F 
 5145      48414E44 
 5146              	.LASF102:
 5147 16fb 4359424C 		.ascii	"CYBLE_ERROR_SEC_FAILED\000"
 5147      455F4552 
 5147      524F525F 
 5147      5345435F 
 5147      4641494C 
 5148              	.LASF227:
 5149 1712 696E7661 		.ascii	"invalidBdAddr\000"
 5149      6C696442 
 5149      64416464 
 5149      7200
 5150              	.LASF23:
 5151 1720 4359424C 		.ascii	"CYBLE_EVT_STACK_BUSY_STATUS\000"
 5151      455F4556 
 5151      545F5354 
 5151      41434B5F 
 5151      42555359 
 5152              	.LASF37:
 5153 173c 4359424C 		.ascii	"CYBLE_EVT_GAP_KEYINFO_EXCHNGE_CMPLT\000"
 5153      455F4556 
 5153      545F4741 
 5153      505F4B45 
 5153      59494E46 
 5154              	.LASF74:
 5155 1760 4359424C 		.ascii	"CYBLE_EVT_L2CAP_CONN_PARAM_UPDATE_REQ\000"
 5155      455F4556 
 5155      545F4C32 
 5155      4341505F 
 5155      434F4E4E 
 5156              	.LASF246:
 5157 1786 6379426C 		.ascii	"cyBle_discoveryData\000"
 5157      655F6469 
 5157      73636F76 
 5157      65727944 
 5157      61746100 
 5158              	.LASF197:
 5159 179a 67617053 		.ascii	"gapServiceCharHandle\000"
 5159      65727669 
 5159      63654368 
 5159      61724861 
 5159      6E646C65 
 5160              	.LASF3:
 5161 17af 73686F72 		.ascii	"short unsigned int\000"
 5161      7420756E 
 5161      7369676E 
 5161      65642069 
 5161      6E7400
 5162              	.LASF152:
ARM GAS  C:\Users\Intern\AppData\Local\Temp\ccD9JYVi.s 			page 135


 5163 17c2 64697265 		.ascii	"directAddr\000"
 5163      63744164 
 5163      647200
 5164              	.LASF193:
 5165 17cd 4359424C 		.ascii	"CYBLE_STATE_CONNECTED\000"
 5165      455F5354 
 5165      4154455F 
 5165      434F4E4E 
 5165      45435445 
 5166              	.LASF132:
 5167 17e3 646C654D 		.ascii	"dleMaxRxCapability\000"
 5167      61785278 
 5167      43617061 
 5167      62696C69 
 5167      747900
 5168              	.LASF153:
 5169 17f6 61647643 		.ascii	"advChannelMap\000"
 5169      68616E6E 
 5169      656C4D61 
 5169      7000
 5170              	.LASF141:
 5171 1804 4359424C 		.ascii	"CYBLE_GAPP_CONNECTABLE_UNDIRECTED_ADV\000"
 5171      455F4741 
 5171      50505F43 
 5171      4F4E4E45 
 5171      43544142 
 5172              	.LASF168:
 5173 182a 61747449 		.ascii	"attId\000"
 5173      6400
 5174              	.LASF92:
 5175 1830 4359424C 		.ascii	"CYBLE_ERROR_INVALID_OPERATION\000"
 5175      455F4552 
 5175      524F525F 
 5175      494E5641 
 5175      4C49445F 
 5176              	.LASF207:
 5177 184e 61644C65 		.ascii	"adLength\000"
 5177      6E677468 
 5177      00
 5178              	.LASF22:
 5179 1857 4359424C 		.ascii	"CYBLE_EVT_HCI_STATUS\000"
 5179      455F4556 
 5179      545F4843 
 5179      495F5354 
 5179      41545553 
 5180              	.LASF51:
 5181 186c 4359424C 		.ascii	"CYBLE_EVT_GATT_DISCONNECT_IND\000"
 5181      455F4556 
 5181      545F4741 
 5181      54545F44 
 5181      4953434F 
 5182              	.LASF84:
 5183 188a 4359424C 		.ascii	"CYBLE_EVT_L2CAP_CBFC_DATA_WRITE_IND\000"
 5183      455F4556 
 5183      545F4C32 
 5183      4341505F 
 5183      43424643 
ARM GAS  C:\Users\Intern\AppData\Local\Temp\ccD9JYVi.s 			page 136


 5184              	.LASF73:
 5185 18ae 4359424C 		.ascii	"CYBLE_EVT_GATTC_LONG_PROCEDURE_END\000"
 5185      455F4556 
 5185      545F4741 
 5185      5454435F 
 5185      4C4F4E47 
 5186              	.LASF33:
 5187 18d1 4359424C 		.ascii	"CYBLE_EVT_GAP_DEVICE_DISCONNECTED\000"
 5187      455F4556 
 5187      545F4741 
 5187      505F4445 
 5187      56494345 
 5188              	.LASF69:
 5189 18f3 4359424C 		.ascii	"CYBLE_EVT_GATTS_HANDLE_VALUE_CNF\000"
 5189      455F4556 
 5189      545F4741 
 5189      5454535F 
 5189      48414E44 
 5190              	.LASF10:
 5191 1914 75696E74 		.ascii	"uint16\000"
 5191      313600
 5192              	.LASF150:
 5193 191b 6F776E41 		.ascii	"ownAddrType\000"
 5193      64647254 
 5193      79706500 
 5194              	.LASF100:
 5195 1927 4359424C 		.ascii	"CYBLE_ERROR_TX_POWER_READ\000"
 5195      455F4552 
 5195      524F525F 
 5195      54585F50 
 5195      4F574552 
 5196              	.LASF148:
 5197 1941 61647649 		.ascii	"advIntvMax\000"
 5197      6E74764D 
 5197      617800
 5198              		.ident	"GCC: (GNU Tools for ARM Embedded Processors) 5.4.1 20160609 (release) [ARM/embedded-5-bran
