ARM GAS  C:\Users\Intern\AppData\Local\Temp\cc8BAy1D.s 			page 1


   1              		.syntax unified
   2              		.cpu cortex-m0
   3              		.fpu softvfp
   4              		.eabi_attribute 20, 1
   5              		.eabi_attribute 21, 1
   6              		.eabi_attribute 23, 3
   7              		.eabi_attribute 24, 1
   8              		.eabi_attribute 25, 1
   9              		.eabi_attribute 26, 1
  10              		.eabi_attribute 30, 1
  11              		.eabi_attribute 34, 0
  12              		.eabi_attribute 18, 4
  13              		.thumb
  14              		.syntax unified
  15              		.file	"BLE_hts.c"
  16              		.text
  17              	.Ltext0:
  18              		.cfi_sections	.debug_frame
  19              		.section	.text.CyBle_HtsInit,"ax",%progbits
  20              		.align	2
  21              		.global	CyBle_HtsInit
  22              		.code	16
  23              		.thumb_func
  24              		.type	CyBle_HtsInit, %function
  25              	CyBle_HtsInit:
  26              	.LFB2:
  27              		.file 1 "Generated_Source\\PSoC4\\BLE_hts.c"
   1:Generated_Source\PSoC4/BLE_hts.c **** /***************************************************************************//**
   2:Generated_Source\PSoC4/BLE_hts.c **** * \file CYBLE_hts.c
   3:Generated_Source\PSoC4/BLE_hts.c **** * \version 3.40
   4:Generated_Source\PSoC4/BLE_hts.c **** * 
   5:Generated_Source\PSoC4/BLE_hts.c **** * \brief
   6:Generated_Source\PSoC4/BLE_hts.c **** *  Contains the source code for Health Thermometer Service.
   7:Generated_Source\PSoC4/BLE_hts.c **** * 
   8:Generated_Source\PSoC4/BLE_hts.c **** ********************************************************************************
   9:Generated_Source\PSoC4/BLE_hts.c **** * \copyright
  10:Generated_Source\PSoC4/BLE_hts.c **** * Copyright 2014-2016, Cypress Semiconductor Corporation.  All rights reserved.
  11:Generated_Source\PSoC4/BLE_hts.c **** * You may use this file only in accordance with the license, terms, conditions,
  12:Generated_Source\PSoC4/BLE_hts.c **** * disclaimers, and limitations in the end user license agreement accompanying
  13:Generated_Source\PSoC4/BLE_hts.c **** * the software package with which this file was provided.
  14:Generated_Source\PSoC4/BLE_hts.c **** *******************************************************************************/
  15:Generated_Source\PSoC4/BLE_hts.c **** 
  16:Generated_Source\PSoC4/BLE_hts.c **** 
  17:Generated_Source\PSoC4/BLE_hts.c **** #include "BLE_eventHandler.h"
  18:Generated_Source\PSoC4/BLE_hts.c **** 
  19:Generated_Source\PSoC4/BLE_hts.c **** static CYBLE_CALLBACK_T CyBle_HtsApplCallback = NULL;
  20:Generated_Source\PSoC4/BLE_hts.c **** 
  21:Generated_Source\PSoC4/BLE_hts.c **** #ifdef CYBLE_HTS_SERVER
  22:Generated_Source\PSoC4/BLE_hts.c **** 
  23:Generated_Source\PSoC4/BLE_hts.c **** const CYBLE_HTSS_T cyBle_htss =
  24:Generated_Source\PSoC4/BLE_hts.c **** {
  25:Generated_Source\PSoC4/BLE_hts.c ****     0x0015u,    /* Handle of the HTS service */
  26:Generated_Source\PSoC4/BLE_hts.c ****     {
  27:Generated_Source\PSoC4/BLE_hts.c ****         
  28:Generated_Source\PSoC4/BLE_hts.c ****         /* Temperature Measurement characteristic */
  29:Generated_Source\PSoC4/BLE_hts.c ****         {
  30:Generated_Source\PSoC4/BLE_hts.c ****             0x0017u, /* Handle of the Temperature Measurement characteristic */ 
ARM GAS  C:\Users\Intern\AppData\Local\Temp\cc8BAy1D.s 			page 2


  31:Generated_Source\PSoC4/BLE_hts.c ****             
  32:Generated_Source\PSoC4/BLE_hts.c ****             /* Array of Descriptors handles */
  33:Generated_Source\PSoC4/BLE_hts.c ****             {
  34:Generated_Source\PSoC4/BLE_hts.c ****                 0x0018u, /* Handle of the Client Characteristic Configuration descriptor */ 
  35:Generated_Source\PSoC4/BLE_hts.c ****                 CYBLE_GATT_INVALID_ATTR_HANDLE_VALUE, 
  36:Generated_Source\PSoC4/BLE_hts.c ****             }, 
  37:Generated_Source\PSoC4/BLE_hts.c ****         }, 
  38:Generated_Source\PSoC4/BLE_hts.c ****         
  39:Generated_Source\PSoC4/BLE_hts.c ****         /* Temperature Type characteristic */
  40:Generated_Source\PSoC4/BLE_hts.c ****         {
  41:Generated_Source\PSoC4/BLE_hts.c ****             0x001Au, /* Handle of the Temperature Type characteristic */ 
  42:Generated_Source\PSoC4/BLE_hts.c ****             
  43:Generated_Source\PSoC4/BLE_hts.c ****             /* Array of Descriptors handles */
  44:Generated_Source\PSoC4/BLE_hts.c ****             {
  45:Generated_Source\PSoC4/BLE_hts.c ****                 CYBLE_GATT_INVALID_ATTR_HANDLE_VALUE, 
  46:Generated_Source\PSoC4/BLE_hts.c ****                 CYBLE_GATT_INVALID_ATTR_HANDLE_VALUE, 
  47:Generated_Source\PSoC4/BLE_hts.c ****             }, 
  48:Generated_Source\PSoC4/BLE_hts.c ****         }, 
  49:Generated_Source\PSoC4/BLE_hts.c ****         
  50:Generated_Source\PSoC4/BLE_hts.c ****         /* Intermediate Temperature characteristic */
  51:Generated_Source\PSoC4/BLE_hts.c ****         {
  52:Generated_Source\PSoC4/BLE_hts.c ****             0x001Cu, /* Handle of the Intermediate Temperature characteristic */ 
  53:Generated_Source\PSoC4/BLE_hts.c ****             
  54:Generated_Source\PSoC4/BLE_hts.c ****             /* Array of Descriptors handles */
  55:Generated_Source\PSoC4/BLE_hts.c ****             {
  56:Generated_Source\PSoC4/BLE_hts.c ****                 0x001Du, /* Handle of the Client Characteristic Configuration descriptor */ 
  57:Generated_Source\PSoC4/BLE_hts.c ****                 CYBLE_GATT_INVALID_ATTR_HANDLE_VALUE, 
  58:Generated_Source\PSoC4/BLE_hts.c ****             }, 
  59:Generated_Source\PSoC4/BLE_hts.c ****         }, 
  60:Generated_Source\PSoC4/BLE_hts.c ****         
  61:Generated_Source\PSoC4/BLE_hts.c ****         /* Measurement Interval characteristic */
  62:Generated_Source\PSoC4/BLE_hts.c ****         {
  63:Generated_Source\PSoC4/BLE_hts.c ****             0x001Fu, /* Handle of the Measurement Interval characteristic */ 
  64:Generated_Source\PSoC4/BLE_hts.c ****             
  65:Generated_Source\PSoC4/BLE_hts.c ****             /* Array of Descriptors handles */
  66:Generated_Source\PSoC4/BLE_hts.c ****             {
  67:Generated_Source\PSoC4/BLE_hts.c ****                 0x0020u, /* Handle of the Client Characteristic Configuration descriptor */ 
  68:Generated_Source\PSoC4/BLE_hts.c ****                 0x0021u, /* Handle of the Valid Range descriptor */ 
  69:Generated_Source\PSoC4/BLE_hts.c ****             }, 
  70:Generated_Source\PSoC4/BLE_hts.c ****         }, 
  71:Generated_Source\PSoC4/BLE_hts.c ****     },
  72:Generated_Source\PSoC4/BLE_hts.c **** };
  73:Generated_Source\PSoC4/BLE_hts.c **** static CYBLE_GATT_DB_ATTR_HANDLE_T cyBle_htssReqHandle;
  74:Generated_Source\PSoC4/BLE_hts.c ****     
  75:Generated_Source\PSoC4/BLE_hts.c **** #endif /* CYBLE_HTS_SERVER */
  76:Generated_Source\PSoC4/BLE_hts.c **** 
  77:Generated_Source\PSoC4/BLE_hts.c **** #ifdef CYBLE_HTS_CLIENT
  78:Generated_Source\PSoC4/BLE_hts.c **** 
  79:Generated_Source\PSoC4/BLE_hts.c **** CYBLE_HTSC_T cyBle_htsc;
  80:Generated_Source\PSoC4/BLE_hts.c **** static CYBLE_GATT_DB_ATTR_HANDLE_T cyBle_htscReqHandle;
  81:Generated_Source\PSoC4/BLE_hts.c **** 
  82:Generated_Source\PSoC4/BLE_hts.c **** #endif /* (CYBLE_HTS_CLIENT) */
  83:Generated_Source\PSoC4/BLE_hts.c **** 
  84:Generated_Source\PSoC4/BLE_hts.c **** 
  85:Generated_Source\PSoC4/BLE_hts.c **** /****************************************************************************** 
  86:Generated_Source\PSoC4/BLE_hts.c **** * Function Name: CyBle_HtsInit
  87:Generated_Source\PSoC4/BLE_hts.c **** ***************************************************************************//**
ARM GAS  C:\Users\Intern\AppData\Local\Temp\cc8BAy1D.s 			page 3


  88:Generated_Source\PSoC4/BLE_hts.c **** * 
  89:Generated_Source\PSoC4/BLE_hts.c **** *  This function initializes HTS Service.
  90:Generated_Source\PSoC4/BLE_hts.c **** * 
  91:Generated_Source\PSoC4/BLE_hts.c **** ******************************************************************************/
  92:Generated_Source\PSoC4/BLE_hts.c **** void CyBle_HtsInit(void)
  93:Generated_Source\PSoC4/BLE_hts.c **** {
  28              		.loc 1 93 0
  29              		.cfi_startproc
  30              		@ args = 0, pretend = 0, frame = 0
  31              		@ frame_needed = 0, uses_anonymous_args = 0
  32              		@ link register save eliminated.
  94:Generated_Source\PSoC4/BLE_hts.c **** 
  95:Generated_Source\PSoC4/BLE_hts.c **** #ifdef CYBLE_HTS_SERVER
  96:Generated_Source\PSoC4/BLE_hts.c **** 
  97:Generated_Source\PSoC4/BLE_hts.c ****     cyBle_htssReqHandle = CYBLE_GATT_INVALID_ATTR_HANDLE_VALUE;
  33              		.loc 1 97 0
  34 0000 0022     		movs	r2, #0
  35 0002 014B     		ldr	r3, .L2
  36 0004 1A80     		strh	r2, [r3]
  98:Generated_Source\PSoC4/BLE_hts.c ****     
  99:Generated_Source\PSoC4/BLE_hts.c **** #endif /* CYBLE_HTS_SERVER */
 100:Generated_Source\PSoC4/BLE_hts.c **** 
 101:Generated_Source\PSoC4/BLE_hts.c **** #ifdef CYBLE_HTS_CLIENT
 102:Generated_Source\PSoC4/BLE_hts.c **** 
 103:Generated_Source\PSoC4/BLE_hts.c ****     if(cyBle_serverInfo[CYBLE_SRVI_HTS].range.startHandle == CYBLE_GATT_INVALID_ATTR_HANDLE_VALUE)
 104:Generated_Source\PSoC4/BLE_hts.c ****     {
 105:Generated_Source\PSoC4/BLE_hts.c ****         (void)memset(&cyBle_htsc, 0, sizeof(cyBle_htsc));
 106:Generated_Source\PSoC4/BLE_hts.c ****     }
 107:Generated_Source\PSoC4/BLE_hts.c ****     cyBle_htscReqHandle = CYBLE_GATT_INVALID_ATTR_HANDLE_VALUE;
 108:Generated_Source\PSoC4/BLE_hts.c **** 
 109:Generated_Source\PSoC4/BLE_hts.c **** #endif /* CYBLE_HTS_CLIENT */
 110:Generated_Source\PSoC4/BLE_hts.c **** }
  37              		.loc 1 110 0
  38              		@ sp needed
  39 0006 7047     		bx	lr
  40              	.L3:
  41              		.align	2
  42              	.L2:
  43 0008 00000000 		.word	.LANCHOR0
  44              		.cfi_endproc
  45              	.LFE2:
  46              		.size	CyBle_HtsInit, .-CyBle_HtsInit
  47              		.section	.text.CyBle_HtsRegisterAttrCallback,"ax",%progbits
  48              		.align	2
  49              		.global	CyBle_HtsRegisterAttrCallback
  50              		.code	16
  51              		.thumb_func
  52              		.type	CyBle_HtsRegisterAttrCallback, %function
  53              	CyBle_HtsRegisterAttrCallback:
  54              	.LFB3:
 111:Generated_Source\PSoC4/BLE_hts.c **** 
 112:Generated_Source\PSoC4/BLE_hts.c **** 
 113:Generated_Source\PSoC4/BLE_hts.c **** /******************************************************************************
 114:Generated_Source\PSoC4/BLE_hts.c **** * Function Name: CyBle_HtsRegisterAttrCallback
 115:Generated_Source\PSoC4/BLE_hts.c **** ***************************************************************************//**
 116:Generated_Source\PSoC4/BLE_hts.c **** * 
 117:Generated_Source\PSoC4/BLE_hts.c **** *  Registers a callback function for service specific attribute operations.
ARM GAS  C:\Users\Intern\AppData\Local\Temp\cc8BAy1D.s 			page 4


 118:Generated_Source\PSoC4/BLE_hts.c **** *  Service specific write requests from peer device will not be handled with
 119:Generated_Source\PSoC4/BLE_hts.c **** *  unregistered callback function.
 120:Generated_Source\PSoC4/BLE_hts.c **** * 
 121:Generated_Source\PSoC4/BLE_hts.c **** *  \param callbackFunc: An application layer event callback function to receive 
 122:Generated_Source\PSoC4/BLE_hts.c **** *                     events from the BLE Component. The definition of 
 123:Generated_Source\PSoC4/BLE_hts.c **** *                     CYBLE_CALLBACK_T for HTS Service is:\n
 124:Generated_Source\PSoC4/BLE_hts.c **** *                     typedef void (* CYBLE_CALLBACK_T) (uint32 eventCode, 
 125:Generated_Source\PSoC4/BLE_hts.c **** *                                                        void *eventParam)
 126:Generated_Source\PSoC4/BLE_hts.c **** *                     * eventCode indicates the event that triggered this 
 127:Generated_Source\PSoC4/BLE_hts.c **** *                       callback (e.g. CYBLE_EVT_HTSS_NOTIFICATION_ENABLED).
 128:Generated_Source\PSoC4/BLE_hts.c **** *                     * eventParam contains the parameters corresponding to the 
 129:Generated_Source\PSoC4/BLE_hts.c **** *                       current event. (e.g. pointer to CYBLE_HTS_CHAR_VALUE_T
 130:Generated_Source\PSoC4/BLE_hts.c **** *                       structure that contains details of the characteristic 
 131:Generated_Source\PSoC4/BLE_hts.c **** *                       for which notification enabled event was triggered).
 132:Generated_Source\PSoC4/BLE_hts.c **** * 
 133:Generated_Source\PSoC4/BLE_hts.c **** ******************************************************************************/
 134:Generated_Source\PSoC4/BLE_hts.c **** void CyBle_HtsRegisterAttrCallback(CYBLE_CALLBACK_T callbackFunc)
 135:Generated_Source\PSoC4/BLE_hts.c **** {
  55              		.loc 1 135 0
  56              		.cfi_startproc
  57              		@ args = 0, pretend = 0, frame = 0
  58              		@ frame_needed = 0, uses_anonymous_args = 0
  59              		@ link register save eliminated.
  60              	.LVL0:
 136:Generated_Source\PSoC4/BLE_hts.c ****     CyBle_HtsApplCallback = callbackFunc;
  61              		.loc 1 136 0
  62 0000 014B     		ldr	r3, .L5
  63 0002 5860     		str	r0, [r3, #4]
 137:Generated_Source\PSoC4/BLE_hts.c **** }
  64              		.loc 1 137 0
  65              		@ sp needed
  66 0004 7047     		bx	lr
  67              	.L6:
  68 0006 C046     		.align	2
  69              	.L5:
  70 0008 00000000 		.word	.LANCHOR0
  71              		.cfi_endproc
  72              	.LFE3:
  73              		.size	CyBle_HtsRegisterAttrCallback, .-CyBle_HtsRegisterAttrCallback
  74              		.section	.text.CyBle_HtssSetCharacteristicValue,"ax",%progbits
  75              		.align	2
  76              		.global	CyBle_HtssSetCharacteristicValue
  77              		.code	16
  78              		.thumb_func
  79              		.type	CyBle_HtssSetCharacteristicValue, %function
  80              	CyBle_HtssSetCharacteristicValue:
  81              	.LFB4:
 138:Generated_Source\PSoC4/BLE_hts.c **** 
 139:Generated_Source\PSoC4/BLE_hts.c **** #ifdef CYBLE_HTS_SERVER
 140:Generated_Source\PSoC4/BLE_hts.c **** 
 141:Generated_Source\PSoC4/BLE_hts.c **** 
 142:Generated_Source\PSoC4/BLE_hts.c **** /******************************************************************************
 143:Generated_Source\PSoC4/BLE_hts.c **** * Function Name: CyBle_HtssSetCharacteristicValue
 144:Generated_Source\PSoC4/BLE_hts.c **** ***************************************************************************//**
 145:Generated_Source\PSoC4/BLE_hts.c **** * 
 146:Generated_Source\PSoC4/BLE_hts.c **** *  Sets the characteristic value of the service in the local database.
 147:Generated_Source\PSoC4/BLE_hts.c **** * 
ARM GAS  C:\Users\Intern\AppData\Local\Temp\cc8BAy1D.s 			page 5


 148:Generated_Source\PSoC4/BLE_hts.c **** *  \param charIndex: The index of the service characteristic.
 149:Generated_Source\PSoC4/BLE_hts.c **** *  \param attrSize:  The size (in Bytes) of the characteristic value attribute.
 150:Generated_Source\PSoC4/BLE_hts.c **** *  \param attrValue: The pointer to the characteristic value data that should be
 151:Generated_Source\PSoC4/BLE_hts.c **** *                    stored in the GATT database.
 152:Generated_Source\PSoC4/BLE_hts.c **** * 
 153:Generated_Source\PSoC4/BLE_hts.c **** * \return
 154:Generated_Source\PSoC4/BLE_hts.c **** *  Return value is of type CYBLE_API_RESULT_T.
 155:Generated_Source\PSoC4/BLE_hts.c **** *  * CYBLE_ERROR_OK - The request handled successfully.
 156:Generated_Source\PSoC4/BLE_hts.c **** *  * CYBLE_ERROR_INVALID_PARAMETER - Validation of the input parameter failed.
 157:Generated_Source\PSoC4/BLE_hts.c **** *
 158:Generated_Source\PSoC4/BLE_hts.c **** ******************************************************************************/
 159:Generated_Source\PSoC4/BLE_hts.c **** CYBLE_API_RESULT_T CyBle_HtssSetCharacteristicValue(CYBLE_HTS_CHAR_INDEX_T charIndex,
 160:Generated_Source\PSoC4/BLE_hts.c ****     uint8 attrSize, uint8 *attrValue)
 161:Generated_Source\PSoC4/BLE_hts.c **** {
  82              		.loc 1 161 0
  83              		.cfi_startproc
  84              		@ args = 0, pretend = 0, frame = 16
  85              		@ frame_needed = 0, uses_anonymous_args = 0
  86              	.LVL1:
  87 0000 00B5     		push	{lr}
  88              		.cfi_def_cfa_offset 4
  89              		.cfi_offset 14, -4
  90 0002 85B0     		sub	sp, sp, #20
  91              		.cfi_def_cfa_offset 24
  92              	.LVL2:
 162:Generated_Source\PSoC4/BLE_hts.c ****     CYBLE_API_RESULT_T apiResult = CYBLE_ERROR_OK;
 163:Generated_Source\PSoC4/BLE_hts.c ****     CYBLE_GATT_HANDLE_VALUE_PAIR_T locHandleValuePair;
 164:Generated_Source\PSoC4/BLE_hts.c **** 
 165:Generated_Source\PSoC4/BLE_hts.c ****     if(charIndex >= CYBLE_HTS_CHAR_COUNT)
  93              		.loc 1 165 0
  94 0004 0328     		cmp	r0, #3
  95 0006 11D8     		bhi	.L9
 166:Generated_Source\PSoC4/BLE_hts.c ****     {
 167:Generated_Source\PSoC4/BLE_hts.c ****         apiResult = CYBLE_ERROR_INVALID_PARAMETER;
 168:Generated_Source\PSoC4/BLE_hts.c ****     }
 169:Generated_Source\PSoC4/BLE_hts.c ****     else
 170:Generated_Source\PSoC4/BLE_hts.c ****     {
 171:Generated_Source\PSoC4/BLE_hts.c ****         /* Store data in database */
 172:Generated_Source\PSoC4/BLE_hts.c ****         locHandleValuePair.attrHandle = cyBle_htss.charInfo[charIndex].charHandle;
  96              		.loc 1 172 0
  97 0008 4300     		lsls	r3, r0, #1
  98 000a 1818     		adds	r0, r3, r0
  99              	.LVL3:
 100 000c 4300     		lsls	r3, r0, #1
 101 000e 0A48     		ldr	r0, .L11
 102 0010 C318     		adds	r3, r0, r3
 103 0012 5B88     		ldrh	r3, [r3, #2]
 104 0014 01A8     		add	r0, sp, #4
 105 0016 0381     		strh	r3, [r0, #8]
 173:Generated_Source\PSoC4/BLE_hts.c ****         locHandleValuePair.value.len = attrSize;
 106              		.loc 1 173 0
 107 0018 8180     		strh	r1, [r0, #4]
 174:Generated_Source\PSoC4/BLE_hts.c ****         locHandleValuePair.value.val = attrValue;
 108              		.loc 1 174 0
 109 001a 0192     		str	r2, [sp, #4]
 175:Generated_Source\PSoC4/BLE_hts.c ****         if(CYBLE_GATT_ERR_NONE !=
 176:Generated_Source\PSoC4/BLE_hts.c ****             CyBle_GattsWriteAttributeValue(&locHandleValuePair, 0u, NULL, CYBLE_GATT_DB_LOCALLY_INI
ARM GAS  C:\Users\Intern\AppData\Local\Temp\cc8BAy1D.s 			page 6


 110              		.loc 1 176 0
 111 001c 0023     		movs	r3, #0
 112 001e 0022     		movs	r2, #0
 113              	.LVL4:
 114 0020 0021     		movs	r1, #0
 115              	.LVL5:
 116 0022 FFF7FEFF 		bl	CyBle_GattsWriteAttributeValue
 117              	.LVL6:
 175:Generated_Source\PSoC4/BLE_hts.c ****         if(CYBLE_GATT_ERR_NONE !=
 118              		.loc 1 175 0
 119 0026 0028     		cmp	r0, #0
 120 0028 02D1     		bne	.L10
 121 002a 02E0     		b	.L8
 122              	.LVL7:
 123              	.L9:
 167:Generated_Source\PSoC4/BLE_hts.c ****     }
 124              		.loc 1 167 0
 125 002c 0120     		movs	r0, #1
 126              	.LVL8:
 127 002e 00E0     		b	.L8
 128              	.LVL9:
 129              	.L10:
 177:Generated_Source\PSoC4/BLE_hts.c ****         {
 178:Generated_Source\PSoC4/BLE_hts.c ****             apiResult = CYBLE_ERROR_INVALID_PARAMETER;
 130              		.loc 1 178 0
 131 0030 0120     		movs	r0, #1
 132              	.L8:
 133              	.LVL10:
 179:Generated_Source\PSoC4/BLE_hts.c ****         }
 180:Generated_Source\PSoC4/BLE_hts.c ****     }
 181:Generated_Source\PSoC4/BLE_hts.c ****     return (apiResult);
 182:Generated_Source\PSoC4/BLE_hts.c **** }
 134              		.loc 1 182 0
 135 0032 05B0     		add	sp, sp, #20
 136              		@ sp needed
 137 0034 00BD     		pop	{pc}
 138              	.L12:
 139 0036 C046     		.align	2
 140              	.L11:
 141 0038 00000000 		.word	.LANCHOR1
 142              		.cfi_endproc
 143              	.LFE4:
 144              		.size	CyBle_HtssSetCharacteristicValue, .-CyBle_HtssSetCharacteristicValue
 145              		.section	.text.CyBle_HtssGetCharacteristicValue,"ax",%progbits
 146              		.align	2
 147              		.global	CyBle_HtssGetCharacteristicValue
 148              		.code	16
 149              		.thumb_func
 150              		.type	CyBle_HtssGetCharacteristicValue, %function
 151              	CyBle_HtssGetCharacteristicValue:
 152              	.LFB5:
 183:Generated_Source\PSoC4/BLE_hts.c **** 
 184:Generated_Source\PSoC4/BLE_hts.c **** 
 185:Generated_Source\PSoC4/BLE_hts.c **** /******************************************************************************
 186:Generated_Source\PSoC4/BLE_hts.c **** * Function Name: CyBle_HtssGetCharacteristicValue
 187:Generated_Source\PSoC4/BLE_hts.c **** ***************************************************************************//**
 188:Generated_Source\PSoC4/BLE_hts.c **** * 
ARM GAS  C:\Users\Intern\AppData\Local\Temp\cc8BAy1D.s 			page 7


 189:Generated_Source\PSoC4/BLE_hts.c **** *  Gets the characteristic value of the service, which is a value identified by
 190:Generated_Source\PSoC4/BLE_hts.c **** *  charIndex.
 191:Generated_Source\PSoC4/BLE_hts.c **** * 
 192:Generated_Source\PSoC4/BLE_hts.c **** *  \param charIndex: The index of the service characteristic.
 193:Generated_Source\PSoC4/BLE_hts.c **** *  \param attrSize:  The size of the characteristic value attribute.
 194:Generated_Source\PSoC4/BLE_hts.c **** *  \param attrValue: The pointer to the location where characteristic value data
 195:Generated_Source\PSoC4/BLE_hts.c **** *                    should be stored.
 196:Generated_Source\PSoC4/BLE_hts.c **** * 
 197:Generated_Source\PSoC4/BLE_hts.c **** * \return
 198:Generated_Source\PSoC4/BLE_hts.c **** *  Return value is of type CYBLE_API_RESULT_T.
 199:Generated_Source\PSoC4/BLE_hts.c **** *  * CYBLE_ERROR_OK - The request handled successfully.
 200:Generated_Source\PSoC4/BLE_hts.c **** *  * CYBLE_ERROR_INVALID_PARAMETER - Validation of the input parameter failed.
 201:Generated_Source\PSoC4/BLE_hts.c **** *
 202:Generated_Source\PSoC4/BLE_hts.c **** ******************************************************************************/
 203:Generated_Source\PSoC4/BLE_hts.c **** CYBLE_API_RESULT_T CyBle_HtssGetCharacteristicValue(CYBLE_HTS_CHAR_INDEX_T charIndex,
 204:Generated_Source\PSoC4/BLE_hts.c ****     uint8 attrSize, uint8 *attrValue)
 205:Generated_Source\PSoC4/BLE_hts.c **** {
 153              		.loc 1 205 0
 154              		.cfi_startproc
 155              		@ args = 0, pretend = 0, frame = 16
 156              		@ frame_needed = 0, uses_anonymous_args = 0
 157              	.LVL11:
 158 0000 00B5     		push	{lr}
 159              		.cfi_def_cfa_offset 4
 160              		.cfi_offset 14, -4
 161 0002 85B0     		sub	sp, sp, #20
 162              		.cfi_def_cfa_offset 24
 163              	.LVL12:
 206:Generated_Source\PSoC4/BLE_hts.c ****     CYBLE_API_RESULT_T apiResult = CYBLE_ERROR_OK;
 207:Generated_Source\PSoC4/BLE_hts.c ****     CYBLE_GATT_HANDLE_VALUE_PAIR_T locHandleValuePair;
 208:Generated_Source\PSoC4/BLE_hts.c **** 
 209:Generated_Source\PSoC4/BLE_hts.c ****     if(charIndex >= CYBLE_HTS_CHAR_COUNT)
 164              		.loc 1 209 0
 165 0004 0328     		cmp	r0, #3
 166 0006 10D8     		bhi	.L15
 210:Generated_Source\PSoC4/BLE_hts.c ****     {
 211:Generated_Source\PSoC4/BLE_hts.c ****         apiResult = CYBLE_ERROR_INVALID_PARAMETER;
 212:Generated_Source\PSoC4/BLE_hts.c ****     }
 213:Generated_Source\PSoC4/BLE_hts.c ****     else
 214:Generated_Source\PSoC4/BLE_hts.c ****     {
 215:Generated_Source\PSoC4/BLE_hts.c ****         /* Read characteristic value from database */
 216:Generated_Source\PSoC4/BLE_hts.c ****         locHandleValuePair.attrHandle = cyBle_htss.charInfo[charIndex].charHandle;
 167              		.loc 1 216 0
 168 0008 4300     		lsls	r3, r0, #1
 169 000a 1818     		adds	r0, r3, r0
 170              	.LVL13:
 171 000c 4300     		lsls	r3, r0, #1
 172 000e 0948     		ldr	r0, .L17
 173 0010 C318     		adds	r3, r0, r3
 174 0012 5B88     		ldrh	r3, [r3, #2]
 175 0014 01A8     		add	r0, sp, #4
 176 0016 0381     		strh	r3, [r0, #8]
 217:Generated_Source\PSoC4/BLE_hts.c ****         locHandleValuePair.value.len = attrSize;
 177              		.loc 1 217 0
 178 0018 8180     		strh	r1, [r0, #4]
 218:Generated_Source\PSoC4/BLE_hts.c ****         locHandleValuePair.value.val = attrValue;
 179              		.loc 1 218 0
ARM GAS  C:\Users\Intern\AppData\Local\Temp\cc8BAy1D.s 			page 8


 180 001a 0192     		str	r2, [sp, #4]
 219:Generated_Source\PSoC4/BLE_hts.c ****         if(CYBLE_GATT_ERR_NONE !=
 220:Generated_Source\PSoC4/BLE_hts.c ****             CyBle_GattsReadAttributeValue(&locHandleValuePair, NULL, CYBLE_GATT_DB_LOCALLY_INITIATE
 181              		.loc 1 220 0
 182 001c 0022     		movs	r2, #0
 183              	.LVL14:
 184 001e 0021     		movs	r1, #0
 185              	.LVL15:
 186 0020 FFF7FEFF 		bl	CyBle_GattsReadAttributeValue
 187              	.LVL16:
 219:Generated_Source\PSoC4/BLE_hts.c ****         if(CYBLE_GATT_ERR_NONE !=
 188              		.loc 1 219 0
 189 0024 0028     		cmp	r0, #0
 190 0026 02D1     		bne	.L16
 191 0028 02E0     		b	.L14
 192              	.LVL17:
 193              	.L15:
 211:Generated_Source\PSoC4/BLE_hts.c ****     }
 194              		.loc 1 211 0
 195 002a 0120     		movs	r0, #1
 196              	.LVL18:
 197 002c 00E0     		b	.L14
 198              	.LVL19:
 199              	.L16:
 221:Generated_Source\PSoC4/BLE_hts.c ****         {
 222:Generated_Source\PSoC4/BLE_hts.c ****             apiResult = CYBLE_ERROR_INVALID_PARAMETER;
 200              		.loc 1 222 0
 201 002e 0120     		movs	r0, #1
 202              	.L14:
 203              	.LVL20:
 223:Generated_Source\PSoC4/BLE_hts.c ****         }
 224:Generated_Source\PSoC4/BLE_hts.c ****     }
 225:Generated_Source\PSoC4/BLE_hts.c ****     return (apiResult);
 226:Generated_Source\PSoC4/BLE_hts.c **** }
 204              		.loc 1 226 0
 205 0030 05B0     		add	sp, sp, #20
 206              		@ sp needed
 207 0032 00BD     		pop	{pc}
 208              	.L18:
 209              		.align	2
 210              	.L17:
 211 0034 00000000 		.word	.LANCHOR1
 212              		.cfi_endproc
 213              	.LFE5:
 214              		.size	CyBle_HtssGetCharacteristicValue, .-CyBle_HtssGetCharacteristicValue
 215              		.section	.text.CyBle_HtssSetCharacteristicDescriptor,"ax",%progbits
 216              		.align	2
 217              		.global	CyBle_HtssSetCharacteristicDescriptor
 218              		.code	16
 219              		.thumb_func
 220              		.type	CyBle_HtssSetCharacteristicDescriptor, %function
 221              	CyBle_HtssSetCharacteristicDescriptor:
 222              	.LFB6:
 227:Generated_Source\PSoC4/BLE_hts.c **** 
 228:Generated_Source\PSoC4/BLE_hts.c **** 
 229:Generated_Source\PSoC4/BLE_hts.c **** /******************************************************************************
 230:Generated_Source\PSoC4/BLE_hts.c **** * Function Name: CyBle_HtssSetCharacteristicDescriptor
ARM GAS  C:\Users\Intern\AppData\Local\Temp\cc8BAy1D.s 			page 9


 231:Generated_Source\PSoC4/BLE_hts.c **** ***************************************************************************//**
 232:Generated_Source\PSoC4/BLE_hts.c **** * 
 233:Generated_Source\PSoC4/BLE_hts.c **** *  Sets the characteristic descriptor of the specified characteristic.
 234:Generated_Source\PSoC4/BLE_hts.c **** * 
 235:Generated_Source\PSoC4/BLE_hts.c **** *  \param charIndex:  The index of the service characteristic.
 236:Generated_Source\PSoC4/BLE_hts.c **** *  \param descrIndex: The index of the service characteristic descriptor.
 237:Generated_Source\PSoC4/BLE_hts.c **** *  \param attrSize:   The size of the characteristic descriptor attribute.
 238:Generated_Source\PSoC4/BLE_hts.c **** *  \param attrValue:  The pointer to the descriptor value data that should be 
 239:Generated_Source\PSoC4/BLE_hts.c **** *                     stored in the GATT database. 
 240:Generated_Source\PSoC4/BLE_hts.c **** * 
 241:Generated_Source\PSoC4/BLE_hts.c **** * \return
 242:Generated_Source\PSoC4/BLE_hts.c **** *  Return value is of type CYBLE_API_RESULT_T.
 243:Generated_Source\PSoC4/BLE_hts.c **** *  * CYBLE_ERROR_OK - The request handled successfully.
 244:Generated_Source\PSoC4/BLE_hts.c **** *  * CYBLE_ERROR_INVALID_PARAMETER - Validation of the input parameter failed.
 245:Generated_Source\PSoC4/BLE_hts.c **** *
 246:Generated_Source\PSoC4/BLE_hts.c **** ******************************************************************************/
 247:Generated_Source\PSoC4/BLE_hts.c **** CYBLE_API_RESULT_T CyBle_HtssSetCharacteristicDescriptor(CYBLE_HTS_CHAR_INDEX_T charIndex,
 248:Generated_Source\PSoC4/BLE_hts.c ****     CYBLE_HTS_DESCR_INDEX_T descrIndex, uint8 attrSize, uint8 *attrValue)
 249:Generated_Source\PSoC4/BLE_hts.c **** {
 223              		.loc 1 249 0
 224              		.cfi_startproc
 225              		@ args = 0, pretend = 0, frame = 16
 226              		@ frame_needed = 0, uses_anonymous_args = 0
 227              	.LVL21:
 228 0000 10B5     		push	{r4, lr}
 229              		.cfi_def_cfa_offset 8
 230              		.cfi_offset 4, -8
 231              		.cfi_offset 14, -4
 232 0002 84B0     		sub	sp, sp, #16
 233              		.cfi_def_cfa_offset 24
 234              	.LVL22:
 250:Generated_Source\PSoC4/BLE_hts.c ****     CYBLE_API_RESULT_T apiResult = CYBLE_ERROR_OK;
 251:Generated_Source\PSoC4/BLE_hts.c ****     CYBLE_GATT_HANDLE_VALUE_PAIR_T locHandleValuePair;
 252:Generated_Source\PSoC4/BLE_hts.c **** 
 253:Generated_Source\PSoC4/BLE_hts.c ****     if((charIndex >= CYBLE_HTS_CHAR_COUNT) || (descrIndex >= CYBLE_HTS_DESCR_COUNT))
 235              		.loc 1 253 0
 236 0004 0328     		cmp	r0, #3
 237 0006 16D8     		bhi	.L21
 238              		.loc 1 253 0 is_stmt 0 discriminator 1
 239 0008 0129     		cmp	r1, #1
 240 000a 16D8     		bhi	.L22
 254:Generated_Source\PSoC4/BLE_hts.c ****     {
 255:Generated_Source\PSoC4/BLE_hts.c ****         apiResult = CYBLE_ERROR_INVALID_PARAMETER;
 256:Generated_Source\PSoC4/BLE_hts.c ****     }
 257:Generated_Source\PSoC4/BLE_hts.c ****     else
 258:Generated_Source\PSoC4/BLE_hts.c ****     {
 259:Generated_Source\PSoC4/BLE_hts.c ****         locHandleValuePair.attrHandle = cyBle_htss.charInfo[charIndex].descrHandle[descrIndex];
 241              		.loc 1 259 0 is_stmt 1
 242 000c 4400     		lsls	r4, r0, #1
 243 000e 2018     		adds	r0, r4, r0
 244              	.LVL23:
 245 0010 4118     		adds	r1, r0, r1
 246              	.LVL24:
 247 0012 4900     		lsls	r1, r1, #1
 248 0014 0C48     		ldr	r0, .L25
 249 0016 4118     		adds	r1, r0, r1
 250 0018 8988     		ldrh	r1, [r1, #4]
ARM GAS  C:\Users\Intern\AppData\Local\Temp\cc8BAy1D.s 			page 10


 251 001a 01A8     		add	r0, sp, #4
 252 001c 0181     		strh	r1, [r0, #8]
 260:Generated_Source\PSoC4/BLE_hts.c ****         if(locHandleValuePair.attrHandle != CYBLE_GATT_INVALID_ATTR_HANDLE_VALUE)
 253              		.loc 1 260 0
 254 001e 0029     		cmp	r1, #0
 255 0020 0DD0     		beq	.L23
 261:Generated_Source\PSoC4/BLE_hts.c ****         {
 262:Generated_Source\PSoC4/BLE_hts.c ****             locHandleValuePair.value.len = attrSize;
 256              		.loc 1 262 0
 257 0022 8280     		strh	r2, [r0, #4]
 263:Generated_Source\PSoC4/BLE_hts.c ****             locHandleValuePair.value.val = attrValue;
 258              		.loc 1 263 0
 259 0024 0193     		str	r3, [sp, #4]
 264:Generated_Source\PSoC4/BLE_hts.c ****             if(CYBLE_GATT_ERR_NONE !=
 265:Generated_Source\PSoC4/BLE_hts.c ****                 CyBle_GattsWriteAttributeValue(&locHandleValuePair, 0u, NULL, CYBLE_GATT_DB_LOCALLY
 260              		.loc 1 265 0
 261 0026 0023     		movs	r3, #0
 262              	.LVL25:
 263 0028 0022     		movs	r2, #0
 264              	.LVL26:
 265 002a 0021     		movs	r1, #0
 266 002c FFF7FEFF 		bl	CyBle_GattsWriteAttributeValue
 267              	.LVL27:
 264:Generated_Source\PSoC4/BLE_hts.c ****             if(CYBLE_GATT_ERR_NONE !=
 268              		.loc 1 264 0
 269 0030 0028     		cmp	r0, #0
 270 0032 06D1     		bne	.L24
 271 0034 06E0     		b	.L20
 272              	.LVL28:
 273              	.L21:
 255:Generated_Source\PSoC4/BLE_hts.c ****     }
 274              		.loc 1 255 0
 275 0036 0120     		movs	r0, #1
 276              	.LVL29:
 277 0038 04E0     		b	.L20
 278              	.LVL30:
 279              	.L22:
 280 003a 0120     		movs	r0, #1
 281              	.LVL31:
 282 003c 02E0     		b	.L20
 283              	.LVL32:
 284              	.L23:
 266:Generated_Source\PSoC4/BLE_hts.c ****             {
 267:Generated_Source\PSoC4/BLE_hts.c ****                 apiResult = CYBLE_ERROR_INVALID_PARAMETER;
 268:Generated_Source\PSoC4/BLE_hts.c ****             }
 269:Generated_Source\PSoC4/BLE_hts.c ****         }
 270:Generated_Source\PSoC4/BLE_hts.c ****         else
 271:Generated_Source\PSoC4/BLE_hts.c ****         {
 272:Generated_Source\PSoC4/BLE_hts.c ****             apiResult = CYBLE_ERROR_INVALID_PARAMETER;
 285              		.loc 1 272 0
 286 003e 0120     		movs	r0, #1
 287 0040 00E0     		b	.L20
 288              	.LVL33:
 289              	.L24:
 267:Generated_Source\PSoC4/BLE_hts.c ****             }
 290              		.loc 1 267 0
 291 0042 0120     		movs	r0, #1
ARM GAS  C:\Users\Intern\AppData\Local\Temp\cc8BAy1D.s 			page 11


 292              	.L20:
 293              	.LVL34:
 273:Generated_Source\PSoC4/BLE_hts.c ****         }
 274:Generated_Source\PSoC4/BLE_hts.c ****     }
 275:Generated_Source\PSoC4/BLE_hts.c ****     return (apiResult);
 276:Generated_Source\PSoC4/BLE_hts.c **** }
 294              		.loc 1 276 0
 295 0044 04B0     		add	sp, sp, #16
 296              		@ sp needed
 297 0046 10BD     		pop	{r4, pc}
 298              	.L26:
 299              		.align	2
 300              	.L25:
 301 0048 00000000 		.word	.LANCHOR1
 302              		.cfi_endproc
 303              	.LFE6:
 304              		.size	CyBle_HtssSetCharacteristicDescriptor, .-CyBle_HtssSetCharacteristicDescriptor
 305              		.section	.text.CyBle_HtssGetCharacteristicDescriptor,"ax",%progbits
 306              		.align	2
 307              		.global	CyBle_HtssGetCharacteristicDescriptor
 308              		.code	16
 309              		.thumb_func
 310              		.type	CyBle_HtssGetCharacteristicDescriptor, %function
 311              	CyBle_HtssGetCharacteristicDescriptor:
 312              	.LFB7:
 277:Generated_Source\PSoC4/BLE_hts.c **** 
 278:Generated_Source\PSoC4/BLE_hts.c **** 
 279:Generated_Source\PSoC4/BLE_hts.c **** /******************************************************************************
 280:Generated_Source\PSoC4/BLE_hts.c **** * Function Name: CyBle_HtssGetCharacteristicDescriptor
 281:Generated_Source\PSoC4/BLE_hts.c **** ***************************************************************************//**
 282:Generated_Source\PSoC4/BLE_hts.c **** * 
 283:Generated_Source\PSoC4/BLE_hts.c **** *  Gets the characteristic descriptor of the specified characteristic.
 284:Generated_Source\PSoC4/BLE_hts.c **** * 
 285:Generated_Source\PSoC4/BLE_hts.c **** *  \param charIndex:  The index of the service characteristic.
 286:Generated_Source\PSoC4/BLE_hts.c **** *  \param descrIndex: The index of the service characteristic descriptor.
 287:Generated_Source\PSoC4/BLE_hts.c **** *  \param attrSize:   The size of the characteristic descriptor attribute.
 288:Generated_Source\PSoC4/BLE_hts.c **** *  \param attrValue:  The pointer to the location where characteristic descriptor
 289:Generated_Source\PSoC4/BLE_hts.c **** *                     value data should be stored.
 290:Generated_Source\PSoC4/BLE_hts.c **** * 
 291:Generated_Source\PSoC4/BLE_hts.c **** * \return
 292:Generated_Source\PSoC4/BLE_hts.c **** *  Return value is of type CYBLE_API_RESULT_T.
 293:Generated_Source\PSoC4/BLE_hts.c **** *  * CYBLE_ERROR_OK - The request handled successfully.
 294:Generated_Source\PSoC4/BLE_hts.c **** *  * CYBLE_ERROR_INVALID_PARAMETER - Validation of the input parameter failed.
 295:Generated_Source\PSoC4/BLE_hts.c **** *
 296:Generated_Source\PSoC4/BLE_hts.c **** ******************************************************************************/
 297:Generated_Source\PSoC4/BLE_hts.c **** CYBLE_API_RESULT_T CyBle_HtssGetCharacteristicDescriptor(CYBLE_HTS_CHAR_INDEX_T charIndex,
 298:Generated_Source\PSoC4/BLE_hts.c ****     CYBLE_HTS_DESCR_INDEX_T descrIndex, uint8 attrSize, uint8 *attrValue)
 299:Generated_Source\PSoC4/BLE_hts.c **** {
 313              		.loc 1 299 0
 314              		.cfi_startproc
 315              		@ args = 0, pretend = 0, frame = 16
 316              		@ frame_needed = 0, uses_anonymous_args = 0
 317              	.LVL35:
 318 0000 10B5     		push	{r4, lr}
 319              		.cfi_def_cfa_offset 8
 320              		.cfi_offset 4, -8
 321              		.cfi_offset 14, -4
ARM GAS  C:\Users\Intern\AppData\Local\Temp\cc8BAy1D.s 			page 12


 322 0002 84B0     		sub	sp, sp, #16
 323              		.cfi_def_cfa_offset 24
 324              	.LVL36:
 300:Generated_Source\PSoC4/BLE_hts.c ****     CYBLE_API_RESULT_T apiResult = CYBLE_ERROR_OK;
 301:Generated_Source\PSoC4/BLE_hts.c ****     CYBLE_GATT_HANDLE_VALUE_PAIR_T locHandleValuePair;
 302:Generated_Source\PSoC4/BLE_hts.c **** 
 303:Generated_Source\PSoC4/BLE_hts.c ****     if((charIndex >= CYBLE_HTS_CHAR_COUNT) || (descrIndex >= CYBLE_HTS_DESCR_COUNT))
 325              		.loc 1 303 0
 326 0004 0328     		cmp	r0, #3
 327 0006 15D8     		bhi	.L29
 328              		.loc 1 303 0 is_stmt 0 discriminator 1
 329 0008 0129     		cmp	r1, #1
 330 000a 15D8     		bhi	.L30
 304:Generated_Source\PSoC4/BLE_hts.c ****     {
 305:Generated_Source\PSoC4/BLE_hts.c ****         apiResult = CYBLE_ERROR_INVALID_PARAMETER;
 306:Generated_Source\PSoC4/BLE_hts.c ****     }
 307:Generated_Source\PSoC4/BLE_hts.c ****     else
 308:Generated_Source\PSoC4/BLE_hts.c ****     {
 309:Generated_Source\PSoC4/BLE_hts.c ****         locHandleValuePair.attrHandle = cyBle_htss.charInfo[charIndex].descrHandle[descrIndex];
 331              		.loc 1 309 0 is_stmt 1
 332 000c 4400     		lsls	r4, r0, #1
 333 000e 2018     		adds	r0, r4, r0
 334              	.LVL37:
 335 0010 4118     		adds	r1, r0, r1
 336              	.LVL38:
 337 0012 4900     		lsls	r1, r1, #1
 338 0014 0C48     		ldr	r0, .L33
 339 0016 4118     		adds	r1, r0, r1
 340 0018 8988     		ldrh	r1, [r1, #4]
 341 001a 01A8     		add	r0, sp, #4
 342 001c 0181     		strh	r1, [r0, #8]
 310:Generated_Source\PSoC4/BLE_hts.c ****         if(locHandleValuePair.attrHandle != CYBLE_GATT_INVALID_ATTR_HANDLE_VALUE)
 343              		.loc 1 310 0
 344 001e 0029     		cmp	r1, #0
 345 0020 0CD0     		beq	.L31
 311:Generated_Source\PSoC4/BLE_hts.c ****         {
 312:Generated_Source\PSoC4/BLE_hts.c ****             locHandleValuePair.value.len = attrSize;
 346              		.loc 1 312 0
 347 0022 8280     		strh	r2, [r0, #4]
 313:Generated_Source\PSoC4/BLE_hts.c ****             locHandleValuePair.value.val = attrValue;
 348              		.loc 1 313 0
 349 0024 0193     		str	r3, [sp, #4]
 314:Generated_Source\PSoC4/BLE_hts.c ****             if(CYBLE_GATT_ERR_NONE !=
 315:Generated_Source\PSoC4/BLE_hts.c ****                 CyBle_GattsReadAttributeValue(&locHandleValuePair, NULL, CYBLE_GATT_DB_LOCALLY_INIT
 350              		.loc 1 315 0
 351 0026 0022     		movs	r2, #0
 352              	.LVL39:
 353 0028 0021     		movs	r1, #0
 354 002a FFF7FEFF 		bl	CyBle_GattsReadAttributeValue
 355              	.LVL40:
 314:Generated_Source\PSoC4/BLE_hts.c ****             if(CYBLE_GATT_ERR_NONE !=
 356              		.loc 1 314 0
 357 002e 0028     		cmp	r0, #0
 358 0030 06D1     		bne	.L32
 359 0032 06E0     		b	.L28
 360              	.LVL41:
 361              	.L29:
ARM GAS  C:\Users\Intern\AppData\Local\Temp\cc8BAy1D.s 			page 13


 305:Generated_Source\PSoC4/BLE_hts.c ****     }
 362              		.loc 1 305 0
 363 0034 0120     		movs	r0, #1
 364              	.LVL42:
 365 0036 04E0     		b	.L28
 366              	.LVL43:
 367              	.L30:
 368 0038 0120     		movs	r0, #1
 369              	.LVL44:
 370 003a 02E0     		b	.L28
 371              	.LVL45:
 372              	.L31:
 316:Generated_Source\PSoC4/BLE_hts.c ****             {
 317:Generated_Source\PSoC4/BLE_hts.c ****                 apiResult = CYBLE_ERROR_INVALID_PARAMETER;
 318:Generated_Source\PSoC4/BLE_hts.c ****             }
 319:Generated_Source\PSoC4/BLE_hts.c ****         }
 320:Generated_Source\PSoC4/BLE_hts.c ****         else
 321:Generated_Source\PSoC4/BLE_hts.c ****         {
 322:Generated_Source\PSoC4/BLE_hts.c ****             apiResult = CYBLE_ERROR_INVALID_PARAMETER;
 373              		.loc 1 322 0
 374 003c 0120     		movs	r0, #1
 375 003e 00E0     		b	.L28
 376              	.LVL46:
 377              	.L32:
 317:Generated_Source\PSoC4/BLE_hts.c ****             }
 378              		.loc 1 317 0
 379 0040 0120     		movs	r0, #1
 380              	.L28:
 381              	.LVL47:
 323:Generated_Source\PSoC4/BLE_hts.c ****         }
 324:Generated_Source\PSoC4/BLE_hts.c ****     }
 325:Generated_Source\PSoC4/BLE_hts.c ****     return (apiResult);
 326:Generated_Source\PSoC4/BLE_hts.c **** }
 382              		.loc 1 326 0
 383 0042 04B0     		add	sp, sp, #16
 384              		@ sp needed
 385 0044 10BD     		pop	{r4, pc}
 386              	.L34:
 387 0046 C046     		.align	2
 388              	.L33:
 389 0048 00000000 		.word	.LANCHOR1
 390              		.cfi_endproc
 391              	.LFE7:
 392              		.size	CyBle_HtssGetCharacteristicDescriptor, .-CyBle_HtssGetCharacteristicDescriptor
 393              		.section	.text.CyBle_HtssWriteEventHandler,"ax",%progbits
 394              		.align	2
 395              		.global	CyBle_HtssWriteEventHandler
 396              		.code	16
 397              		.thumb_func
 398              		.type	CyBle_HtssWriteEventHandler, %function
 399              	CyBle_HtssWriteEventHandler:
 400              	.LFB8:
 327:Generated_Source\PSoC4/BLE_hts.c **** 
 328:Generated_Source\PSoC4/BLE_hts.c **** 
 329:Generated_Source\PSoC4/BLE_hts.c **** /******************************************************************************
 330:Generated_Source\PSoC4/BLE_hts.c **** * Function Name: CyBle_HtssWriteEventHandler
 331:Generated_Source\PSoC4/BLE_hts.c **** ***************************************************************************//**
ARM GAS  C:\Users\Intern\AppData\Local\Temp\cc8BAy1D.s 			page 14


 332:Generated_Source\PSoC4/BLE_hts.c **** * 
 333:Generated_Source\PSoC4/BLE_hts.c **** *  Handles Write Request Event for HTS service.
 334:Generated_Source\PSoC4/BLE_hts.c **** * 
 335:Generated_Source\PSoC4/BLE_hts.c **** *  \param void *eventParam: The pointer to the data structure specified by the
 336:Generated_Source\PSoC4/BLE_hts.c **** *                           event.
 337:Generated_Source\PSoC4/BLE_hts.c **** * 
 338:Generated_Source\PSoC4/BLE_hts.c **** ******************************************************************************/
 339:Generated_Source\PSoC4/BLE_hts.c **** CYBLE_GATT_ERR_CODE_T CyBle_HtssWriteEventHandler(CYBLE_GATTS_WRITE_REQ_PARAM_T *eventParam)
 340:Generated_Source\PSoC4/BLE_hts.c **** {
 401              		.loc 1 340 0
 402              		.cfi_startproc
 403              		@ args = 0, pretend = 0, frame = 16
 404              		@ frame_needed = 0, uses_anonymous_args = 0
 405              	.LVL48:
 406 0000 F0B5     		push	{r4, r5, r6, r7, lr}
 407              		.cfi_def_cfa_offset 20
 408              		.cfi_offset 4, -20
 409              		.cfi_offset 5, -16
 410              		.cfi_offset 6, -12
 411              		.cfi_offset 7, -8
 412              		.cfi_offset 14, -4
 413 0002 4746     		mov	r7, r8
 414 0004 80B4     		push	{r7}
 415              		.cfi_def_cfa_offset 24
 416              		.cfi_offset 8, -24
 417 0006 84B0     		sub	sp, sp, #16
 418              		.cfi_def_cfa_offset 40
 419 0008 0500     		movs	r5, r0
 420              	.LVL49:
 341:Generated_Source\PSoC4/BLE_hts.c ****     CYBLE_HTS_CHAR_INDEX_T locCharIndex;
 342:Generated_Source\PSoC4/BLE_hts.c ****     CYBLE_HTS_CHAR_VALUE_T locCharValue;
 343:Generated_Source\PSoC4/BLE_hts.c ****     CYBLE_GATT_ERR_CODE_T gattErr = CYBLE_GATT_ERR_NONE;
 344:Generated_Source\PSoC4/BLE_hts.c ****     uint8 locReqHandle = 0u;
 345:Generated_Source\PSoC4/BLE_hts.c **** 
 346:Generated_Source\PSoC4/BLE_hts.c ****     if(NULL != CyBle_HtsApplCallback)
 421              		.loc 1 346 0
 422 000a 5A4B     		ldr	r3, .L52
 423 000c 5B68     		ldr	r3, [r3, #4]
 424 000e 002B     		cmp	r3, #0
 425 0010 00D0     		beq	.LCB383
 426 0012 A1E0     		b	.L49	@long jump
 427              	.LCB383:
 343:Generated_Source\PSoC4/BLE_hts.c ****     uint8 locReqHandle = 0u;
 428              		.loc 1 343 0
 429 0014 0026     		movs	r6, #0
 430 0016 A7E0     		b	.L37
 431              	.LVL50:
 432              	.L48:
 347:Generated_Source\PSoC4/BLE_hts.c ****     {
 348:Generated_Source\PSoC4/BLE_hts.c ****         for(locCharIndex = CYBLE_HTS_TEMP_MEASURE; (locCharIndex < CYBLE_HTS_CHAR_COUNT) && (locReq
 349:Generated_Source\PSoC4/BLE_hts.c ****             locCharIndex++)
 350:Generated_Source\PSoC4/BLE_hts.c ****         {
 351:Generated_Source\PSoC4/BLE_hts.c ****             
 352:Generated_Source\PSoC4/BLE_hts.c ****             if((eventParam->handleValPair.attrHandle == cyBle_htss.charInfo[locCharIndex].descrHand
 433              		.loc 1 352 0
 434 0018 A889     		ldrh	r0, [r5, #12]
 435 001a 2100     		movs	r1, r4
ARM GAS  C:\Users\Intern\AppData\Local\Temp\cc8BAy1D.s 			page 15


 436 001c 6200     		lsls	r2, r4, #1
 437 001e 1219     		adds	r2, r2, r4
 438 0020 5300     		lsls	r3, r2, #1
 439 0022 554A     		ldr	r2, .L52+4
 440 0024 D318     		adds	r3, r2, r3
 441 0026 9B88     		ldrh	r3, [r3, #4]
 442 0028 9842     		cmp	r0, r3
 443 002a 08D0     		beq	.L38
 353:Generated_Source\PSoC4/BLE_hts.c ****                (eventParam->handleValPair.attrHandle == cyBle_htss.charInfo[locCharIndex].charHandl
 444              		.loc 1 353 0 discriminator 1
 445 002c 6200     		lsls	r2, r4, #1
 446 002e 1219     		adds	r2, r2, r4
 447 0030 5300     		lsls	r3, r2, #1
 448 0032 514A     		ldr	r2, .L52+4
 449 0034 D318     		adds	r3, r2, r3
 450 0036 5B88     		ldrh	r3, [r3, #2]
 352:Generated_Source\PSoC4/BLE_hts.c ****                (eventParam->handleValPair.attrHandle == cyBle_htss.charInfo[locCharIndex].charHandl
 451              		.loc 1 352 0 discriminator 1
 452 0038 9842     		cmp	r0, r3
 453 003a 00D0     		beq	.LCB410
 454 003c 89E0     		b	.L39	@long jump
 455              	.LCB410:
 456              	.L38:
 354:Generated_Source\PSoC4/BLE_hts.c ****             {
 355:Generated_Source\PSoC4/BLE_hts.c ****                 locCharValue.connHandle = eventParam->connHandle;
 457              		.loc 1 355 0
 458 003e 02AB     		add	r3, sp, #8
 459 0040 2A88     		ldrh	r2, [r5]
 460 0042 1A80     		strh	r2, [r3]
 356:Generated_Source\PSoC4/BLE_hts.c ****                 locCharValue.charIndex = locCharIndex;
 461              		.loc 1 356 0
 462 0044 9C70     		strb	r4, [r3, #2]
 357:Generated_Source\PSoC4/BLE_hts.c ****                 locCharValue.value = &eventParam->handleValPair.value;
 463              		.loc 1 357 0
 464 0046 2A1D     		adds	r2, r5, #4
 465 0048 0392     		str	r2, [sp, #12]
 358:Generated_Source\PSoC4/BLE_hts.c ****                 /* Characteristic value write request */
 359:Generated_Source\PSoC4/BLE_hts.c ****                 if(eventParam->handleValPair.attrHandle == cyBle_htss.charInfo[locCharIndex].charHa
 466              		.loc 1 359 0
 467 004a 4B00     		lsls	r3, r1, #1
 468 004c 5918     		adds	r1, r3, r1
 469 004e 4B00     		lsls	r3, r1, #1
 470 0050 494A     		ldr	r2, .L52+4
 471 0052 D318     		adds	r3, r2, r3
 472 0054 5F88     		ldrh	r7, [r3, #2]
 473              	.LVL51:
 474 0056 B842     		cmp	r0, r7
 475 0058 35D1     		bne	.L40
 360:Generated_Source\PSoC4/BLE_hts.c ****                 {
 361:Generated_Source\PSoC4/BLE_hts.c ****                     /* Validate Measure Interval value */
 362:Generated_Source\PSoC4/BLE_hts.c ****                     if(locCharIndex == CYBLE_HTS_MEASURE_INTERVAL)
 476              		.loc 1 362 0
 477 005a 032C     		cmp	r4, #3
 478 005c 22D1     		bne	.L41
 479              	.LBB2:
 363:Generated_Source\PSoC4/BLE_hts.c ****                     {
 364:Generated_Source\PSoC4/BLE_hts.c ****                         uint8 locAttrValue[CYBLE_HTS_VRD_LEN];
ARM GAS  C:\Users\Intern\AppData\Local\Temp\cc8BAy1D.s 			page 16


 365:Generated_Source\PSoC4/BLE_hts.c ****                         uint16 requestValue;
 366:Generated_Source\PSoC4/BLE_hts.c ****                         
 367:Generated_Source\PSoC4/BLE_hts.c ****                         requestValue = CyBle_Get16ByPtr(eventParam->handleValPair.value.val);
 480              		.loc 1 367 0
 481 005e 6868     		ldr	r0, [r5, #4]
 482 0060 FFF7FEFF 		bl	CyBle_Get16ByPtr
 483              	.LVL52:
 368:Generated_Source\PSoC4/BLE_hts.c ****                         
 369:Generated_Source\PSoC4/BLE_hts.c ****                         if(requestValue != 0u) /* 0 is valid interval value for no periodic measure
 484              		.loc 1 369 0
 485 0064 0028     		cmp	r0, #0
 486 0066 1DD0     		beq	.L41
 370:Generated_Source\PSoC4/BLE_hts.c ****                         {
 371:Generated_Source\PSoC4/BLE_hts.c ****                             /* Check Valid range for Measure Interval characteristic value */
 372:Generated_Source\PSoC4/BLE_hts.c ****                             if(CyBle_HtssGetCharacteristicDescriptor(locCharIndex, CYBLE_HTS_VRD, 
 487              		.loc 1 372 0
 488 0068 01AB     		add	r3, sp, #4
 489 006a 0422     		movs	r2, #4
 490 006c 0121     		movs	r1, #1
 491 006e 2000     		movs	r0, r4
 492              	.LVL53:
 493 0070 FFF7FEFF 		bl	CyBle_HtssGetCharacteristicDescriptor
 494              	.LVL54:
 495 0074 0028     		cmp	r0, #0
 496 0076 15D1     		bne	.L41
 497              	.LBB3:
 373:Generated_Source\PSoC4/BLE_hts.c ****                                                     CYBLE_HTS_VRD_LEN, locAttrValue) == CYBLE_ERROR
 374:Generated_Source\PSoC4/BLE_hts.c ****                             {
 375:Generated_Source\PSoC4/BLE_hts.c ****                                 uint16 lowerValue;
 376:Generated_Source\PSoC4/BLE_hts.c ****                                 uint16 upperValue;
 377:Generated_Source\PSoC4/BLE_hts.c ****                                 
 378:Generated_Source\PSoC4/BLE_hts.c ****                                 lowerValue = CyBle_Get16ByPtr(locAttrValue);
 498              		.loc 1 378 0
 499 0078 01A8     		add	r0, sp, #4
 500 007a FFF7FEFF 		bl	CyBle_Get16ByPtr
 501              	.LVL55:
 502 007e 8046     		mov	r8, r0
 503              	.LVL56:
 379:Generated_Source\PSoC4/BLE_hts.c ****                                 upperValue = CyBle_Get16ByPtr(locAttrValue + sizeof(lowerValue));
 504              		.loc 1 379 0
 505 0080 6B46     		mov	r3, sp
 506 0082 981D     		adds	r0, r3, #6
 507              	.LVL57:
 508 0084 FFF7FEFF 		bl	CyBle_Get16ByPtr
 509              	.LVL58:
 510 0088 0700     		movs	r7, r0
 511              	.LVL59:
 380:Generated_Source\PSoC4/BLE_hts.c ****                                 requestValue = CyBle_Get16ByPtr(eventParam->handleValPair.value.val
 512              		.loc 1 380 0
 513 008a 6868     		ldr	r0, [r5, #4]
 514              	.LVL60:
 515 008c FFF7FEFF 		bl	CyBle_Get16ByPtr
 516              	.LVL61:
 381:Generated_Source\PSoC4/BLE_hts.c ****                                 if((requestValue != 0u) && ((requestValue < lowerValue) || (request
 517              		.loc 1 381 0
 518 0090 0028     		cmp	r0, #0
 519 0092 07D0     		beq	.L41
ARM GAS  C:\Users\Intern\AppData\Local\Temp\cc8BAy1D.s 			page 17


 520              		.loc 1 381 0 is_stmt 0 discriminator 1
 521 0094 8045     		cmp	r8, r0
 522 0096 02D8     		bhi	.L50
 523              		.loc 1 381 0 discriminator 2
 524 0098 8742     		cmp	r7, r0
 525 009a 02D3     		bcc	.L51
 526 009c 02E0     		b	.L41
 527              	.L50:
 382:Generated_Source\PSoC4/BLE_hts.c ****                                 {
 383:Generated_Source\PSoC4/BLE_hts.c ****                                     gattErr = CYBLE_GATT_ERR_HTS_OUT_OF_RANGE;
 528              		.loc 1 383 0 is_stmt 1
 529 009e 8026     		movs	r6, #128
 530              	.LVL62:
 531 00a0 00E0     		b	.L41
 532              	.LVL63:
 533              	.L51:
 534 00a2 8026     		movs	r6, #128
 535              	.LVL64:
 536              	.L41:
 537              	.LBE3:
 538              	.LBE2:
 384:Generated_Source\PSoC4/BLE_hts.c ****                                 }
 385:Generated_Source\PSoC4/BLE_hts.c ****                             }
 386:Generated_Source\PSoC4/BLE_hts.c ****                         }
 387:Generated_Source\PSoC4/BLE_hts.c ****                     }
 388:Generated_Source\PSoC4/BLE_hts.c ****                     if(gattErr == CYBLE_GATT_ERR_NONE)
 539              		.loc 1 388 0
 540 00a4 002E     		cmp	r6, #0
 541 00a6 4ED1     		bne	.L43
 389:Generated_Source\PSoC4/BLE_hts.c ****                     {   /* Store value to database */
 390:Generated_Source\PSoC4/BLE_hts.c ****                         gattErr = CyBle_GattsWriteAttributeValue(&eventParam->handleValPair, 0u, 
 542              		.loc 1 390 0
 543 00a8 281D     		adds	r0, r5, #4
 544 00aa 4023     		movs	r3, #64
 545 00ac 2A00     		movs	r2, r5
 546 00ae 0021     		movs	r1, #0
 547 00b0 FFF7FEFF 		bl	CyBle_GattsWriteAttributeValue
 548              	.LVL65:
 549 00b4 061E     		subs	r6, r0, #0
 550              	.LVL66:
 391:Generated_Source\PSoC4/BLE_hts.c ****                                     &eventParam->connHandle, CYBLE_GATT_DB_PEER_INITIATED);
 392:Generated_Source\PSoC4/BLE_hts.c ****                         if(gattErr == CYBLE_GATT_ERR_NONE)
 551              		.loc 1 392 0
 552 00b6 46D1     		bne	.L43
 393:Generated_Source\PSoC4/BLE_hts.c ****                         {
 394:Generated_Source\PSoC4/BLE_hts.c ****                             CyBle_HtsApplCallback((uint32)CYBLE_EVT_HTSS_CHAR_WRITE, &locCharValue)
 553              		.loc 1 394 0
 554 00b8 2E4B     		ldr	r3, .L52
 555 00ba 5B68     		ldr	r3, [r3, #4]
 556 00bc 02A9     		add	r1, sp, #8
 557 00be DB20     		movs	r0, #219
 558              	.LVL67:
 559 00c0 4000     		lsls	r0, r0, #1
 560 00c2 9847     		blx	r3
 561              	.LVL68:
 562 00c4 3FE0     		b	.L43
 563              	.L40:
ARM GAS  C:\Users\Intern\AppData\Local\Temp\cc8BAy1D.s 			page 18


 395:Generated_Source\PSoC4/BLE_hts.c ****                         }
 396:Generated_Source\PSoC4/BLE_hts.c ****                     }    
 397:Generated_Source\PSoC4/BLE_hts.c ****                 }
 398:Generated_Source\PSoC4/BLE_hts.c ****                 else /* Client Characteristic Configuration descriptor write request */
 399:Generated_Source\PSoC4/BLE_hts.c ****                 {
 400:Generated_Source\PSoC4/BLE_hts.c ****                     /* Store value to database */
 401:Generated_Source\PSoC4/BLE_hts.c ****                     gattErr = CyBle_GattsWriteAttributeValue(&eventParam->handleValPair, 0u, 
 564              		.loc 1 401 0
 565 00c6 281D     		adds	r0, r5, #4
 566 00c8 4023     		movs	r3, #64
 567 00ca 2A00     		movs	r2, r5
 568 00cc 0021     		movs	r1, #0
 569 00ce FFF7FEFF 		bl	CyBle_GattsWriteAttributeValue
 570              	.LVL69:
 571 00d2 061E     		subs	r6, r0, #0
 572              	.LVL70:
 402:Generated_Source\PSoC4/BLE_hts.c ****                                     &eventParam->connHandle, CYBLE_GATT_DB_PEER_INITIATED);
 403:Generated_Source\PSoC4/BLE_hts.c ****                     if(gattErr == CYBLE_GATT_ERR_NONE)
 573              		.loc 1 403 0
 574 00d4 37D1     		bne	.L43
 404:Generated_Source\PSoC4/BLE_hts.c ****                     {
 405:Generated_Source\PSoC4/BLE_hts.c ****                         /* Check characteristic properties for Notification */
 406:Generated_Source\PSoC4/BLE_hts.c ****                         if(CYBLE_IS_NOTIFICATION_SUPPORTED(cyBle_htss.charInfo[locCharIndex].charHa
 575              		.loc 1 406 0
 576 00d6 013F     		subs	r7, r7, #1
 577 00d8 BB00     		lsls	r3, r7, #2
 578 00da DF19     		adds	r7, r3, r7
 579 00dc BB00     		lsls	r3, r7, #2
 580 00de 274A     		ldr	r2, .L52+8
 581 00e0 D318     		adds	r3, r2, r3
 582 00e2 5F68     		ldr	r7, [r3, #4]
 583 00e4 FB02     		lsls	r3, r7, #11
 584 00e6 11D5     		bpl	.L44
 407:Generated_Source\PSoC4/BLE_hts.c ****                         {
 408:Generated_Source\PSoC4/BLE_hts.c ****                             if(CYBLE_IS_NOTIFICATION_ENABLED_IN_PTR(eventParam->handleValPair.value
 585              		.loc 1 408 0
 586 00e8 6868     		ldr	r0, [r5, #4]
 587              	.LVL71:
 588 00ea FFF7FEFF 		bl	CyBle_Get16ByPtr
 589              	.LVL72:
 590 00ee C307     		lsls	r3, r0, #31
 591 00f0 06D5     		bpl	.L45
 409:Generated_Source\PSoC4/BLE_hts.c ****                             {
 410:Generated_Source\PSoC4/BLE_hts.c ****                                 CyBle_HtsApplCallback((uint32)CYBLE_EVT_HTSS_NOTIFICATION_ENABLED, 
 592              		.loc 1 410 0
 593 00f2 204B     		ldr	r3, .L52
 594 00f4 5B68     		ldr	r3, [r3, #4]
 595 00f6 02A9     		add	r1, sp, #8
 596 00f8 B220     		movs	r0, #178
 597 00fa FF30     		adds	r0, r0, #255
 598 00fc 9847     		blx	r3
 599              	.LVL73:
 600 00fe 05E0     		b	.L44
 601              	.L45:
 411:Generated_Source\PSoC4/BLE_hts.c ****                             }
 412:Generated_Source\PSoC4/BLE_hts.c ****                             else
 413:Generated_Source\PSoC4/BLE_hts.c ****                             {
ARM GAS  C:\Users\Intern\AppData\Local\Temp\cc8BAy1D.s 			page 19


 414:Generated_Source\PSoC4/BLE_hts.c ****                                 CyBle_HtsApplCallback((uint32)CYBLE_EVT_HTSS_NOTIFICATION_DISABLED,
 602              		.loc 1 414 0
 603 0100 1C4B     		ldr	r3, .L52
 604 0102 5B68     		ldr	r3, [r3, #4]
 605 0104 02A9     		add	r1, sp, #8
 606 0106 D920     		movs	r0, #217
 607 0108 4000     		lsls	r0, r0, #1
 608 010a 9847     		blx	r3
 609              	.LVL74:
 610              	.L44:
 415:Generated_Source\PSoC4/BLE_hts.c ****                             }
 416:Generated_Source\PSoC4/BLE_hts.c ****                         }
 417:Generated_Source\PSoC4/BLE_hts.c ****                         /* Check characteristic properties for Indication */
 418:Generated_Source\PSoC4/BLE_hts.c ****                         if(CYBLE_IS_INDICATION_SUPPORTED(cyBle_htss.charInfo[locCharIndex].charHand
 611              		.loc 1 418 0
 612 010c BB02     		lsls	r3, r7, #10
 613 010e 11D5     		bpl	.L46
 419:Generated_Source\PSoC4/BLE_hts.c ****                         {
 420:Generated_Source\PSoC4/BLE_hts.c ****                             if(CYBLE_IS_INDICATION_ENABLED_IN_PTR(eventParam->handleValPair.value.v
 614              		.loc 1 420 0
 615 0110 6868     		ldr	r0, [r5, #4]
 616 0112 FFF7FEFF 		bl	CyBle_Get16ByPtr
 617              	.LVL75:
 618 0116 8307     		lsls	r3, r0, #30
 619 0118 06D5     		bpl	.L47
 421:Generated_Source\PSoC4/BLE_hts.c ****                             {
 422:Generated_Source\PSoC4/BLE_hts.c ****                                 CyBle_HtsApplCallback((uint32)CYBLE_EVT_HTSS_INDICATION_ENABLED, &l
 620              		.loc 1 422 0
 621 011a 164B     		ldr	r3, .L52
 622 011c 5B68     		ldr	r3, [r3, #4]
 623 011e 02A9     		add	r1, sp, #8
 624 0120 B420     		movs	r0, #180
 625 0122 FF30     		adds	r0, r0, #255
 626 0124 9847     		blx	r3
 627              	.LVL76:
 628 0126 05E0     		b	.L46
 629              	.L47:
 423:Generated_Source\PSoC4/BLE_hts.c ****                             }
 424:Generated_Source\PSoC4/BLE_hts.c ****                             else
 425:Generated_Source\PSoC4/BLE_hts.c ****                             {
 426:Generated_Source\PSoC4/BLE_hts.c ****                                 CyBle_HtsApplCallback((uint32)CYBLE_EVT_HTSS_INDICATION_DISABLED, &
 630              		.loc 1 426 0
 631 0128 124B     		ldr	r3, .L52
 632 012a 5B68     		ldr	r3, [r3, #4]
 633 012c 02A9     		add	r1, sp, #8
 634 012e DA20     		movs	r0, #218
 635 0130 4000     		lsls	r0, r0, #1
 636 0132 9847     		blx	r3
 637              	.LVL77:
 638              	.L46:
 427:Generated_Source\PSoC4/BLE_hts.c ****                             }
 428:Generated_Source\PSoC4/BLE_hts.c ****                         }
 429:Generated_Source\PSoC4/BLE_hts.c ****                     #if((CYBLE_GAP_ROLE_PERIPHERAL || CYBLE_GAP_ROLE_CENTRAL) && \
 430:Generated_Source\PSoC4/BLE_hts.c ****                         (CYBLE_BONDING_REQUIREMENT == CYBLE_BONDING_YES))
 431:Generated_Source\PSoC4/BLE_hts.c ****                         /* Set flag to store bonding data to flash */
 432:Generated_Source\PSoC4/BLE_hts.c ****                         if(cyBle_peerBonding == CYBLE_GAP_BONDING)
 639              		.loc 1 432 0
ARM GAS  C:\Users\Intern\AppData\Local\Temp\cc8BAy1D.s 			page 20


 640 0134 124B     		ldr	r3, .L52+12
 641 0136 1B78     		ldrb	r3, [r3]
 642 0138 012B     		cmp	r3, #1
 643 013a 04D1     		bne	.L43
 433:Generated_Source\PSoC4/BLE_hts.c ****                         {
 434:Generated_Source\PSoC4/BLE_hts.c ****                             cyBle_pendingFlashWrite |= CYBLE_PENDING_CCCD_FLASH_WRITE_BIT;
 644              		.loc 1 434 0
 645 013c 114A     		ldr	r2, .L52+16
 646 013e 1178     		ldrb	r1, [r2]
 647 0140 0223     		movs	r3, #2
 648 0142 0B43     		orrs	r3, r1
 649 0144 1370     		strb	r3, [r2]
 650              	.LVL78:
 651              	.L43:
 435:Generated_Source\PSoC4/BLE_hts.c ****                         }
 436:Generated_Source\PSoC4/BLE_hts.c ****                     #endif /* (CYBLE_BONDING_REQUIREMENT == CYBLE_BONDING_YES) */
 437:Generated_Source\PSoC4/BLE_hts.c ****                         
 438:Generated_Source\PSoC4/BLE_hts.c ****                     }
 439:Generated_Source\PSoC4/BLE_hts.c ****                 }
 440:Generated_Source\PSoC4/BLE_hts.c ****                 cyBle_eventHandlerFlag &= (uint8)~CYBLE_CALLBACK;
 652              		.loc 1 440 0
 653 0146 104A     		ldr	r2, .L52+20
 654 0148 1378     		ldrb	r3, [r2]
 655 014a 0121     		movs	r1, #1
 656 014c 8B43     		bics	r3, r1
 657 014e 1370     		strb	r3, [r2]
 658              	.LVL79:
 441:Generated_Source\PSoC4/BLE_hts.c ****                 locReqHandle = 1u;
 659              		.loc 1 441 0
 660 0150 0127     		movs	r7, #1
 661              	.LVL80:
 662              	.L39:
 349:Generated_Source\PSoC4/BLE_hts.c ****         {
 663              		.loc 1 349 0
 664 0152 0134     		adds	r4, r4, #1
 665              	.LVL81:
 666 0154 E4B2     		uxtb	r4, r4
 667              	.LVL82:
 668 0156 02E0     		b	.L36
 669              	.LVL83:
 670              	.L49:
 671 0158 0027     		movs	r7, #0
 672 015a 0026     		movs	r6, #0
 673 015c 0024     		movs	r4, #0
 674              	.LVL84:
 675              	.L36:
 348:Generated_Source\PSoC4/BLE_hts.c ****             locCharIndex++)
 676              		.loc 1 348 0 discriminator 1
 677 015e 032C     		cmp	r4, #3
 678 0160 02D8     		bhi	.L37
 348:Generated_Source\PSoC4/BLE_hts.c ****             locCharIndex++)
 679              		.loc 1 348 0 is_stmt 0 discriminator 2
 680 0162 002F     		cmp	r7, #0
 681 0164 00D1     		bne	.LCB668
 682 0166 57E7     		b	.L48	@long jump
 683              	.LCB668:
 684              	.LVL85:
ARM GAS  C:\Users\Intern\AppData\Local\Temp\cc8BAy1D.s 			page 21


 685              	.L37:
 442:Generated_Source\PSoC4/BLE_hts.c ****             }
 443:Generated_Source\PSoC4/BLE_hts.c ****         }
 444:Generated_Source\PSoC4/BLE_hts.c ****     }
 445:Generated_Source\PSoC4/BLE_hts.c ****     return (gattErr);
 446:Generated_Source\PSoC4/BLE_hts.c **** }
 686              		.loc 1 446 0 is_stmt 1
 687 0168 3000     		movs	r0, r6
 688 016a 04B0     		add	sp, sp, #16
 689              		@ sp needed
 690              	.LVL86:
 691              	.LVL87:
 692 016c 04BC     		pop	{r2}
 693 016e 9046     		mov	r8, r2
 694 0170 F0BD     		pop	{r4, r5, r6, r7, pc}
 695              	.L53:
 696 0172 C046     		.align	2
 697              	.L52:
 698 0174 00000000 		.word	.LANCHOR0
 699 0178 00000000 		.word	.LANCHOR1
 700 017c 00000000 		.word	cyBle_gattDB
 701 0180 00000000 		.word	cyBle_peerBonding
 702 0184 00000000 		.word	cyBle_pendingFlashWrite
 703 0188 00000000 		.word	cyBle_eventHandlerFlag
 704              		.cfi_endproc
 705              	.LFE8:
 706              		.size	CyBle_HtssWriteEventHandler, .-CyBle_HtssWriteEventHandler
 707              		.section	.text.CyBle_HtssSendNotification,"ax",%progbits
 708              		.align	2
 709              		.global	CyBle_HtssSendNotification
 710              		.code	16
 711              		.thumb_func
 712              		.type	CyBle_HtssSendNotification, %function
 713              	CyBle_HtssSendNotification:
 714              	.LFB9:
 447:Generated_Source\PSoC4/BLE_hts.c **** 
 448:Generated_Source\PSoC4/BLE_hts.c **** 
 449:Generated_Source\PSoC4/BLE_hts.c **** /******************************************************************************
 450:Generated_Source\PSoC4/BLE_hts.c **** * Function Name: CyBle_HtssSendNotification
 451:Generated_Source\PSoC4/BLE_hts.c **** ***************************************************************************//**
 452:Generated_Source\PSoC4/BLE_hts.c **** * 
 453:Generated_Source\PSoC4/BLE_hts.c **** *  Sends notification with a characteristic value of the Health Thermometer 
 454:Generated_Source\PSoC4/BLE_hts.c **** *  Service, which is a value specified by charIndex, to the Client device.
 455:Generated_Source\PSoC4/BLE_hts.c **** * 
 456:Generated_Source\PSoC4/BLE_hts.c **** *  On enabling notification successfully for a service characteristic it sends
 457:Generated_Source\PSoC4/BLE_hts.c **** *  out a 'Handle Value Notification' which results in 
 458:Generated_Source\PSoC4/BLE_hts.c **** *  CYBLE_EVT_HTSC_NOTIFICATION event at the GATT Client's end.
 459:Generated_Source\PSoC4/BLE_hts.c **** *
 460:Generated_Source\PSoC4/BLE_hts.c **** *  \param connHandle: The connection handle.
 461:Generated_Source\PSoC4/BLE_hts.c **** *  \param charIndex:  The index of the service characteristic.
 462:Generated_Source\PSoC4/BLE_hts.c **** *  \param attrSize:   The size of the characteristic value attribute.
 463:Generated_Source\PSoC4/BLE_hts.c **** *  \param attrValue:  The pointer to the characteristic value data that should 
 464:Generated_Source\PSoC4/BLE_hts.c **** *                     be sent to the client's device.
 465:Generated_Source\PSoC4/BLE_hts.c **** * 
 466:Generated_Source\PSoC4/BLE_hts.c **** * \return
 467:Generated_Source\PSoC4/BLE_hts.c **** *  Return value is of type CYBLE_API_RESULT_T.
 468:Generated_Source\PSoC4/BLE_hts.c **** *   * CYBLE_ERROR_OK - The request handled successfully.
ARM GAS  C:\Users\Intern\AppData\Local\Temp\cc8BAy1D.s 			page 22


 469:Generated_Source\PSoC4/BLE_hts.c **** *   * CYBLE_ERROR_INVALID_PARAMETER - Validation of the input parameter failed.
 470:Generated_Source\PSoC4/BLE_hts.c **** *   * CYBLE_ERROR_INVALID_OPERATION - This operation is not permitted.
 471:Generated_Source\PSoC4/BLE_hts.c **** *   * CYBLE_ERROR_INVALID_STATE - Connection with the client is not established.
 472:Generated_Source\PSoC4/BLE_hts.c **** *   * CYBLE_ERROR_MEMORY_ALLOCATION_FAILED - Memory allocation failed. 
 473:Generated_Source\PSoC4/BLE_hts.c **** *   * CYBLE_ERROR_NTF_DISABLED - Notification is not enabled by the client.
 474:Generated_Source\PSoC4/BLE_hts.c **** *
 475:Generated_Source\PSoC4/BLE_hts.c **** ******************************************************************************/
 476:Generated_Source\PSoC4/BLE_hts.c **** CYBLE_API_RESULT_T CyBle_HtssSendNotification(CYBLE_CONN_HANDLE_T connHandle,
 477:Generated_Source\PSoC4/BLE_hts.c ****     CYBLE_HTS_CHAR_INDEX_T charIndex, uint8 attrSize, uint8 *attrValue)
 478:Generated_Source\PSoC4/BLE_hts.c **** {
 715              		.loc 1 478 0
 716              		.cfi_startproc
 717              		@ args = 0, pretend = 0, frame = 24
 718              		@ frame_needed = 0, uses_anonymous_args = 0
 719              	.LVL88:
 720 0000 70B5     		push	{r4, r5, r6, lr}
 721              		.cfi_def_cfa_offset 16
 722              		.cfi_offset 4, -16
 723              		.cfi_offset 5, -12
 724              		.cfi_offset 6, -8
 725              		.cfi_offset 14, -4
 726 0002 86B0     		sub	sp, sp, #24
 727              		.cfi_def_cfa_offset 40
 728 0004 01AC     		add	r4, sp, #4
 729 0006 2080     		strh	r0, [r4]
 730 0008 0C00     		movs	r4, r1
 731 000a 1500     		movs	r5, r2
 732 000c 1E00     		movs	r6, r3
 479:Generated_Source\PSoC4/BLE_hts.c **** 
 480:Generated_Source\PSoC4/BLE_hts.c ****     CYBLE_API_RESULT_T apiResult;
 481:Generated_Source\PSoC4/BLE_hts.c ****     
 482:Generated_Source\PSoC4/BLE_hts.c ****     /* Send Notification if it is enabled and connected */
 483:Generated_Source\PSoC4/BLE_hts.c ****     if(CYBLE_STATE_CONNECTED != CyBle_GetState())
 733              		.loc 1 483 0
 734 000e 154B     		ldr	r3, .L58
 735              	.LVL89:
 736 0010 1B78     		ldrb	r3, [r3]
 737 0012 022B     		cmp	r3, #2
 738 0014 1FD1     		bne	.L56
 484:Generated_Source\PSoC4/BLE_hts.c ****     {
 485:Generated_Source\PSoC4/BLE_hts.c ****         apiResult = CYBLE_ERROR_INVALID_STATE;
 486:Generated_Source\PSoC4/BLE_hts.c ****     }
 487:Generated_Source\PSoC4/BLE_hts.c ****     else if(!CYBLE_IS_NOTIFICATION_ENABLED(cyBle_htss.charInfo[charIndex].descrHandle[CYBLE_HTS_CCC
 739              		.loc 1 487 0
 740 0016 4A00     		lsls	r2, r1, #1
 741              	.LVL90:
 742 0018 5218     		adds	r2, r2, r1
 743 001a 5300     		lsls	r3, r2, #1
 744 001c 124A     		ldr	r2, .L58+4
 745 001e D318     		adds	r3, r2, r3
 746 0020 9B88     		ldrh	r3, [r3, #4]
 747 0022 013B     		subs	r3, r3, #1
 748 0024 9A00     		lsls	r2, r3, #2
 749 0026 D318     		adds	r3, r2, r3
 750 0028 9A00     		lsls	r2, r3, #2
 751 002a 104B     		ldr	r3, .L58+8
 752 002c 9A18     		adds	r2, r3, r2
ARM GAS  C:\Users\Intern\AppData\Local\Temp\cc8BAy1D.s 			page 23


 753 002e 1369     		ldr	r3, [r2, #16]
 754 0030 5868     		ldr	r0, [r3, #4]
 755 0032 FFF7FEFF 		bl	CyBle_Get16ByPtr
 756              	.LVL91:
 757 0036 C307     		lsls	r3, r0, #31
 758 0038 10D5     		bpl	.L57
 759              	.LBB4:
 488:Generated_Source\PSoC4/BLE_hts.c ****     {
 489:Generated_Source\PSoC4/BLE_hts.c ****         apiResult = CYBLE_ERROR_NTF_DISABLED;
 490:Generated_Source\PSoC4/BLE_hts.c ****     }
 491:Generated_Source\PSoC4/BLE_hts.c ****     else
 492:Generated_Source\PSoC4/BLE_hts.c ****     {
 493:Generated_Source\PSoC4/BLE_hts.c ****         CYBLE_GATTS_HANDLE_VALUE_NTF_T ntfReqParam;
 494:Generated_Source\PSoC4/BLE_hts.c ****         
 495:Generated_Source\PSoC4/BLE_hts.c ****         /* Fill all fields of write request structure ... */
 496:Generated_Source\PSoC4/BLE_hts.c ****         ntfReqParam.attrHandle = cyBle_htss.charInfo[charIndex].charHandle;
 760              		.loc 1 496 0
 761 003a 6300     		lsls	r3, r4, #1
 762 003c 1C19     		adds	r4, r3, r4
 763 003e 6300     		lsls	r3, r4, #1
 764 0040 094A     		ldr	r2, .L58+4
 765 0042 D318     		adds	r3, r2, r3
 766 0044 5B88     		ldrh	r3, [r3, #2]
 767 0046 03A9     		add	r1, sp, #12
 768 0048 0B81     		strh	r3, [r1, #8]
 497:Generated_Source\PSoC4/BLE_hts.c ****         ntfReqParam.value.val = attrValue;
 769              		.loc 1 497 0
 770 004a 0396     		str	r6, [sp, #12]
 498:Generated_Source\PSoC4/BLE_hts.c ****         ntfReqParam.value.len = attrSize;
 771              		.loc 1 498 0
 772 004c 8D80     		strh	r5, [r1, #4]
 499:Generated_Source\PSoC4/BLE_hts.c ****         
 500:Generated_Source\PSoC4/BLE_hts.c ****         /* Send notification to client using previously filled structure */
 501:Generated_Source\PSoC4/BLE_hts.c ****         apiResult = CyBle_GattsNotification(connHandle, &ntfReqParam);
 773              		.loc 1 501 0
 774 004e 0198     		ldr	r0, [sp, #4]
 775 0050 FFF7FEFF 		bl	CyBle_GattsNotification
 776              	.LVL92:
 777 0054 04E0     		b	.L55
 778              	.LVL93:
 779              	.L56:
 780              	.LBE4:
 485:Generated_Source\PSoC4/BLE_hts.c ****     }
 781              		.loc 1 485 0
 782 0056 0420     		movs	r0, #4
 783 0058 FF30     		adds	r0, r0, #255
 784 005a 01E0     		b	.L55
 785              	.LVL94:
 786              	.L57:
 489:Generated_Source\PSoC4/BLE_hts.c ****     }
 787              		.loc 1 489 0
 788 005c 8020     		movs	r0, #128
 789 005e 4000     		lsls	r0, r0, #1
 790              	.L55:
 791              	.LVL95:
 502:Generated_Source\PSoC4/BLE_hts.c ****     }
 503:Generated_Source\PSoC4/BLE_hts.c **** 
ARM GAS  C:\Users\Intern\AppData\Local\Temp\cc8BAy1D.s 			page 24


 504:Generated_Source\PSoC4/BLE_hts.c ****     return (apiResult);
 505:Generated_Source\PSoC4/BLE_hts.c **** }
 792              		.loc 1 505 0
 793 0060 06B0     		add	sp, sp, #24
 794              		@ sp needed
 795              	.LVL96:
 796 0062 70BD     		pop	{r4, r5, r6, pc}
 797              	.L59:
 798              		.align	2
 799              	.L58:
 800 0064 00000000 		.word	cyBle_state
 801 0068 00000000 		.word	.LANCHOR1
 802 006c 00000000 		.word	cyBle_gattDB
 803              		.cfi_endproc
 804              	.LFE9:
 805              		.size	CyBle_HtssSendNotification, .-CyBle_HtssSendNotification
 806              		.section	.text.CyBle_HtssSendIndication,"ax",%progbits
 807              		.align	2
 808              		.global	CyBle_HtssSendIndication
 809              		.code	16
 810              		.thumb_func
 811              		.type	CyBle_HtssSendIndication, %function
 812              	CyBle_HtssSendIndication:
 813              	.LFB10:
 506:Generated_Source\PSoC4/BLE_hts.c **** 
 507:Generated_Source\PSoC4/BLE_hts.c **** 
 508:Generated_Source\PSoC4/BLE_hts.c **** /******************************************************************************
 509:Generated_Source\PSoC4/BLE_hts.c **** * Function Name: CyBle_HtssSendIndication
 510:Generated_Source\PSoC4/BLE_hts.c **** ***************************************************************************//**
 511:Generated_Source\PSoC4/BLE_hts.c **** * 
 512:Generated_Source\PSoC4/BLE_hts.c **** *  Sends indication with a characteristic value of the Health Thermometer 
 513:Generated_Source\PSoC4/BLE_hts.c **** *  Service, which is a value specified by charIndex, to the Client device.
 514:Generated_Source\PSoC4/BLE_hts.c **** *
 515:Generated_Source\PSoC4/BLE_hts.c **** *  On enabling indication successfully it sends out a 'Handle Value Indication'
 516:Generated_Source\PSoC4/BLE_hts.c **** *  which results in CYBLE_EVT_HTSC_INDICATION or 
 517:Generated_Source\PSoC4/BLE_hts.c **** *  CYBLE_EVT_GATTC_HANDLE_VALUE_IND (if service specific callback function is 
 518:Generated_Source\PSoC4/BLE_hts.c **** *  not registered) event at the GATT Client's end.
 519:Generated_Source\PSoC4/BLE_hts.c **** *
 520:Generated_Source\PSoC4/BLE_hts.c **** *  \param connHandle: The connection handle.
 521:Generated_Source\PSoC4/BLE_hts.c **** *  \param charIndex:  The index of the service characteristic.
 522:Generated_Source\PSoC4/BLE_hts.c **** *  \param attrSize:   The size of the characteristic value attribute.
 523:Generated_Source\PSoC4/BLE_hts.c **** *  \param attrValue:  The pointer to the characteristic value data that should be
 524:Generated_Source\PSoC4/BLE_hts.c **** *                     sent to the Client device.
 525:Generated_Source\PSoC4/BLE_hts.c **** * 
 526:Generated_Source\PSoC4/BLE_hts.c **** * \return
 527:Generated_Source\PSoC4/BLE_hts.c **** *  Return value is of type CYBLE_API_RESULT_T.
 528:Generated_Source\PSoC4/BLE_hts.c **** *   * CYBLE_ERROR_OK - The request handled successfully.
 529:Generated_Source\PSoC4/BLE_hts.c **** *   * CYBLE_ERROR_INVALID_PARAMETER - Validation of the input parameter failed.
 530:Generated_Source\PSoC4/BLE_hts.c **** *   * CYBLE_ERROR_INVALID_OPERATION - This operation is not permitted.
 531:Generated_Source\PSoC4/BLE_hts.c **** *   * CYBLE_ERROR_INVALID_STATE - Connection with the client is not established.
 532:Generated_Source\PSoC4/BLE_hts.c **** *   * CYBLE_ERROR_MEMORY_ALLOCATION_FAILED - Memory allocation failed.
 533:Generated_Source\PSoC4/BLE_hts.c **** *   * CYBLE_ERROR_IND_DISABLED - Indication is not enabled by the client.
 534:Generated_Source\PSoC4/BLE_hts.c **** *
 535:Generated_Source\PSoC4/BLE_hts.c **** * \events
 536:Generated_Source\PSoC4/BLE_hts.c **** *  In case of successful execution (return value = CYBLE_ERROR_OK)
 537:Generated_Source\PSoC4/BLE_hts.c **** *  the next events can appear: \n
 538:Generated_Source\PSoC4/BLE_hts.c **** *   If the HTS service-specific callback is registered 
ARM GAS  C:\Users\Intern\AppData\Local\Temp\cc8BAy1D.s 			page 25


 539:Generated_Source\PSoC4/BLE_hts.c **** *      (with CyBle_HtsRegisterAttrCallback):
 540:Generated_Source\PSoC4/BLE_hts.c **** *  * CYBLE_EVT_HTSS_INDICATION_CONFIRMED - in case if the indication is
 541:Generated_Source\PSoC4/BLE_hts.c **** *                                successfully delivered to the peer device.
 542:Generated_Source\PSoC4/BLE_hts.c **** *  .
 543:Generated_Source\PSoC4/BLE_hts.c **** *   Otherwise (if the HTS service-specific callback is not registered):
 544:Generated_Source\PSoC4/BLE_hts.c **** *  * CYBLE_EVT_GATTS_HANDLE_VALUE_CNF - in case if the indication is
 545:Generated_Source\PSoC4/BLE_hts.c **** *                                successfully delivered to the peer device.
 546:Generated_Source\PSoC4/BLE_hts.c **** *
 547:Generated_Source\PSoC4/BLE_hts.c **** ******************************************************************************/
 548:Generated_Source\PSoC4/BLE_hts.c **** CYBLE_API_RESULT_T CyBle_HtssSendIndication(CYBLE_CONN_HANDLE_T connHandle,
 549:Generated_Source\PSoC4/BLE_hts.c ****     CYBLE_HTS_CHAR_INDEX_T charIndex, uint8 attrSize, uint8 *attrValue)
 550:Generated_Source\PSoC4/BLE_hts.c **** {
 814              		.loc 1 550 0
 815              		.cfi_startproc
 816              		@ args = 0, pretend = 0, frame = 24
 817              		@ frame_needed = 0, uses_anonymous_args = 0
 818              	.LVL97:
 819 0000 70B5     		push	{r4, r5, r6, lr}
 820              		.cfi_def_cfa_offset 16
 821              		.cfi_offset 4, -16
 822              		.cfi_offset 5, -12
 823              		.cfi_offset 6, -8
 824              		.cfi_offset 14, -4
 825 0002 86B0     		sub	sp, sp, #24
 826              		.cfi_def_cfa_offset 40
 827 0004 01AC     		add	r4, sp, #4
 828 0006 2080     		strh	r0, [r4]
 829 0008 0C00     		movs	r4, r1
 830 000a 1500     		movs	r5, r2
 831 000c 1E00     		movs	r6, r3
 551:Generated_Source\PSoC4/BLE_hts.c ****     CYBLE_API_RESULT_T apiResult;
 552:Generated_Source\PSoC4/BLE_hts.c ****     
 553:Generated_Source\PSoC4/BLE_hts.c ****     /* Send Notification if it is enabled and connected */
 554:Generated_Source\PSoC4/BLE_hts.c ****     if(CYBLE_STATE_CONNECTED != CyBle_GetState())
 832              		.loc 1 554 0
 833 000e 184B     		ldr	r3, .L65
 834              	.LVL98:
 835 0010 1B78     		ldrb	r3, [r3]
 836 0012 022B     		cmp	r3, #2
 837 0014 25D1     		bne	.L63
 555:Generated_Source\PSoC4/BLE_hts.c ****     {
 556:Generated_Source\PSoC4/BLE_hts.c ****         apiResult = CYBLE_ERROR_INVALID_STATE;
 557:Generated_Source\PSoC4/BLE_hts.c ****     }
 558:Generated_Source\PSoC4/BLE_hts.c ****     else if(!CYBLE_IS_INDICATION_ENABLED(cyBle_htss.charInfo[charIndex].descrHandle[CYBLE_HTS_CCCD]
 838              		.loc 1 558 0
 839 0016 4A00     		lsls	r2, r1, #1
 840              	.LVL99:
 841 0018 5218     		adds	r2, r2, r1
 842 001a 5300     		lsls	r3, r2, #1
 843 001c 154A     		ldr	r2, .L65+4
 844 001e D318     		adds	r3, r2, r3
 845 0020 9B88     		ldrh	r3, [r3, #4]
 846 0022 013B     		subs	r3, r3, #1
 847 0024 9A00     		lsls	r2, r3, #2
 848 0026 D318     		adds	r3, r2, r3
 849 0028 9A00     		lsls	r2, r3, #2
 850 002a 134B     		ldr	r3, .L65+8
ARM GAS  C:\Users\Intern\AppData\Local\Temp\cc8BAy1D.s 			page 26


 851 002c 9A18     		adds	r2, r3, r2
 852 002e 1369     		ldr	r3, [r2, #16]
 853 0030 5868     		ldr	r0, [r3, #4]
 854 0032 FFF7FEFF 		bl	CyBle_Get16ByPtr
 855              	.LVL100:
 856 0036 8307     		lsls	r3, r0, #30
 857 0038 16D5     		bpl	.L64
 858              	.LBB5:
 559:Generated_Source\PSoC4/BLE_hts.c ****     {
 560:Generated_Source\PSoC4/BLE_hts.c ****         apiResult = CYBLE_ERROR_IND_DISABLED;
 561:Generated_Source\PSoC4/BLE_hts.c ****     }
 562:Generated_Source\PSoC4/BLE_hts.c ****     else
 563:Generated_Source\PSoC4/BLE_hts.c ****     {
 564:Generated_Source\PSoC4/BLE_hts.c ****         CYBLE_GATTS_HANDLE_VALUE_NTF_T ntfReqParam;
 565:Generated_Source\PSoC4/BLE_hts.c ****         
 566:Generated_Source\PSoC4/BLE_hts.c ****         /* Fill all fields of write request structure ... */
 567:Generated_Source\PSoC4/BLE_hts.c ****         ntfReqParam.attrHandle = cyBle_htss.charInfo[charIndex].charHandle;
 859              		.loc 1 567 0
 860 003a 6300     		lsls	r3, r4, #1
 861 003c 1C19     		adds	r4, r3, r4
 862 003e 6300     		lsls	r3, r4, #1
 863 0040 0C4A     		ldr	r2, .L65+4
 864 0042 D318     		adds	r3, r2, r3
 865 0044 5B88     		ldrh	r3, [r3, #2]
 866 0046 03A9     		add	r1, sp, #12
 867 0048 0B81     		strh	r3, [r1, #8]
 568:Generated_Source\PSoC4/BLE_hts.c ****         ntfReqParam.value.val = attrValue;
 868              		.loc 1 568 0
 869 004a 0396     		str	r6, [sp, #12]
 569:Generated_Source\PSoC4/BLE_hts.c ****         ntfReqParam.value.len = attrSize;
 870              		.loc 1 569 0
 871 004c 8D80     		strh	r5, [r1, #4]
 570:Generated_Source\PSoC4/BLE_hts.c ****         
 571:Generated_Source\PSoC4/BLE_hts.c ****         /* Send indication to client using previously filled structure */
 572:Generated_Source\PSoC4/BLE_hts.c ****         apiResult = CyBle_GattsIndication(connHandle, &ntfReqParam);
 872              		.loc 1 572 0
 873 004e 0198     		ldr	r0, [sp, #4]
 874 0050 FFF7FEFF 		bl	CyBle_GattsIndication
 875              	.LVL101:
 573:Generated_Source\PSoC4/BLE_hts.c ****         /* Save handle to support service specific value confirmation response from client */
 574:Generated_Source\PSoC4/BLE_hts.c ****         if(apiResult == CYBLE_ERROR_OK)
 876              		.loc 1 574 0
 877 0054 0028     		cmp	r0, #0
 878 0056 09D1     		bne	.L61
 575:Generated_Source\PSoC4/BLE_hts.c ****         {
 576:Generated_Source\PSoC4/BLE_hts.c ****             cyBle_htssReqHandle = ntfReqParam.attrHandle;
 879              		.loc 1 576 0
 880 0058 03AB     		add	r3, sp, #12
 881 005a 1A89     		ldrh	r2, [r3, #8]
 882 005c 074B     		ldr	r3, .L65+12
 883 005e 1A80     		strh	r2, [r3]
 884 0060 04E0     		b	.L61
 885              	.LVL102:
 886              	.L63:
 887              	.LBE5:
 556:Generated_Source\PSoC4/BLE_hts.c ****     }
 888              		.loc 1 556 0
ARM GAS  C:\Users\Intern\AppData\Local\Temp\cc8BAy1D.s 			page 27


 889 0062 0420     		movs	r0, #4
 890 0064 FF30     		adds	r0, r0, #255
 891 0066 01E0     		b	.L61
 892              	.LVL103:
 893              	.L64:
 560:Generated_Source\PSoC4/BLE_hts.c ****     }
 894              		.loc 1 560 0
 895 0068 0220     		movs	r0, #2
 896 006a FF30     		adds	r0, r0, #255
 897              	.L61:
 898              	.LVL104:
 577:Generated_Source\PSoC4/BLE_hts.c ****         }
 578:Generated_Source\PSoC4/BLE_hts.c ****     }
 579:Generated_Source\PSoC4/BLE_hts.c ****     return (apiResult);
 580:Generated_Source\PSoC4/BLE_hts.c **** }
 899              		.loc 1 580 0
 900 006c 06B0     		add	sp, sp, #24
 901              		@ sp needed
 902              	.LVL105:
 903 006e 70BD     		pop	{r4, r5, r6, pc}
 904              	.L66:
 905              		.align	2
 906              	.L65:
 907 0070 00000000 		.word	cyBle_state
 908 0074 00000000 		.word	.LANCHOR1
 909 0078 00000000 		.word	cyBle_gattDB
 910 007c 00000000 		.word	.LANCHOR0
 911              		.cfi_endproc
 912              	.LFE10:
 913              		.size	CyBle_HtssSendIndication, .-CyBle_HtssSendIndication
 914              		.section	.text.CyBle_HtssConfirmationEventHandler,"ax",%progbits
 915              		.align	2
 916              		.global	CyBle_HtssConfirmationEventHandler
 917              		.code	16
 918              		.thumb_func
 919              		.type	CyBle_HtssConfirmationEventHandler, %function
 920              	CyBle_HtssConfirmationEventHandler:
 921              	.LFB11:
 581:Generated_Source\PSoC4/BLE_hts.c **** 
 582:Generated_Source\PSoC4/BLE_hts.c **** 
 583:Generated_Source\PSoC4/BLE_hts.c **** /******************************************************************************
 584:Generated_Source\PSoC4/BLE_hts.c **** * Function Name: CyBle_HtssConfirmationEventHandler
 585:Generated_Source\PSoC4/BLE_hts.c **** ***************************************************************************//**
 586:Generated_Source\PSoC4/BLE_hts.c **** * 
 587:Generated_Source\PSoC4/BLE_hts.c **** *  Handles a Value Confirmation request event from the BLE stack.
 588:Generated_Source\PSoC4/BLE_hts.c **** * 
 589:Generated_Source\PSoC4/BLE_hts.c **** *  \param eventParam - The pointer to a structure of type CYBLE_CONN_HANDLE_T.
 590:Generated_Source\PSoC4/BLE_hts.c **** * 
 591:Generated_Source\PSoC4/BLE_hts.c **** ******************************************************************************/
 592:Generated_Source\PSoC4/BLE_hts.c **** void CyBle_HtssConfirmationEventHandler(const CYBLE_CONN_HANDLE_T *eventParam)
 593:Generated_Source\PSoC4/BLE_hts.c **** {
 922              		.loc 1 593 0
 923              		.cfi_startproc
 924              		@ args = 0, pretend = 0, frame = 8
 925              		@ frame_needed = 0, uses_anonymous_args = 0
 926              	.LVL106:
 927 0000 30B5     		push	{r4, r5, lr}
ARM GAS  C:\Users\Intern\AppData\Local\Temp\cc8BAy1D.s 			page 28


 928              		.cfi_def_cfa_offset 12
 929              		.cfi_offset 4, -12
 930              		.cfi_offset 5, -8
 931              		.cfi_offset 14, -4
 932 0002 83B0     		sub	sp, sp, #12
 933              		.cfi_def_cfa_offset 24
 934 0004 0500     		movs	r5, r0
 935              	.LVL107:
 594:Generated_Source\PSoC4/BLE_hts.c ****     CYBLE_HTS_CHAR_INDEX_T locCharIndex;
 595:Generated_Source\PSoC4/BLE_hts.c ****     CYBLE_HTS_CHAR_VALUE_T locCharValue;
 596:Generated_Source\PSoC4/BLE_hts.c ****     uint8 locReqHandle = 0u;
 597:Generated_Source\PSoC4/BLE_hts.c **** 
 598:Generated_Source\PSoC4/BLE_hts.c ****     if((NULL != CyBle_HtsApplCallback) && (CYBLE_GATT_INVALID_ATTR_HANDLE_VALUE != cyBle_htssReqHan
 936              		.loc 1 598 0
 937 0006 1A4B     		ldr	r3, .L73
 938 0008 5B68     		ldr	r3, [r3, #4]
 939 000a 002B     		cmp	r3, #0
 940 000c 2DD0     		beq	.L67
 941              		.loc 1 598 0 is_stmt 0 discriminator 1
 942 000e 184B     		ldr	r3, .L73
 943 0010 1B88     		ldrh	r3, [r3]
 944 0012 002B     		cmp	r3, #0
 945 0014 23D1     		bne	.L72
 946 0016 28E0     		b	.L67
 947              	.LVL108:
 948              	.L71:
 599:Generated_Source\PSoC4/BLE_hts.c ****     {
 600:Generated_Source\PSoC4/BLE_hts.c ****         for(locCharIndex = CYBLE_HTS_TEMP_MEASURE; (locCharIndex < CYBLE_HTS_CHAR_COUNT) && (locReq
 601:Generated_Source\PSoC4/BLE_hts.c ****             locCharIndex++)
 602:Generated_Source\PSoC4/BLE_hts.c ****         {
 603:Generated_Source\PSoC4/BLE_hts.c ****             if(cyBle_htssReqHandle == cyBle_htss.charInfo[locCharIndex].charHandle)
 949              		.loc 1 603 0 is_stmt 1
 950 0018 6200     		lsls	r2, r4, #1
 951 001a 1219     		adds	r2, r2, r4
 952 001c 5300     		lsls	r3, r2, #1
 953 001e 154A     		ldr	r2, .L73+4
 954 0020 D318     		adds	r3, r2, r3
 955 0022 5A88     		ldrh	r2, [r3, #2]
 956 0024 124B     		ldr	r3, .L73
 957 0026 1B88     		ldrh	r3, [r3]
 958 0028 9A42     		cmp	r2, r3
 959 002a 15D1     		bne	.L70
 604:Generated_Source\PSoC4/BLE_hts.c ****             {
 605:Generated_Source\PSoC4/BLE_hts.c ****                 locCharValue.connHandle = *eventParam;
 960              		.loc 1 605 0
 961 002c 0222     		movs	r2, #2
 962 002e 2900     		movs	r1, r5
 963              	.LVL109:
 964 0030 6846     		mov	r0, sp
 965 0032 FFF7FEFF 		bl	memcpy
 966              	.LVL110:
 606:Generated_Source\PSoC4/BLE_hts.c ****                 locCharValue.charIndex = locCharIndex;
 967              		.loc 1 606 0
 968 0036 6B46     		mov	r3, sp
 969 0038 9C70     		strb	r4, [r3, #2]
 607:Generated_Source\PSoC4/BLE_hts.c ****                 locCharValue.value = NULL;
 970              		.loc 1 607 0
ARM GAS  C:\Users\Intern\AppData\Local\Temp\cc8BAy1D.s 			page 29


 971 003a 0022     		movs	r2, #0
 972 003c 0192     		str	r2, [sp, #4]
 608:Generated_Source\PSoC4/BLE_hts.c ****                 cyBle_eventHandlerFlag &= (uint8)~CYBLE_CALLBACK;
 973              		.loc 1 608 0
 974 003e 0E49     		ldr	r1, .L73+8
 975 0040 0B78     		ldrb	r3, [r1]
 976 0042 0120     		movs	r0, #1
 977 0044 8343     		bics	r3, r0
 978 0046 0B70     		strb	r3, [r1]
 609:Generated_Source\PSoC4/BLE_hts.c ****                 cyBle_htssReqHandle = CYBLE_GATT_INVALID_ATTR_HANDLE_VALUE;
 979              		.loc 1 609 0
 980 0048 094B     		ldr	r3, .L73
 981 004a 1A80     		strh	r2, [r3]
 610:Generated_Source\PSoC4/BLE_hts.c ****                 CyBle_HtsApplCallback((uint32)CYBLE_EVT_HTSS_INDICATION_CONFIRMED, &locCharValue);
 982              		.loc 1 610 0
 983 004c 5B68     		ldr	r3, [r3, #4]
 984 004e 6946     		mov	r1, sp
 985 0050 B620     		movs	r0, #182
 986 0052 FF30     		adds	r0, r0, #255
 987 0054 9847     		blx	r3
 988              	.LVL111:
 611:Generated_Source\PSoC4/BLE_hts.c ****                 locReqHandle = 1u;
 989              		.loc 1 611 0
 990 0056 0121     		movs	r1, #1
 991              	.LVL112:
 992              	.L70:
 601:Generated_Source\PSoC4/BLE_hts.c ****         {
 993              		.loc 1 601 0
 994 0058 0134     		adds	r4, r4, #1
 995              	.LVL113:
 996 005a E4B2     		uxtb	r4, r4
 997              	.LVL114:
 998 005c 01E0     		b	.L69
 999              	.LVL115:
 1000              	.L72:
 1001 005e 0021     		movs	r1, #0
 1002 0060 0024     		movs	r4, #0
 1003              	.LVL116:
 1004              	.L69:
 600:Generated_Source\PSoC4/BLE_hts.c ****             locCharIndex++)
 1005              		.loc 1 600 0 discriminator 1
 1006 0062 032C     		cmp	r4, #3
 1007 0064 01D8     		bhi	.L67
 600:Generated_Source\PSoC4/BLE_hts.c ****             locCharIndex++)
 1008              		.loc 1 600 0 is_stmt 0 discriminator 2
 1009 0066 0029     		cmp	r1, #0
 1010 0068 D6D0     		beq	.L71
 1011              	.LVL117:
 1012              	.L67:
 612:Generated_Source\PSoC4/BLE_hts.c ****             }
 613:Generated_Source\PSoC4/BLE_hts.c ****         }
 614:Generated_Source\PSoC4/BLE_hts.c ****     }
 615:Generated_Source\PSoC4/BLE_hts.c **** }
 1013              		.loc 1 615 0 is_stmt 1
 1014 006a 03B0     		add	sp, sp, #12
 1015              		@ sp needed
 1016              	.LVL118:
ARM GAS  C:\Users\Intern\AppData\Local\Temp\cc8BAy1D.s 			page 30


 1017 006c 30BD     		pop	{r4, r5, pc}
 1018              	.L74:
 1019 006e C046     		.align	2
 1020              	.L73:
 1021 0070 00000000 		.word	.LANCHOR0
 1022 0074 00000000 		.word	.LANCHOR1
 1023 0078 00000000 		.word	cyBle_eventHandlerFlag
 1024              		.cfi_endproc
 1025              	.LFE11:
 1026              		.size	CyBle_HtssConfirmationEventHandler, .-CyBle_HtssConfirmationEventHandler
 1027              		.global	cyBle_htss
 1028              		.section	.rodata
 1029              		.align	2
 1030              		.set	.LANCHOR1,. + 0
 1031              		.type	cyBle_htss, %object
 1032              		.size	cyBle_htss, 26
 1033              	cyBle_htss:
 1034 0000 1500     		.short	21
 1035 0002 1700     		.short	23
 1036 0004 1800     		.short	24
 1037 0006 0000     		.short	0
 1038 0008 1A00     		.short	26
 1039 000a 0000     		.short	0
 1040 000c 0000     		.short	0
 1041 000e 1C00     		.short	28
 1042 0010 1D00     		.short	29
 1043 0012 0000     		.short	0
 1044 0014 1F00     		.short	31
 1045 0016 2000     		.short	32
 1046 0018 2100     		.short	33
 1047              		.bss
 1048              		.align	2
 1049              		.set	.LANCHOR0,. + 0
 1050              		.type	cyBle_htssReqHandle, %object
 1051              		.size	cyBle_htssReqHandle, 2
 1052              	cyBle_htssReqHandle:
 1053 0000 0000     		.space	2
 1054 0002 0000     		.space	2
 1055              		.type	CyBle_HtsApplCallback, %object
 1056              		.size	CyBle_HtsApplCallback, 4
 1057              	CyBle_HtsApplCallback:
 1058 0004 00000000 		.space	4
 1059              		.text
 1060              	.Letext0:
 1061              		.file 2 "Generated_Source\\PSoC4\\cytypes.h"
 1062              		.file 3 "Generated_Source\\PSoC4\\BLE_Stack.h"
 1063              		.file 4 "Generated_Source\\PSoC4\\BLE_StackGatt.h"
 1064              		.file 5 "Generated_Source\\PSoC4\\BLE_StackGattServer.h"
 1065              		.file 6 "Generated_Source\\PSoC4\\BLE_StackGattDb.h"
 1066              		.file 7 "Generated_Source\\PSoC4\\BLE.h"
 1067              		.file 8 "Generated_Source\\PSoC4\\BLE_hrs.h"
 1068              		.file 9 "Generated_Source\\PSoC4\\BLE_hts.h"
 1069              		.file 10 "Generated_Source\\PSoC4\\BLE_eventHandler.h"
 1070              		.file 11 "Generated_Source\\PSoC4\\BLE_gatt.h"