ARM GAS  C:\Users\Intern\AppData\Local\Temp\ccftj5hh.s 			page 1


   1              		.syntax unified
   2              		.cpu cortex-m0
   3              		.fpu softvfp
   4              		.eabi_attribute 20, 1
   5              		.eabi_attribute 21, 1
   6              		.eabi_attribute 23, 3
   7              		.eabi_attribute 24, 1
   8              		.eabi_attribute 25, 1
   9              		.eabi_attribute 26, 1
  10              		.eabi_attribute 30, 1
  11              		.eabi_attribute 34, 0
  12              		.eabi_attribute 18, 4
  13              		.thumb
  14              		.syntax unified
  15              		.file	"bluetooth.c"
  16              		.text
  17              	.Ltext0:
  18              		.cfi_sections	.debug_frame
  19              		.section	.text.BLE_Stack_Handler,"ax",%progbits
  20              		.align	2
  21              		.code	16
  22              		.thumb_func
  23              		.type	BLE_Stack_Handler, %function
  24              	BLE_Stack_Handler:
  25              	.LFB63:
  26              		.file 1 "bluetooth.c"
   1:bluetooth.c   **** #include "bluetooth.h"
   2:bluetooth.c   **** #include "led.h"
   3:bluetooth.c   **** #include "tmp116.h"
   4:bluetooth.c   **** #include "battery.h"
   5:bluetooth.c   **** #include "uv.h"
   6:bluetooth.c   **** 
   7:bluetooth.c   **** //Stack Handler to react to GAP events and the GATT Database Access Events
   8:bluetooth.c   **** /* Start CYBLE component and register generic event handler */
   9:bluetooth.c   **** static void BLE_Stack_Handler(uint32 eventCode, void *eventParam)
  10:bluetooth.c   **** {
  27              		.loc 1 10 0
  28              		.cfi_startproc
  29              		@ args = 0, pretend = 0, frame = 0
  30              		@ frame_needed = 0, uses_anonymous_args = 0
  31              	.LVL0:
  32 0000 10B5     		push	{r4, lr}
  33              		.cfi_def_cfa_offset 8
  34              		.cfi_offset 4, -8
  35              		.cfi_offset 14, -4
  36 0002 0C00     		movs	r4, r1
  11:bluetooth.c   ****     CYBLE_GATTS_WRITE_REQ_PARAM_T *wrReq;
  12:bluetooth.c   ****     switch(eventCode)
  37              		.loc 1 12 0
  38 0004 2828     		cmp	r0, #40
  39 0006 15D0     		beq	.L3
  40 0008 04D8     		bhi	.L4
  41 000a 0128     		cmp	r0, #1
  42 000c 07D0     		beq	.L5
  43 000e 2728     		cmp	r0, #39
  44 0010 0CD0     		beq	.L6
  45 0012 5BE0     		b	.L1
ARM GAS  C:\Users\Intern\AppData\Local\Temp\ccftj5hh.s 			page 2


  46              	.L4:
  47 0014 4128     		cmp	r0, #65
  48 0016 19D0     		beq	.L7
  49 0018 4C28     		cmp	r0, #76
  50 001a 1CD0     		beq	.L8
  51 001c 56E0     		b	.L1
  52              	.L5:
  53              	.LBB2:
  13:bluetooth.c   ****     {
  14:bluetooth.c   ****         /**********************************************************
  15:bluetooth.c   ****         *                       General Events
  16:bluetooth.c   ****         ***********************************************************/
  17:bluetooth.c   **** 		case CYBLE_EVT_STACK_ON: /* This event received when component is Started */
  18:bluetooth.c   ****             CyBle_GappStartAdvertisement(CYBLE_ADVERTISING_FAST);
  54              		.loc 1 18 0
  55 001e 0020     		movs	r0, #0
  56              	.LVL1:
  57 0020 FFF7FEFF 		bl	CyBle_GappStartAdvertisement
  58              	.LVL2:
  19:bluetooth.c   ****             LED_BLUE_Write((uint8) 0); //Turn BLUE LED ON
  59              		.loc 1 19 0
  60 0024 0020     		movs	r0, #0
  61 0026 FFF7FEFF 		bl	LED_BLUE_Write
  62              	.LVL3:
  20:bluetooth.c   ****             break;
  63              		.loc 1 20 0
  64 002a 4FE0     		b	.L1
  65              	.LVL4:
  66              	.L6:
  21:bluetooth.c   **** 		case CYBLE_EVT_TIMEOUT: 
  22:bluetooth.c   **** 			break;
  23:bluetooth.c   **** 		case CYBLE_EVT_HARDWARE_ERROR:    
  24:bluetooth.c   ****             /* This event indicates that some internal HW error has occurred. */
  25:bluetooth.c   **** 			break;
  26:bluetooth.c   ****         case CYBLE_EVT_HCI_STATUS:
  27:bluetooth.c   **** 			break;
  28:bluetooth.c   ****         /**********************************************************
  29:bluetooth.c   ****         *                       GAP Events
  30:bluetooth.c   ****         ***********************************************************/
  31:bluetooth.c   ****         case CYBLE_EVT_GAP_AUTH_REQ:
  32:bluetooth.c   ****             break;
  33:bluetooth.c   ****         case CYBLE_EVT_GAP_PASSKEY_ENTRY_REQUEST:
  34:bluetooth.c   ****             break;
  35:bluetooth.c   ****         case CYBLE_EVT_GAP_PASSKEY_DISPLAY_REQUEST:
  36:bluetooth.c   ****             break;
  37:bluetooth.c   ****         case CYBLE_EVT_GAP_AUTH_COMPLETE:
  38:bluetooth.c   ****             break;
  39:bluetooth.c   ****         case CYBLE_EVT_GAP_AUTH_FAILED:
  40:bluetooth.c   ****             break;
  41:bluetooth.c   ****         case CYBLE_EVT_GAPP_ADVERTISEMENT_START_STOP:
  42:bluetooth.c   ****             if(CYBLE_STATE_DISCONNECTED == CyBle_GetState())
  43:bluetooth.c   ****             {   
  44:bluetooth.c   ****                 /* Fast and slow advertising period complete, go to low power  
  45:bluetooth.c   ****                  * mode (Hibernate mode) and wait for an external
  46:bluetooth.c   ****                  * user event to wake up the device again */
  47:bluetooth.c   ****                 //CySysPmHibernate();
  48:bluetooth.c   ****             }
ARM GAS  C:\Users\Intern\AppData\Local\Temp\ccftj5hh.s 			page 3


  49:bluetooth.c   ****             break;
  50:bluetooth.c   ****         case CYBLE_EVT_GAP_DEVICE_CONNECTED:
  51:bluetooth.c   ****             LED_BLUE_Write((uint8) 255); //Turn BLUE LED OFF
  67              		.loc 1 51 0
  68 002c FF20     		movs	r0, #255
  69              	.LVL5:
  70 002e FFF7FEFF 		bl	LED_BLUE_Write
  71              	.LVL6:
  52:bluetooth.c   ****             break;
  72              		.loc 1 52 0
  73 0032 4BE0     		b	.L1
  74              	.LVL7:
  75              	.L3:
  53:bluetooth.c   ****         case CYBLE_EVT_GAP_DEVICE_DISCONNECTED:
  54:bluetooth.c   ****             /* Put the device to discoverable mode so that remote can search it. */
  55:bluetooth.c   ****             CyBle_GappStartAdvertisement(CYBLE_ADVERTISING_FAST);
  76              		.loc 1 55 0
  77 0034 0020     		movs	r0, #0
  78              	.LVL8:
  79 0036 FFF7FEFF 		bl	CyBle_GappStartAdvertisement
  80              	.LVL9:
  56:bluetooth.c   ****             temperature_Notify = 0;
  81              		.loc 1 56 0
  82 003a 0023     		movs	r3, #0
  83 003c 244A     		ldr	r2, .L13
  84 003e 1370     		strb	r3, [r2]
  57:bluetooth.c   ****             uv_Power_Notify = 0;
  85              		.loc 1 57 0
  86 0040 244A     		ldr	r2, .L13+4
  87 0042 1370     		strb	r3, [r2]
  58:bluetooth.c   ****             LED_BLUE_Write((uint8) 0); //Turn BLUE LED ON
  88              		.loc 1 58 0
  89 0044 0020     		movs	r0, #0
  90 0046 FFF7FEFF 		bl	LED_BLUE_Write
  91              	.LVL10:
  59:bluetooth.c   ****             break;
  92              		.loc 1 59 0
  93 004a 3FE0     		b	.L1
  94              	.LVL11:
  95              	.L7:
  60:bluetooth.c   ****         case CYBLE_EVT_GAP_ENCRYPT_CHANGE:
  61:bluetooth.c   ****             break;
  62:bluetooth.c   ****         case CYBLE_EVT_GAPC_CONNECTION_UPDATE_COMPLETE:
  63:bluetooth.c   ****             break;
  64:bluetooth.c   ****         case CYBLE_EVT_GAP_KEYINFO_EXCHNGE_CMPLT:
  65:bluetooth.c   ****             break;
  66:bluetooth.c   **** 
  67:bluetooth.c   ****         /**********************************************************
  68:bluetooth.c   ****         *                       GATT Events
  69:bluetooth.c   ****         ***********************************************************/
  70:bluetooth.c   ****         case CYBLE_EVT_GATT_CONNECT_IND:
  71:bluetooth.c   ****             BLE_Connection_Handle = *(CYBLE_CONN_HANDLE_T *)eventParam;
  96              		.loc 1 71 0
  97 004c 0222     		movs	r2, #2
  98 004e 2248     		ldr	r0, .L13+8
  99              	.LVL12:
 100 0050 FFF7FEFF 		bl	memcpy
ARM GAS  C:\Users\Intern\AppData\Local\Temp\ccftj5hh.s 			page 4


 101              	.LVL13:
  72:bluetooth.c   ****             //update_UV(); //Update the GATT database the current value of the LED
  73:bluetooth.c   ****             //update_tmp116(); //Update the GATT database with the current Temperature
  74:bluetooth.c   ****             //update_battery(); //Update the GATT database with the current Battery Level
  75:bluetooth.c   ****             //LED_BLUE_Write((uint8) 0); //Turn BLUE LED OFF
  76:bluetooth.c   ****             break;
 102              		.loc 1 76 0
 103 0054 3AE0     		b	.L1
 104              	.LVL14:
 105              	.L8:
  77:bluetooth.c   ****         case CYBLE_EVT_GATT_DISCONNECT_IND:
  78:bluetooth.c   ****             break;
  79:bluetooth.c   ****         case CYBLE_EVT_GATTS_WRITE_REQ:
  80:bluetooth.c   ****             wrReq = (CYBLE_GATTS_WRITE_REQ_PARAM_T *)eventParam;
  81:bluetooth.c   ****             if(wrReq->handleValPair.attrHandle == CYBLE_UV_MEASUREMENT_POWER_DENSITY_CLIENT_CHARACT
 106              		.loc 1 81 0
 107 0056 8B89     		ldrh	r3, [r1, #12]
 108 0058 132B     		cmp	r3, #19
 109 005a 09D1     		bne	.L9
  82:bluetooth.c   ****             {
  83:bluetooth.c   ****                 CyBle_GattsWriteAttributeValue(&wrReq->handleValPair, 0, &BLE_Connection_Handle, CY
 110              		.loc 1 83 0
 111 005c 081D     		adds	r0, r1, #4
 112              	.LVL15:
 113 005e 0023     		movs	r3, #0
 114 0060 1D4A     		ldr	r2, .L13+8
 115 0062 0021     		movs	r1, #0
 116              	.LVL16:
 117 0064 FFF7FEFF 		bl	CyBle_GattsWriteAttributeValue
 118              	.LVL17:
  84:bluetooth.c   ****                 uv_Power_Notify = wrReq->handleValPair.value.val[0];
 119              		.loc 1 84 0
 120 0068 6368     		ldr	r3, [r4, #4]
 121 006a 1A78     		ldrb	r2, [r3]
 122 006c 194B     		ldr	r3, .L13+4
 123 006e 1A70     		strb	r2, [r3]
 124              	.L9:
  85:bluetooth.c   ****             }
  86:bluetooth.c   ****             if(wrReq->handleValPair.attrHandle == CYBLE_UV_MEASUREMENT_UV_INDEX_CLIENT_CHARACTERIST
 125              		.loc 1 86 0
 126 0070 A389     		ldrh	r3, [r4, #12]
 127 0072 162B     		cmp	r3, #22
 128 0074 09D1     		bne	.L10
  87:bluetooth.c   ****             {
  88:bluetooth.c   ****                 CyBle_GattsWriteAttributeValue(&wrReq->handleValPair, 0, &BLE_Connection_Handle, CY
 129              		.loc 1 88 0
 130 0076 201D     		adds	r0, r4, #4
 131 0078 0023     		movs	r3, #0
 132 007a 174A     		ldr	r2, .L13+8
 133 007c 0021     		movs	r1, #0
 134 007e FFF7FEFF 		bl	CyBle_GattsWriteAttributeValue
 135              	.LVL18:
  89:bluetooth.c   ****                 uv_Index_Notify = wrReq->handleValPair.value.val[0];
 136              		.loc 1 89 0
 137 0082 6368     		ldr	r3, [r4, #4]
 138 0084 1A78     		ldrb	r2, [r3]
 139 0086 154B     		ldr	r3, .L13+12
ARM GAS  C:\Users\Intern\AppData\Local\Temp\ccftj5hh.s 			page 5


 140 0088 1A70     		strb	r2, [r3]
 141              	.L10:
  90:bluetooth.c   ****             }
  91:bluetooth.c   ****             if(wrReq->handleValPair.attrHandle == CYBLE_BODY_TEMPERATURE_TEMPERATURE_CLIENT_CHARACT
 142              		.loc 1 91 0
 143 008a A389     		ldrh	r3, [r4, #12]
 144 008c 1E2B     		cmp	r3, #30
 145 008e 09D1     		bne	.L11
  92:bluetooth.c   ****             {
  93:bluetooth.c   ****                 CyBle_GattsWriteAttributeValue(&wrReq->handleValPair, 0, &BLE_Connection_Handle, CY
 146              		.loc 1 93 0
 147 0090 201D     		adds	r0, r4, #4
 148 0092 0023     		movs	r3, #0
 149 0094 104A     		ldr	r2, .L13+8
 150 0096 0021     		movs	r1, #0
 151 0098 FFF7FEFF 		bl	CyBle_GattsWriteAttributeValue
 152              	.LVL19:
  94:bluetooth.c   ****                 temperature_Notify = wrReq->handleValPair.value.val[0];
 153              		.loc 1 94 0
 154 009c 6368     		ldr	r3, [r4, #4]
 155 009e 1A78     		ldrb	r2, [r3]
 156 00a0 0B4B     		ldr	r3, .L13
 157 00a2 1A70     		strb	r2, [r3]
 158              	.L11:
  95:bluetooth.c   ****             }
  96:bluetooth.c   ****             if(wrReq->handleValPair.attrHandle == CYBLE_BATTERY_BATTERY_LEVEL_CLIENT_CHARACTERISTIC
 159              		.loc 1 96 0
 160 00a4 A389     		ldrh	r3, [r4, #12]
 161 00a6 1A2B     		cmp	r3, #26
 162 00a8 09D1     		bne	.L12
  97:bluetooth.c   ****             {
  98:bluetooth.c   ****                 CyBle_GattsWriteAttributeValue(&wrReq->handleValPair, 0, &BLE_Connection_Handle, CY
 163              		.loc 1 98 0
 164 00aa 201D     		adds	r0, r4, #4
 165 00ac 0023     		movs	r3, #0
 166 00ae 0A4A     		ldr	r2, .L13+8
 167 00b0 0021     		movs	r1, #0
 168 00b2 FFF7FEFF 		bl	CyBle_GattsWriteAttributeValue
 169              	.LVL20:
  99:bluetooth.c   ****                 battery_Notify = wrReq->handleValPair.value.val[0];
 170              		.loc 1 99 0
 171 00b6 6368     		ldr	r3, [r4, #4]
 172 00b8 1A78     		ldrb	r2, [r3]
 173 00ba 094B     		ldr	r3, .L13+16
 174 00bc 1A70     		strb	r2, [r3]
 175              	.L12:
 100:bluetooth.c   ****             }          
 101:bluetooth.c   **** 
 102:bluetooth.c   ****             CyBle_GattsWriteRsp(BLE_Connection_Handle);
 176              		.loc 1 102 0
 177 00be 064A     		ldr	r2, .L13+8
 178 00c0 1378     		ldrb	r3, [r2]
 179 00c2 5078     		ldrb	r0, [r2, #1]
 180 00c4 0002     		lsls	r0, r0, #8
 181 00c6 1843     		orrs	r0, r3
 182 00c8 FFF7FEFF 		bl	CyBle_GattsWriteRsp
 183              	.LVL21:
ARM GAS  C:\Users\Intern\AppData\Local\Temp\ccftj5hh.s 			page 6


 184              	.L1:
 185              	.LBE2:
 103:bluetooth.c   ****             break;
 104:bluetooth.c   ****         case CYBLE_EVT_GATTS_INDICATION_ENABLED:
 105:bluetooth.c   ****             break;
 106:bluetooth.c   ****         case CYBLE_EVT_GATTS_INDICATION_DISABLED:
 107:bluetooth.c   ****             break;
 108:bluetooth.c   ****         case CYBLE_EVT_GATTS_READ_CHAR_VAL_ACCESS_REQ:
 109:bluetooth.c   ****             /* Triggered on server side when client sends read request and when
 110:bluetooth.c   ****             * characteristic has CYBLE_GATT_DB_ATTR_CHAR_VAL_RD_EVENT property set.
 111:bluetooth.c   ****             * This event could be ignored by application unless it need to response
 112:bluetooth.c   ****             * by error response which needs to be set in gattErrorCode field of
 113:bluetooth.c   ****             * event parameter. */
 114:bluetooth.c   ****             break;
 115:bluetooth.c   **** 
 116:bluetooth.c   **** 		/**********************************************************
 117:bluetooth.c   ****         *                       Other Events
 118:bluetooth.c   ****         ***********************************************************/
 119:bluetooth.c   ****         case CYBLE_EVT_PENDING_FLASH_WRITE:
 120:bluetooth.c   ****             /* Inform application that flash write is pending. Stack internal data 
 121:bluetooth.c   ****             * structures are modified and require to be stored in Flash using 
 122:bluetooth.c   ****             * CyBle_StoreBondingData() */
 123:bluetooth.c   ****             break;
 124:bluetooth.c   ****         default:
 125:bluetooth.c   **** 			break;       
 126:bluetooth.c   ****     }
 127:bluetooth.c   **** }
 186              		.loc 1 127 0
 187              		@ sp needed
 188              	.LVL22:
 189 00cc 10BD     		pop	{r4, pc}
 190              	.L14:
 191 00ce C046     		.align	2
 192              	.L13:
 193 00d0 00000000 		.word	temperature_Notify
 194 00d4 00000000 		.word	uv_Power_Notify
 195 00d8 00000000 		.word	BLE_Connection_Handle
 196 00dc 00000000 		.word	uv_Index_Notify
 197 00e0 00000000 		.word	battery_Notify
 198              		.cfi_endproc
 199              	.LFE63:
 200              		.size	BLE_Stack_Handler, .-BLE_Stack_Handler
 201              		.section	.text.bluetooth_start,"ax",%progbits
 202              		.align	2
 203              		.global	bluetooth_start
 204              		.code	16
 205              		.thumb_func
 206              		.type	bluetooth_start, %function
 207              	bluetooth_start:
 208              	.LFB64:
 128:bluetooth.c   **** 
 129:bluetooth.c   **** void bluetooth_start(void)
 130:bluetooth.c   **** {
 209              		.loc 1 130 0
 210              		.cfi_startproc
 211              		@ args = 0, pretend = 0, frame = 0
 212              		@ frame_needed = 0, uses_anonymous_args = 0
ARM GAS  C:\Users\Intern\AppData\Local\Temp\ccftj5hh.s 			page 7


 213 0000 10B5     		push	{r4, lr}
 214              		.cfi_def_cfa_offset 8
 215              		.cfi_offset 4, -8
 216              		.cfi_offset 14, -4
 131:bluetooth.c   ****     CyBle_Start(BLE_Stack_Handler); //Declares the BLE stack handler and begins processing through
 217              		.loc 1 131 0
 218 0002 0248     		ldr	r0, .L16
 219 0004 FFF7FEFF 		bl	CyBle_Start
 220              	.LVL23:
 132:bluetooth.c   ****     /* Register service specific callback functions */
 133:bluetooth.c   **** }
 221              		.loc 1 133 0
 222              		@ sp needed
 223 0008 10BD     		pop	{r4, pc}
 224              	.L17:
 225 000a C046     		.align	2
 226              	.L16:
 227 000c 00000000 		.word	BLE_Stack_Handler
 228              		.cfi_endproc
 229              	.LFE64:
 230              		.size	bluetooth_start, .-bluetooth_start
 231              		.section	.text.bluetooth_process,"ax",%progbits
 232              		.align	2
 233              		.global	bluetooth_process
 234              		.code	16
 235              		.thumb_func
 236              		.type	bluetooth_process, %function
 237              	bluetooth_process:
 238              	.LFB65:
 134:bluetooth.c   **** 
 135:bluetooth.c   **** void bluetooth_process(void)
 136:bluetooth.c   **** {
 239              		.loc 1 136 0
 240              		.cfi_startproc
 241              		@ args = 0, pretend = 0, frame = 0
 242              		@ frame_needed = 0, uses_anonymous_args = 0
 243 0000 10B5     		push	{r4, lr}
 244              		.cfi_def_cfa_offset 8
 245              		.cfi_offset 4, -8
 246              		.cfi_offset 14, -4
 137:bluetooth.c   ****     CyBle_ProcessEvents(); //Allows BLE stack to process pending 
 247              		.loc 1 137 0
 248 0002 FFF7FEFF 		bl	CyBle_ProcessEvents
 249              	.LVL24:
 138:bluetooth.c   **** }
 250              		.loc 1 138 0
 251              		@ sp needed
 252 0006 10BD     		pop	{r4, pc}
 253              		.cfi_endproc
 254              	.LFE65:
 255              		.size	bluetooth_process, .-bluetooth_process
 256              		.section	.text.bluetooth_stop,"ax",%progbits
 257              		.align	2
 258              		.global	bluetooth_stop
 259              		.code	16
 260              		.thumb_func
 261              		.type	bluetooth_stop, %function
ARM GAS  C:\Users\Intern\AppData\Local\Temp\ccftj5hh.s 			page 8


 262              	bluetooth_stop:
 263              	.LFB66:
 139:bluetooth.c   **** 
 140:bluetooth.c   **** void bluetooth_stop(void)
 141:bluetooth.c   **** {
 264              		.loc 1 141 0
 265              		.cfi_startproc
 266              		@ args = 0, pretend = 0, frame = 0
 267              		@ frame_needed = 0, uses_anonymous_args = 0
 268 0000 10B5     		push	{r4, lr}
 269              		.cfi_def_cfa_offset 8
 270              		.cfi_offset 4, -8
 271              		.cfi_offset 14, -4
 142:bluetooth.c   ****     CyBle_Stop();    
 272              		.loc 1 142 0
 273 0002 FFF7FEFF 		bl	CyBle_Stop
 274              	.LVL25:
 143:bluetooth.c   **** }
 275              		.loc 1 143 0
 276              		@ sp needed
 277 0006 10BD     		pop	{r4, pc}
 278              		.cfi_endproc
 279              	.LFE66:
 280              		.size	bluetooth_stop, .-bluetooth_stop
 281              		.comm	BLE_Connection_Handle,2,4
 282              		.text
 283              	.Letext0:
 284              		.file 2 "Generated_Source\\PSoC4/cytypes.h"
 285              		.file 3 "Generated_Source\\PSoC4/BLE_StackGatt.h"
 286              		.file 4 "Generated_Source\\PSoC4/BLE_StackGattServer.h"
 287              		.file 5 "Generated_Source\\PSoC4/BLE_Stack.h"
 288              		.file 6 "Generated_Source\\PSoC4/BLE_eventHandler.h"
 289              		.file 7 "Generated_Source\\PSoC4/RTC.h"
 290              		.file 8 "system.h"
 291              		.file 9 "bluetooth.h"
 292              		.file 10 "Generated_Source\\PSoC4/BLE.h"
 293              		.file 11 "Generated_Source\\PSoC4/BLE_StackGattDb.h"