ARM GAS  C:\Users\Intern\AppData\Local\Temp\ccvnpchc.s 			page 1


   1              		.syntax unified
   2              		.cpu cortex-m0
   3              		.fpu softvfp
   4              		.eabi_attribute 20, 1
   5              		.eabi_attribute 21, 1
   6              		.eabi_attribute 23, 3
   7              		.eabi_attribute 24, 1
   8              		.eabi_attribute 25, 1
   9              		.eabi_attribute 26, 1
  10              		.eabi_attribute 30, 1
  11              		.eabi_attribute 34, 0
  12              		.eabi_attribute 18, 4
  13              		.thumb
  14              		.syntax unified
  15              		.file	"lmt70.c"
  16              		.text
  17              	.Ltext0:
  18              		.cfi_sections	.debug_frame
  19              		.global	__aeabi_ui2f
  20              		.global	__aeabi_fmul
  21              		.global	__aeabi_fcmpgt
  22              		.global	__aeabi_fcmple
  23              		.global	__aeabi_i2f
  24              		.global	__aeabi_fadd
  25              		.global	__aeabi_fdiv
  26              		.section	.text.lmt70_get_celsius,"ax",%progbits
  27              		.align	2
  28              		.global	lmt70_get_celsius
  29              		.code	16
  30              		.thumb_func
  31              		.type	lmt70_get_celsius, %function
  32              	lmt70_get_celsius:
  33              	.LFB62:
  34              		.file 1 "lmt70.c"
   1:lmt70.c       **** #include "lmt70.h"
   2:lmt70.c       **** 
   3:lmt70.c       **** #define VOLTAGE_MINUS_55   (1375)
   4:lmt70.c       **** #define VOLTAGE_MINUS_50   (1350)
   5:lmt70.c       **** #define VOLTAGE_MINUS_40   (1301)
   6:lmt70.c       **** #define VOLTAGE_MINUS_30   (1250)
   7:lmt70.c       **** #define VOLTAGE_MINUS_20   (1200)
   8:lmt70.c       **** #define VOLTAGE_MINUS_10   (1149)
   9:lmt70.c       **** #define VOLTAGE_0          (1098)
  10:lmt70.c       **** #define VOLTAGE_10         (1047)
  11:lmt70.c       **** #define VOLTAGE_20         (995)
  12:lmt70.c       **** #define VOLTAGE_30         (943)
  13:lmt70.c       **** #define VOLTAGE_40         (891)
  14:lmt70.c       **** #define VOLTAGE_50         (839)
  15:lmt70.c       **** #define VOLTAGE_60         (786)
  16:lmt70.c       **** #define VOLTAGE_70         (734)
  17:lmt70.c       **** #define VOLTAGE_80         (681)
  18:lmt70.c       **** #define VOLTAGE_90         (627)
  19:lmt70.c       **** #define VOLTAGE_100        (574)
  20:lmt70.c       **** #define VOLTAGE_110        (521)
  21:lmt70.c       **** #define VOLTAGE_120        (467)
  22:lmt70.c       **** #define VOLTAGE_130        (413)
  23:lmt70.c       **** #define VOLTAGE_140        (358)
ARM GAS  C:\Users\Intern\AppData\Local\Temp\ccvnpchc.s 			page 2


  24:lmt70.c       **** #define VOLTAGE_150        (303)
  25:lmt70.c       **** 
  26:lmt70.c       **** int int_slopes[21] = 
  27:lmt70.c       **** { 
  28:lmt70.c       **** 	-201792,
  29:lmt70.c       **** 	-200610,
  30:lmt70.c       **** 	-199223,
  31:lmt70.c       **** 	-197965,
  32:lmt70.c       **** 	-196796,
  33:lmt70.c       **** 	-195760,
  34:lmt70.c       **** 	-194780,
  35:lmt70.c       **** 	-193810,
  36:lmt70.c       **** 	-192965,
  37:lmt70.c       **** 	-192127,
  38:lmt70.c       **** 	-191219,
  39:lmt70.c       **** 	-190396,
  40:lmt70.c       **** 	-189566,
  41:lmt70.c       **** 	-188843,
  42:lmt70.c       **** 	-188097,
  43:lmt70.c       **** 	-187361,
  44:lmt70.c       **** 	-186686,
  45:lmt70.c       **** 	-185905,
  46:lmt70.c       **** 	-185113,
  47:lmt70.c       **** 	-183234,
  48:lmt70.c       **** 	-180574,
  49:lmt70.c       **** };
  50:lmt70.c       **** int int_intercepts[21] = 
  51:lmt70.c       **** { 
  52:lmt70.c       **** 	222508064,
  53:lmt70.c       **** 	220911776,
  54:lmt70.c       **** 	219108080,
  55:lmt70.c       **** 	217534944,
  56:lmt70.c       **** 	216132576,
  57:lmt70.c       **** 	214941760,
  58:lmt70.c       **** 	213865792,
  59:lmt70.c       **** 	212850352,
  60:lmt70.c       **** 	212009344,
  61:lmt70.c       **** 	211219040,
  62:lmt70.c       **** 	210410352,
  63:lmt70.c       **** 	209720128,
  64:lmt70.c       **** 	209067344,
  65:lmt70.c       **** 	208536848,
  66:lmt70.c       **** 	208029120,
  67:lmt70.c       **** 	207566944,
  68:lmt70.c       **** 	207179360,
  69:lmt70.c       **** 	206772880,
  70:lmt70.c       **** 	206403440,
  71:lmt70.c       **** 	205627856,
  72:lmt70.c       **** 	204675072,
  73:lmt70.c       **** };
  74:lmt70.c       **** 
  75:lmt70.c       **** float lmt70_get_celsius(void)
  76:lmt70.c       **** {
  35              		.loc 1 76 0
  36              		.cfi_startproc
  37              		@ args = 0, pretend = 0, frame = 0
  38              		@ frame_needed = 0, uses_anonymous_args = 0
ARM GAS  C:\Users\Intern\AppData\Local\Temp\ccvnpchc.s 			page 3


  39 0000 70B5     		push	{r4, r5, r6, lr}
  40              		.cfi_def_cfa_offset 16
  41              		.cfi_offset 4, -16
  42              		.cfi_offset 5, -12
  43              		.cfi_offset 6, -8
  44              		.cfi_offset 14, -4
  45              	.LVL0:
  77:lmt70.c       ****     uint32 lmt70_channel = 3;
  78:lmt70.c       ****     float adc_counts = (float) adc_acquire_channel(lmt70_channel);
  46              		.loc 1 78 0
  47 0002 0320     		movs	r0, #3
  48 0004 FFF7FEFF 		bl	adc_acquire_channel
  49              	.LVL1:
  50 0008 FFF7FEFF 		bl	__aeabi_ui2f
  51              	.LVL2:
  79:lmt70.c       ****     float milli_volts = (adc_counts*vdd_calibration)/2048; 
  52              		.loc 1 79 0
  53 000c C44B     		ldr	r3, .L118
  54 000e 1968     		ldr	r1, [r3]
  55 0010 FFF7FEFF 		bl	__aeabi_fmul
  56              	.LVL3:
  57 0014 E821     		movs	r1, #232
  58 0016 8905     		lsls	r1, r1, #22
  59 0018 FFF7FEFF 		bl	__aeabi_fmul
  60              	.LVL4:
  61 001c 041C     		adds	r4, r0, #0
  62              	.LVL5:
  80:lmt70.c       ****     
  81:lmt70.c       ****     int case_number = -1; // Initializing case_number to a non-choosable case_number
  82:lmt70.c       **** 	float celsius = -777; // Initializing celsius to a number
  83:lmt70.c       ****     
  84:lmt70.c       ****     if (milli_volts > VOLTAGE_MINUS_55)                                                 { case_numb
  63              		.loc 1 84 0
  64 001e C149     		ldr	r1, .L118+4
  65 0020 FFF7FEFF 		bl	__aeabi_fcmpgt
  66              	.LVL6:
  67 0024 0028     		cmp	r0, #0
  68 0026 00D0     		beq	.LCB35
  69 0028 10E1     		b	.L71	@long jump
  70              	.LCB35:
  85:lmt70.c       ****     else if ((milli_volts <= VOLTAGE_MINUS_55)  && (milli_volts > VOLTAGE_MINUS_50))    { case_numb
  71              		.loc 1 85 0
  72 002a BE49     		ldr	r1, .L118+4
  73 002c 201C     		adds	r0, r4, #0
  74 002e FFF7FEFF 		bl	__aeabi_fcmple
  75              	.LVL7:
  76 0032 0028     		cmp	r0, #0
  77 0034 06D0     		beq	.L3
  78              		.loc 1 85 0 is_stmt 0 discriminator 1
  79 0036 BC49     		ldr	r1, .L118+8
  80 0038 201C     		adds	r0, r4, #0
  81 003a FFF7FEFF 		bl	__aeabi_fcmpgt
  82              	.LVL8:
  83 003e 0028     		cmp	r0, #0
  84 0040 00D0     		beq	.LCB47
  85 0042 05E1     		b	.L72	@long jump
  86              	.LCB47:
ARM GAS  C:\Users\Intern\AppData\Local\Temp\ccvnpchc.s 			page 4


  87              	.L3:
  86:lmt70.c       ****     else if ((milli_volts <= VOLTAGE_MINUS_50)  && (milli_volts > VOLTAGE_MINUS_40))    { case_numb
  88              		.loc 1 86 0 is_stmt 1
  89 0044 B849     		ldr	r1, .L118+8
  90 0046 201C     		adds	r0, r4, #0
  91 0048 FFF7FEFF 		bl	__aeabi_fcmple
  92              	.LVL9:
  93 004c 0028     		cmp	r0, #0
  94 004e 06D0     		beq	.L5
  95              		.loc 1 86 0 is_stmt 0 discriminator 1
  96 0050 B649     		ldr	r1, .L118+12
  97 0052 201C     		adds	r0, r4, #0
  98 0054 FFF7FEFF 		bl	__aeabi_fcmpgt
  99              	.LVL10:
 100 0058 0028     		cmp	r0, #0
 101 005a 00D0     		beq	.LCB60
 102 005c FAE0     		b	.L73	@long jump
 103              	.LCB60:
 104              	.L5:
  87:lmt70.c       ****     else if ((milli_volts <= VOLTAGE_MINUS_40)  && (milli_volts > VOLTAGE_MINUS_30))    { case_numb
 105              		.loc 1 87 0 is_stmt 1
 106 005e B349     		ldr	r1, .L118+12
 107 0060 201C     		adds	r0, r4, #0
 108 0062 FFF7FEFF 		bl	__aeabi_fcmple
 109              	.LVL11:
 110 0066 0028     		cmp	r0, #0
 111 0068 06D0     		beq	.L7
 112              		.loc 1 87 0 is_stmt 0 discriminator 1
 113 006a B149     		ldr	r1, .L118+16
 114 006c 201C     		adds	r0, r4, #0
 115 006e FFF7FEFF 		bl	__aeabi_fcmpgt
 116              	.LVL12:
 117 0072 0028     		cmp	r0, #0
 118 0074 00D0     		beq	.LCB73
 119 0076 EFE0     		b	.L74	@long jump
 120              	.LCB73:
 121              	.L7:
  88:lmt70.c       ****     else if ((milli_volts <= VOLTAGE_MINUS_30)  && (milli_volts > VOLTAGE_MINUS_20))    { case_numb
 122              		.loc 1 88 0 is_stmt 1
 123 0078 AD49     		ldr	r1, .L118+16
 124 007a 201C     		adds	r0, r4, #0
 125 007c FFF7FEFF 		bl	__aeabi_fcmple
 126              	.LVL13:
 127 0080 0028     		cmp	r0, #0
 128 0082 06D0     		beq	.L9
 129              		.loc 1 88 0 is_stmt 0 discriminator 1
 130 0084 AB49     		ldr	r1, .L118+20
 131 0086 201C     		adds	r0, r4, #0
 132 0088 FFF7FEFF 		bl	__aeabi_fcmpgt
 133              	.LVL14:
 134 008c 0028     		cmp	r0, #0
 135 008e 00D0     		beq	.LCB86
 136 0090 E4E0     		b	.L75	@long jump
 137              	.LCB86:
 138              	.L9:
  89:lmt70.c       ****     else if ((milli_volts <= VOLTAGE_MINUS_20)  && (milli_volts > VOLTAGE_MINUS_10))    { case_numb
 139              		.loc 1 89 0 is_stmt 1
ARM GAS  C:\Users\Intern\AppData\Local\Temp\ccvnpchc.s 			page 5


 140 0092 A849     		ldr	r1, .L118+20
 141 0094 201C     		adds	r0, r4, #0
 142 0096 FFF7FEFF 		bl	__aeabi_fcmple
 143              	.LVL15:
 144 009a 0028     		cmp	r0, #0
 145 009c 06D0     		beq	.L11
 146              		.loc 1 89 0 is_stmt 0 discriminator 1
 147 009e A649     		ldr	r1, .L118+24
 148 00a0 201C     		adds	r0, r4, #0
 149 00a2 FFF7FEFF 		bl	__aeabi_fcmpgt
 150              	.LVL16:
 151 00a6 0028     		cmp	r0, #0
 152 00a8 00D0     		beq	.LCB99
 153 00aa D9E0     		b	.L76	@long jump
 154              	.LCB99:
 155              	.L11:
  90:lmt70.c       ****     else if ((milli_volts <= VOLTAGE_MINUS_10)  && (milli_volts > VOLTAGE_0))           { case_numb
 156              		.loc 1 90 0 is_stmt 1
 157 00ac A249     		ldr	r1, .L118+24
 158 00ae 201C     		adds	r0, r4, #0
 159 00b0 FFF7FEFF 		bl	__aeabi_fcmple
 160              	.LVL17:
 161 00b4 0028     		cmp	r0, #0
 162 00b6 06D0     		beq	.L13
 163              		.loc 1 90 0 is_stmt 0 discriminator 1
 164 00b8 A049     		ldr	r1, .L118+28
 165 00ba 201C     		adds	r0, r4, #0
 166 00bc FFF7FEFF 		bl	__aeabi_fcmpgt
 167              	.LVL18:
 168 00c0 0028     		cmp	r0, #0
 169 00c2 00D0     		beq	.LCB112
 170 00c4 CEE0     		b	.L77	@long jump
 171              	.LCB112:
 172              	.L13:
  91:lmt70.c       ****     else if ((milli_volts <= VOLTAGE_0)         && (milli_volts > VOLTAGE_10))          { case_numb
 173              		.loc 1 91 0 is_stmt 1
 174 00c6 9D49     		ldr	r1, .L118+28
 175 00c8 201C     		adds	r0, r4, #0
 176 00ca FFF7FEFF 		bl	__aeabi_fcmple
 177              	.LVL19:
 178 00ce 0028     		cmp	r0, #0
 179 00d0 06D0     		beq	.L15
 180              		.loc 1 91 0 is_stmt 0 discriminator 1
 181 00d2 9B49     		ldr	r1, .L118+32
 182 00d4 201C     		adds	r0, r4, #0
 183 00d6 FFF7FEFF 		bl	__aeabi_fcmpgt
 184              	.LVL20:
 185 00da 0028     		cmp	r0, #0
 186 00dc 00D0     		beq	.LCB125
 187 00de C3E0     		b	.L78	@long jump
 188              	.LCB125:
 189              	.L15:
  92:lmt70.c       ****     else if ((milli_volts <= VOLTAGE_10)        && (milli_volts > VOLTAGE_20))          { case_numb
 190              		.loc 1 92 0 is_stmt 1
 191 00e0 9749     		ldr	r1, .L118+32
 192 00e2 201C     		adds	r0, r4, #0
 193 00e4 FFF7FEFF 		bl	__aeabi_fcmple
ARM GAS  C:\Users\Intern\AppData\Local\Temp\ccvnpchc.s 			page 6


 194              	.LVL21:
 195 00e8 0028     		cmp	r0, #0
 196 00ea 06D0     		beq	.L17
 197              		.loc 1 92 0 is_stmt 0 discriminator 1
 198 00ec 9549     		ldr	r1, .L118+36
 199 00ee 201C     		adds	r0, r4, #0
 200 00f0 FFF7FEFF 		bl	__aeabi_fcmpgt
 201              	.LVL22:
 202 00f4 0028     		cmp	r0, #0
 203 00f6 00D0     		beq	.LCB138
 204 00f8 B8E0     		b	.L79	@long jump
 205              	.LCB138:
 206              	.L17:
  93:lmt70.c       ****     else if ((milli_volts <= VOLTAGE_20)        && (milli_volts > VOLTAGE_30))          { case_numb
 207              		.loc 1 93 0 is_stmt 1
 208 00fa 9249     		ldr	r1, .L118+36
 209 00fc 201C     		adds	r0, r4, #0
 210 00fe FFF7FEFF 		bl	__aeabi_fcmple
 211              	.LVL23:
 212 0102 0028     		cmp	r0, #0
 213 0104 06D0     		beq	.L19
 214              		.loc 1 93 0 is_stmt 0 discriminator 1
 215 0106 9049     		ldr	r1, .L118+40
 216 0108 201C     		adds	r0, r4, #0
 217 010a FFF7FEFF 		bl	__aeabi_fcmpgt
 218              	.LVL24:
 219 010e 0028     		cmp	r0, #0
 220 0110 00D0     		beq	.LCB151
 221 0112 ADE0     		b	.L80	@long jump
 222              	.LCB151:
 223              	.L19:
  94:lmt70.c       ****     else if ((milli_volts <= VOLTAGE_30)        && (milli_volts > VOLTAGE_40))          { case_numb
 224              		.loc 1 94 0 is_stmt 1
 225 0114 8C49     		ldr	r1, .L118+40
 226 0116 201C     		adds	r0, r4, #0
 227 0118 FFF7FEFF 		bl	__aeabi_fcmple
 228              	.LVL25:
 229 011c 0028     		cmp	r0, #0
 230 011e 06D0     		beq	.L21
 231              		.loc 1 94 0 is_stmt 0 discriminator 1
 232 0120 8A49     		ldr	r1, .L118+44
 233 0122 201C     		adds	r0, r4, #0
 234 0124 FFF7FEFF 		bl	__aeabi_fcmpgt
 235              	.LVL26:
 236 0128 0028     		cmp	r0, #0
 237 012a 00D0     		beq	.LCB164
 238 012c A2E0     		b	.L81	@long jump
 239              	.LCB164:
 240              	.L21:
  95:lmt70.c       ****     else if ((milli_volts <= VOLTAGE_40)        && (milli_volts > VOLTAGE_50))          { case_numb
 241              		.loc 1 95 0 is_stmt 1
 242 012e 8749     		ldr	r1, .L118+44
 243 0130 201C     		adds	r0, r4, #0
 244 0132 FFF7FEFF 		bl	__aeabi_fcmple
 245              	.LVL27:
 246 0136 0028     		cmp	r0, #0
 247 0138 06D0     		beq	.L23
ARM GAS  C:\Users\Intern\AppData\Local\Temp\ccvnpchc.s 			page 7


 248              		.loc 1 95 0 is_stmt 0 discriminator 1
 249 013a 8549     		ldr	r1, .L118+48
 250 013c 201C     		adds	r0, r4, #0
 251 013e FFF7FEFF 		bl	__aeabi_fcmpgt
 252              	.LVL28:
 253 0142 0028     		cmp	r0, #0
 254 0144 00D0     		beq	.LCB177
 255 0146 97E0     		b	.L82	@long jump
 256              	.LCB177:
 257              	.L23:
  96:lmt70.c       ****     else if ((milli_volts <= VOLTAGE_50)        && (milli_volts > VOLTAGE_60))          { case_numb
 258              		.loc 1 96 0 is_stmt 1
 259 0148 8149     		ldr	r1, .L118+48
 260 014a 201C     		adds	r0, r4, #0
 261 014c FFF7FEFF 		bl	__aeabi_fcmple
 262              	.LVL29:
 263 0150 0028     		cmp	r0, #0
 264 0152 06D0     		beq	.L25
 265              		.loc 1 96 0 is_stmt 0 discriminator 1
 266 0154 7F49     		ldr	r1, .L118+52
 267 0156 201C     		adds	r0, r4, #0
 268 0158 FFF7FEFF 		bl	__aeabi_fcmpgt
 269              	.LVL30:
 270 015c 0028     		cmp	r0, #0
 271 015e 00D0     		beq	.LCB190
 272 0160 8CE0     		b	.L83	@long jump
 273              	.LCB190:
 274              	.L25:
  97:lmt70.c       ****     else if ((milli_volts <= VOLTAGE_60)        && (milli_volts > VOLTAGE_70))          { case_numb
 275              		.loc 1 97 0 is_stmt 1
 276 0162 7C49     		ldr	r1, .L118+52
 277 0164 201C     		adds	r0, r4, #0
 278 0166 FFF7FEFF 		bl	__aeabi_fcmple
 279              	.LVL31:
 280 016a 0028     		cmp	r0, #0
 281 016c 06D0     		beq	.L27
 282              		.loc 1 97 0 is_stmt 0 discriminator 1
 283 016e 7A49     		ldr	r1, .L118+56
 284 0170 201C     		adds	r0, r4, #0
 285 0172 FFF7FEFF 		bl	__aeabi_fcmpgt
 286              	.LVL32:
 287 0176 0028     		cmp	r0, #0
 288 0178 00D0     		beq	.LCB203
 289 017a 81E0     		b	.L84	@long jump
 290              	.LCB203:
 291              	.L27:
  98:lmt70.c       ****     else if ((milli_volts <= VOLTAGE_70)        && (milli_volts > VOLTAGE_80))          { case_numb
 292              		.loc 1 98 0 is_stmt 1
 293 017c 7649     		ldr	r1, .L118+56
 294 017e 201C     		adds	r0, r4, #0
 295 0180 FFF7FEFF 		bl	__aeabi_fcmple
 296              	.LVL33:
 297 0184 0028     		cmp	r0, #0
 298 0186 05D0     		beq	.L29
 299              		.loc 1 98 0 is_stmt 0 discriminator 1
 300 0188 7449     		ldr	r1, .L118+60
 301 018a 201C     		adds	r0, r4, #0
ARM GAS  C:\Users\Intern\AppData\Local\Temp\ccvnpchc.s 			page 8


 302 018c FFF7FEFF 		bl	__aeabi_fcmpgt
 303              	.LVL34:
 304 0190 0028     		cmp	r0, #0
 305 0192 77D1     		bne	.L85
 306              	.L29:
  99:lmt70.c       ****     else if ((milli_volts <= VOLTAGE_80)        && (milli_volts > VOLTAGE_90))          { case_numb
 307              		.loc 1 99 0 is_stmt 1
 308 0194 7149     		ldr	r1, .L118+60
 309 0196 201C     		adds	r0, r4, #0
 310 0198 FFF7FEFF 		bl	__aeabi_fcmple
 311              	.LVL35:
 312 019c 0028     		cmp	r0, #0
 313 019e 05D0     		beq	.L31
 314              		.loc 1 99 0 is_stmt 0 discriminator 1
 315 01a0 6F49     		ldr	r1, .L118+64
 316 01a2 201C     		adds	r0, r4, #0
 317 01a4 FFF7FEFF 		bl	__aeabi_fcmpgt
 318              	.LVL36:
 319 01a8 0028     		cmp	r0, #0
 320 01aa 6DD1     		bne	.L86
 321              	.L31:
 100:lmt70.c       ****     else if ((milli_volts <= VOLTAGE_90)        && (milli_volts > VOLTAGE_100))         { case_numb
 322              		.loc 1 100 0 is_stmt 1
 323 01ac 6C49     		ldr	r1, .L118+64
 324 01ae 201C     		adds	r0, r4, #0
 325 01b0 FFF7FEFF 		bl	__aeabi_fcmple
 326              	.LVL37:
 327 01b4 0028     		cmp	r0, #0
 328 01b6 05D0     		beq	.L33
 329              		.loc 1 100 0 is_stmt 0 discriminator 1
 330 01b8 6A49     		ldr	r1, .L118+68
 331 01ba 201C     		adds	r0, r4, #0
 332 01bc FFF7FEFF 		bl	__aeabi_fcmpgt
 333              	.LVL38:
 334 01c0 0028     		cmp	r0, #0
 335 01c2 63D1     		bne	.L87
 336              	.L33:
 101:lmt70.c       ****     else if ((milli_volts <= VOLTAGE_100)       && (milli_volts > VOLTAGE_110))         { case_numb
 337              		.loc 1 101 0 is_stmt 1
 338 01c4 6749     		ldr	r1, .L118+68
 339 01c6 201C     		adds	r0, r4, #0
 340 01c8 FFF7FEFF 		bl	__aeabi_fcmple
 341              	.LVL39:
 342 01cc 0028     		cmp	r0, #0
 343 01ce 05D0     		beq	.L35
 344              		.loc 1 101 0 is_stmt 0 discriminator 1
 345 01d0 6549     		ldr	r1, .L118+72
 346 01d2 201C     		adds	r0, r4, #0
 347 01d4 FFF7FEFF 		bl	__aeabi_fcmpgt
 348              	.LVL40:
 349 01d8 0028     		cmp	r0, #0
 350 01da 59D1     		bne	.L88
 351              	.L35:
 102:lmt70.c       ****     else if ((milli_volts <= VOLTAGE_110)       && (milli_volts > VOLTAGE_120))         { case_numb
 352              		.loc 1 102 0 is_stmt 1
 353 01dc 6249     		ldr	r1, .L118+72
 354 01de 201C     		adds	r0, r4, #0
ARM GAS  C:\Users\Intern\AppData\Local\Temp\ccvnpchc.s 			page 9


 355 01e0 FFF7FEFF 		bl	__aeabi_fcmple
 356              	.LVL41:
 357 01e4 0028     		cmp	r0, #0
 358 01e6 05D0     		beq	.L37
 359              		.loc 1 102 0 is_stmt 0 discriminator 1
 360 01e8 6049     		ldr	r1, .L118+76
 361 01ea 201C     		adds	r0, r4, #0
 362 01ec FFF7FEFF 		bl	__aeabi_fcmpgt
 363              	.LVL42:
 364 01f0 0028     		cmp	r0, #0
 365 01f2 4FD1     		bne	.L89
 366              	.L37:
 103:lmt70.c       ****     else if ((milli_volts <= VOLTAGE_120)       && (milli_volts > VOLTAGE_130))         { case_numb
 367              		.loc 1 103 0 is_stmt 1
 368 01f4 5D49     		ldr	r1, .L118+76
 369 01f6 201C     		adds	r0, r4, #0
 370 01f8 FFF7FEFF 		bl	__aeabi_fcmple
 371              	.LVL43:
 372 01fc 0028     		cmp	r0, #0
 373 01fe 05D0     		beq	.L39
 374              		.loc 1 103 0 is_stmt 0 discriminator 1
 375 0200 5B49     		ldr	r1, .L118+80
 376 0202 201C     		adds	r0, r4, #0
 377 0204 FFF7FEFF 		bl	__aeabi_fcmpgt
 378              	.LVL44:
 379 0208 0028     		cmp	r0, #0
 380 020a 45D1     		bne	.L90
 381              	.L39:
 104:lmt70.c       ****     else if ((milli_volts <= VOLTAGE_130)       && (milli_volts > VOLTAGE_140))         { case_numb
 382              		.loc 1 104 0 is_stmt 1
 383 020c 5849     		ldr	r1, .L118+80
 384 020e 201C     		adds	r0, r4, #0
 385 0210 FFF7FEFF 		bl	__aeabi_fcmple
 386              	.LVL45:
 387 0214 0028     		cmp	r0, #0
 388 0216 05D0     		beq	.L41
 389              		.loc 1 104 0 is_stmt 0 discriminator 1
 390 0218 5649     		ldr	r1, .L118+84
 391 021a 201C     		adds	r0, r4, #0
 392 021c FFF7FEFF 		bl	__aeabi_fcmpgt
 393              	.LVL46:
 394 0220 0028     		cmp	r0, #0
 395 0222 3BD1     		bne	.L91
 396              	.L41:
 105:lmt70.c       ****     else if ((milli_volts <= VOLTAGE_140)       && (milli_volts > VOLTAGE_150))         { case_numb
 397              		.loc 1 105 0 is_stmt 1
 398 0224 5349     		ldr	r1, .L118+84
 399 0226 201C     		adds	r0, r4, #0
 400 0228 FFF7FEFF 		bl	__aeabi_fcmple
 401              	.LVL47:
 402 022c 0028     		cmp	r0, #0
 403 022e 05D0     		beq	.L43
 404              		.loc 1 105 0 is_stmt 0 discriminator 1
 405 0230 5149     		ldr	r1, .L118+88
 406 0232 201C     		adds	r0, r4, #0
 407 0234 FFF7FEFF 		bl	__aeabi_fcmpgt
 408              	.LVL48:
ARM GAS  C:\Users\Intern\AppData\Local\Temp\ccvnpchc.s 			page 10


 409 0238 0028     		cmp	r0, #0
 410 023a 31D1     		bne	.L92
 411              	.L43:
 106:lmt70.c       ****     else if (milli_volts <= VOLTAGE_150)                                                { case_numb
 412              		.loc 1 106 0 is_stmt 1
 413 023c 4E49     		ldr	r1, .L118+88
 414 023e 201C     		adds	r0, r4, #0
 415 0240 FFF7FEFF 		bl	__aeabi_fcmple
 416              	.LVL49:
 417 0244 0028     		cmp	r0, #0
 418 0246 2DD0     		beq	.L117
 419 0248 1623     		movs	r3, #22
 420 024a 2CE0     		b	.L2
 421              	.L71:
  84:lmt70.c       ****     else if ((milli_volts <= VOLTAGE_MINUS_55)  && (milli_volts > VOLTAGE_MINUS_50))    { case_numb
 422              		.loc 1 84 0
 423 024c 0023     		movs	r3, #0
 424 024e 2AE0     		b	.L2
 425              	.L72:
  85:lmt70.c       ****     else if ((milli_volts <= VOLTAGE_MINUS_50)  && (milli_volts > VOLTAGE_MINUS_40))    { case_numb
 426              		.loc 1 85 0
 427 0250 0123     		movs	r3, #1
 428 0252 28E0     		b	.L2
 429              	.L73:
  86:lmt70.c       ****     else if ((milli_volts <= VOLTAGE_MINUS_40)  && (milli_volts > VOLTAGE_MINUS_30))    { case_numb
 430              		.loc 1 86 0
 431 0254 0223     		movs	r3, #2
 432 0256 26E0     		b	.L2
 433              	.L74:
  87:lmt70.c       ****     else if ((milli_volts <= VOLTAGE_MINUS_30)  && (milli_volts > VOLTAGE_MINUS_20))    { case_numb
 434              		.loc 1 87 0
 435 0258 0323     		movs	r3, #3
 436 025a 24E0     		b	.L2
 437              	.L75:
  88:lmt70.c       ****     else if ((milli_volts <= VOLTAGE_MINUS_20)  && (milli_volts > VOLTAGE_MINUS_10))    { case_numb
 438              		.loc 1 88 0
 439 025c 0423     		movs	r3, #4
 440 025e 22E0     		b	.L2
 441              	.L76:
  89:lmt70.c       ****     else if ((milli_volts <= VOLTAGE_MINUS_10)  && (milli_volts > VOLTAGE_0))           { case_numb
 442              		.loc 1 89 0
 443 0260 0523     		movs	r3, #5
 444 0262 20E0     		b	.L2
 445              	.L77:
  90:lmt70.c       ****     else if ((milli_volts <= VOLTAGE_0)         && (milli_volts > VOLTAGE_10))          { case_numb
 446              		.loc 1 90 0
 447 0264 0623     		movs	r3, #6
 448 0266 1EE0     		b	.L2
 449              	.L78:
  91:lmt70.c       ****     else if ((milli_volts <= VOLTAGE_10)        && (milli_volts > VOLTAGE_20))          { case_numb
 450              		.loc 1 91 0
 451 0268 0723     		movs	r3, #7
 452 026a 1CE0     		b	.L2
 453              	.L79:
  92:lmt70.c       ****     else if ((milli_volts <= VOLTAGE_20)        && (milli_volts > VOLTAGE_30))          { case_numb
 454              		.loc 1 92 0
 455 026c 0823     		movs	r3, #8
ARM GAS  C:\Users\Intern\AppData\Local\Temp\ccvnpchc.s 			page 11


 456 026e 1AE0     		b	.L2
 457              	.L80:
  93:lmt70.c       ****     else if ((milli_volts <= VOLTAGE_30)        && (milli_volts > VOLTAGE_40))          { case_numb
 458              		.loc 1 93 0
 459 0270 0923     		movs	r3, #9
 460 0272 18E0     		b	.L2
 461              	.L81:
  94:lmt70.c       ****     else if ((milli_volts <= VOLTAGE_40)        && (milli_volts > VOLTAGE_50))          { case_numb
 462              		.loc 1 94 0
 463 0274 0A23     		movs	r3, #10
 464 0276 16E0     		b	.L2
 465              	.L82:
  95:lmt70.c       ****     else if ((milli_volts <= VOLTAGE_50)        && (milli_volts > VOLTAGE_60))          { case_numb
 466              		.loc 1 95 0
 467 0278 0B23     		movs	r3, #11
 468 027a 14E0     		b	.L2
 469              	.L83:
  96:lmt70.c       ****     else if ((milli_volts <= VOLTAGE_60)        && (milli_volts > VOLTAGE_70))          { case_numb
 470              		.loc 1 96 0
 471 027c 0C23     		movs	r3, #12
 472 027e 12E0     		b	.L2
 473              	.L84:
  97:lmt70.c       ****     else if ((milli_volts <= VOLTAGE_70)        && (milli_volts > VOLTAGE_80))          { case_numb
 474              		.loc 1 97 0
 475 0280 0D23     		movs	r3, #13
 476 0282 10E0     		b	.L2
 477              	.L85:
  98:lmt70.c       ****     else if ((milli_volts <= VOLTAGE_80)        && (milli_volts > VOLTAGE_90))          { case_numb
 478              		.loc 1 98 0
 479 0284 0E23     		movs	r3, #14
 480 0286 0EE0     		b	.L2
 481              	.L86:
  99:lmt70.c       ****     else if ((milli_volts <= VOLTAGE_90)        && (milli_volts > VOLTAGE_100))         { case_numb
 482              		.loc 1 99 0
 483 0288 0F23     		movs	r3, #15
 484 028a 0CE0     		b	.L2
 485              	.L87:
 100:lmt70.c       ****     else if ((milli_volts <= VOLTAGE_100)       && (milli_volts > VOLTAGE_110))         { case_numb
 486              		.loc 1 100 0
 487 028c 1023     		movs	r3, #16
 488 028e 0AE0     		b	.L2
 489              	.L88:
 101:lmt70.c       ****     else if ((milli_volts <= VOLTAGE_110)       && (milli_volts > VOLTAGE_120))         { case_numb
 490              		.loc 1 101 0
 491 0290 1123     		movs	r3, #17
 492 0292 08E0     		b	.L2
 493              	.L89:
 102:lmt70.c       ****     else if ((milli_volts <= VOLTAGE_120)       && (milli_volts > VOLTAGE_130))         { case_numb
 494              		.loc 1 102 0
 495 0294 1223     		movs	r3, #18
 496 0296 06E0     		b	.L2
 497              	.L90:
 103:lmt70.c       ****     else if ((milli_volts <= VOLTAGE_130)       && (milli_volts > VOLTAGE_140))         { case_numb
 498              		.loc 1 103 0
 499 0298 1323     		movs	r3, #19
 500 029a 04E0     		b	.L2
 501              	.L91:
ARM GAS  C:\Users\Intern\AppData\Local\Temp\ccvnpchc.s 			page 12


 104:lmt70.c       ****     else if ((milli_volts <= VOLTAGE_140)       && (milli_volts > VOLTAGE_150))         { case_numb
 502              		.loc 1 104 0
 503 029c 1423     		movs	r3, #20
 504 029e 02E0     		b	.L2
 505              	.L92:
 105:lmt70.c       ****     else if (milli_volts <= VOLTAGE_150)                                                { case_numb
 506              		.loc 1 105 0
 507 02a0 1523     		movs	r3, #21
 508 02a2 00E0     		b	.L2
 509              	.L117:
 107:lmt70.c       ****     else                                                                                { case_numb
 510              		.loc 1 107 0
 511 02a4 1723     		movs	r3, #23
 512              	.L2:
 513              	.LVL50:
 108:lmt70.c       ****     
 109:lmt70.c       ****     switch(case_number)
 514              		.loc 1 109 0
 515 02a6 162B     		cmp	r3, #22
 516 02a8 00D9     		bls	.LCB458
 517 02aa E0E1     		b	.L94	@long jump
 518              	.LCB458:
 519 02ac 9B00     		lsls	r3, r3, #2
 520              	.LVL51:
 521 02ae 334A     		ldr	r2, .L118+92
 522 02b0 D358     		ldr	r3, [r2, r3]
 523 02b2 9F46     		mov	pc, r3
 524              		.section	.rodata
 525              		.align	2
 526              	.L48:
 527 0000 B4020000 		.word	.L47
 528 0004 D8020000 		.word	.L49
 529 0008 FC020000 		.word	.L50
 530 000c 88030000 		.word	.L51
 531 0010 AC030000 		.word	.L52
 532 0014 D0030000 		.word	.L53
 533 0018 F4030000 		.word	.L54
 534 001c 18040000 		.word	.L55
 535 0020 3C040000 		.word	.L56
 536 0024 60040000 		.word	.L57
 537 0028 84040000 		.word	.L58
 538 002c A8040000 		.word	.L59
 539 0030 CC040000 		.word	.L60
 540 0034 F2040000 		.word	.L61
 541 0038 18050000 		.word	.L62
 542 003c 3E050000 		.word	.L63
 543 0040 64050000 		.word	.L64
 544 0044 8A050000 		.word	.L65
 545 0048 B0050000 		.word	.L66
 546 004c D6050000 		.word	.L67
 547 0050 FC050000 		.word	.L68
 548 0054 22060000 		.word	.L69
 549 0058 48060000 		.word	.L70
 550              		.section	.text.lmt70_get_celsius
 551              	.L47:
 110:lmt70.c       ****     {
 111:lmt70.c       ****         case 0:  celsius = (int_slopes[0] *milli_volts+int_intercepts[0]) /1000000; break;
ARM GAS  C:\Users\Intern\AppData\Local\Temp\ccvnpchc.s 			page 13


 552              		.loc 1 111 0
 553 02b4 324D     		ldr	r5, .L118+96
 554 02b6 2868     		ldr	r0, [r5]
 555 02b8 FFF7FEFF 		bl	__aeabi_i2f
 556              	.LVL52:
 557 02bc 211C     		adds	r1, r4, #0
 558 02be FFF7FEFF 		bl	__aeabi_fmul
 559              	.LVL53:
 560 02c2 041C     		adds	r4, r0, #0
 561              	.LVL54:
 562 02c4 686D     		ldr	r0, [r5, #84]
 563 02c6 FFF7FEFF 		bl	__aeabi_i2f
 564              	.LVL55:
 565 02ca 211C     		adds	r1, r4, #0
 566 02cc FFF7FEFF 		bl	__aeabi_fadd
 567              	.LVL56:
 568 02d0 2C49     		ldr	r1, .L118+100
 569 02d2 FFF7FEFF 		bl	__aeabi_fdiv
 570              	.LVL57:
 571 02d6 CBE1     		b	.L46
 572              	.LVL58:
 573              	.L49:
 112:lmt70.c       ****         case 1:  celsius = (int_slopes[0] *milli_volts+int_intercepts[0]) /1000000; break;
 574              		.loc 1 112 0
 575 02d8 294D     		ldr	r5, .L118+96
 576 02da 2868     		ldr	r0, [r5]
 577 02dc FFF7FEFF 		bl	__aeabi_i2f
 578              	.LVL59:
 579 02e0 211C     		adds	r1, r4, #0
 580 02e2 FFF7FEFF 		bl	__aeabi_fmul
 581              	.LVL60:
 582 02e6 041C     		adds	r4, r0, #0
 583              	.LVL61:
 584 02e8 686D     		ldr	r0, [r5, #84]
 585 02ea FFF7FEFF 		bl	__aeabi_i2f
 586              	.LVL62:
 587 02ee 211C     		adds	r1, r4, #0
 588 02f0 FFF7FEFF 		bl	__aeabi_fadd
 589              	.LVL63:
 590 02f4 2349     		ldr	r1, .L118+100
 591 02f6 FFF7FEFF 		bl	__aeabi_fdiv
 592              	.LVL64:
 593 02fa B9E1     		b	.L46
 594              	.LVL65:
 595              	.L50:
 113:lmt70.c       ****         case 2:  celsius = (int_slopes[1] *milli_volts+int_intercepts[1]) /1000000; break;
 596              		.loc 1 113 0
 597 02fc 204D     		ldr	r5, .L118+96
 598 02fe 6868     		ldr	r0, [r5, #4]
 599 0300 FFF7FEFF 		bl	__aeabi_i2f
 600              	.LVL66:
 601 0304 211C     		adds	r1, r4, #0
 602 0306 FFF7FEFF 		bl	__aeabi_fmul
 603              	.LVL67:
 604 030a 041C     		adds	r4, r0, #0
 605              	.LVL68:
 606 030c A86D     		ldr	r0, [r5, #88]
ARM GAS  C:\Users\Intern\AppData\Local\Temp\ccvnpchc.s 			page 14


 607 030e FFF7FEFF 		bl	__aeabi_i2f
 608              	.LVL69:
 609 0312 211C     		adds	r1, r4, #0
 610 0314 FFF7FEFF 		bl	__aeabi_fadd
 611              	.LVL70:
 612 0318 1A49     		ldr	r1, .L118+100
 613 031a FFF7FEFF 		bl	__aeabi_fdiv
 614              	.LVL71:
 615 031e A7E1     		b	.L46
 616              	.L119:
 617              		.align	2
 618              	.L118:
 619 0320 00000000 		.word	vdd_calibration
 620 0324 00E0AB44 		.word	1152114688
 621 0328 00C0A844 		.word	1151909888
 622 032c 00A0A244 		.word	1151508480
 623 0330 00409C44 		.word	1151090688
 624 0334 00009644 		.word	1150681088
 625 0338 00A08F44 		.word	1150263296
 626 033c 00408944 		.word	1149845504
 627 0340 00E08244 		.word	1149427712
 628 0344 00C07844 		.word	1148764160
 629 0348 00C06B44 		.word	1147912192
 630 034c 00C05E44 		.word	1147060224
 631 0350 00C05144 		.word	1146208256
 632 0354 00804444 		.word	1145339904
 633 0358 00803744 		.word	1144487936
 634 035c 00402A44 		.word	1143619584
 635 0360 00C01C44 		.word	1142734848
 636 0364 00800F44 		.word	1141866496
 637 0368 00400244 		.word	1140998144
 638 036c 0080E943 		.word	1139376128
 639 0370 0080CE43 		.word	1137606656
 640 0374 0000B343 		.word	1135804416
 641 0378 00809743 		.word	1134002176
 642 037c 00000000 		.word	.L48
 643 0380 00000000 		.word	.LANCHOR0
 644 0384 00247449 		.word	1232348160
 645              	.LVL72:
 646              	.L51:
 114:lmt70.c       ****         case 3:  celsius = (int_slopes[2] *milli_volts+int_intercepts[2]) /1000000; break;
 647              		.loc 1 114 0
 648 0388 BA4D     		ldr	r5, .L120
 649 038a A868     		ldr	r0, [r5, #8]
 650 038c FFF7FEFF 		bl	__aeabi_i2f
 651              	.LVL73:
 652 0390 211C     		adds	r1, r4, #0
 653 0392 FFF7FEFF 		bl	__aeabi_fmul
 654              	.LVL74:
 655 0396 041C     		adds	r4, r0, #0
 656              	.LVL75:
 657 0398 E86D     		ldr	r0, [r5, #92]
 658 039a FFF7FEFF 		bl	__aeabi_i2f
 659              	.LVL76:
 660 039e 211C     		adds	r1, r4, #0
 661 03a0 FFF7FEFF 		bl	__aeabi_fadd
 662              	.LVL77:
ARM GAS  C:\Users\Intern\AppData\Local\Temp\ccvnpchc.s 			page 15


 663 03a4 B449     		ldr	r1, .L120+4
 664 03a6 FFF7FEFF 		bl	__aeabi_fdiv
 665              	.LVL78:
 666 03aa 61E1     		b	.L46
 667              	.LVL79:
 668              	.L52:
 115:lmt70.c       ****         case 4:  celsius = (int_slopes[3] *milli_volts+int_intercepts[3]) /1000000; break;
 669              		.loc 1 115 0
 670 03ac B14D     		ldr	r5, .L120
 671 03ae E868     		ldr	r0, [r5, #12]
 672 03b0 FFF7FEFF 		bl	__aeabi_i2f
 673              	.LVL80:
 674 03b4 211C     		adds	r1, r4, #0
 675 03b6 FFF7FEFF 		bl	__aeabi_fmul
 676              	.LVL81:
 677 03ba 041C     		adds	r4, r0, #0
 678              	.LVL82:
 679 03bc 286E     		ldr	r0, [r5, #96]
 680 03be FFF7FEFF 		bl	__aeabi_i2f
 681              	.LVL83:
 682 03c2 211C     		adds	r1, r4, #0
 683 03c4 FFF7FEFF 		bl	__aeabi_fadd
 684              	.LVL84:
 685 03c8 AB49     		ldr	r1, .L120+4
 686 03ca FFF7FEFF 		bl	__aeabi_fdiv
 687              	.LVL85:
 688 03ce 4FE1     		b	.L46
 689              	.LVL86:
 690              	.L53:
 116:lmt70.c       ****         case 5:  celsius = (int_slopes[4] *milli_volts+int_intercepts[4]) /1000000; break;
 691              		.loc 1 116 0
 692 03d0 A84D     		ldr	r5, .L120
 693 03d2 2869     		ldr	r0, [r5, #16]
 694 03d4 FFF7FEFF 		bl	__aeabi_i2f
 695              	.LVL87:
 696 03d8 211C     		adds	r1, r4, #0
 697 03da FFF7FEFF 		bl	__aeabi_fmul
 698              	.LVL88:
 699 03de 041C     		adds	r4, r0, #0
 700              	.LVL89:
 701 03e0 686E     		ldr	r0, [r5, #100]
 702 03e2 FFF7FEFF 		bl	__aeabi_i2f
 703              	.LVL90:
 704 03e6 211C     		adds	r1, r4, #0
 705 03e8 FFF7FEFF 		bl	__aeabi_fadd
 706              	.LVL91:
 707 03ec A249     		ldr	r1, .L120+4
 708 03ee FFF7FEFF 		bl	__aeabi_fdiv
 709              	.LVL92:
 710 03f2 3DE1     		b	.L46
 711              	.LVL93:
 712              	.L54:
 117:lmt70.c       ****         case 6:  celsius = (int_slopes[5] *milli_volts+int_intercepts[5]) /1000000; break;
 713              		.loc 1 117 0
 714 03f4 9F4D     		ldr	r5, .L120
 715 03f6 6869     		ldr	r0, [r5, #20]
 716 03f8 FFF7FEFF 		bl	__aeabi_i2f
ARM GAS  C:\Users\Intern\AppData\Local\Temp\ccvnpchc.s 			page 16


 717              	.LVL94:
 718 03fc 211C     		adds	r1, r4, #0
 719 03fe FFF7FEFF 		bl	__aeabi_fmul
 720              	.LVL95:
 721 0402 041C     		adds	r4, r0, #0
 722              	.LVL96:
 723 0404 A86E     		ldr	r0, [r5, #104]
 724 0406 FFF7FEFF 		bl	__aeabi_i2f
 725              	.LVL97:
 726 040a 211C     		adds	r1, r4, #0
 727 040c FFF7FEFF 		bl	__aeabi_fadd
 728              	.LVL98:
 729 0410 9949     		ldr	r1, .L120+4
 730 0412 FFF7FEFF 		bl	__aeabi_fdiv
 731              	.LVL99:
 732 0416 2BE1     		b	.L46
 733              	.LVL100:
 734              	.L55:
 118:lmt70.c       ****         case 7:  celsius = (int_slopes[6] *milli_volts+int_intercepts[6]) /1000000; break;
 735              		.loc 1 118 0
 736 0418 964D     		ldr	r5, .L120
 737 041a A869     		ldr	r0, [r5, #24]
 738 041c FFF7FEFF 		bl	__aeabi_i2f
 739              	.LVL101:
 740 0420 211C     		adds	r1, r4, #0
 741 0422 FFF7FEFF 		bl	__aeabi_fmul
 742              	.LVL102:
 743 0426 041C     		adds	r4, r0, #0
 744              	.LVL103:
 745 0428 E86E     		ldr	r0, [r5, #108]
 746 042a FFF7FEFF 		bl	__aeabi_i2f
 747              	.LVL104:
 748 042e 211C     		adds	r1, r4, #0
 749 0430 FFF7FEFF 		bl	__aeabi_fadd
 750              	.LVL105:
 751 0434 9049     		ldr	r1, .L120+4
 752 0436 FFF7FEFF 		bl	__aeabi_fdiv
 753              	.LVL106:
 754 043a 19E1     		b	.L46
 755              	.LVL107:
 756              	.L56:
 119:lmt70.c       ****         case 8:  celsius = (int_slopes[7] *milli_volts+int_intercepts[7]) /1000000; break;
 757              		.loc 1 119 0
 758 043c 8D4D     		ldr	r5, .L120
 759 043e E869     		ldr	r0, [r5, #28]
 760 0440 FFF7FEFF 		bl	__aeabi_i2f
 761              	.LVL108:
 762 0444 211C     		adds	r1, r4, #0
 763 0446 FFF7FEFF 		bl	__aeabi_fmul
 764              	.LVL109:
 765 044a 041C     		adds	r4, r0, #0
 766              	.LVL110:
 767 044c 286F     		ldr	r0, [r5, #112]
 768 044e FFF7FEFF 		bl	__aeabi_i2f
 769              	.LVL111:
 770 0452 211C     		adds	r1, r4, #0
 771 0454 FFF7FEFF 		bl	__aeabi_fadd
ARM GAS  C:\Users\Intern\AppData\Local\Temp\ccvnpchc.s 			page 17


 772              	.LVL112:
 773 0458 8749     		ldr	r1, .L120+4
 774 045a FFF7FEFF 		bl	__aeabi_fdiv
 775              	.LVL113:
 776 045e 07E1     		b	.L46
 777              	.LVL114:
 778              	.L57:
 120:lmt70.c       ****         case 9:  celsius = (int_slopes[8] *milli_volts+int_intercepts[8]) /1000000; break;
 779              		.loc 1 120 0
 780 0460 844D     		ldr	r5, .L120
 781 0462 286A     		ldr	r0, [r5, #32]
 782 0464 FFF7FEFF 		bl	__aeabi_i2f
 783              	.LVL115:
 784 0468 211C     		adds	r1, r4, #0
 785 046a FFF7FEFF 		bl	__aeabi_fmul
 786              	.LVL116:
 787 046e 041C     		adds	r4, r0, #0
 788              	.LVL117:
 789 0470 686F     		ldr	r0, [r5, #116]
 790 0472 FFF7FEFF 		bl	__aeabi_i2f
 791              	.LVL118:
 792 0476 211C     		adds	r1, r4, #0
 793 0478 FFF7FEFF 		bl	__aeabi_fadd
 794              	.LVL119:
 795 047c 7E49     		ldr	r1, .L120+4
 796 047e FFF7FEFF 		bl	__aeabi_fdiv
 797              	.LVL120:
 798 0482 F5E0     		b	.L46
 799              	.LVL121:
 800              	.L58:
 121:lmt70.c       ****         case 10: celsius = (int_slopes[9] *milli_volts+int_intercepts[9]) /1000000; break;
 801              		.loc 1 121 0
 802 0484 7B4D     		ldr	r5, .L120
 803 0486 686A     		ldr	r0, [r5, #36]
 804 0488 FFF7FEFF 		bl	__aeabi_i2f
 805              	.LVL122:
 806 048c 211C     		adds	r1, r4, #0
 807 048e FFF7FEFF 		bl	__aeabi_fmul
 808              	.LVL123:
 809 0492 041C     		adds	r4, r0, #0
 810              	.LVL124:
 811 0494 A86F     		ldr	r0, [r5, #120]
 812 0496 FFF7FEFF 		bl	__aeabi_i2f
 813              	.LVL125:
 814 049a 211C     		adds	r1, r4, #0
 815 049c FFF7FEFF 		bl	__aeabi_fadd
 816              	.LVL126:
 817 04a0 7549     		ldr	r1, .L120+4
 818 04a2 FFF7FEFF 		bl	__aeabi_fdiv
 819              	.LVL127:
 820 04a6 E3E0     		b	.L46
 821              	.LVL128:
 822              	.L59:
 122:lmt70.c       ****         case 11: celsius = (int_slopes[10]*milli_volts+int_intercepts[10])/1000000; break;
 823              		.loc 1 122 0
 824 04a8 724D     		ldr	r5, .L120
 825 04aa A86A     		ldr	r0, [r5, #40]
ARM GAS  C:\Users\Intern\AppData\Local\Temp\ccvnpchc.s 			page 18


 826 04ac FFF7FEFF 		bl	__aeabi_i2f
 827              	.LVL129:
 828 04b0 211C     		adds	r1, r4, #0
 829 04b2 FFF7FEFF 		bl	__aeabi_fmul
 830              	.LVL130:
 831 04b6 041C     		adds	r4, r0, #0
 832              	.LVL131:
 833 04b8 E86F     		ldr	r0, [r5, #124]
 834 04ba FFF7FEFF 		bl	__aeabi_i2f
 835              	.LVL132:
 836 04be 211C     		adds	r1, r4, #0
 837 04c0 FFF7FEFF 		bl	__aeabi_fadd
 838              	.LVL133:
 839 04c4 6C49     		ldr	r1, .L120+4
 840 04c6 FFF7FEFF 		bl	__aeabi_fdiv
 841              	.LVL134:
 842 04ca D1E0     		b	.L46
 843              	.LVL135:
 844              	.L60:
 123:lmt70.c       ****         case 12: celsius = (int_slopes[11]*milli_volts+int_intercepts[11])/1000000; break;
 845              		.loc 1 123 0
 846 04cc 694D     		ldr	r5, .L120
 847 04ce E86A     		ldr	r0, [r5, #44]
 848 04d0 FFF7FEFF 		bl	__aeabi_i2f
 849              	.LVL136:
 850 04d4 211C     		adds	r1, r4, #0
 851 04d6 FFF7FEFF 		bl	__aeabi_fmul
 852              	.LVL137:
 853 04da 041C     		adds	r4, r0, #0
 854              	.LVL138:
 855 04dc 8023     		movs	r3, #128
 856 04de E858     		ldr	r0, [r5, r3]
 857 04e0 FFF7FEFF 		bl	__aeabi_i2f
 858              	.LVL139:
 859 04e4 211C     		adds	r1, r4, #0
 860 04e6 FFF7FEFF 		bl	__aeabi_fadd
 861              	.LVL140:
 862 04ea 6349     		ldr	r1, .L120+4
 863 04ec FFF7FEFF 		bl	__aeabi_fdiv
 864              	.LVL141:
 865 04f0 BEE0     		b	.L46
 866              	.LVL142:
 867              	.L61:
 124:lmt70.c       ****         case 13: celsius = (int_slopes[12]*milli_volts+int_intercepts[12])/1000000; break;
 868              		.loc 1 124 0
 869 04f2 604D     		ldr	r5, .L120
 870 04f4 286B     		ldr	r0, [r5, #48]
 871 04f6 FFF7FEFF 		bl	__aeabi_i2f
 872              	.LVL143:
 873 04fa 211C     		adds	r1, r4, #0
 874 04fc FFF7FEFF 		bl	__aeabi_fmul
 875              	.LVL144:
 876 0500 041C     		adds	r4, r0, #0
 877              	.LVL145:
 878 0502 8423     		movs	r3, #132
 879 0504 E858     		ldr	r0, [r5, r3]
 880 0506 FFF7FEFF 		bl	__aeabi_i2f
ARM GAS  C:\Users\Intern\AppData\Local\Temp\ccvnpchc.s 			page 19


 881              	.LVL146:
 882 050a 211C     		adds	r1, r4, #0
 883 050c FFF7FEFF 		bl	__aeabi_fadd
 884              	.LVL147:
 885 0510 5949     		ldr	r1, .L120+4
 886 0512 FFF7FEFF 		bl	__aeabi_fdiv
 887              	.LVL148:
 888 0516 ABE0     		b	.L46
 889              	.LVL149:
 890              	.L62:
 125:lmt70.c       ****         case 14: celsius = (int_slopes[13]*milli_volts+int_intercepts[13])/1000000; break;
 891              		.loc 1 125 0
 892 0518 564D     		ldr	r5, .L120
 893 051a 686B     		ldr	r0, [r5, #52]
 894 051c FFF7FEFF 		bl	__aeabi_i2f
 895              	.LVL150:
 896 0520 211C     		adds	r1, r4, #0
 897 0522 FFF7FEFF 		bl	__aeabi_fmul
 898              	.LVL151:
 899 0526 041C     		adds	r4, r0, #0
 900              	.LVL152:
 901 0528 8823     		movs	r3, #136
 902 052a E858     		ldr	r0, [r5, r3]
 903 052c FFF7FEFF 		bl	__aeabi_i2f
 904              	.LVL153:
 905 0530 211C     		adds	r1, r4, #0
 906 0532 FFF7FEFF 		bl	__aeabi_fadd
 907              	.LVL154:
 908 0536 5049     		ldr	r1, .L120+4
 909 0538 FFF7FEFF 		bl	__aeabi_fdiv
 910              	.LVL155:
 911 053c 98E0     		b	.L46
 912              	.LVL156:
 913              	.L63:
 126:lmt70.c       ****         case 15: celsius = (int_slopes[14]*milli_volts+int_intercepts[14])/1000000; break;
 914              		.loc 1 126 0
 915 053e 4D4D     		ldr	r5, .L120
 916 0540 A86B     		ldr	r0, [r5, #56]
 917 0542 FFF7FEFF 		bl	__aeabi_i2f
 918              	.LVL157:
 919 0546 211C     		adds	r1, r4, #0
 920 0548 FFF7FEFF 		bl	__aeabi_fmul
 921              	.LVL158:
 922 054c 041C     		adds	r4, r0, #0
 923              	.LVL159:
 924 054e 8C23     		movs	r3, #140
 925 0550 E858     		ldr	r0, [r5, r3]
 926 0552 FFF7FEFF 		bl	__aeabi_i2f
 927              	.LVL160:
 928 0556 211C     		adds	r1, r4, #0
 929 0558 FFF7FEFF 		bl	__aeabi_fadd
 930              	.LVL161:
 931 055c 4649     		ldr	r1, .L120+4
 932 055e FFF7FEFF 		bl	__aeabi_fdiv
 933              	.LVL162:
 934 0562 85E0     		b	.L46
 935              	.LVL163:
ARM GAS  C:\Users\Intern\AppData\Local\Temp\ccvnpchc.s 			page 20


 936              	.L64:
 127:lmt70.c       ****         case 16: celsius = (int_slopes[15]*milli_volts+int_intercepts[15])/1000000; break;
 937              		.loc 1 127 0
 938 0564 434D     		ldr	r5, .L120
 939 0566 E86B     		ldr	r0, [r5, #60]
 940 0568 FFF7FEFF 		bl	__aeabi_i2f
 941              	.LVL164:
 942 056c 211C     		adds	r1, r4, #0
 943 056e FFF7FEFF 		bl	__aeabi_fmul
 944              	.LVL165:
 945 0572 041C     		adds	r4, r0, #0
 946              	.LVL166:
 947 0574 9023     		movs	r3, #144
 948 0576 E858     		ldr	r0, [r5, r3]
 949 0578 FFF7FEFF 		bl	__aeabi_i2f
 950              	.LVL167:
 951 057c 211C     		adds	r1, r4, #0
 952 057e FFF7FEFF 		bl	__aeabi_fadd
 953              	.LVL168:
 954 0582 3D49     		ldr	r1, .L120+4
 955 0584 FFF7FEFF 		bl	__aeabi_fdiv
 956              	.LVL169:
 957 0588 72E0     		b	.L46
 958              	.LVL170:
 959              	.L65:
 128:lmt70.c       ****         case 17: celsius = (int_slopes[16]*milli_volts+int_intercepts[16])/1000000; break;
 960              		.loc 1 128 0
 961 058a 3A4D     		ldr	r5, .L120
 962 058c 286C     		ldr	r0, [r5, #64]
 963 058e FFF7FEFF 		bl	__aeabi_i2f
 964              	.LVL171:
 965 0592 211C     		adds	r1, r4, #0
 966 0594 FFF7FEFF 		bl	__aeabi_fmul
 967              	.LVL172:
 968 0598 041C     		adds	r4, r0, #0
 969              	.LVL173:
 970 059a 9423     		movs	r3, #148
 971 059c E858     		ldr	r0, [r5, r3]
 972 059e FFF7FEFF 		bl	__aeabi_i2f
 973              	.LVL174:
 974 05a2 211C     		adds	r1, r4, #0
 975 05a4 FFF7FEFF 		bl	__aeabi_fadd
 976              	.LVL175:
 977 05a8 3349     		ldr	r1, .L120+4
 978 05aa FFF7FEFF 		bl	__aeabi_fdiv
 979              	.LVL176:
 980 05ae 5FE0     		b	.L46
 981              	.LVL177:
 982              	.L66:
 129:lmt70.c       ****         case 18: celsius = (int_slopes[17]*milli_volts+int_intercepts[17])/1000000; break;
 983              		.loc 1 129 0
 984 05b0 304D     		ldr	r5, .L120
 985 05b2 686C     		ldr	r0, [r5, #68]
 986 05b4 FFF7FEFF 		bl	__aeabi_i2f
 987              	.LVL178:
 988 05b8 211C     		adds	r1, r4, #0
 989 05ba FFF7FEFF 		bl	__aeabi_fmul
ARM GAS  C:\Users\Intern\AppData\Local\Temp\ccvnpchc.s 			page 21


 990              	.LVL179:
 991 05be 041C     		adds	r4, r0, #0
 992              	.LVL180:
 993 05c0 9823     		movs	r3, #152
 994 05c2 E858     		ldr	r0, [r5, r3]
 995 05c4 FFF7FEFF 		bl	__aeabi_i2f
 996              	.LVL181:
 997 05c8 211C     		adds	r1, r4, #0
 998 05ca FFF7FEFF 		bl	__aeabi_fadd
 999              	.LVL182:
 1000 05ce 2A49     		ldr	r1, .L120+4
 1001 05d0 FFF7FEFF 		bl	__aeabi_fdiv
 1002              	.LVL183:
 1003 05d4 4CE0     		b	.L46
 1004              	.LVL184:
 1005              	.L67:
 130:lmt70.c       ****         case 19: celsius = (int_slopes[18]*milli_volts+int_intercepts[18])/1000000; break;
 1006              		.loc 1 130 0
 1007 05d6 274D     		ldr	r5, .L120
 1008 05d8 A86C     		ldr	r0, [r5, #72]
 1009 05da FFF7FEFF 		bl	__aeabi_i2f
 1010              	.LVL185:
 1011 05de 211C     		adds	r1, r4, #0
 1012 05e0 FFF7FEFF 		bl	__aeabi_fmul
 1013              	.LVL186:
 1014 05e4 041C     		adds	r4, r0, #0
 1015              	.LVL187:
 1016 05e6 9C23     		movs	r3, #156
 1017 05e8 E858     		ldr	r0, [r5, r3]
 1018 05ea FFF7FEFF 		bl	__aeabi_i2f
 1019              	.LVL188:
 1020 05ee 211C     		adds	r1, r4, #0
 1021 05f0 FFF7FEFF 		bl	__aeabi_fadd
 1022              	.LVL189:
 1023 05f4 2049     		ldr	r1, .L120+4
 1024 05f6 FFF7FEFF 		bl	__aeabi_fdiv
 1025              	.LVL190:
 1026 05fa 39E0     		b	.L46
 1027              	.LVL191:
 1028              	.L68:
 131:lmt70.c       ****         case 20: celsius = (int_slopes[19]*milli_volts+int_intercepts[19])/1000000; break;
 1029              		.loc 1 131 0
 1030 05fc 1D4D     		ldr	r5, .L120
 1031 05fe E86C     		ldr	r0, [r5, #76]
 1032 0600 FFF7FEFF 		bl	__aeabi_i2f
 1033              	.LVL192:
 1034 0604 211C     		adds	r1, r4, #0
 1035 0606 FFF7FEFF 		bl	__aeabi_fmul
 1036              	.LVL193:
 1037 060a 041C     		adds	r4, r0, #0
 1038              	.LVL194:
 1039 060c A023     		movs	r3, #160
 1040 060e E858     		ldr	r0, [r5, r3]
 1041 0610 FFF7FEFF 		bl	__aeabi_i2f
 1042              	.LVL195:
 1043 0614 211C     		adds	r1, r4, #0
 1044 0616 FFF7FEFF 		bl	__aeabi_fadd
ARM GAS  C:\Users\Intern\AppData\Local\Temp\ccvnpchc.s 			page 22


 1045              	.LVL196:
 1046 061a 1749     		ldr	r1, .L120+4
 1047 061c FFF7FEFF 		bl	__aeabi_fdiv
 1048              	.LVL197:
 1049 0620 26E0     		b	.L46
 1050              	.LVL198:
 1051              	.L69:
 132:lmt70.c       ****         case 21: celsius = (int_slopes[20]*milli_volts+int_intercepts[20])/1000000; break;
 1052              		.loc 1 132 0
 1053 0622 144D     		ldr	r5, .L120
 1054 0624 286D     		ldr	r0, [r5, #80]
 1055 0626 FFF7FEFF 		bl	__aeabi_i2f
 1056              	.LVL199:
 1057 062a 211C     		adds	r1, r4, #0
 1058 062c FFF7FEFF 		bl	__aeabi_fmul
 1059              	.LVL200:
 1060 0630 041C     		adds	r4, r0, #0
 1061              	.LVL201:
 1062 0632 A423     		movs	r3, #164
 1063 0634 E858     		ldr	r0, [r5, r3]
 1064 0636 FFF7FEFF 		bl	__aeabi_i2f
 1065              	.LVL202:
 1066 063a 211C     		adds	r1, r4, #0
 1067 063c FFF7FEFF 		bl	__aeabi_fadd
 1068              	.LVL203:
 1069 0640 0D49     		ldr	r1, .L120+4
 1070 0642 FFF7FEFF 		bl	__aeabi_fdiv
 1071              	.LVL204:
 1072 0646 13E0     		b	.L46
 1073              	.LVL205:
 1074              	.L70:
 133:lmt70.c       ****         case 22: celsius = (int_slopes[20]*milli_volts+int_intercepts[20])/1000000; break;
 1075              		.loc 1 133 0
 1076 0648 0A4D     		ldr	r5, .L120
 1077 064a 286D     		ldr	r0, [r5, #80]
 1078 064c FFF7FEFF 		bl	__aeabi_i2f
 1079              	.LVL206:
 1080 0650 211C     		adds	r1, r4, #0
 1081 0652 FFF7FEFF 		bl	__aeabi_fmul
 1082              	.LVL207:
 1083 0656 041C     		adds	r4, r0, #0
 1084              	.LVL208:
 1085 0658 A423     		movs	r3, #164
 1086 065a E858     		ldr	r0, [r5, r3]
 1087 065c FFF7FEFF 		bl	__aeabi_i2f
 1088              	.LVL209:
 1089 0660 211C     		adds	r1, r4, #0
 1090 0662 FFF7FEFF 		bl	__aeabi_fadd
 1091              	.LVL210:
 1092 0666 0449     		ldr	r1, .L120+4
 1093 0668 FFF7FEFF 		bl	__aeabi_fdiv
 1094              	.LVL211:
 1095 066c 00E0     		b	.L46
 1096              	.LVL212:
 1097              	.L94:
  82:lmt70.c       ****     
 1098              		.loc 1 82 0
ARM GAS  C:\Users\Intern\AppData\Local\Temp\ccvnpchc.s 			page 23


 1099 066e 0348     		ldr	r0, .L120+8
 1100              	.LVL213:
 1101              	.L46:
 134:lmt70.c       ****         case 23: break;
 135:lmt70.c       ****         default: break;
 136:lmt70.c       ****     }
 137:lmt70.c       ****     return celsius;
 138:lmt70.c       **** }
 1102              		.loc 1 138 0
 1103              		@ sp needed
 1104 0670 70BD     		pop	{r4, r5, r6, pc}
 1105              	.L121:
 1106 0672 C046     		.align	2
 1107              	.L120:
 1108 0674 00000000 		.word	.LANCHOR0
 1109 0678 00247449 		.word	1232348160
 1110 067c 004042C4 		.word	-1002291200
 1111              		.cfi_endproc
 1112              	.LFE62:
 1113              		.size	lmt70_get_celsius, .-lmt70_get_celsius
 1114              		.global	__aeabi_f2d
 1115              		.section	.text.lmt70_string_celsius,"ax",%progbits
 1116              		.align	2
 1117              		.global	lmt70_string_celsius
 1118              		.code	16
 1119              		.thumb_func
 1120              		.type	lmt70_string_celsius, %function
 1121              	lmt70_string_celsius:
 1122              	.LFB63:
 139:lmt70.c       **** 
 140:lmt70.c       **** void lmt70_string_celsius(char *lmt70_temperature)
 141:lmt70.c       **** {
 1123              		.loc 1 141 0
 1124              		.cfi_startproc
 1125              		@ args = 0, pretend = 0, frame = 0
 1126              		@ frame_needed = 0, uses_anonymous_args = 0
 1127              	.LVL214:
 1128 0000 10B5     		push	{r4, lr}
 1129              		.cfi_def_cfa_offset 8
 1130              		.cfi_offset 4, -8
 1131              		.cfi_offset 14, -4
 1132 0002 0400     		movs	r4, r0
 142:lmt70.c       ****     float int_temp = lmt70_get_celsius();
 1133              		.loc 1 142 0
 1134 0004 FFF7FEFF 		bl	lmt70_get_celsius
 1135              	.LVL215:
 143:lmt70.c       ****     sprintf(lmt70_temperature, "%.4f", int_temp);
 1136              		.loc 1 143 0
 1137 0008 FFF7FEFF 		bl	__aeabi_f2d
 1138              	.LVL216:
 1139 000c 0200     		movs	r2, r0
 1140 000e 0B00     		movs	r3, r1
 1141 0010 0249     		ldr	r1, .L123
 1142 0012 2000     		movs	r0, r4
 1143 0014 FFF7FEFF 		bl	sprintf
 1144              	.LVL217:
 144:lmt70.c       **** }
ARM GAS  C:\Users\Intern\AppData\Local\Temp\ccvnpchc.s 			page 24


 1145              		.loc 1 144 0
 1146              		@ sp needed
 1147              	.LVL218:
 1148 0018 10BD     		pop	{r4, pc}
 1149              	.L124:
 1150 001a C046     		.align	2
 1151              	.L123:
 1152 001c 00000000 		.word	.LC3
 1153              		.cfi_endproc
 1154              	.LFE63:
 1155              		.size	lmt70_string_celsius, .-lmt70_string_celsius
 1156              		.section	.text.lmt70_uart,"ax",%progbits
 1157              		.align	2
 1158              		.global	lmt70_uart
 1159              		.code	16
 1160              		.thumb_func
 1161              		.type	lmt70_uart, %function
 1162              	lmt70_uart:
 1163              	.LFB64:
 145:lmt70.c       **** 
 146:lmt70.c       **** void lmt70_uart(void)
 147:lmt70.c       **** {
 1164              		.loc 1 147 0
 1165              		.cfi_startproc
 1166              		@ args = 0, pretend = 0, frame = 16
 1167              		@ frame_needed = 0, uses_anonymous_args = 0
 1168 0000 10B5     		push	{r4, lr}
 1169              		.cfi_def_cfa_offset 8
 1170              		.cfi_offset 4, -8
 1171              		.cfi_offset 14, -4
 1172 0002 84B0     		sub	sp, sp, #16
 1173              		.cfi_def_cfa_offset 24
 148:lmt70.c       ****     char lmt70_temperature[5];
 149:lmt70.c       ****     lmt70_string_celsius(lmt70_temperature);
 1174              		.loc 1 149 0
 1175 0004 02A8     		add	r0, sp, #8
 1176 0006 FFF7FEFF 		bl	lmt70_string_celsius
 1177              	.LVL219:
 150:lmt70.c       **** 
 151:lmt70.c       ****     char lmt70_uart_string[7]; //Stores UV Photodiode Power Density in Message
 152:lmt70.c       ****     lmt70_uart_string[0] = 'l'; //Places an l as the first element in the arrray
 1178              		.loc 1 152 0
 1179 000a 6C23     		movs	r3, #108
 1180 000c 6A46     		mov	r2, sp
 1181 000e 1370     		strb	r3, [r2]
 153:lmt70.c       ****     lmt70_uart_string[6] = '\n'; //Places a new line character in the last spot in the array
 1182              		.loc 1 153 0
 1183 0010 623B     		subs	r3, r3, #98
 1184 0012 9371     		strb	r3, [r2, #6]
 1185              	.LVL220:
 1186              	.LBB2:
 154:lmt70.c       ****     
 155:lmt70.c       ****     //Placing Value in Packet between new message carrier and last message carrier
 156:lmt70.c       ****     for(unsigned int j = 1; j<strlen(lmt70_temperature); j++)
 1187              		.loc 1 156 0
 1188 0014 0124     		movs	r4, #1
 1189 0016 05E0     		b	.L126
ARM GAS  C:\Users\Intern\AppData\Local\Temp\ccvnpchc.s 			page 25


 1190              	.LVL221:
 1191              	.L127:
 157:lmt70.c       ****     {
 158:lmt70.c       ****         lmt70_uart_string[j] = lmt70_temperature[j-1];    
 1192              		.loc 1 158 0 discriminator 3
 1193 0018 631E     		subs	r3, r4, #1
 1194 001a 02AA     		add	r2, sp, #8
 1195 001c D35C     		ldrb	r3, [r2, r3]
 1196 001e 6A46     		mov	r2, sp
 1197 0020 1355     		strb	r3, [r2, r4]
 156:lmt70.c       ****     {
 1198              		.loc 1 156 0 discriminator 3
 1199 0022 0134     		adds	r4, r4, #1
 1200              	.LVL222:
 1201              	.L126:
 156:lmt70.c       ****     {
 1202              		.loc 1 156 0 is_stmt 0 discriminator 1
 1203 0024 02A8     		add	r0, sp, #8
 1204 0026 FFF7FEFF 		bl	strlen
 1205              	.LVL223:
 1206 002a 8442     		cmp	r4, r0
 1207 002c F4D3     		bcc	.L127
 1208 002e 0024     		movs	r4, #0
 1209              	.LVL224:
 1210 0030 04E0     		b	.L128
 1211              	.LVL225:
 1212              	.L129:
 1213              	.LBE2:
 1214              	.LBB3:
 159:lmt70.c       ****     }
 160:lmt70.c       ****     
 161:lmt70.c       ****     //Sends the Value over UART
 162:lmt70.c       ****     for(unsigned int i = 0; i<strlen(lmt70_uart_string); i++)
 163:lmt70.c       ****     {
 164:lmt70.c       ****         UART_UartPutChar(lmt70_uart_string[i]);           
 1215              		.loc 1 164 0 is_stmt 1 discriminator 3
 1216 0032 6B46     		mov	r3, sp
 1217 0034 185D     		ldrb	r0, [r3, r4]
 1218 0036 FFF7FEFF 		bl	UART_SpiUartWriteTxData
 1219              	.LVL226:
 162:lmt70.c       ****     {
 1220              		.loc 1 162 0 discriminator 3
 1221 003a 0134     		adds	r4, r4, #1
 1222              	.LVL227:
 1223              	.L128:
 162:lmt70.c       ****     {
 1224              		.loc 1 162 0 is_stmt 0 discriminator 1
 1225 003c 6846     		mov	r0, sp
 1226 003e FFF7FEFF 		bl	strlen
 1227              	.LVL228:
 1228 0042 8442     		cmp	r4, r0
 1229 0044 F5D3     		bcc	.L129
 1230              	.LBE3:
 165:lmt70.c       ****     } 
 166:lmt70.c       **** }
 1231              		.loc 1 166 0 is_stmt 1
 1232 0046 04B0     		add	sp, sp, #16
ARM GAS  C:\Users\Intern\AppData\Local\Temp\ccvnpchc.s 			page 26


 1233              		@ sp needed
 1234              	.LVL229:
 1235 0048 10BD     		pop	{r4, pc}
 1236              		.cfi_endproc
 1237              	.LFE64:
 1238              		.size	lmt70_uart, .-lmt70_uart
 1239              		.global	__aeabi_f2uiz
 1240 004a C046     		.section	.text.update_lmt70,"ax",%progbits
 1241              		.align	2
 1242              		.global	update_lmt70
 1243              		.code	16
 1244              		.thumb_func
 1245              		.type	update_lmt70, %function
 1246              	update_lmt70:
 1247              	.LFB65:
 167:lmt70.c       **** 
 168:lmt70.c       **** //Reads the state of the LED and writes that value into the GATT Database
 169:lmt70.c       **** void update_lmt70()
 170:lmt70.c       **** {
 1248              		.loc 1 170 0
 1249              		.cfi_startproc
 1250              		@ args = 0, pretend = 0, frame = 16
 1251              		@ frame_needed = 0, uses_anonymous_args = 0
 1252 0000 30B5     		push	{r4, r5, lr}
 1253              		.cfi_def_cfa_offset 12
 1254              		.cfi_offset 4, -12
 1255              		.cfi_offset 5, -8
 1256              		.cfi_offset 14, -4
 1257 0002 85B0     		sub	sp, sp, #20
 1258              		.cfi_def_cfa_offset 32
 171:lmt70.c       ****     CYBLE_GATTS_HANDLE_VALUE_NTF_T tempHandle; //Temporary BLE Handle
 172:lmt70.c       ****     
 173:lmt70.c       ****     //If not connected, no need to update GATT Database/Server
 174:lmt70.c       ****     if(CyBle_GetState() != CYBLE_STATE_CONNECTED)
 1259              		.loc 1 174 0
 1260 0004 104B     		ldr	r3, .L133
 1261 0006 1B78     		ldrb	r3, [r3]
 1262 0008 022B     		cmp	r3, #2
 1263 000a 1AD1     		bne	.L130
 175:lmt70.c       ****     {
 176:lmt70.c       ****         return; //Leaves the function update_lmt70()
 177:lmt70.c       ****     }
 178:lmt70.c       ****     uint16 temperature = (uint16)lmt70_get_celsius();
 1264              		.loc 1 178 0
 1265 000c FFF7FEFF 		bl	lmt70_get_celsius
 1266              	.LVL230:
 1267 0010 FFF7FEFF 		bl	__aeabi_f2uiz
 1268              	.LVL231:
 1269 0014 6B46     		mov	r3, sp
 1270 0016 5880     		strh	r0, [r3, #2]
 1271 0018 0233     		adds	r3, r3, #2
 179:lmt70.c       ****     
 180:lmt70.c       ****     tempHandle.attrHandle = CYBLE_BODY_TEMPERATURE_TEMPERATURE_CHAR_HANDLE;
 1272              		.loc 1 180 0
 1273 001a 01AC     		add	r4, sp, #4
 1274 001c 1D22     		movs	r2, #29
 1275 001e 2281     		strh	r2, [r4, #8]
ARM GAS  C:\Users\Intern\AppData\Local\Temp\ccvnpchc.s 			page 27


 181:lmt70.c       ****     tempHandle.value.val = (uint8 *)&temperature; //Casting the temperature pointer as an 8 bit poi
 1276              		.loc 1 181 0
 1277 0020 0193     		str	r3, [sp, #4]
 182:lmt70.c       ****     tempHandle.value.len = 2; //Uint16 value is stored as 2 8 bit integer
 1278              		.loc 1 182 0
 1279 0022 0223     		movs	r3, #2
 1280 0024 A380     		strh	r3, [r4, #4]
 183:lmt70.c       ****     CyBle_GattsWriteAttributeValue(&tempHandle, 0, &cyBle_connHandle, 0); //Writing new value to Ga
 1281              		.loc 1 183 0
 1282 0026 094D     		ldr	r5, .L133+4
 1283 0028 0023     		movs	r3, #0
 1284 002a 2A00     		movs	r2, r5
 1285 002c 0021     		movs	r1, #0
 1286 002e 2000     		movs	r0, r4
 1287 0030 FFF7FEFF 		bl	CyBle_GattsWriteAttributeValue
 1288              	.LVL232:
 184:lmt70.c       ****     CyBle_GattsNotification(cyBle_connHandle, &tempHandle); //Sends out Notification to Gatt Centra
 1289              		.loc 1 184 0
 1290 0034 2B78     		ldrb	r3, [r5]
 1291 0036 6878     		ldrb	r0, [r5, #1]
 1292 0038 0002     		lsls	r0, r0, #8
 1293 003a 1843     		orrs	r0, r3
 1294 003c 2100     		movs	r1, r4
 1295 003e FFF7FEFF 		bl	CyBle_GattsNotification
 1296              	.LVL233:
 1297              	.L130:
 185:lmt70.c       **** }...
 1298              		.loc 1 185 0
 1299 0042 05B0     		add	sp, sp, #20
 1300              		@ sp needed
 1301 0044 30BD     		pop	{r4, r5, pc}
 1302              	.L134:
 1303 0046 C046     		.align	2
 1304              	.L133:
 1305 0048 00000000 		.word	cyBle_state
 1306 004c 00000000 		.word	cyBle_connHandle
 1307              		.cfi_endproc
 1308              	.LFE65:
 1309              		.size	update_lmt70, .-update_lmt70
 1310              		.global	int_intercepts
 1311              		.global	int_slopes
 1312              		.data
 1313              		.align	2
 1314              		.set	.LANCHOR0,. + 0
 1315              		.type	int_slopes, %object
 1316              		.size	int_slopes, 84
 1317              	int_slopes:
 1318 0000 C0EBFCFF 		.word	-201792
 1319 0004 5EF0FCFF 		.word	-200610
 1320 0008 C9F5FCFF 		.word	-199223
 1321 000c B3FAFCFF 		.word	-197965
 1322 0010 44FFFCFF 		.word	-196796
 1323 0014 5003FDFF 		.word	-195760
 1324 0018 2407FDFF 		.word	-194780
 1325 001c EE0AFDFF 		.word	-193810
 1326 0020 3B0EFDFF 		.word	-192965
 1327 0024 8111FDFF 		.word	-192127
ARM GAS  C:\Users\Intern\AppData\Local\Temp\ccvnpchc.s 			page 28


 1328 0028 0D15FDFF 		.word	-191219
 1329 002c 4418FDFF 		.word	-190396
 1330 0030 821BFDFF 		.word	-189566
 1331 0034 551EFDFF 		.word	-188843
 1332 0038 3F21FDFF 		.word	-188097
 1333 003c 1F24FDFF 		.word	-187361
 1334 0040 C226FDFF 		.word	-186686
 1335 0044 CF29FDFF 		.word	-185905
 1336 0048 E72CFDFF 		.word	-185113
 1337 004c 3E34FDFF 		.word	-183234
 1338 0050 A23EFDFF 		.word	-180574
 1339              		.type	int_intercepts, %object
 1340              		.size	int_intercepts, 84
 1341              	int_intercepts:
 1342 0054 2034430D 		.word	222508064
 1343 0058 A0D82A0D 		.word	220911776
 1344 005c F0520F0D 		.word	219108080
 1345 0060 E051F70C 		.word	217534944
 1346 0064 E0EBE10C 		.word	216132576
 1347 0068 40C0CF0C 		.word	214941760
 1348 006c 4055BF0C 		.word	213865792
 1349 0070 B0D6AF0C 		.word	212850352
 1350 0074 8001A30C 		.word	212009344
 1351 0078 60F2960C 		.word	211219040
 1352 007c 709B8A0C 		.word	210410352
 1353 0080 4013800C 		.word	209720128
 1354 0084 501D760C 		.word	209067344
 1355 0088 10056E0C 		.word	208536848
 1356 008c C045660C 		.word	208029120
 1357 0090 60385F0C 		.word	207566944
 1358 0094 604E590C 		.word	207179360
 1359 0098 901A530C 		.word	206772880
 1360 009c 70774D0C 		.word	206403440
 1361 00a0 D0A1410C 		.word	205627856
 1362 00a4 0018330C 		.word	204675072
 1363              		.section	.rodata.str1.4,"aMS",%progbits,1
 1364              		.align	2
 1365              	.LC3:
 1366 0000 252E3466 		.ascii	"%.4f\000"
 1366      00
 1367              		.text
 1368              	.Letext0:
 1369              		.file 2 "Generated_Source\\PSoC4/cytypes.h"
 1370              		.file 3 "Generated_Source\\PSoC4/BLE_StackGatt.h"
 1371              		.file 4 "Generated_Source\\PSoC4/BLE_StackGattServer.h"
 1372              		.file 5 "Generated_Source\\PSoC4/BLE_Stack.h"
 1373              		.file 6 "Generated_Source\\PSoC4/BLE_eventHandler.h"
 1374              		.file 7 "system.h"
 1375              		.file 8 "c:\\program files (x86)\\cypress\\psoc creator\\4.1\\psoc creator\\import\\gnu\\arm\\5.4.
 1376              		.file 9 "c:\\program files (x86)\\cypress\\psoc creator\\4.1\\psoc creator\\import\\gnu\\arm\\5.4.
 1377              		.file 10 "Generated_Source\\PSoC4/UART_SPI_UART.h"
 1378              		.file 11 "Generated_Source\\PSoC4/BLE_StackGattDb.h"