ARM GAS  C:\Users\Intern\AppData\Local\Temp\ccNXsKKk.s 			page 1


   1              		.syntax unified
   2              		.cpu cortex-m0
   3              		.fpu softvfp
   4              		.eabi_attribute 20, 1
   5              		.eabi_attribute 21, 1
   6              		.eabi_attribute 23, 3
   7              		.eabi_attribute 24, 1
   8              		.eabi_attribute 25, 1
   9              		.eabi_attribute 26, 1
  10              		.eabi_attribute 30, 1
  11              		.eabi_attribute 34, 0
  12              		.eabi_attribute 18, 4
  13              		.thumb
  14              		.syntax unified
  15              		.file	"sg.c"
  16              		.text
  17              	.Ltext0:
  18              		.cfi_sections	.debug_frame
  19              		.global	__aeabi_ui2f
  20              		.global	__aeabi_fmul
  21              		.section	.text.sg_measure,"ax",%progbits
  22              		.align	2
  23              		.global	sg_measure
  24              		.code	16
  25              		.thumb_func
  26              		.type	sg_measure, %function
  27              	sg_measure:
  28              	.LFB62:
  29              		.file 1 "sg.c"
   1:sg.c          **** #include "sg.h"
   2:sg.c          **** 
   3:sg.c          **** float sg_measure()
   4:sg.c          **** {
  30              		.loc 1 4 0
  31              		.cfi_startproc
  32              		@ args = 0, pretend = 0, frame = 0
  33              		@ frame_needed = 0, uses_anonymous_args = 0
  34 0000 10B5     		push	{r4, lr}
  35              		.cfi_def_cfa_offset 8
  36              		.cfi_offset 4, -8
  37              		.cfi_offset 14, -4
  38              	.LVL0:
   5:sg.c          ****     uint32 sg_channel = 0;
   6:sg.c          **** 
   7:sg.c          ****     float adc_counts_float = (float) adc_acquire_channel(sg_channel);
  39              		.loc 1 7 0
  40 0002 0020     		movs	r0, #0
  41 0004 FFF7FEFF 		bl	adc_acquire_channel
  42              	.LVL1:
  43 0008 FFF7FEFF 		bl	__aeabi_ui2f
  44              	.LVL2:
   8:sg.c          ****     float milli_volts = (adc_counts_float*vdd_calibration)/2048; 
  45              		.loc 1 8 0
  46 000c 044B     		ldr	r3, .L2
  47 000e 1968     		ldr	r1, [r3]
  48 0010 FFF7FEFF 		bl	__aeabi_fmul
  49              	.LVL3:
ARM GAS  C:\Users\Intern\AppData\Local\Temp\ccNXsKKk.s 			page 2


  50 0014 E821     		movs	r1, #232
  51 0016 8905     		lsls	r1, r1, #22
  52 0018 FFF7FEFF 		bl	__aeabi_fmul
  53              	.LVL4:
   9:sg.c          ****     return milli_volts;
  10:sg.c          **** }
  54              		.loc 1 10 0
  55              		@ sp needed
  56 001c 10BD     		pop	{r4, pc}
  57              	.L3:
  58 001e C046     		.align	2
  59              	.L2:
  60 0020 00000000 		.word	vdd_calibration
  61              		.cfi_endproc
  62              	.LFE62:
  63              		.size	sg_measure, .-sg_measure
  64              		.global	__aeabi_fsub
  65              		.global	__aeabi_fdiv
  66              		.section	.text.sg_get_strain,"ax",%progbits
  67              		.align	2
  68              		.global	sg_get_strain
  69              		.code	16
  70              		.thumb_func
  71              		.type	sg_get_strain, %function
  72              	sg_get_strain:
  73              	.LFB63:
  11:sg.c          **** 
  12:sg.c          **** float sg_get_strain()
  13:sg.c          **** {
  74              		.loc 1 13 0
  75              		.cfi_startproc
  76              		@ args = 0, pretend = 0, frame = 0
  77              		@ frame_needed = 0, uses_anonymous_args = 0
  78 0000 70B5     		push	{r4, r5, r6, lr}
  79              		.cfi_def_cfa_offset 16
  80              		.cfi_offset 4, -16
  81              		.cfi_offset 5, -12
  82              		.cfi_offset 6, -8
  83              		.cfi_offset 14, -4
  14:sg.c          ****     float sg_mv = sg_measure(); //Measure Raw ADC value from Strain Guage Port
  84              		.loc 1 14 0
  85 0002 FFF7FEFF 		bl	sg_measure
  86              	.LVL5:
  15:sg.c          ****     float v_out = sg_mv - amp_iov[1] - amp_ibc[1]*sg_resistors[1]; //Get PhotoDiode Voltage, subtra
  87              		.loc 1 15 0
  88 0006 0B4B     		ldr	r3, .L5
  89 0008 5968     		ldr	r1, [r3, #4]
  90 000a FFF7FEFF 		bl	__aeabi_fsub
  91              	.LVL6:
  92 000e 051C     		adds	r5, r0, #0
  93 0010 094B     		ldr	r3, .L5+4
  94 0012 5868     		ldr	r0, [r3, #4]
  95 0014 094C     		ldr	r4, .L5+8
  96 0016 6168     		ldr	r1, [r4, #4]
  97 0018 FFF7FEFF 		bl	__aeabi_fmul
  98              	.LVL7:
  99 001c 011C     		adds	r1, r0, #0
ARM GAS  C:\Users\Intern\AppData\Local\Temp\ccNXsKKk.s 			page 3


 100 001e 281C     		adds	r0, r5, #0
 101 0020 FFF7FEFF 		bl	__aeabi_fsub
 102              	.LVL8:
  16:sg.c          ****     float gain = (1 + 2 * sg_resistors[6] / sg_resistors[8]); //Calculating Gain from Strain Guage 
  17:sg.c          ****     float sg_current = v_out/sg_resistors[2]; //Getting PhotoDiode Current from PhotoDiode Voltage
 103              		.loc 1 17 0
 104 0024 A168     		ldr	r1, [r4, #8]
 105 0026 FFF7FEFF 		bl	__aeabi_fdiv
 106              	.LVL9:
  18:sg.c          ****     float sg_strain = sg_current/sg_resistors[3]; //Getting Power Density from PhotoDiode
 107              		.loc 1 18 0
 108 002a E168     		ldr	r1, [r4, #12]
 109 002c FFF7FEFF 		bl	__aeabi_fdiv
 110              	.LVL10:
  19:sg.c          ****     return sg_strain; //Returning Strain Guage Percent Change(%)
  20:sg.c          **** }
 111              		.loc 1 20 0
 112              		@ sp needed
 113 0030 70BD     		pop	{r4, r5, r6, pc}
 114              	.L6:
 115 0032 C046     		.align	2
 116              	.L5:
 117 0034 00000000 		.word	amp_iov
 118 0038 00000000 		.word	amp_ibc
 119 003c 00000000 		.word	sg_resistors
 120              		.cfi_endproc
 121              	.LFE63:
 122              		.size	sg_get_strain, .-sg_get_strain
 123              		.global	__aeabi_f2d
 124              		.section	.text.sg_get_strain_string,"ax",%progbits
 125              		.align	2
 126              		.global	sg_get_strain_string
 127              		.code	16
 128              		.thumb_func
 129              		.type	sg_get_strain_string, %function
 130              	sg_get_strain_string:
 131              	.LFB64:
  21:sg.c          **** 
  22:sg.c          **** void sg_get_strain_string(char *sg_strain_string)
  23:sg.c          **** {
 132              		.loc 1 23 0
 133              		.cfi_startproc
 134              		@ args = 0, pretend = 0, frame = 0
 135              		@ frame_needed = 0, uses_anonymous_args = 0
 136              	.LVL11:
 137 0000 10B5     		push	{r4, lr}
 138              		.cfi_def_cfa_offset 8
 139              		.cfi_offset 4, -8
 140              		.cfi_offset 14, -4
 141 0002 0400     		movs	r4, r0
  24:sg.c          ****     float sg_strain = sg_get_strain(); //Returns the Strain Guage Percent Change
 142              		.loc 1 24 0
 143 0004 FFF7FEFF 		bl	sg_get_strain
 144              	.LVL12:
  25:sg.c          ****     sprintf(sg_strain_string, "%.4f", sg_strain); //Places the Float Value of Strain Guage in Strin
 145              		.loc 1 25 0
 146 0008 FFF7FEFF 		bl	__aeabi_f2d
ARM GAS  C:\Users\Intern\AppData\Local\Temp\ccNXsKKk.s 			page 4


 147              	.LVL13:
 148 000c 0200     		movs	r2, r0
 149 000e 0B00     		movs	r3, r1
 150 0010 0249     		ldr	r1, .L8
 151 0012 2000     		movs	r0, r4
 152 0014 FFF7FEFF 		bl	sprintf
 153              	.LVL14:
  26:sg.c          **** }
 154              		.loc 1 26 0
 155              		@ sp needed
 156              	.LVL15:
 157 0018 10BD     		pop	{r4, pc}
 158              	.L9:
 159 001a C046     		.align	2
 160              	.L8:
 161 001c 00000000 		.word	.LC4
 162              		.cfi_endproc
 163              	.LFE64:
 164              		.size	sg_get_strain_string, .-sg_get_strain_string
 165              		.section	.text.sg_uart,"ax",%progbits
 166              		.align	2
 167              		.global	sg_uart
 168              		.code	16
 169              		.thumb_func
 170              		.type	sg_uart, %function
 171              	sg_uart:
 172              	.LFB65:
  27:sg.c          **** 
  28:sg.c          **** void sg_uart()
  29:sg.c          **** {
 173              		.loc 1 29 0
 174              		.cfi_startproc
 175              		@ args = 0, pretend = 0, frame = 16
 176              		@ frame_needed = 0, uses_anonymous_args = 0
 177 0000 10B5     		push	{r4, lr}
 178              		.cfi_def_cfa_offset 8
 179              		.cfi_offset 4, -8
 180              		.cfi_offset 14, -4
 181 0002 84B0     		sub	sp, sp, #16
 182              		.cfi_def_cfa_offset 24
  30:sg.c          ****     char sg_strain_string[5]; //Initializes the Character Array
  31:sg.c          ****     sg_get_strain_string(sg_strain_string); //Places the strain guage percent change in Character V
 183              		.loc 1 31 0
 184 0004 02A8     		add	r0, sp, #8
 185 0006 FFF7FEFF 		bl	sg_get_strain_string
 186              	.LVL16:
  32:sg.c          **** 
  33:sg.c          ****     char sg_uart_string[7]; //Stores UV Photodiode Power Density in Message
  34:sg.c          ****     sg_uart_string[0] = 's'; //Places an s as the first element in the arrray
 187              		.loc 1 34 0
 188 000a 7323     		movs	r3, #115
 189 000c 6A46     		mov	r2, sp
 190 000e 1370     		strb	r3, [r2]
  35:sg.c          ****     sg_uart_string[6] = '\n'; //Places a new line character in the last spot in the array
 191              		.loc 1 35 0
 192 0010 693B     		subs	r3, r3, #105
 193 0012 9371     		strb	r3, [r2, #6]
ARM GAS  C:\Users\Intern\AppData\Local\Temp\ccNXsKKk.s 			page 5


 194              	.LVL17:
 195              	.LBB2:
  36:sg.c          ****     
  37:sg.c          ****     //Placing Value in Packet between new message carrier and last message carrier
  38:sg.c          ****     for(unsigned int j = 1; j<strlen(sg_strain_string); j++)
 196              		.loc 1 38 0
 197 0014 0124     		movs	r4, #1
 198 0016 05E0     		b	.L11
 199              	.LVL18:
 200              	.L12:
  39:sg.c          ****     {
  40:sg.c          ****         sg_uart_string[j] = sg_strain_string[j-1];    
 201              		.loc 1 40 0 discriminator 3
 202 0018 631E     		subs	r3, r4, #1
 203 001a 02AA     		add	r2, sp, #8
 204 001c D35C     		ldrb	r3, [r2, r3]
 205 001e 6A46     		mov	r2, sp
 206 0020 1355     		strb	r3, [r2, r4]
  38:sg.c          ****     {
 207              		.loc 1 38 0 discriminator 3
 208 0022 0134     		adds	r4, r4, #1
 209              	.LVL19:
 210              	.L11:
  38:sg.c          ****     {
 211              		.loc 1 38 0 is_stmt 0 discriminator 1
 212 0024 02A8     		add	r0, sp, #8
 213 0026 FFF7FEFF 		bl	strlen
 214              	.LVL20:
 215 002a 8442     		cmp	r4, r0
 216 002c F4D3     		bcc	.L12
 217 002e 0024     		movs	r4, #0
 218              	.LVL21:
 219 0030 04E0     		b	.L13
 220              	.LVL22:
 221              	.L14:
 222              	.LBE2:
 223              	.LBB3:
  41:sg.c          ****     }
  42:sg.c          ****     
  43:sg.c          ****     //Sends the Value over UART
  44:sg.c          ****     for(unsigned int i = 0; i<strlen(sg_strain_string); i++)
  45:sg.c          ****     {
  46:sg.c          ****         UART_UartPutChar(sg_uart_string[i]);           
 224              		.loc 1 46 0 is_stmt 1 discriminator 3
 225 0032 6B46     		mov	r3, sp
 226 0034 185D     		ldrb	r0, [r3, r4]
 227 0036 FFF7FEFF 		bl	UART_SpiUartWriteTxData
 228              	.LVL23:
  44:sg.c          ****     {
 229              		.loc 1 44 0 discriminator 3
 230 003a 0134     		adds	r4, r4, #1
 231              	.LVL24:
 232              	.L13:
  44:sg.c          ****     {
 233              		.loc 1 44 0 is_stmt 0 discriminator 1
 234 003c 02A8     		add	r0, sp, #8
 235 003e FFF7FEFF 		bl	strlen
ARM GAS  C:\Users\Intern\AppData\Local\Temp\ccNXsKKk.s 			page 6


 236              	.LVL25:
 237 0042 8442     		cmp	r4, r0
 238 0044 F5D3     		bcc	.L14
 239              	.LBE3:
  47:sg.c          ****     } 
  48:sg.c          **** }
 240              		.loc 1 48 0 is_stmt 1
 241 0046 04B0     		add	sp, sp, #16
 242              		@ sp needed
 243              	.LVL26:
 244 0048 10BD     		pop	{r4, pc}
 245              		.cfi_endproc
 246              	.LFE65:
 247              		.size	sg_uart, .-sg_uart
 248              		.global	__aeabi_f2uiz
 249 004a C046     		.section	.text.update_sg,"ax",%progbits
 250              		.align	2
 251              		.global	update_sg
 252              		.code	16
 253              		.thumb_func
 254              		.type	update_sg, %function
 255              	update_sg:
 256              	.LFB66:
  49:sg.c          **** 
  50:sg.c          **** //Reads the state of the LED and writes that value into the GATT Database
  51:sg.c          **** void update_sg()
  52:sg.c          **** {
 257              		.loc 1 52 0
 258              		.cfi_startproc
 259              		@ args = 0, pretend = 0, frame = 16
 260              		@ frame_needed = 0, uses_anonymous_args = 0
 261 0000 30B5     		push	{r4, r5, lr}
 262              		.cfi_def_cfa_offset 12
 263              		.cfi_offset 4, -12
 264              		.cfi_offset 5, -8
 265              		.cfi_offset 14, -4
 266 0002 85B0     		sub	sp, sp, #20
 267              		.cfi_def_cfa_offset 32
  53:sg.c          ****     CYBLE_GATTS_HANDLE_VALUE_NTF_T tempHandle; //Temporary BLE Handle
  54:sg.c          ****     
  55:sg.c          ****     //If not connected, no need to update GATT Database/Server
  56:sg.c          ****     if(CyBle_GetState() != CYBLE_STATE_CONNECTED)
 268              		.loc 1 56 0
 269 0004 104B     		ldr	r3, .L18
 270 0006 1B78     		ldrb	r3, [r3]
 271 0008 022B     		cmp	r3, #2
 272 000a 1AD1     		bne	.L15
  57:sg.c          ****     {
  58:sg.c          ****         return; //Leaves the function updateCapsense()
  59:sg.c          ****     }
  60:sg.c          ****     uint16 strain_guage = (uint16) sg_get_strain();
 273              		.loc 1 60 0
 274 000c FFF7FEFF 		bl	sg_get_strain
 275              	.LVL27:
 276 0010 FFF7FEFF 		bl	__aeabi_f2uiz
 277              	.LVL28:
 278 0014 6B46     		mov	r3, sp
ARM GAS  C:\Users\Intern\AppData\Local\Temp\ccNXsKKk.s 			page 7


 279 0016 5880     		strh	r0, [r3, #2]
 280 0018 0233     		adds	r3, r3, #2
  61:sg.c          ****     tempHandle.attrHandle = CYBLE_BATTERY_BATTERY_LEVEL_CHAR_HANDLE;
 281              		.loc 1 61 0
 282 001a 01AC     		add	r4, sp, #4
 283 001c 1922     		movs	r2, #25
 284 001e 2281     		strh	r2, [r4, #8]
  62:sg.c          ****     //Cast it into a 8 bit integer pointer
  63:sg.c          ****     tempHandle.value.val = (uint8 *)&strain_guage; //Storing the Strain Guage Value
 285              		.loc 1 63 0
 286 0020 0193     		str	r3, [sp, #4]
  64:sg.c          ****     tempHandle.value.len = 2; //Uint16 value is stored as 2 8 bit integer
 287              		.loc 1 64 0
 288 0022 0223     		movs	r3, #2
 289 0024 A380     		strh	r3, [r4, #4]
  65:sg.c          ****     CyBle_GattsWriteAttributeValue(&tempHandle, 0, &cyBle_connHandle, 0); //Writing new value to Ga
 290              		.loc 1 65 0
 291 0026 094D     		ldr	r5, .L18+4
 292 0028 0023     		movs	r3, #0
 293 002a 2A00     		movs	r2, r5
 294 002c 0021     		movs	r1, #0
 295 002e 2000     		movs	r0, r4
 296 0030 FFF7FEFF 		bl	CyBle_GattsWriteAttributeValue
 297              	.LVL29:
  66:sg.c          ****     CyBle_GattsNotification(cyBle_connHandle, &tempHandle); //Sends out Notification to Gatt Centra
 298              		.loc 1 66 0
 299 0034 2B78     		ldrb	r3, [r5]
 300 0036 6878     		ldrb	r0, [r5, #1]
 301 0038 0002     		lsls	r0, r0, #8
 302 003a 1843     		orrs	r0, r3
 303 003c 2100     		movs	r1, r4
 304 003e FFF7FEFF 		bl	CyBle_GattsNotification
 305              	.LVL30:
 306              	.L15:
  67:sg.c          **** }...
 307              		.loc 1 67 0
 308 0042 05B0     		add	sp, sp, #20
 309              		@ sp needed
 310 0044 30BD     		pop	{r4, r5, pc}
 311              	.L19:
 312 0046 C046     		.align	2
 313              	.L18:
 314 0048 00000000 		.word	cyBle_state
 315 004c 00000000 		.word	cyBle_connHandle
 316              		.cfi_endproc
 317              	.LFE66:
 318              		.size	update_sg, .-update_sg
 319              		.section	.rodata.str1.4,"aMS",%progbits,1
 320              		.align	2
 321              	.LC4:
 322 0000 252E3466 		.ascii	"%.4f\000"
 322      00
 323              		.text
 324              	.Letext0:
 325              		.file 2 "Generated_Source\\PSoC4/cytypes.h"
 326              		.file 3 "Generated_Source\\PSoC4/BLE_StackGatt.h"
 327              		.file 4 "Generated_Source\\PSoC4/BLE_StackGattServer.h"
ARM GAS  C:\Users\Intern\AppData\Local\Temp\ccNXsKKk.s 			page 8


 328              		.file 5 "Generated_Source\\PSoC4/BLE_eventHandler.h"
 329              		.file 6 "system.h"
 330              		.file 7 "c:\\program files (x86)\\cypress\\psoc creator\\4.1\\psoc creator\\import\\gnu\\arm\\5.4.
 331              		.file 8 "c:\\program files (x86)\\cypress\\psoc creator\\4.1\\psoc creator\\import\\gnu\\arm\\5.4.
 332              		.file 9 "Generated_Source\\PSoC4/UART_SPI_UART.h"
 333              		.file 10 "Generated_Source\\PSoC4/BLE_StackGattDb.h"