ARM GAS  C:\Users\Intern\AppData\Local\Temp\ccDaeJ58.s 			page 1


   1              		.syntax unified
   2              		.cpu cortex-m0
   3              		.fpu softvfp
   4              		.eabi_attribute 20, 1
   5              		.eabi_attribute 21, 1
   6              		.eabi_attribute 23, 3
   7              		.eabi_attribute 24, 1
   8              		.eabi_attribute 25, 1
   9              		.eabi_attribute 26, 1
  10              		.eabi_attribute 30, 1
  11              		.eabi_attribute 34, 0
  12              		.eabi_attribute 18, 4
  13              		.thumb
  14              		.syntax unified
  15              		.file	"system.c"
  16              		.text
  17              	.Ltext0:
  18              		.cfi_sections	.debug_frame
  19              		.section	.text.system_init_hardware,"ax",%progbits
  20              		.align	2
  21              		.global	system_init_hardware
  22              		.code	16
  23              		.thumb_func
  24              		.type	system_init_hardware, %function
  25              	system_init_hardware:
  26              	.LFB63:
  27              		.file 1 "system.c"
   1:system.c      **** #include "system.h"
   2:system.c      **** #include "guvb_c31sm.h"
   3:system.c      **** 
   4:system.c      **** //const float vdd_calibration = 3255.01064;  
   5:system.c      **** const float vdd_calibration = 3300.00;   
   6:system.c      **** const float uv_gain = 5; //Gain Resistor Values for Each Photodiode Set in Mega Ohms
   7:system.c      **** const float uv_respons = 113; //Responsitivity of Photodiode in nA / mW/cm^2
   8:system.c      **** const float amp_iov[] = {1, 1}; //Input Offset Voltage of Amplifiers
   9:system.c      **** const float amp_ibc[] = {1, 1}; //Input Bias Current of Amplifiers
  10:system.c      **** const float sg_resistors[] = {1.024, 0.023, 1.02, 1.001, 1.02, 1.02, 1.02, 3300, 3300}; //Resistors
  11:system.c      **** 
  12:system.c      **** uint8 uv_Power_Notify = 0;
  13:system.c      **** uint8 uv_Index_Notify = 0;
  14:system.c      **** uint8 temperature_Notify = 0;
  15:system.c      **** uint8 respiration_Notify = 0;
  16:system.c      **** uint8 battery_Notify = 0;
  17:system.c      **** 
  18:system.c      **** 
  19:system.c      **** // Set the frequency of the watchdog timer
  20:system.c      **** // f = 32768/x => E.G. (32768/(64*4096) = 0.125 = 1/8 Hz
  21:system.c      **** const uint32 wdt0_frequency = 8; // Refresh frequency for WDT Timer 0: Multiples of 1/8th second 40
  22:system.c      **** const uint32 wdt1_frequency = 16; // Refresh frequency for WDT Timer 1: Multiples of 1/8th second 4
  23:system.c      **** const uint32 timer2_toggle = 18;  // bit #18 is the bit for the timer to check. bit #18 = 8 Sec, 1 
  24:system.c      **** 
  25:system.c      **** void system_init_hardware(void)
  26:system.c      **** {
  28              		.loc 1 26 0
  29              		.cfi_startproc
  30              		@ args = 0, pretend = 0, frame = 0
  31              		@ frame_needed = 0, uses_anonymous_args = 0
ARM GAS  C:\Users\Intern\AppData\Local\Temp\ccDaeJ58.s 			page 2


  32 0000 10B5     		push	{r4, lr}
  33              		.cfi_def_cfa_offset 8
  34              		.cfi_offset 4, -8
  35              		.cfi_offset 14, -4
  27:system.c      **** //    UART_Start(); //Starting UART internal communication
  28:system.c      ****     I2C_Start(); //Starting the I2C communication for TMP116 
  36              		.loc 1 28 0
  37 0002 FFF7FEFF 		bl	I2C_Start
  38              	.LVL0:
  29:system.c      ****     //SG_AMP_Start(); //Starting internal Op-amp titled SG_AMP
  30:system.c      **** //    UV5_AMP_Start(); //Starting internal Op-amp titled UV5_AMP
  31:system.c      ****     ADC_Start(); //Starting ADC
  39              		.loc 1 31 0
  40 0006 FFF7FEFF 		bl	ADC_Start
  41              	.LVL1:
  32:system.c      ****     CyDelay(10);
  42              		.loc 1 32 0
  43 000a 0A20     		movs	r0, #10
  44 000c FFF7FEFF 		bl	CyDelay
  45              	.LVL2:
  33:system.c      ****     guvb_c31sm_setup();
  46              		.loc 1 33 0
  47 0010 FFF7FEFF 		bl	guvb_c31sm_setup
  48              	.LVL3:
  34:system.c      **** }
  49              		.loc 1 34 0
  50              		@ sp needed
  51 0014 10BD     		pop	{r4, pc}
  52              		.cfi_endproc
  53              	.LFE63:
  54              		.size	system_init_hardware, .-system_init_hardware
  55 0016 C046     		.section	.text.system_red_led_blink,"ax",%progbits
  56              		.align	2
  57              		.global	system_red_led_blink
  58              		.code	16
  59              		.thumb_func
  60              		.type	system_red_led_blink, %function
  61              	system_red_led_blink:
  62              	.LFB64:
  35:system.c      **** 
  36:system.c      **** void system_red_led_blink()
  37:system.c      **** {
  63              		.loc 1 37 0
  64              		.cfi_startproc
  65              		@ args = 0, pretend = 0, frame = 0
  66              		@ frame_needed = 0, uses_anonymous_args = 0
  67 0000 10B5     		push	{r4, lr}
  68              		.cfi_def_cfa_offset 8
  69              		.cfi_offset 4, -8
  70              		.cfi_offset 14, -4
  38:system.c      ****     LED_RED_Write(~LED_RED_Read()); //Turn RED LED the opposite State
  71              		.loc 1 38 0
  72 0002 FFF7FEFF 		bl	LED_RED_Read
  73              	.LVL4:
  74 0006 C043     		mvns	r0, r0
  75 0008 C0B2     		uxtb	r0, r0
  76 000a FFF7FEFF 		bl	LED_RED_Write
ARM GAS  C:\Users\Intern\AppData\Local\Temp\ccDaeJ58.s 			page 3


  77              	.LVL5:
  39:system.c      ****     CyDelay(500);
  78              		.loc 1 39 0
  79 000e FA20     		movs	r0, #250
  80 0010 4000     		lsls	r0, r0, #1
  81 0012 FFF7FEFF 		bl	CyDelay
  82              	.LVL6:
  40:system.c      ****     LED_RED_Write(~LED_RED_Read()); //Turn RED LED the opposite State
  83              		.loc 1 40 0
  84 0016 FFF7FEFF 		bl	LED_RED_Read
  85              	.LVL7:
  86 001a C043     		mvns	r0, r0
  87 001c C0B2     		uxtb	r0, r0
  88 001e FFF7FEFF 		bl	LED_RED_Write
  89              	.LVL8:
  41:system.c      **** }
  90              		.loc 1 41 0
  91              		@ sp needed
  92 0022 10BD     		pop	{r4, pc}
  93              		.cfi_endproc
  94              	.LFE64:
  95              		.size	system_red_led_blink, .-system_red_led_blink
  96              		.section	.text.system_enable_interrupts,"ax",%progbits
  97              		.align	2
  98              		.global	system_enable_interrupts
  99              		.code	16
 100              		.thumb_func
 101              		.type	system_enable_interrupts, %function
 102              	system_enable_interrupts:
 103              	.LFB65:
  42:system.c      **** 
  43:system.c      **** void system_enable_interrupts(void)
  44:system.c      **** {
 104              		.loc 1 44 0
 105              		.cfi_startproc
 106              		@ args = 0, pretend = 0, frame = 0
 107              		@ frame_needed = 0, uses_anonymous_args = 0
 108              		@ link register save eliminated.
  45:system.c      ****     CyGlobalIntEnable;
 109              		.loc 1 45 0
 110              		.syntax divided
 111              	@ 45 "system.c" 1
 112 0000 62B6     		CPSIE   i
 113              	@ 0 "" 2
  46:system.c      **** }
 114              		.loc 1 46 0
 115              		.thumb
 116              		.syntax unified
 117              		@ sp needed
 118 0002 7047     		bx	lr
 119              		.cfi_endproc
 120              	.LFE65:
 121              		.size	system_enable_interrupts, .-system_enable_interrupts
 122              		.section	.text.system_disable_interrupts,"ax",%progbits
 123              		.align	2
 124              		.global	system_disable_interrupts
 125              		.code	16
ARM GAS  C:\Users\Intern\AppData\Local\Temp\ccDaeJ58.s 			page 4


 126              		.thumb_func
 127              		.type	system_disable_interrupts, %function
 128              	system_disable_interrupts:
 129              	.LFB66:
  47:system.c      **** 
  48:system.c      **** void system_disable_interrupts(void)
  49:system.c      **** {
 130              		.loc 1 49 0
 131              		.cfi_startproc
 132              		@ args = 0, pretend = 0, frame = 0
 133              		@ frame_needed = 0, uses_anonymous_args = 0
 134              		@ link register save eliminated.
  50:system.c      ****     CyGlobalIntDisable;
 135              		.loc 1 50 0
 136              		.syntax divided
 137              	@ 50 "system.c" 1
 138 0000 72B6     		CPSID   i
 139              	@ 0 "" 2
  51:system.c      **** }
 140              		.loc 1 51 0
 141              		.thumb
 142              		.syntax unified
 143              		@ sp needed
 144 0002 7047     		bx	lr
 145              		.cfi_endproc
 146              	.LFE66:
 147              		.size	system_disable_interrupts, .-system_disable_interrupts
 148              		.section	.text.system_deepsleep,"ax",%progbits
 149              		.align	2
 150              		.global	system_deepsleep
 151              		.code	16
 152              		.thumb_func
 153              		.type	system_deepsleep, %function
 154              	system_deepsleep:
 155              	.LFB69:
  52:system.c      **** 
  53:system.c      **** void system_sleep(void)
  54:system.c      **** {
  55:system.c      ****     adc_sleep();    // Telling ADC to go into deep sleep mode
  56:system.c      ****     i2c_sleep();    // Telling I2C to go into deep sleep mode
  57:system.c      ****     uart_sleep();   // Telling UART to go into deep sleep mode
  58:system.c      ****     opamp_sleep();  // Telling All Op-Amps to go into deep sleep mode
  59:system.c      ****     CySysPmSleep(); // Telling System to go into sleep mode
  60:system.c      ****     guvb_c31sm_shutdown();  // Shuting down GUVB_C31SM to save power
  61:system.c      **** }
  62:system.c      **** 
  63:system.c      **** void system_wakeup(void)
  64:system.c      **** {
  65:system.c      ****     adc_wakeup();   // Waking up ADC component from deep sleep mode
  66:system.c      ****     i2c_wakeup();   // Waking up I2C component from deep sleep mode
  67:system.c      ****     uart_wakeup();  // Waking up UART component from deep sleep mode
  68:system.c      ****     opamp_wakeup(); // Waking up All Op-Amps from deep sleep mode
  69:system.c      ****     guvb_c31sm_wakeup();    // Wake up GUVB_C31SM Module from Shutdown
  70:system.c      **** }
  71:system.c      **** 
  72:system.c      **** void system_deepsleep(void)
  73:system.c      **** {
ARM GAS  C:\Users\Intern\AppData\Local\Temp\ccDaeJ58.s 			page 5


 156              		.loc 1 73 0
 157              		.cfi_startproc
 158              		@ args = 0, pretend = 0, frame = 0
 159              		@ frame_needed = 0, uses_anonymous_args = 0
 160 0000 10B5     		push	{r4, lr}
 161              		.cfi_def_cfa_offset 8
 162              		.cfi_offset 4, -8
 163              		.cfi_offset 14, -4
  74:system.c      ****     CySysPmDeepSleep(); // Telling System to go into deep sleep
 164              		.loc 1 74 0
 165 0002 FFF7FEFF 		bl	CySysPmDeepSleep
 166              	.LVL9:
  75:system.c      **** }
 167              		.loc 1 75 0
 168              		@ sp needed
 169 0006 10BD     		pop	{r4, pc}
 170              		.cfi_endproc
 171              	.LFE69:
 172              		.size	system_deepsleep, .-system_deepsleep
 173              		.section	.text.adc_conversion,"ax",%progbits
 174              		.align	2
 175              		.global	adc_conversion
 176              		.code	16
 177              		.thumb_func
 178              		.type	adc_conversion, %function
 179              	adc_conversion:
 180              	.LFB70:
  76:system.c      **** 
  77:system.c      **** void adc_conversion(void)
  78:system.c      **** {
 181              		.loc 1 78 0
 182              		.cfi_startproc
 183              		@ args = 0, pretend = 0, frame = 0
 184              		@ frame_needed = 0, uses_anonymous_args = 0
 185 0000 10B5     		push	{r4, lr}
 186              		.cfi_def_cfa_offset 8
 187              		.cfi_offset 4, -8
 188              		.cfi_offset 14, -4
  79:system.c      ****     ADC_StartConvert();
 189              		.loc 1 79 0
 190 0002 FFF7FEFF 		bl	ADC_StartConvert
 191              	.LVL10:
  80:system.c      ****     ADC_IsEndConversion(ADC_WAIT_FOR_RESULT);
 192              		.loc 1 80 0
 193 0006 0220     		movs	r0, #2
 194 0008 FFF7FEFF 		bl	ADC_IsEndConversion
 195              	.LVL11:
  81:system.c      ****     ADC_StopConvert();   
 196              		.loc 1 81 0
 197 000c FFF7FEFF 		bl	ADC_StopConvert
 198              	.LVL12:
  82:system.c      **** }
 199              		.loc 1 82 0
 200              		@ sp needed
 201 0010 10BD     		pop	{r4, pc}
 202              		.cfi_endproc
 203              	.LFE70:
ARM GAS  C:\Users\Intern\AppData\Local\Temp\ccDaeJ58.s 			page 6


 204              		.size	adc_conversion, .-adc_conversion
 205 0012 C046     		.section	.text.system_read_i2c,"ax",%progbits
 206              		.align	2
 207              		.global	system_read_i2c
 208              		.code	16
 209              		.thumb_func
 210              		.type	system_read_i2c, %function
 211              	system_read_i2c:
 212              	.LFB71:
  83:system.c      **** 
  84:system.c      **** void system_read_i2c(uint32 device_address, uint8 register_address, uint8 *register_value, uint32 r
  85:system.c      **** {
 213              		.loc 1 85 0
 214              		.cfi_startproc
 215              		@ args = 0, pretend = 0, frame = 8
 216              		@ frame_needed = 0, uses_anonymous_args = 0
 217              	.LVL13:
 218 0000 70B5     		push	{r4, r5, r6, lr}
 219              		.cfi_def_cfa_offset 16
 220              		.cfi_offset 4, -16
 221              		.cfi_offset 5, -12
 222              		.cfi_offset 6, -8
 223              		.cfi_offset 14, -4
 224 0002 82B0     		sub	sp, sp, #8
 225              		.cfi_def_cfa_offset 24
 226 0004 0400     		movs	r4, r0
 227 0006 1500     		movs	r5, r2
 228 0008 1E00     		movs	r6, r3
 229 000a 6B46     		mov	r3, sp
 230              	.LVL14:
 231 000c D971     		strb	r1, [r3, #7]
 232              	.LVL15:
 233              	.L8:
  86:system.c      **** //    uint32 device_address = Right-justified 7-bit Slave address (valid range 8 to 120).
  87:system.c      ****     uint32 i2c_mode_no_stop = I2C_I2C_MODE_NO_STOP; //Transfer Mode Possibilities
  88:system.c      ****     uint32 i2c_mode_repeat_start = I2C_I2C_MODE_REPEAT_START; //Transfer Mode Possibilities
  89:system.c      ****     uint32 i2c_error;
  90:system.c      ****     
  91:system.c      ****     uint8 *address_buffer_value = &register_address;
  92:system.c      ****     uint32 address_buffer_length = 1;    
  93:system.c      ****     
  94:system.c      **** //    Write to the Slave Device the address register you want to read from
  95:system.c      ****     do
  96:system.c      ****     {
  97:system.c      ****         i2c_error =  I2C_I2CMasterWriteBuf(device_address, address_buffer_value, address_buffer_len
 234              		.loc 1 97 0 discriminator 1
 235 000e 0223     		movs	r3, #2
 236 0010 0122     		movs	r2, #1
 237 0012 6946     		mov	r1, sp
 238 0014 0731     		adds	r1, r1, #7
 239              	.LVL16:
 240 0016 2000     		movs	r0, r4
 241 0018 FFF7FEFF 		bl	I2C_I2CMasterWriteBuf
 242              	.LVL17:
  98:system.c      ****     }
  99:system.c      ****     while(i2c_error != I2C_I2C_MSTR_NO_ERROR);
 243              		.loc 1 99 0 discriminator 1
ARM GAS  C:\Users\Intern\AppData\Local\Temp\ccDaeJ58.s 			page 7


 244 001c 0028     		cmp	r0, #0
 245 001e F6D1     		bne	.L8
 246              	.LVL18:
 247              	.L9:
 100:system.c      ****     /* Wait for the data transfer to complete */ 
 101:system.c      ****     while(!(I2C_I2CMasterStatus() & I2C_I2C_MSTAT_WR_CMPLT)); //Wait until the Master has completed
 248              		.loc 1 101 0 discriminator 1
 249 0020 FFF7FEFF 		bl	I2C_I2CMasterStatus
 250              	.LVL19:
 251 0024 8307     		lsls	r3, r0, #30
 252 0026 FBD5     		bpl	.L9
 102:system.c      ****     /* Clear Read Complete Status bit */
 103:system.c      ****     I2C_I2CMasterClearStatus();
 253              		.loc 1 103 0
 254 0028 FFF7FEFF 		bl	I2C_I2CMasterClearStatus
 255              	.LVL20:
 104:system.c      ****     I2C_I2CMasterClearWriteBuf();
 256              		.loc 1 104 0
 257 002c FFF7FEFF 		bl	I2C_I2CMasterClearWriteBuf
 258              	.LVL21:
 259              	.L10:
 105:system.c      ****     
 106:system.c      **** //    Read from the address register you previously wrote to the Slave Device to read from
 107:system.c      ****     do
 108:system.c      ****     {
 109:system.c      ****         i2c_error = I2C_I2CMasterReadBuf(device_address, register_value, register_byte_count, i2c_m
 260              		.loc 1 109 0 discriminator 1
 261 0030 0123     		movs	r3, #1
 262 0032 3200     		movs	r2, r6
 263 0034 2900     		movs	r1, r5
 264 0036 2000     		movs	r0, r4
 265 0038 FFF7FEFF 		bl	I2C_I2CMasterReadBuf
 266              	.LVL22:
 110:system.c      ****     }
 111:system.c      ****     while(i2c_error != I2C_I2C_MSTR_NO_ERROR);
 267              		.loc 1 111 0 discriminator 1
 268 003c 0028     		cmp	r0, #0
 269 003e F7D1     		bne	.L10
 270              	.LVL23:
 271              	.L11:
 112:system.c      ****     /* Wait for the data transfer to complete */   
 113:system.c      ****     while(!(I2C_I2CMasterStatus() & I2C_I2C_MSTAT_RD_CMPLT)); //Wait until the Master has completed
 272              		.loc 1 113 0 discriminator 1
 273 0040 FFF7FEFF 		bl	I2C_I2CMasterStatus
 274              	.LVL24:
 275 0044 C307     		lsls	r3, r0, #31
 276 0046 FBD5     		bpl	.L11
 114:system.c      ****     /* Clear Read Complete Status bit */
 115:system.c      ****     I2C_I2CMasterClearStatus();
 277              		.loc 1 115 0
 278 0048 FFF7FEFF 		bl	I2C_I2CMasterClearStatus
 279              	.LVL25:
 116:system.c      ****     I2C_I2CMasterClearReadBuf();
 280              		.loc 1 116 0
 281 004c FFF7FEFF 		bl	I2C_I2CMasterClearReadBuf
 282              	.LVL26:
 117:system.c      **** }
ARM GAS  C:\Users\Intern\AppData\Local\Temp\ccDaeJ58.s 			page 8


 283              		.loc 1 117 0
 284 0050 02B0     		add	sp, sp, #8
 285              	.LVL27:
 286              		@ sp needed
 287              	.LVL28:
 288              	.LVL29:
 289              	.LVL30:
 290 0052 70BD     		pop	{r4, r5, r6, pc}
 291              		.cfi_endproc
 292              	.LFE71:
 293              		.size	system_read_i2c, .-system_read_i2c
 294              		.section	.text.system_write_i2c,"ax",%progbits
 295              		.align	2
 296              		.global	system_write_i2c
 297              		.code	16
 298              		.thumb_func
 299              		.type	system_write_i2c, %function
 300              	system_write_i2c:
 301              	.LFB72:
 118:system.c      **** 
 119:system.c      **** void system_write_i2c(uint32 device_address, uint8 *buffer_value, uint32 register_byte_count) 
 120:system.c      **** {
 302              		.loc 1 120 0
 303              		.cfi_startproc
 304              		@ args = 0, pretend = 0, frame = 0
 305              		@ frame_needed = 0, uses_anonymous_args = 0
 306              	.LVL31:
 307 0000 70B5     		push	{r4, r5, r6, lr}
 308              		.cfi_def_cfa_offset 16
 309              		.cfi_offset 4, -16
 310              		.cfi_offset 5, -12
 311              		.cfi_offset 6, -8
 312              		.cfi_offset 14, -4
 313 0002 0600     		movs	r6, r0
 314 0004 0D00     		movs	r5, r1
 315 0006 1400     		movs	r4, r2
 316              	.LVL32:
 317              	.L13:
 121:system.c      **** //    uint32 device_address = Right-justified 7-bit Slave address (valid range 8 to 120).
 122:system.c      **** //    Register Address and Data Values are contained inside Buffer Value Array
 123:system.c      ****     
 124:system.c      ****     uint32 i2c_mode = I2C_I2C_MODE_COMPLETE_XFER; //I2C Complete Transfer Mode
 125:system.c      ****     uint32 i2c_error;
 126:system.c      ****     do
 127:system.c      ****     {
 128:system.c      ****     i2c_error =  I2C_I2CMasterWriteBuf(device_address, buffer_value, register_byte_count, i2c_mode)
 318              		.loc 1 128 0 discriminator 1
 319 0008 0023     		movs	r3, #0
 320 000a 2200     		movs	r2, r4
 321 000c 2900     		movs	r1, r5
 322 000e 3000     		movs	r0, r6
 323 0010 FFF7FEFF 		bl	I2C_I2CMasterWriteBuf
 324              	.LVL33:
 129:system.c      ****     }
 130:system.c      ****     while(i2c_error != I2C_I2C_MSTR_NO_ERROR);
 325              		.loc 1 130 0 discriminator 1
 326 0014 0028     		cmp	r0, #0
ARM GAS  C:\Users\Intern\AppData\Local\Temp\ccDaeJ58.s 			page 9


 327 0016 F7D1     		bne	.L13
 328              	.LVL34:
 329              	.L14:
 131:system.c      ****     /* Wait for the data transfer to complete */ 
 132:system.c      ****     while(!(I2C_I2CMasterStatus() & I2C_I2C_MSTAT_WR_CMPLT)); //Wait until the Master has completed
 330              		.loc 1 132 0 discriminator 1
 331 0018 FFF7FEFF 		bl	I2C_I2CMasterStatus
 332              	.LVL35:
 333 001c 8307     		lsls	r3, r0, #30
 334 001e FBD5     		bpl	.L14
 133:system.c      ****     /* Clear Read Complete Status bit */
 134:system.c      ****     I2C_I2CMasterClearStatus();
 335              		.loc 1 134 0
 336 0020 FFF7FEFF 		bl	I2C_I2CMasterClearStatus
 337              	.LVL36:
 135:system.c      ****     I2C_I2CMasterClearWriteBuf();
 338              		.loc 1 135 0
 339 0024 FFF7FEFF 		bl	I2C_I2CMasterClearWriteBuf
 340              	.LVL37:
 136:system.c      **** }
 341              		.loc 1 136 0
 342              		@ sp needed
 343              	.LVL38:
 344              	.LVL39:
 345              	.LVL40:
 346 0028 70BD     		pop	{r4, r5, r6, pc}
 347              		.cfi_endproc
 348              	.LFE72:
 349              		.size	system_write_i2c, .-system_write_i2c
 350 002a C046     		.section	.text.adc_acquire_channel,"ax",%progbits
 351              		.align	2
 352              		.global	adc_acquire_channel
 353              		.code	16
 354              		.thumb_func
 355              		.type	adc_acquire_channel, %function
 356              	adc_acquire_channel:
 357              	.LFB73:
 137:system.c      ****     
 138:system.c      **** uint16 adc_acquire_channel(uint32 channel)
 139:system.c      **** {
 358              		.loc 1 139 0
 359              		.cfi_startproc
 360              		@ args = 0, pretend = 0, frame = 0
 361              		@ frame_needed = 0, uses_anonymous_args = 0
 362              	.LVL41:
 363 0000 10B5     		push	{r4, lr}
 364              		.cfi_def_cfa_offset 8
 365              		.cfi_offset 4, -8
 366              		.cfi_offset 14, -4
 367 0002 0400     		movs	r4, r0
 140:system.c      ****     adc_conversion();
 368              		.loc 1 140 0
 369 0004 FFF7FEFF 		bl	adc_conversion
 370              	.LVL42:
 141:system.c      ****     uint16 adc_counts = (uint16) ADC_GetResult16(channel);
 371              		.loc 1 141 0
 372 0008 2000     		movs	r0, r4
ARM GAS  C:\Users\Intern\AppData\Local\Temp\ccDaeJ58.s 			page 10


 373 000a FFF7FEFF 		bl	ADC_GetResult16
 374              	.LVL43:
 375 000e 80B2     		uxth	r0, r0
 376              	.LVL44:
 142:system.c      ****     return adc_counts;
 143:system.c      **** }
 377              		.loc 1 143 0
 378              		@ sp needed
 379              	.LVL45:
 380 0010 10BD     		pop	{r4, pc}
 381              		.cfi_endproc
 382              	.LFE73:
 383              		.size	adc_acquire_channel, .-adc_acquire_channel
 384 0012 C046     		.section	.text.adc_sleep,"ax",%progbits
 385              		.align	2
 386              		.global	adc_sleep
 387              		.code	16
 388              		.thumb_func
 389              		.type	adc_sleep, %function
 390              	adc_sleep:
 391              	.LFB74:
 144:system.c      **** 
 145:system.c      **** void adc_sleep(void)
 146:system.c      **** {
 392              		.loc 1 146 0
 393              		.cfi_startproc
 394              		@ args = 0, pretend = 0, frame = 0
 395              		@ frame_needed = 0, uses_anonymous_args = 0
 396 0000 10B5     		push	{r4, lr}
 397              		.cfi_def_cfa_offset 8
 398              		.cfi_offset 4, -8
 399              		.cfi_offset 14, -4
 147:system.c      ****     if (ADC_SAR_CTRL_REG  & ADC_ENABLE) 
 400              		.loc 1 147 0
 401 0002 034B     		ldr	r3, .L18
 402 0004 1B68     		ldr	r3, [r3]
 403 0006 002B     		cmp	r3, #0
 404 0008 01DA     		bge	.L16
 148:system.c      ****     { 
 149:system.c      ****         ADC_Sleep(); 
 405              		.loc 1 149 0
 406 000a FFF7FEFF 		bl	ADC_Sleep
 407              	.LVL46:
 408              	.L16:
 150:system.c      ****     }     
 151:system.c      **** }
 409              		.loc 1 151 0
 410              		@ sp needed
 411 000e 10BD     		pop	{r4, pc}
 412              	.L19:
 413              		.align	2
 414              	.L18:
 415 0010 00003A40 		.word	1077542912
 416              		.cfi_endproc
 417              	.LFE74:
 418              		.size	adc_sleep, .-adc_sleep
 419              		.section	.text.adc_wakeup,"ax",%progbits
ARM GAS  C:\Users\Intern\AppData\Local\Temp\ccDaeJ58.s 			page 11


 420              		.align	2
 421              		.global	adc_wakeup
 422              		.code	16
 423              		.thumb_func
 424              		.type	adc_wakeup, %function
 425              	adc_wakeup:
 426              	.LFB75:
 152:system.c      **** 
 153:system.c      **** void adc_wakeup(void)
 154:system.c      **** {
 427              		.loc 1 154 0
 428              		.cfi_startproc
 429              		@ args = 0, pretend = 0, frame = 0
 430              		@ frame_needed = 0, uses_anonymous_args = 0
 431 0000 10B5     		push	{r4, lr}
 432              		.cfi_def_cfa_offset 8
 433              		.cfi_offset 4, -8
 434              		.cfi_offset 14, -4
 155:system.c      ****     ADC_Wakeup();    
 435              		.loc 1 155 0
 436 0002 FFF7FEFF 		bl	ADC_Wakeup
 437              	.LVL47:
 156:system.c      **** }
 438              		.loc 1 156 0
 439              		@ sp needed
 440 0006 10BD     		pop	{r4, pc}
 441              		.cfi_endproc
 442              	.LFE75:
 443              		.size	adc_wakeup, .-adc_wakeup
 444              		.section	.text.i2c_sleep,"ax",%progbits
 445              		.align	2
 446              		.global	i2c_sleep
 447              		.code	16
 448              		.thumb_func
 449              		.type	i2c_sleep, %function
 450              	i2c_sleep:
 451              	.LFB76:
 157:system.c      **** 
 158:system.c      **** void i2c_sleep(void)
 159:system.c      **** {
 452              		.loc 1 159 0
 453              		.cfi_startproc
 454              		@ args = 0, pretend = 0, frame = 0
 455              		@ frame_needed = 0, uses_anonymous_args = 0
 456 0000 10B5     		push	{r4, lr}
 457              		.cfi_def_cfa_offset 8
 458              		.cfi_offset 4, -8
 459              		.cfi_offset 14, -4
 160:system.c      ****     I2C_Sleep(); // Prepares the I2C component for Deep Sleep   
 460              		.loc 1 160 0
 461 0002 FFF7FEFF 		bl	I2C_Sleep
 462              	.LVL48:
 161:system.c      **** }
 463              		.loc 1 161 0
 464              		@ sp needed
 465 0006 10BD     		pop	{r4, pc}
 466              		.cfi_endproc
ARM GAS  C:\Users\Intern\AppData\Local\Temp\ccDaeJ58.s 			page 12


 467              	.LFE76:
 468              		.size	i2c_sleep, .-i2c_sleep
 469              		.section	.text.system_sleep,"ax",%progbits
 470              		.align	2
 471              		.global	system_sleep
 472              		.code	16
 473              		.thumb_func
 474              		.type	system_sleep, %function
 475              	system_sleep:
 476              	.LFB67:
  54:system.c      ****     adc_sleep();    // Telling ADC to go into deep sleep mode
 477              		.loc 1 54 0
 478              		.cfi_startproc
 479              		@ args = 0, pretend = 0, frame = 0
 480              		@ frame_needed = 0, uses_anonymous_args = 0
 481 0000 10B5     		push	{r4, lr}
 482              		.cfi_def_cfa_offset 8
 483              		.cfi_offset 4, -8
 484              		.cfi_offset 14, -4
  55:system.c      ****     i2c_sleep();    // Telling I2C to go into deep sleep mode
 485              		.loc 1 55 0
 486 0002 FFF7FEFF 		bl	adc_sleep
 487              	.LVL49:
  56:system.c      ****     uart_sleep();   // Telling UART to go into deep sleep mode
 488              		.loc 1 56 0
 489 0006 FFF7FEFF 		bl	i2c_sleep
 490              	.LVL50:
  59:system.c      ****     guvb_c31sm_shutdown();  // Shuting down GUVB_C31SM to save power
 491              		.loc 1 59 0
 492 000a FFF7FEFF 		bl	CySysPmSleep
 493              	.LVL51:
  60:system.c      **** }
 494              		.loc 1 60 0
 495 000e FFF7FEFF 		bl	guvb_c31sm_shutdown
 496              	.LVL52:
  61:system.c      **** 
 497              		.loc 1 61 0
 498              		@ sp needed
 499 0012 10BD     		pop	{r4, pc}
 500              		.cfi_endproc
 501              	.LFE67:
 502              		.size	system_sleep, .-system_sleep
 503              		.section	.text.i2c_wakeup,"ax",%progbits
 504              		.align	2
 505              		.global	i2c_wakeup
 506              		.code	16
 507              		.thumb_func
 508              		.type	i2c_wakeup, %function
 509              	i2c_wakeup:
 510              	.LFB77:
 162:system.c      **** 
 163:system.c      **** void i2c_wakeup(void)
 164:system.c      **** {
 511              		.loc 1 164 0
 512              		.cfi_startproc
 513              		@ args = 0, pretend = 0, frame = 0
 514              		@ frame_needed = 0, uses_anonymous_args = 0
ARM GAS  C:\Users\Intern\AppData\Local\Temp\ccDaeJ58.s 			page 13


 515 0000 10B5     		push	{r4, lr}
 516              		.cfi_def_cfa_offset 8
 517              		.cfi_offset 4, -8
 518              		.cfi_offset 14, -4
 165:system.c      ****     I2C_Wakeup(); // Tells the I2C component to Wake Up
 519              		.loc 1 165 0
 520 0002 FFF7FEFF 		bl	I2C_Wakeup
 521              	.LVL53:
 166:system.c      **** }
 522              		.loc 1 166 0
 523              		@ sp needed
 524 0006 10BD     		pop	{r4, pc}
 525              		.cfi_endproc
 526              	.LFE77:
 527              		.size	i2c_wakeup, .-i2c_wakeup
 528              		.section	.text.system_wakeup,"ax",%progbits
 529              		.align	2
 530              		.global	system_wakeup
 531              		.code	16
 532              		.thumb_func
 533              		.type	system_wakeup, %function
 534              	system_wakeup:
 535              	.LFB68:
  64:system.c      ****     adc_wakeup();   // Waking up ADC component from deep sleep mode
 536              		.loc 1 64 0
 537              		.cfi_startproc
 538              		@ args = 0, pretend = 0, frame = 0
 539              		@ frame_needed = 0, uses_anonymous_args = 0
 540 0000 10B5     		push	{r4, lr}
 541              		.cfi_def_cfa_offset 8
 542              		.cfi_offset 4, -8
 543              		.cfi_offset 14, -4
  65:system.c      ****     i2c_wakeup();   // Waking up I2C component from deep sleep mode
 544              		.loc 1 65 0
 545 0002 FFF7FEFF 		bl	adc_wakeup
 546              	.LVL54:
  66:system.c      ****     uart_wakeup();  // Waking up UART component from deep sleep mode
 547              		.loc 1 66 0
 548 0006 FFF7FEFF 		bl	i2c_wakeup
 549              	.LVL55:
  69:system.c      **** }
 550              		.loc 1 69 0
 551 000a FFF7FEFF 		bl	guvb_c31sm_wakeup
 552              	.LVL56:
  70:system.c      **** 
 553              		.loc 1 70 0
 554              		@ sp needed
 555 000e 10BD     		pop	{r4, pc}
 556              		.cfi_endproc
 557              	.LFE68:
 558              		.size	system_wakeup, .-system_wakeup
 559              		.section	.text.uart_sleep,"ax",%progbits
 560              		.align	2
 561              		.global	uart_sleep
 562              		.code	16
 563              		.thumb_func
 564              		.type	uart_sleep, %function
ARM GAS  C:\Users\Intern\AppData\Local\Temp\ccDaeJ58.s 			page 14


 565              	uart_sleep:
 566              	.LFB78:
 167:system.c      **** 
 168:system.c      **** void uart_sleep(void)
 169:system.c      **** {
 567              		.loc 1 169 0
 568              		.cfi_startproc
 569              		@ args = 0, pretend = 0, frame = 0
 570              		@ frame_needed = 0, uses_anonymous_args = 0
 571              		@ link register save eliminated.
 170:system.c      **** //    UART_Sleep(); // Prepares the UART component for Deep Sleep
 171:system.c      **** }
 572              		.loc 1 171 0
 573              		@ sp needed
 574 0000 7047     		bx	lr
 575              		.cfi_endproc
 576              	.LFE78:
 577              		.size	uart_sleep, .-uart_sleep
 578 0002 C046     		.section	.text.uart_wakeup,"ax",%progbits
 579              		.align	2
 580              		.global	uart_wakeup
 581              		.code	16
 582              		.thumb_func
 583              		.type	uart_wakeup, %function
 584              	uart_wakeup:
 585              	.LFB79:
 172:system.c      **** 
 173:system.c      **** void uart_wakeup(void)
 174:system.c      **** {
 586              		.loc 1 174 0
 587              		.cfi_startproc
 588              		@ args = 0, pretend = 0, frame = 0
 589              		@ frame_needed = 0, uses_anonymous_args = 0
 590              		@ link register save eliminated.
 175:system.c      **** //    UART_Wakeup(); // Tells the UART component to Wake up
 176:system.c      **** }
 591              		.loc 1 176 0
 592              		@ sp needed
 593 0000 7047     		bx	lr
 594              		.cfi_endproc
 595              	.LFE79:
 596              		.size	uart_wakeup, .-uart_wakeup
 597 0002 C046     		.section	.text.opamp_sleep,"ax",%progbits
 598              		.align	2
 599              		.global	opamp_sleep
 600              		.code	16
 601              		.thumb_func
 602              		.type	opamp_sleep, %function
 603              	opamp_sleep:
 604              	.LFB80:
 177:system.c      **** 
 178:system.c      **** void opamp_sleep(void)
 179:system.c      **** {
 605              		.loc 1 179 0
 606              		.cfi_startproc
 607              		@ args = 0, pretend = 0, frame = 0
 608              		@ frame_needed = 0, uses_anonymous_args = 0
ARM GAS  C:\Users\Intern\AppData\Local\Temp\ccDaeJ58.s 			page 15


 609              		@ link register save eliminated.
 180:system.c      **** //    SG_AMP_Sleep(); // Prepares the SG Op-Amp component for sleep
 181:system.c      **** //    UV5_AMP_Sleep();    // Preapres the UV5 Op-Amp component for sleep
 182:system.c      **** }
 610              		.loc 1 182 0
 611              		@ sp needed
 612 0000 7047     		bx	lr
 613              		.cfi_endproc
 614              	.LFE80:
 615              		.size	opamp_sleep, .-opamp_sleep
 616 0002 C046     		.section	.text.opamp_wakeup,"ax",%progbits
 617              		.align	2
 618              		.global	opamp_wakeup
 619              		.code	16
 620              		.thumb_func
 621              		.type	opamp_wakeup, %function
 622              	opamp_wakeup:
 623              	.LFB81:
 183:system.c      **** 
 184:system.c      **** void opamp_wakeup(void)
 185:system.c      **** {
 624              		.loc 1 185 0
 625              		.cfi_startproc
 626              		@ args = 0, pretend = 0, frame = 0
 627              		@ frame_needed = 0, uses_anonymous_args = 0
 628              		@ link register save eliminated.
 186:system.c      **** //    SG_AMP_Wakeup();    // Tells the SG Op-Amp component to Wake Up
 187:system.c      **** //    UV5_AMP_Wakeup();   // Tells the UV5 Op-Amp component to Wake Up
 188:system.c      ****     
 189:system.c      **** }
 629              		.loc 1 189 0
 630              		@ sp needed
 631 0000 7047     		bx	lr
 632              		.cfi_endproc
 633              	.LFE81:
 634              		.size	opamp_wakeup, .-opamp_wakeup
 635 0002 C046     		.section	.text.system_use_wco,"ax",%progbits
 636              		.align	2
 637              		.global	system_use_wco
 638              		.code	16
 639              		.thumb_func
 640              		.type	system_use_wco, %function
 641              	system_use_wco:
 642              	.LFB82:
 190:system.c      **** 
 191:system.c      **** //  Start using External WCO
 192:system.c      **** void system_use_wco(void)
 193:system.c      **** {  
 643              		.loc 1 193 0
 644              		.cfi_startproc
 645              		@ args = 0, pretend = 0, frame = 0
 646              		@ frame_needed = 0, uses_anonymous_args = 0
 647 0000 10B5     		push	{r4, lr}
 648              		.cfi_def_cfa_offset 8
 649              		.cfi_offset 4, -8
 650              		.cfi_offset 14, -4
 194:system.c      ****     CySysWdtUnlock();
ARM GAS  C:\Users\Intern\AppData\Local\Temp\ccDaeJ58.s 			page 16


 651              		.loc 1 194 0
 652 0002 FFF7FEFF 		bl	CySysWdtUnlock
 653              	.LVL57:
 195:system.c      ****     CySysClkWcoStart();     // Start WCO
 654              		.loc 1 195 0
 655 0006 FFF7FEFF 		bl	CySysClkWcoStart
 656              	.LVL58:
 196:system.c      ****     CySysClkSetLfclkSource(CY_SYS_CLK_LFCLK_SRC_WCO);   // Select WCO as the clock source
 657              		.loc 1 196 0
 658 000a 8020     		movs	r0, #128
 659 000c C005     		lsls	r0, r0, #23
 660 000e FFF7FEFF 		bl	CySysClkSetLfclkSource
 661              	.LVL59:
 197:system.c      ****     CyDelay(1);
 662              		.loc 1 197 0
 663 0012 0120     		movs	r0, #1
 664 0014 FFF7FEFF 		bl	CyDelay
 665              	.LVL60:
 198:system.c      ****     CySysClkIloStop();  //Stop ILO (Internal Oscillator)   
 666              		.loc 1 198 0
 667 0018 FFF7FEFF 		bl	CySysClkIloStop
 668              	.LVL61:
 199:system.c      ****     CySysWdtLock();
 669              		.loc 1 199 0
 670 001c FFF7FEFF 		bl	CySysWdtLock
 671              	.LVL62:
 200:system.c      **** }
 672              		.loc 1 200 0
 673              		@ sp needed
 674 0020 10BD     		pop	{r4, pc}
 675              		.cfi_endproc
 676              	.LFE82:
 677              		.size	system_use_wco, .-system_use_wco
 678 0022 C046     		.section	.text.system_use_eco,"ax",%progbits
 679              		.align	2
 680              		.global	system_use_eco
 681              		.code	16
 682              		.thumb_func
 683              		.type	system_use_eco, %function
 684              	system_use_eco:
 685              	.LFB83:
 201:system.c      ****  
 202:system.c      **** //  Start using External ECO
 203:system.c      **** void system_use_eco(void)
 204:system.c      **** {
 686              		.loc 1 204 0
 687              		.cfi_startproc
 688              		@ args = 0, pretend = 0, frame = 0
 689              		@ frame_needed = 0, uses_anonymous_args = 0
 690 0000 10B5     		push	{r4, lr}
 691              		.cfi_def_cfa_offset 8
 692              		.cfi_offset 4, -8
 693              		.cfi_offset 14, -4
 205:system.c      ****     CySysClkEcoStart(2000); // 2000 is the timeout period
 694              		.loc 1 205 0
 695 0002 FA20     		movs	r0, #250
 696 0004 C000     		lsls	r0, r0, #3
ARM GAS  C:\Users\Intern\AppData\Local\Temp\ccDaeJ58.s 			page 17


 697 0006 FFF7FEFF 		bl	CySysClkEcoStart
 698              	.LVL63:
 206:system.c      **** }
 699              		.loc 1 206 0
 700              		@ sp needed
 701 000a 10BD     		pop	{r4, pc}
 702              		.cfi_endproc
 703              	.LFE83:
 704              		.size	system_use_eco, .-system_use_eco
 705              		.section	.text.system_stop_eco,"ax",%progbits
 706              		.align	2
 707              		.global	system_stop_eco
 708              		.code	16
 709              		.thumb_func
 710              		.type	system_stop_eco, %function
 711              	system_stop_eco:
 712              	.LFB84:
 207:system.c      ****     
 208:system.c      **** // Stop Using ECO
 209:system.c      **** void system_stop_eco(void)
 210:system.c      **** {
 713              		.loc 1 210 0
 714              		.cfi_startproc
 715              		@ args = 0, pretend = 0, frame = 0
 716              		@ frame_needed = 0, uses_anonymous_args = 0
 717 0000 10B5     		push	{r4, lr}
 718              		.cfi_def_cfa_offset 8
 719              		.cfi_offset 4, -8
 720              		.cfi_offset 14, -4
 211:system.c      ****     CySysClkEcoStop();
 721              		.loc 1 211 0
 722 0002 FFF7FEFF 		bl	CySysClkEcoStop
 723              	.LVL64:
 212:system.c      **** }
 724              		.loc 1 212 0
 725              		@ sp needed
 726 0006 10BD     		pop	{r4, pc}
 727              		.cfi_endproc
 728              	.LFE84:
 729              		.size	system_stop_eco, .-system_stop_eco
 730              		.section	.text.system_set_imo,"ax",%progbits
 731              		.align	2
 732              		.global	system_set_imo
 733              		.code	16
 734              		.thumb_func
 735              		.type	system_set_imo, %function
 736              	system_set_imo:
 737              	.LFB85:
 213:system.c      **** 
 214:system.c      **** void system_set_imo(int mhz)
 215:system.c      **** {
 738              		.loc 1 215 0
 739              		.cfi_startproc
 740              		@ args = 0, pretend = 0, frame = 0
 741              		@ frame_needed = 0, uses_anonymous_args = 0
 742              	.LVL65:
 743 0000 10B5     		push	{r4, lr}
ARM GAS  C:\Users\Intern\AppData\Local\Temp\ccDaeJ58.s 			page 18


 744              		.cfi_def_cfa_offset 8
 745              		.cfi_offset 4, -8
 746              		.cfi_offset 14, -4
 216:system.c      ****     CySysClkWriteImoFreq(mhz);
 747              		.loc 1 216 0
 748 0002 FFF7FEFF 		bl	CySysClkWriteImoFreq
 749              	.LVL66:
 217:system.c      **** }...
 750              		.loc 1 217 0
 751              		@ sp needed
 752 0006 10BD     		pop	{r4, pc}
 753              		.cfi_endproc
 754              	.LFE85:
 755              		.size	system_set_imo, .-system_set_imo
 756              		.global	timer2_toggle
 757              		.global	wdt1_frequency
 758              		.global	wdt0_frequency
 759              		.global	battery_Notify
 760              		.global	respiration_Notify
 761              		.global	temperature_Notify
 762              		.global	uv_Index_Notify
 763              		.global	uv_Power_Notify
 764              		.global	sg_resistors
 765              		.global	amp_ibc
 766              		.global	amp_iov
 767              		.global	uv_respons
 768              		.global	uv_gain
 769              		.global	vdd_calibration
 770              		.comm	guvb_c31sm_address,4,4
 771              		.section	.rodata
 772              		.align	2
 773              		.type	timer2_toggle, %object
 774              		.size	timer2_toggle, 4
 775              	timer2_toggle:
 776 0000 12000000 		.word	18
 777              		.type	wdt1_frequency, %object
 778              		.size	wdt1_frequency, 4
 779              	wdt1_frequency:
 780 0004 10000000 		.word	16
 781              		.type	wdt0_frequency, %object
 782              		.size	wdt0_frequency, 4
 783              	wdt0_frequency:
 784 0008 08000000 		.word	8
 785              		.type	sg_resistors, %object
 786              		.size	sg_resistors, 36
 787              	sg_resistors:
 788 000c 6F12833F 		.word	1065554543
 789 0010 7F6ABC3C 		.word	1018980991
 790 0014 5C8F823F 		.word	1065520988
 791 0018 C520803F 		.word	1065361605
 792 001c 5C8F823F 		.word	1065520988
 793 0020 5C8F823F 		.word	1065520988
 794 0024 5C8F823F 		.word	1065520988
 795 0028 00404E45 		.word	1162756096
 796 002c 00404E45 		.word	1162756096
 797              		.type	amp_ibc, %object
 798              		.size	amp_ibc, 8
ARM GAS  C:\Users\Intern\AppData\Local\Temp\ccDaeJ58.s 			page 19


 799              	amp_ibc:
 800 0030 0000803F 		.word	1065353216
 801 0034 0000803F 		.word	1065353216
 802              		.type	amp_iov, %object
 803              		.size	amp_iov, 8
 804              	amp_iov:
 805 0038 0000803F 		.word	1065353216
 806 003c 0000803F 		.word	1065353216
 807              		.type	uv_respons, %object
 808              		.size	uv_respons, 4
 809              	uv_respons:
 810 0040 0000E242 		.word	1122107392
 811              		.type	uv_gain, %object
 812              		.size	uv_gain, 4
 813              	uv_gain:
 814 0044 0000A040 		.word	1084227584
 815              		.type	vdd_calibration, %object
 816              		.size	vdd_calibration, 4
 817              	vdd_calibration:
 818 0048 00404E45 		.word	1162756096
 819              		.bss
 820              		.type	battery_Notify, %object
 821              		.size	battery_Notify, 1
 822              	battery_Notify:
 823 0000 00       		.space	1
 824              		.type	respiration_Notify, %object
 825              		.size	respiration_Notify, 1
 826              	respiration_Notify:
 827 0001 00       		.space	1
 828              		.type	temperature_Notify, %object
 829              		.size	temperature_Notify, 1
 830              	temperature_Notify:
 831 0002 00       		.space	1
 832              		.type	uv_Index_Notify, %object
 833              		.size	uv_Index_Notify, 1
 834              	uv_Index_Notify:
 835 0003 00       		.space	1
 836              		.type	uv_Power_Notify, %object
 837              		.size	uv_Power_Notify, 1
 838              	uv_Power_Notify:
 839 0004 00       		.space	1
 840              		.text
 841              	.Letext0:
 842              		.file 2 "Generated_Source\\PSoC4/cytypes.h"
 843              		.file 3 "Generated_Source\\PSoC4/RTC.h"
 844              		.file 4 "guvb_c31sm.h"
 845              		.file 5 "Generated_Source\\PSoC4/I2C.h"
 846              		.file 6 "Generated_Source\\PSoC4/ADC.h"
 847              		.file 7 "Generated_Source\\PSoC4/CyLib.h"
 848              		.file 8 "Generated_Source\\PSoC4/LED_RED.h"
 849              		.file 9 "Generated_Source\\PSoC4/cyPm.h"
 850              		.file 10 "Generated_Source\\PSoC4/I2C_I2C.h"
 851              		.file 11 "Generated_Source\\PSoC4/CyLFClk.h"
 852              		.file 12 "Generated_Source\\PSoC4/BLE_Stack.h"