ARM GAS  C:\Users\Intern\AppData\Local\Temp\ccoCu4bQ.s 			page 1


   1              		.syntax unified
   2              		.cpu cortex-m0
   3              		.fpu softvfp
   4              		.eabi_attribute 20, 1
   5              		.eabi_attribute 21, 1
   6              		.eabi_attribute 23, 3
   7              		.eabi_attribute 24, 1
   8              		.eabi_attribute 25, 1
   9              		.eabi_attribute 26, 1
  10              		.eabi_attribute 30, 1
  11              		.eabi_attribute 34, 0
  12              		.eabi_attribute 18, 4
  13              		.thumb
  14              		.syntax unified
  15              		.file	"tmp116.c"
  16              		.text
  17              	.Ltext0:
  18              		.cfi_sections	.debug_frame
  19              		.global	__aeabi_ui2f
  20              		.global	__aeabi_fmul
  21              		.global	__aeabi_fdiv
  22              		.section	.text.tmp116_get_celsius,"ax",%progbits
  23              		.align	2
  24              		.global	tmp116_get_celsius
  25              		.code	16
  26              		.thumb_func
  27              		.type	tmp116_get_celsius, %function
  28              	tmp116_get_celsius:
  29              	.LFB62:
  30              		.file 1 "tmp116.c"
   1:tmp116.c      **** #include "tmp116.h"
   2:tmp116.c      **** int counter = 0;
   3:tmp116.c      **** 
   4:tmp116.c      **** float tmp116_get_celsius(void)
   5:tmp116.c      **** {
  31              		.loc 1 5 0
  32              		.cfi_startproc
  33              		@ args = 0, pretend = 0, frame = 8
  34              		@ frame_needed = 0, uses_anonymous_args = 0
  35 0000 00B5     		push	{lr}
  36              		.cfi_def_cfa_offset 4
  37              		.cfi_offset 14, -4
  38 0002 83B0     		sub	sp, sp, #12
  39              		.cfi_def_cfa_offset 16
  40              	.L2:
   6:tmp116.c      ****     float reg_cels_conv = 7812.5; //1 Register unit = 0.0078125 Celcius
   7:tmp116.c      ****     uint32 tmp116_gnd_add = 0x48; //Slave Address for TMP116, ADD0 = GND
   8:tmp116.c      ****     uint8 i2c_reg_counts[2];
   9:tmp116.c      ****     uint32 i2c_byte_count = 2; //Number of bytes of buffer to read
  10:tmp116.c      ****     uint32 i2c_mode = I2C_I2C_MODE_COMPLETE_XFER; //Transfer Mode Possibilities
  11:tmp116.c      ****     uint32 i2c_error;
  12:tmp116.c      **** 
  13:tmp116.c      ****     do
  14:tmp116.c      ****     {
  15:tmp116.c      ****         i2c_error = I2C_I2CMasterReadBuf(tmp116_gnd_add, i2c_reg_counts, i2c_byte_count, i2c_mode);
  41              		.loc 1 15 0 discriminator 1
  42 0004 0023     		movs	r3, #0
ARM GAS  C:\Users\Intern\AppData\Local\Temp\ccoCu4bQ.s 			page 2


  43 0006 0222     		movs	r2, #2
  44 0008 01A9     		add	r1, sp, #4
  45 000a 4820     		movs	r0, #72
  46 000c FFF7FEFF 		bl	I2C_I2CMasterReadBuf
  47              	.LVL0:
  16:tmp116.c      ****     }
  17:tmp116.c      ****     while(i2c_error != I2C_I2C_MSTR_NO_ERROR);
  48              		.loc 1 17 0 discriminator 1
  49 0010 0028     		cmp	r0, #0
  50 0012 F7D1     		bne	.L2
  51              	.LVL1:
  52              	.L3:
  18:tmp116.c      ****    
  19:tmp116.c      ****     /* Wait for the data transfer to complete */
  20:tmp116.c      ****     //while(I2C_TMP116_I2CMasterStatus() & I2C_TMP116_I2C_MSTAT_XFER_INP);    
  21:tmp116.c      ****     while(!(I2C_I2CMasterStatus() & I2C_I2C_MSTAT_RD_CMPLT)); //Wait until the Master has completed
  53              		.loc 1 21 0 discriminator 1
  54 0014 FFF7FEFF 		bl	I2C_I2CMasterStatus
  55              	.LVL2:
  56 0018 C307     		lsls	r3, r0, #31
  57 001a FBD5     		bpl	.L3
  22:tmp116.c      ****     /* Clear Read Complete Status bit */
  23:tmp116.c      ****     I2C_I2CMasterClearStatus();
  58              		.loc 1 23 0
  59 001c FFF7FEFF 		bl	I2C_I2CMasterClearStatus
  60              	.LVL3:
  24:tmp116.c      ****     I2C_I2CMasterClearReadBuf();
  61              		.loc 1 24 0
  62 0020 FFF7FEFF 		bl	I2C_I2CMasterClearReadBuf
  63              	.LVL4:
  25:tmp116.c      ****  
  26:tmp116.c      ****     uint16 i2c_counts =  (i2c_reg_counts[0] << 8) | i2c_reg_counts[1];
  64              		.loc 1 26 0
  65 0024 01AB     		add	r3, sp, #4
  66 0026 1878     		ldrb	r0, [r3]
  67 0028 0002     		lsls	r0, r0, #8
  68 002a 5B78     		ldrb	r3, [r3, #1]
  69 002c 1843     		orrs	r0, r3
  70              	.LVL5:
  27:tmp116.c      ****     float celsius_counts = (float) i2c_counts;
  71              		.loc 1 27 0
  72 002e FFF7FEFF 		bl	__aeabi_ui2f
  73              	.LVL6:
  28:tmp116.c      ****     float tmp116_celsius = reg_cels_conv*celsius_counts/1000000;
  74              		.loc 1 28 0
  75 0032 0449     		ldr	r1, .L4
  76 0034 FFF7FEFF 		bl	__aeabi_fmul
  77              	.LVL7:
  78 0038 0349     		ldr	r1, .L4+4
  79 003a FFF7FEFF 		bl	__aeabi_fdiv
  80              	.LVL8:
  29:tmp116.c      ****     return tmp116_celsius;
  30:tmp116.c      **** }
  81              		.loc 1 30 0
  82 003e 03B0     		add	sp, sp, #12
  83              		@ sp needed
  84 0040 00BD     		pop	{pc}
ARM GAS  C:\Users\Intern\AppData\Local\Temp\ccoCu4bQ.s 			page 3


  85              	.L5:
  86 0042 C046     		.align	2
  87              	.L4:
  88 0044 0024F445 		.word	1173627904
  89 0048 00247449 		.word	1232348160
  90              		.cfi_endproc
  91              	.LFE62:
  92              		.size	tmp116_get_celsius, .-tmp116_get_celsius
  93              		.section	.text.tmp116_get_uint16,"ax",%progbits
  94              		.align	2
  95              		.global	tmp116_get_uint16
  96              		.code	16
  97              		.thumb_func
  98              		.type	tmp116_get_uint16, %function
  99              	tmp116_get_uint16:
 100              	.LFB63:
  31:tmp116.c      **** 
  32:tmp116.c      **** uint16 tmp116_get_uint16(void)
  33:tmp116.c      **** {
 101              		.loc 1 33 0
 102              		.cfi_startproc
 103              		@ args = 0, pretend = 0, frame = 8
 104              		@ frame_needed = 0, uses_anonymous_args = 0
 105 0000 00B5     		push	{lr}
 106              		.cfi_def_cfa_offset 4
 107              		.cfi_offset 14, -4
 108 0002 83B0     		sub	sp, sp, #12
 109              		.cfi_def_cfa_offset 16
 110              	.L7:
  34:tmp116.c      ****     float reg_cels_conv = 7812.5; //1 Register unit = 0.0078125 Celcius
  35:tmp116.c      ****     uint32 tmp116_gnd_add = 0x48; //Slave Address for TMP116, ADD0 = GND
  36:tmp116.c      ****     uint8 i2c_reg_counts[2];
  37:tmp116.c      ****     uint32 i2c_byte_count = 2; //Number of bytes of buffer to read
  38:tmp116.c      ****     uint32 i2c_mode = I2C_I2C_MODE_COMPLETE_XFER; //Transfer Mode Possibilities
  39:tmp116.c      ****     uint32 i2c_error;
  40:tmp116.c      ****     
  41:tmp116.c      ****     do
  42:tmp116.c      ****     {
  43:tmp116.c      ****         i2c_error = I2C_I2CMasterReadBuf(tmp116_gnd_add, i2c_reg_counts, i2c_byte_count, i2c_mode);
 111              		.loc 1 43 0 discriminator 1
 112 0004 0023     		movs	r3, #0
 113 0006 0222     		movs	r2, #2
 114 0008 01A9     		add	r1, sp, #4
 115 000a 4820     		movs	r0, #72
 116 000c FFF7FEFF 		bl	I2C_I2CMasterReadBuf
 117              	.LVL9:
  44:tmp116.c      ****     }
  45:tmp116.c      ****     while(i2c_error != I2C_I2C_MSTR_NO_ERROR);
 118              		.loc 1 45 0 discriminator 1
 119 0010 0028     		cmp	r0, #0
 120 0012 F7D1     		bne	.L7
 121              	.LVL10:
 122              	.L8:
  46:tmp116.c      ****     
  47:tmp116.c      ****     /* Wait for the data transfer to complete */
  48:tmp116.c      ****     while(I2C_I2CMasterStatus() & I2C_I2C_MSTAT_XFER_INP);    
 123              		.loc 1 48 0 discriminator 1
ARM GAS  C:\Users\Intern\AppData\Local\Temp\ccoCu4bQ.s 			page 4


 124 0014 FFF7FEFF 		bl	I2C_I2CMasterStatus
 125              	.LVL11:
 126 0018 4307     		lsls	r3, r0, #29
 127 001a FBD4     		bmi	.L8
  49:tmp116.c      ****              
  50:tmp116.c      ****     /* Clear Read Complete Status bit */
  51:tmp116.c      ****     I2C_I2CMasterClearStatus();
 128              		.loc 1 51 0
 129 001c FFF7FEFF 		bl	I2C_I2CMasterClearStatus
 130              	.LVL12:
  52:tmp116.c      ****     I2C_I2CMasterClearReadBuf();
 131              		.loc 1 52 0
 132 0020 FFF7FEFF 		bl	I2C_I2CMasterClearReadBuf
 133              	.LVL13:
  53:tmp116.c      ****     
  54:tmp116.c      ****     uint16 i2c_counts =  (i2c_reg_counts[0] << 8) | i2c_reg_counts[1];
 134              		.loc 1 54 0
 135 0024 01AB     		add	r3, sp, #4
 136 0026 1878     		ldrb	r0, [r3]
 137 0028 0002     		lsls	r0, r0, #8
 138 002a 5B78     		ldrb	r3, [r3, #1]
 139 002c 1843     		orrs	r0, r3
 140              	.LVL14:
  55:tmp116.c      ****     return i2c_counts;
  56:tmp116.c      **** }
 141              		.loc 1 56 0
 142 002e 03B0     		add	sp, sp, #12
 143              		@ sp needed
 144 0030 00BD     		pop	{pc}
 145              		.cfi_endproc
 146              	.LFE63:
 147              		.size	tmp116_get_uint16, .-tmp116_get_uint16
 148              		.global	__aeabi_f2d
 149 0032 C046     		.section	.text.tmp116_string_celsius,"ax",%progbits
 150              		.align	2
 151              		.global	tmp116_string_celsius
 152              		.code	16
 153              		.thumb_func
 154              		.type	tmp116_string_celsius, %function
 155              	tmp116_string_celsius:
 156              	.LFB64:
  57:tmp116.c      **** 
  58:tmp116.c      **** void tmp116_string_celsius(char *tmp116_temperature)
  59:tmp116.c      **** {
 157              		.loc 1 59 0
 158              		.cfi_startproc
 159              		@ args = 0, pretend = 0, frame = 0
 160              		@ frame_needed = 0, uses_anonymous_args = 0
 161              	.LVL15:
 162 0000 10B5     		push	{r4, lr}
 163              		.cfi_def_cfa_offset 8
 164              		.cfi_offset 4, -8
 165              		.cfi_offset 14, -4
 166 0002 0400     		movs	r4, r0
  60:tmp116.c      ****     float int_temp = tmp116_get_celsius();
 167              		.loc 1 60 0
 168 0004 FFF7FEFF 		bl	tmp116_get_celsius
ARM GAS  C:\Users\Intern\AppData\Local\Temp\ccoCu4bQ.s 			page 5


 169              	.LVL16:
  61:tmp116.c      ****     sprintf(tmp116_temperature, "%.4f", int_temp);  
 170              		.loc 1 61 0
 171 0008 FFF7FEFF 		bl	__aeabi_f2d
 172              	.LVL17:
 173 000c 0200     		movs	r2, r0
 174 000e 0B00     		movs	r3, r1
 175 0010 0249     		ldr	r1, .L10
 176 0012 2000     		movs	r0, r4
 177 0014 FFF7FEFF 		bl	sprintf
 178              	.LVL18:
  62:tmp116.c      **** }
 179              		.loc 1 62 0
 180              		@ sp needed
 181              	.LVL19:
 182 0018 10BD     		pop	{r4, pc}
 183              	.L11:
 184 001a C046     		.align	2
 185              	.L10:
 186 001c 00000000 		.word	.LC0
 187              		.cfi_endproc
 188              	.LFE64:
 189              		.size	tmp116_string_celsius, .-tmp116_string_celsius
 190              		.section	.text.tmp116_uart,"ax",%progbits
 191              		.align	2
 192              		.global	tmp116_uart
 193              		.code	16
 194              		.thumb_func
 195              		.type	tmp116_uart, %function
 196              	tmp116_uart:
 197              	.LFB65:
  63:tmp116.c      **** 
  64:tmp116.c      **** void tmp116_uart(void)
  65:tmp116.c      **** {
 198              		.loc 1 65 0
 199              		.cfi_startproc
 200              		@ args = 0, pretend = 0, frame = 16
 201              		@ frame_needed = 0, uses_anonymous_args = 0
 202 0000 10B5     		push	{r4, lr}
 203              		.cfi_def_cfa_offset 8
 204              		.cfi_offset 4, -8
 205              		.cfi_offset 14, -4
 206 0002 84B0     		sub	sp, sp, #16
 207              		.cfi_def_cfa_offset 24
  66:tmp116.c      ****     char tmp116_temperature[5]; //Initializes the Character Array
  67:tmp116.c      ****     tmp116_string_celsius(tmp116_temperature); //Places the TMP116 Temperature in Character Vector
 208              		.loc 1 67 0
 209 0004 02A8     		add	r0, sp, #8
 210 0006 FFF7FEFF 		bl	tmp116_string_celsius
 211              	.LVL20:
  68:tmp116.c      **** 
  69:tmp116.c      ****     char tmp116_uart_string[7]; //Stores TMP116 Data in Message
  70:tmp116.c      ****     tmp116_uart_string[0] = 't'; //Places an t as the first element in the arrray
 212              		.loc 1 70 0
 213 000a 7423     		movs	r3, #116
 214 000c 6A46     		mov	r2, sp
 215 000e 1370     		strb	r3, [r2]
ARM GAS  C:\Users\Intern\AppData\Local\Temp\ccoCu4bQ.s 			page 6


  71:tmp116.c      ****     tmp116_uart_string[6] = '\n'; //Places a new line character in the last spot in the array
 216              		.loc 1 71 0
 217 0010 6A3B     		subs	r3, r3, #106
 218 0012 9371     		strb	r3, [r2, #6]
 219              	.LVL21:
 220              	.LBB2:
  72:tmp116.c      ****     
  73:tmp116.c      ****     //Placing Value in Packet between new message carrier and last message carrier
  74:tmp116.c      ****     for(unsigned int j = 1; j<strlen(tmp116_temperature); j++)
 221              		.loc 1 74 0
 222 0014 0124     		movs	r4, #1
 223 0016 05E0     		b	.L13
 224              	.LVL22:
 225              	.L14:
  75:tmp116.c      ****     {
  76:tmp116.c      ****         tmp116_uart_string[j] = tmp116_temperature[j-1];    
 226              		.loc 1 76 0 discriminator 3
 227 0018 631E     		subs	r3, r4, #1
 228 001a 02AA     		add	r2, sp, #8
 229 001c D35C     		ldrb	r3, [r2, r3]
 230 001e 6A46     		mov	r2, sp
 231 0020 1355     		strb	r3, [r2, r4]
  74:tmp116.c      ****     {
 232              		.loc 1 74 0 discriminator 3
 233 0022 0134     		adds	r4, r4, #1
 234              	.LVL23:
 235              	.L13:
  74:tmp116.c      ****     {
 236              		.loc 1 74 0 is_stmt 0 discriminator 1
 237 0024 02A8     		add	r0, sp, #8
 238 0026 FFF7FEFF 		bl	strlen
 239              	.LVL24:
 240 002a 8442     		cmp	r4, r0
 241 002c F4D3     		bcc	.L14
 242 002e 0024     		movs	r4, #0
 243              	.LVL25:
 244 0030 04E0     		b	.L15
 245              	.LVL26:
 246              	.L16:
 247              	.LBE2:
 248              	.LBB3:
  77:tmp116.c      ****     }
  78:tmp116.c      ****     
  79:tmp116.c      ****     //Sends the Value over UART
  80:tmp116.c      ****     for(unsigned int i = 0; i<strlen(tmp116_uart_string); i++)
  81:tmp116.c      ****     {
  82:tmp116.c      ****         UART_UartPutChar(tmp116_uart_string[i]);           
 249              		.loc 1 82 0 is_stmt 1 discriminator 3
 250 0032 6B46     		mov	r3, sp
 251 0034 185D     		ldrb	r0, [r3, r4]
 252 0036 FFF7FEFF 		bl	UART_SpiUartWriteTxData
 253              	.LVL27:
  80:tmp116.c      ****     {
 254              		.loc 1 80 0 discriminator 3
 255 003a 0134     		adds	r4, r4, #1
 256              	.LVL28:
 257              	.L15:
ARM GAS  C:\Users\Intern\AppData\Local\Temp\ccoCu4bQ.s 			page 7


  80:tmp116.c      ****     {
 258              		.loc 1 80 0 is_stmt 0 discriminator 1
 259 003c 6846     		mov	r0, sp
 260 003e FFF7FEFF 		bl	strlen
 261              	.LVL29:
 262 0042 8442     		cmp	r4, r0
 263 0044 F5D3     		bcc	.L16
 264              	.LBE3:
  83:tmp116.c      ****     } 
  84:tmp116.c      **** }
 265              		.loc 1 84 0 is_stmt 1
 266 0046 04B0     		add	sp, sp, #16
 267              		@ sp needed
 268              	.LVL30:
 269 0048 10BD     		pop	{r4, pc}
 270              		.cfi_endproc
 271              	.LFE65:
 272              		.size	tmp116_uart, .-tmp116_uart
 273 004a C046     		.section	.text.tmp116_get_uint8,"ax",%progbits
 274              		.align	2
 275              		.global	tmp116_get_uint8
 276              		.code	16
 277              		.thumb_func
 278              		.type	tmp116_get_uint8, %function
 279              	tmp116_get_uint8:
 280              	.LFB66:
  85:tmp116.c      **** 
  86:tmp116.c      **** void tmp116_get_uint8(uint8 *tmp116_uint8)
  87:tmp116.c      **** {
 281              		.loc 1 87 0
 282              		.cfi_startproc
 283              		@ args = 0, pretend = 0, frame = 8
 284              		@ frame_needed = 0, uses_anonymous_args = 0
 285              	.LVL31:
 286 0000 30B5     		push	{r4, r5, lr}
 287              		.cfi_def_cfa_offset 12
 288              		.cfi_offset 4, -12
 289              		.cfi_offset 5, -8
 290              		.cfi_offset 14, -4
 291 0002 83B0     		sub	sp, sp, #12
 292              		.cfi_def_cfa_offset 24
 293 0004 0500     		movs	r5, r0
  88:tmp116.c      ****     char tmp116_char[5]; //Initializes the Character Array
  89:tmp116.c      ****     tmp116_string_celsius(tmp116_char); 
 294              		.loc 1 89 0
 295 0006 6846     		mov	r0, sp
 296              	.LVL32:
 297 0008 FFF7FEFF 		bl	tmp116_string_celsius
 298              	.LVL33:
 299              	.LBB4:
  90:tmp116.c      ****     for(uint8 i = 0; i<strlen(tmp116_char); i++)
 300              		.loc 1 90 0
 301 000c 0024     		movs	r4, #0
 302 000e 04E0     		b	.L18
 303              	.LVL34:
 304              	.L19:
  91:tmp116.c      ****     {
ARM GAS  C:\Users\Intern\AppData\Local\Temp\ccoCu4bQ.s 			page 8


  92:tmp116.c      ****         tmp116_uint8[i] = (uint8) tmp116_char[i];
 305              		.loc 1 92 0 discriminator 3
 306 0010 6B46     		mov	r3, sp
 307 0012 1B5D     		ldrb	r3, [r3, r4]
 308 0014 2B55     		strb	r3, [r5, r4]
  90:tmp116.c      ****     for(uint8 i = 0; i<strlen(tmp116_char); i++)
 309              		.loc 1 90 0 discriminator 3
 310 0016 0134     		adds	r4, r4, #1
 311              	.LVL35:
 312 0018 E4B2     		uxtb	r4, r4
 313              	.LVL36:
 314              	.L18:
  90:tmp116.c      ****     for(uint8 i = 0; i<strlen(tmp116_char); i++)
 315              		.loc 1 90 0 is_stmt 0 discriminator 1
 316 001a 6846     		mov	r0, sp
 317 001c FFF7FEFF 		bl	strlen
 318              	.LVL37:
 319 0020 8442     		cmp	r4, r0
 320 0022 F5D3     		bcc	.L19
 321              	.LBE4:
  93:tmp116.c      ****     }
  94:tmp116.c      **** }
 322              		.loc 1 94 0 is_stmt 1
 323 0024 03B0     		add	sp, sp, #12
 324              		@ sp needed
 325              	.LVL38:
 326              	.LVL39:
 327 0026 30BD     		pop	{r4, r5, pc}
 328              		.cfi_endproc
 329              	.LFE66:
 330              		.size	tmp116_get_uint8, .-tmp116_get_uint8
 331              		.section	.text.update_tmp116,"ax",%progbits
 332              		.align	2
 333              		.global	update_tmp116
 334              		.code	16
 335              		.thumb_func
 336              		.type	update_tmp116, %function
 337              	update_tmp116:
 338              	.LFB67:
  95:tmp116.c      **** 
  96:tmp116.c      **** //Reads the state of the LED and writes that value into the GATT Database
  97:tmp116.c      **** void update_tmp116()
  98:tmp116.c      **** {
 339              		.loc 1 98 0
 340              		.cfi_startproc
 341              		@ args = 0, pretend = 0, frame = 24
 342              		@ frame_needed = 0, uses_anonymous_args = 0
 343 0000 30B5     		push	{r4, r5, lr}
 344              		.cfi_def_cfa_offset 12
 345              		.cfi_offset 4, -12
 346              		.cfi_offset 5, -8
 347              		.cfi_offset 14, -4
 348 0002 87B0     		sub	sp, sp, #28
 349              		.cfi_def_cfa_offset 40
  99:tmp116.c      ****     CYBLE_GATTS_HANDLE_VALUE_NTF_T tempHandle; //Temporary BLE Handle
 100:tmp116.c      ****     
 101:tmp116.c      ****     //If not connected, no need to update GATT Database/Server
ARM GAS  C:\Users\Intern\AppData\Local\Temp\ccoCu4bQ.s 			page 9


 102:tmp116.c      ****     if(CyBle_GetState() != CYBLE_STATE_CONNECTED || temperature_Notify == 0)
 350              		.loc 1 102 0
 351 0004 114B     		ldr	r3, .L23
 352 0006 1B78     		ldrb	r3, [r3]
 353 0008 022B     		cmp	r3, #2
 354 000a 1DD1     		bne	.L20
 355              		.loc 1 102 0 is_stmt 0 discriminator 1
 356 000c 104B     		ldr	r3, .L23+4
 357 000e 1B78     		ldrb	r3, [r3]
 358 0010 002B     		cmp	r3, #0
 359 0012 19D0     		beq	.L20
 103:tmp116.c      ****     {
 104:tmp116.c      ****         return; //Leaves the function update_tmp116()
 105:tmp116.c      ****     }
 106:tmp116.c      **** 
 107:tmp116.c      ****     tmp116_uart(); //Debug Temperature through UART
 360              		.loc 1 107 0 is_stmt 1
 361 0014 FFF7FEFF 		bl	tmp116_uart
 362              	.LVL40:
 108:tmp116.c      ****     uint8 tmp116_uint8[5];
 109:tmp116.c      ****     tmp116_get_uint8(tmp116_uint8); //Places the TMP116 Temperature in Character Vector
 363              		.loc 1 109 0
 364 0018 01AD     		add	r5, sp, #4
 365 001a 2800     		movs	r0, r5
 366 001c FFF7FEFF 		bl	tmp116_get_uint8
 367              	.LVL41:
 110:tmp116.c      ****     
 111:tmp116.c      ****     tempHandle.attrHandle = CYBLE_BODY_TEMPERATURE_TEMPERATURE_CHAR_HANDLE;
 368              		.loc 1 111 0
 369 0020 03AC     		add	r4, sp, #12
 370 0022 1D23     		movs	r3, #29
 371 0024 2381     		strh	r3, [r4, #8]
 112:tmp116.c      ****     tempHandle.value.val = tmp116_uint8;
 372              		.loc 1 112 0
 373 0026 0395     		str	r5, [sp, #12]
 113:tmp116.c      ****     tempHandle.value.len = 5; //Value is stored as an array of 5 uint8
 374              		.loc 1 113 0
 375 0028 183B     		subs	r3, r3, #24
 376 002a A380     		strh	r3, [r4, #4]
 114:tmp116.c      ****     CyBle_GattsWriteAttributeValue(&tempHandle, 0, &cyBle_connHandle, 0); //Writing new value to Ga
 377              		.loc 1 114 0
 378 002c 094D     		ldr	r5, .L23+8
 379 002e 0023     		movs	r3, #0
 380 0030 2A00     		movs	r2, r5
 381 0032 0021     		movs	r1, #0
 382 0034 2000     		movs	r0, r4
 383 0036 FFF7FEFF 		bl	CyBle_GattsWriteAttributeValue
 384              	.LVL42:
 115:tmp116.c      ****     CyBle_GattsNotification(cyBle_connHandle, &tempHandle); //Sends out Notification to Gatt Centra
 385              		.loc 1 115 0
 386 003a 2B78     		ldrb	r3, [r5]
 387 003c 6878     		ldrb	r0, [r5, #1]
 388 003e 0002     		lsls	r0, r0, #8
 389 0040 1843     		orrs	r0, r3
 390 0042 2100     		movs	r1, r4
 391 0044 FFF7FEFF 		bl	CyBle_GattsNotification
 392              	.LVL43:
ARM GAS  C:\Users\Intern\AppData\Local\Temp\ccoCu4bQ.s 			page 10


 393              	.L20:
 116:tmp116.c      **** }...
 394              		.loc 1 116 0
 395 0048 07B0     		add	sp, sp, #28
 396              		@ sp needed
 397 004a 30BD     		pop	{r4, r5, pc}
 398              	.L24:
 399              		.align	2
 400              	.L23:
 401 004c 00000000 		.word	cyBle_state
 402 0050 00000000 		.word	temperature_Notify
 403 0054 00000000 		.word	cyBle_connHandle
 404              		.cfi_endproc
 405              	.LFE67:
 406              		.size	update_tmp116, .-update_tmp116
 407              		.global	counter
 408              		.section	.rodata.str1.4,"aMS",%progbits,1
 409              		.align	2
 410              	.LC0:
 411 0000 252E3466 		.ascii	"%.4f\000"
 411      00
 412              		.bss
 413              		.align	2
 414              		.type	counter, %object
 415              		.size	counter, 4
 416              	counter:
 417 0000 00000000 		.space	4
 418              		.text
 419              	.Letext0:
 420              		.file 2 "Generated_Source\\PSoC4/cytypes.h"
 421              		.file 3 "Generated_Source\\PSoC4/BLE_StackGatt.h"
 422              		.file 4 "Generated_Source\\PSoC4/BLE_StackGattServer.h"
 423              		.file 5 "Generated_Source\\PSoC4/BLE_Stack.h"
 424              		.file 6 "Generated_Source\\PSoC4/BLE_eventHandler.h"
 425              		.file 7 "system.h"
 426              		.file 8 "Generated_Source\\PSoC4/I2C_I2C.h"
 427              		.file 9 "c:\\program files (x86)\\cypress\\psoc creator\\4.1\\psoc creator\\import\\gnu\\arm\\5.4.
 428              		.file 10 "c:\\program files (x86)\\cypress\\psoc creator\\4.1\\psoc creator\\import\\gnu\\arm\\5.4
 429              		.file 11 "Generated_Source\\PSoC4/UART_SPI_UART.h"
 430              		.file 12 "Generated_Source\\PSoC4/BLE_StackGattDb.h"