ARM GAS  C:\Users\Intern\AppData\Local\Temp\ccMUIYGa.s 			page 1


   1              		.syntax unified
   2              		.cpu cortex-m0
   3              		.fpu softvfp
   4              		.eabi_attribute 20, 1
   5              		.eabi_attribute 21, 1
   6              		.eabi_attribute 23, 3
   7              		.eabi_attribute 24, 1
   8              		.eabi_attribute 25, 1
   9              		.eabi_attribute 26, 1
  10              		.eabi_attribute 30, 1
  11              		.eabi_attribute 34, 0
  12              		.eabi_attribute 18, 4
  13              		.thumb
  14              		.syntax unified
  15              		.file	"uv.c"
  16              		.text
  17              	.Ltext0:
  18              		.cfi_sections	.debug_frame
  19              		.global	__aeabi_ui2f
  20              		.global	__aeabi_fmul
  21              		.section	.text.uv_measure,"ax",%progbits
  22              		.align	2
  23              		.global	uv_measure
  24              		.code	16
  25              		.thumb_func
  26              		.type	uv_measure, %function
  27              	uv_measure:
  28              	.LFB63:
  29              		.file 1 "uv.c"
   1:uv.c          **** #include "uv.h"
   2:uv.c          **** 
   3:uv.c          **** // GUVA || GUVB Photodiodes
   4:uv.c          **** 
   5:uv.c          **** float uv_measure(void)
   6:uv.c          **** {
  30              		.loc 1 6 0
  31              		.cfi_startproc
  32              		@ args = 0, pretend = 0, frame = 0
  33              		@ frame_needed = 0, uses_anonymous_args = 0
  34 0000 10B5     		push	{r4, lr}
  35              		.cfi_def_cfa_offset 8
  36              		.cfi_offset 4, -8
  37              		.cfi_offset 14, -4
   7:uv.c          ****     float adc_counts_float = (float) adc_acquire_channel(UV_CHANNEL);
  38              		.loc 1 7 0
  39 0002 0120     		movs	r0, #1
  40 0004 FFF7FEFF 		bl	adc_acquire_channel
  41              	.LVL0:
  42 0008 FFF7FEFF 		bl	__aeabi_ui2f
  43              	.LVL1:
   8:uv.c          ****     //float adc_counts_float = (float) adc_acquire_channel(GUVA_CHANNEL);
   9:uv.c          ****     float milli_volts = (adc_counts_float*vdd_calibration)/2048; 
  44              		.loc 1 9 0
  45 000c 044B     		ldr	r3, .L2
  46 000e 1968     		ldr	r1, [r3]
  47 0010 FFF7FEFF 		bl	__aeabi_fmul
  48              	.LVL2:
ARM GAS  C:\Users\Intern\AppData\Local\Temp\ccMUIYGa.s 			page 2


  49 0014 E821     		movs	r1, #232
  50 0016 8905     		lsls	r1, r1, #22
  51 0018 FFF7FEFF 		bl	__aeabi_fmul
  52              	.LVL3:
  10:uv.c          ****     return milli_volts;
  11:uv.c          **** }
  53              		.loc 1 11 0
  54              		@ sp needed
  55 001c 10BD     		pop	{r4, pc}
  56              	.L3:
  57 001e C046     		.align	2
  58              	.L2:
  59 0020 00000000 		.word	vdd_calibration
  60              		.cfi_endproc
  61              	.LFE63:
  62              		.size	uv_measure, .-uv_measure
  63              		.global	__aeabi_fdiv
  64              		.section	.text.uv_get_pd,"ax",%progbits
  65              		.align	2
  66              		.global	uv_get_pd
  67              		.code	16
  68              		.thumb_func
  69              		.type	uv_get_pd, %function
  70              	uv_get_pd:
  71              	.LFB64:
  12:uv.c          **** 
  13:uv.c          **** float uv_get_pd(void)
  14:uv.c          **** {
  72              		.loc 1 14 0
  73              		.cfi_startproc
  74              		@ args = 0, pretend = 0, frame = 0
  75              		@ frame_needed = 0, uses_anonymous_args = 0
  76 0000 10B5     		push	{r4, lr}
  77              		.cfi_def_cfa_offset 8
  78              		.cfi_offset 4, -8
  79              		.cfi_offset 14, -4
  15:uv.c          ****     float uv_mv = uv_measure(); //Measure Raw ADC value from Port
  80              		.loc 1 15 0
  81 0002 FFF7FEFF 		bl	uv_measure
  82              	.LVL4:
  16:uv.c          **** //    float v_out = uv_mv - amp_iov[diode_num-1] - amp_ibc[diode_num-1]*uv_gain[diode_num-1]; //Get
  17:uv.c          **** //    float uv_current = v_out/uv_gain[diode_num-1]; //Getting PhotoDiode Current from PhotoDiode V
  18:uv.c          ****     float uv_current = uv_mv/uv_gain; //Getting PhotoDiode Current from PhotoDiode Voltage
  83              		.loc 1 18 0
  84 0006 064B     		ldr	r3, .L5
  85 0008 1968     		ldr	r1, [r3]
  86 000a FFF7FEFF 		bl	__aeabi_fdiv
  87              	.LVL5:
  19:uv.c          ****     float uv_pd = uv_current/uv_respons; //Getting Power Density from PhotoDiode
  88              		.loc 1 19 0
  89 000e 054B     		ldr	r3, .L5+4
  90 0010 1968     		ldr	r1, [r3]
  91 0012 FFF7FEFF 		bl	__aeabi_fdiv
  92              	.LVL6:
  20:uv.c          ****     return (uv_pd/1000); //Returning UV Photodiode Power Density in mW/cm^2
  93              		.loc 1 20 0
  94 0016 0449     		ldr	r1, .L5+8
ARM GAS  C:\Users\Intern\AppData\Local\Temp\ccMUIYGa.s 			page 3


  95 0018 FFF7FEFF 		bl	__aeabi_fdiv
  96              	.LVL7:
  21:uv.c          **** }
  97              		.loc 1 21 0
  98              		@ sp needed
  99 001c 10BD     		pop	{r4, pc}
 100              	.L6:
 101 001e C046     		.align	2
 102              	.L5:
 103 0020 00000000 		.word	uv_gain
 104 0024 00000000 		.word	uv_respons
 105 0028 00007A44 		.word	1148846080
 106              		.cfi_endproc
 107              	.LFE64:
 108              		.size	uv_get_pd, .-uv_get_pd
 109              		.section	.text.uv_get_index,"ax",%progbits
 110              		.align	2
 111              		.global	uv_get_index
 112              		.code	16
 113              		.thumb_func
 114              		.type	uv_get_index, %function
 115              	uv_get_index:
 116              	.LFB65:
  22:uv.c          **** 
  23:uv.c          **** float uv_get_index(void)
  24:uv.c          **** {
 117              		.loc 1 24 0
 118              		.cfi_startproc
 119              		@ args = 0, pretend = 0, frame = 0
 120              		@ frame_needed = 0, uses_anonymous_args = 0
 121 0000 10B5     		push	{r4, lr}
 122              		.cfi_def_cfa_offset 8
 123              		.cfi_offset 4, -8
 124              		.cfi_offset 14, -4
  25:uv.c          ****     float uv_pd = uv_get_pd();  // Getting UV Power Density
 125              		.loc 1 25 0
 126 0002 FFF7FEFF 		bl	uv_get_pd
 127              	.LVL8:
  26:uv.c          ****     float index = uv_pd / 26;    //Converting UV Power Density to UV Index
 128              		.loc 1 26 0
 129 0006 0249     		ldr	r1, .L8
 130 0008 FFF7FEFF 		bl	__aeabi_fdiv
 131              	.LVL9:
  27:uv.c          ****     return index;   //Returning UV index
  28:uv.c          **** }
 132              		.loc 1 28 0
 133              		@ sp needed
 134 000c 10BD     		pop	{r4, pc}
 135              	.L9:
 136 000e C046     		.align	2
 137              	.L8:
 138 0010 0000D041 		.word	1104150528
 139              		.cfi_endproc
 140              	.LFE65:
 141              		.size	uv_get_index, .-uv_get_index
 142              		.global	__aeabi_f2d
 143              		.section	.text.uv_get_pd_string,"ax",%progbits
ARM GAS  C:\Users\Intern\AppData\Local\Temp\ccMUIYGa.s 			page 4


 144              		.align	2
 145              		.global	uv_get_pd_string
 146              		.code	16
 147              		.thumb_func
 148              		.type	uv_get_pd_string, %function
 149              	uv_get_pd_string:
 150              	.LFB66:
  29:uv.c          **** 
  30:uv.c          **** void uv_get_pd_string(char *uv_pd_string)
  31:uv.c          **** {
 151              		.loc 1 31 0
 152              		.cfi_startproc
 153              		@ args = 0, pretend = 0, frame = 0
 154              		@ frame_needed = 0, uses_anonymous_args = 0
 155              	.LVL10:
 156 0000 10B5     		push	{r4, lr}
 157              		.cfi_def_cfa_offset 8
 158              		.cfi_offset 4, -8
 159              		.cfi_offset 14, -4
 160 0002 0400     		movs	r4, r0
  32:uv.c          ****     float uv_pd = uv_get_pd(); //Returns the Power Density of that PhotoDiode
 161              		.loc 1 32 0
 162 0004 FFF7FEFF 		bl	uv_get_pd
 163              	.LVL11:
  33:uv.c          ****     sprintf(uv_pd_string, "%.4f", uv_pd); //Places the Float Value of Power Density in String
 164              		.loc 1 33 0
 165 0008 FFF7FEFF 		bl	__aeabi_f2d
 166              	.LVL12:
 167 000c 0200     		movs	r2, r0
 168 000e 0B00     		movs	r3, r1
 169 0010 0249     		ldr	r1, .L11
 170 0012 2000     		movs	r0, r4
 171 0014 FFF7FEFF 		bl	sprintf
 172              	.LVL13:
  34:uv.c          **** }
 173              		.loc 1 34 0
 174              		@ sp needed
 175              	.LVL14:
 176 0018 10BD     		pop	{r4, pc}
 177              	.L12:
 178 001a C046     		.align	2
 179              	.L11:
 180 001c 00000000 		.word	.LC3
 181              		.cfi_endproc
 182              	.LFE66:
 183              		.size	uv_get_pd_string, .-uv_get_pd_string
 184              		.section	.text.uv_get_uint8,"ax",%progbits
 185              		.align	2
 186              		.global	uv_get_uint8
 187              		.code	16
 188              		.thumb_func
 189              		.type	uv_get_uint8, %function
 190              	uv_get_uint8:
 191              	.LFB67:
  35:uv.c          **** 
  36:uv.c          **** void uv_get_uint8(uint8 *uv_uint8)
  37:uv.c          **** {
ARM GAS  C:\Users\Intern\AppData\Local\Temp\ccMUIYGa.s 			page 5


 192              		.loc 1 37 0
 193              		.cfi_startproc
 194              		@ args = 0, pretend = 0, frame = 8
 195              		@ frame_needed = 0, uses_anonymous_args = 0
 196              	.LVL15:
 197 0000 30B5     		push	{r4, r5, lr}
 198              		.cfi_def_cfa_offset 12
 199              		.cfi_offset 4, -12
 200              		.cfi_offset 5, -8
 201              		.cfi_offset 14, -4
 202 0002 83B0     		sub	sp, sp, #12
 203              		.cfi_def_cfa_offset 24
 204 0004 0500     		movs	r5, r0
  38:uv.c          ****     char uv_pd_string[5]; //Initializes the Character Array
  39:uv.c          ****     uv_get_pd_string(uv_pd_string);
 205              		.loc 1 39 0
 206 0006 6846     		mov	r0, sp
 207              	.LVL16:
 208 0008 FFF7FEFF 		bl	uv_get_pd_string
 209              	.LVL17:
 210              	.LBB2:
  40:uv.c          ****     for(uint8 i = 0; i<strlen(uv_pd_string); i++)
 211              		.loc 1 40 0
 212 000c 0024     		movs	r4, #0
 213 000e 04E0     		b	.L14
 214              	.LVL18:
 215              	.L15:
  41:uv.c          ****     {
  42:uv.c          ****         uv_uint8[i] = (uint8) uv_pd_string[i];
 216              		.loc 1 42 0 discriminator 3
 217 0010 6B46     		mov	r3, sp
 218 0012 1B5D     		ldrb	r3, [r3, r4]
 219 0014 2B55     		strb	r3, [r5, r4]
  40:uv.c          ****     for(uint8 i = 0; i<strlen(uv_pd_string); i++)
 220              		.loc 1 40 0 discriminator 3
 221 0016 0134     		adds	r4, r4, #1
 222              	.LVL19:
 223 0018 E4B2     		uxtb	r4, r4
 224              	.LVL20:
 225              	.L14:
  40:uv.c          ****     for(uint8 i = 0; i<strlen(uv_pd_string); i++)
 226              		.loc 1 40 0 is_stmt 0 discriminator 1
 227 001a 6846     		mov	r0, sp
 228 001c FFF7FEFF 		bl	strlen
 229              	.LVL21:
 230 0020 8442     		cmp	r4, r0
 231 0022 F5D3     		bcc	.L15
 232              	.LBE2:
  43:uv.c          ****     }
  44:uv.c          **** }
 233              		.loc 1 44 0 is_stmt 1
 234 0024 03B0     		add	sp, sp, #12
 235              		@ sp needed
 236              	.LVL22:
 237              	.LVL23:
 238 0026 30BD     		pop	{r4, r5, pc}
 239              		.cfi_endproc
ARM GAS  C:\Users\Intern\AppData\Local\Temp\ccMUIYGa.s 			page 6


 240              	.LFE67:
 241              		.size	uv_get_uint8, .-uv_get_uint8
 242              		.section	.text.uv_uart,"ax",%progbits
 243              		.align	2
 244              		.global	uv_uart
 245              		.code	16
 246              		.thumb_func
 247              		.type	uv_uart, %function
 248              	uv_uart:
 249              	.LFB68:
  45:uv.c          **** 
  46:uv.c          **** void uv_uart(void)
  47:uv.c          **** {
 250              		.loc 1 47 0
 251              		.cfi_startproc
 252              		@ args = 0, pretend = 0, frame = 16
 253              		@ frame_needed = 0, uses_anonymous_args = 0
 254 0000 10B5     		push	{r4, lr}
 255              		.cfi_def_cfa_offset 8
 256              		.cfi_offset 4, -8
 257              		.cfi_offset 14, -4
 258 0002 84B0     		sub	sp, sp, #16
 259              		.cfi_def_cfa_offset 24
  48:uv.c          ****     char uv_pd_string[5]; //Initializes the Character Array
  49:uv.c          ****     uv_get_pd_string(uv_pd_string); //Places the power density of diode in Character Vector
 260              		.loc 1 49 0
 261 0004 02A8     		add	r0, sp, #8
 262 0006 FFF7FEFF 		bl	uv_get_pd_string
 263              	.LVL24:
  50:uv.c          **** 
  51:uv.c          ****     char uv_uart_string[7]; //Stores UV Photodiode Power Density in Message
  52:uv.c          ****     uv_uart_string[0] = 'u'; //Places an s as the first element in the arrray
 264              		.loc 1 52 0
 265 000a 7523     		movs	r3, #117
 266 000c 6A46     		mov	r2, sp
 267 000e 1370     		strb	r3, [r2]
  53:uv.c          ****     uv_uart_string[6] = '\n'; //Places a new line character in the last spot in the array
 268              		.loc 1 53 0
 269 0010 6B3B     		subs	r3, r3, #107
 270 0012 9371     		strb	r3, [r2, #6]
 271              	.LVL25:
 272              	.LBB3:
  54:uv.c          ****     
  55:uv.c          ****     //Placing Value in Packet between new message carrier and last message carrier
  56:uv.c          ****     for(unsigned int j = 1; j<strlen(uv_pd_string); j++)
 273              		.loc 1 56 0
 274 0014 0124     		movs	r4, #1
 275 0016 05E0     		b	.L17
 276              	.LVL26:
 277              	.L18:
  57:uv.c          ****     {
  58:uv.c          ****         uv_uart_string[j] = uv_pd_string[j-1];    
 278              		.loc 1 58 0 discriminator 3
 279 0018 631E     		subs	r3, r4, #1
 280 001a 02AA     		add	r2, sp, #8
 281 001c D35C     		ldrb	r3, [r2, r3]
 282 001e 6A46     		mov	r2, sp
ARM GAS  C:\Users\Intern\AppData\Local\Temp\ccMUIYGa.s 			page 7


 283 0020 1355     		strb	r3, [r2, r4]
  56:uv.c          ****     {
 284              		.loc 1 56 0 discriminator 3
 285 0022 0134     		adds	r4, r4, #1
 286              	.LVL27:
 287              	.L17:
  56:uv.c          ****     {
 288              		.loc 1 56 0 is_stmt 0 discriminator 1
 289 0024 02A8     		add	r0, sp, #8
 290 0026 FFF7FEFF 		bl	strlen
 291              	.LVL28:
 292 002a 8442     		cmp	r4, r0
 293 002c F4D3     		bcc	.L18
 294 002e 0024     		movs	r4, #0
 295              	.LVL29:
 296 0030 00E0     		b	.L19
 297              	.LVL30:
 298              	.L20:
 299              	.LBE3:
 300              	.LBB4:
  59:uv.c          ****     }
  60:uv.c          ****     
  61:uv.c          ****     //Sends the Value over UART
  62:uv.c          ****     for(unsigned int i = 0; i<strlen(uv_uart_string); i++)
 301              		.loc 1 62 0 is_stmt 1 discriminator 3
 302 0032 0134     		adds	r4, r4, #1
 303              	.LVL31:
 304              	.L19:
 305              		.loc 1 62 0 is_stmt 0 discriminator 1
 306 0034 6846     		mov	r0, sp
 307 0036 FFF7FEFF 		bl	strlen
 308              	.LVL32:
 309 003a 8442     		cmp	r4, r0
 310 003c F9D3     		bcc	.L20
 311              	.LBE4:
  63:uv.c          ****     {
  64:uv.c          **** //        UART_UartPutChar(uv_uart_string[i]);           
  65:uv.c          ****     } 
  66:uv.c          **** }
 312              		.loc 1 66 0 is_stmt 1
 313 003e 04B0     		add	sp, sp, #16
 314              		@ sp needed
 315              	.LVL33:
 316 0040 10BD     		pop	{r4, pc}
 317              		.cfi_endproc
 318              	.LFE68:
 319              		.size	uv_uart, .-uv_uart
 320 0042 C046     		.section	.text.update_UV,"ax",%progbits
 321              		.align	2
 322              		.global	update_UV
 323              		.code	16
 324              		.thumb_func
 325              		.type	update_UV, %function
 326              	update_UV:
 327              	.LFB69:
  67:uv.c          **** 
  68:uv.c          **** //Reads the state of the LED and writes that value into the GATT Database
ARM GAS  C:\Users\Intern\AppData\Local\Temp\ccMUIYGa.s 			page 8


  69:uv.c          **** void update_UV()
  70:uv.c          **** {
 328              		.loc 1 70 0
 329              		.cfi_startproc
 330              		@ args = 0, pretend = 0, frame = 24
 331              		@ frame_needed = 0, uses_anonymous_args = 0
 332 0000 30B5     		push	{r4, r5, lr}
 333              		.cfi_def_cfa_offset 12
 334              		.cfi_offset 4, -12
 335              		.cfi_offset 5, -8
 336              		.cfi_offset 14, -4
 337 0002 87B0     		sub	sp, sp, #28
 338              		.cfi_def_cfa_offset 40
  71:uv.c          ****     CYBLE_GATTS_HANDLE_VALUE_NTF_T tempHandle; //Temporary BLE Handle
  72:uv.c          ****     
  73:uv.c          ****     //If not connected, no need to update GATT Database/Server
  74:uv.c          ****     if(CyBle_GetState() != CYBLE_STATE_CONNECTED || uv_Power_Notify == 0)
 339              		.loc 1 74 0
 340 0004 144B     		ldr	r3, .L24
 341 0006 1B78     		ldrb	r3, [r3]
 342 0008 022B     		cmp	r3, #2
 343 000a 22D1     		bne	.L21
 344              		.loc 1 74 0 is_stmt 0 discriminator 1
 345 000c 134B     		ldr	r3, .L24+4
 346 000e 1B78     		ldrb	r3, [r3]
 347 0010 002B     		cmp	r3, #0
 348 0012 1ED0     		beq	.L21
  75:uv.c          ****     {
  76:uv.c          ****         return; //Leaves the function update_UV()
  77:uv.c          ****     }
  78:uv.c          ****     uint8 uv_pd[5] = {0};         //Initializes the Character Array
 349              		.loc 1 78 0 is_stmt 1
 350 0014 01AD     		add	r5, sp, #4
 351 0016 0522     		movs	r2, #5
 352 0018 0021     		movs	r1, #0
 353 001a 2800     		movs	r0, r5
 354 001c FFF7FEFF 		bl	memset
 355              	.LVL34:
  79:uv.c          ****     uv_get_uint8(uv_pd);    //Getting UV power Density as an uint8 array
 356              		.loc 1 79 0
 357 0020 2800     		movs	r0, r5
 358 0022 FFF7FEFF 		bl	uv_get_uint8
 359              	.LVL35:
  80:uv.c          ****     uv_uart();
 360              		.loc 1 80 0
 361 0026 FFF7FEFF 		bl	uv_uart
 362              	.LVL36:
  81:uv.c          ****     
  82:uv.c          ****     tempHandle.attrHandle = CYBLE_UV_MEASUREMENT_POWER_DENSITY_CHAR_HANDLE;
 363              		.loc 1 82 0
 364 002a 03AC     		add	r4, sp, #12
 365 002c 1223     		movs	r3, #18
 366 002e 2381     		strh	r3, [r4, #8]
  83:uv.c          ****     //Cast it into a 8 bit integer pointer
  84:uv.c          ****     tempHandle.value.val = uv_pd; 
 367              		.loc 1 84 0
 368 0030 0395     		str	r5, [sp, #12]
ARM GAS  C:\Users\Intern\AppData\Local\Temp\ccMUIYGa.s 			page 9


  85:uv.c          ****     tempHandle.value.len = 5; //Uint16 value is stored as 2 8 bit integer
 369              		.loc 1 85 0
 370 0032 0D3B     		subs	r3, r3, #13
 371 0034 A380     		strh	r3, [r4, #4]
  86:uv.c          ****     CyBle_GattsWriteAttributeValue(&tempHandle, 0, &cyBle_connHandle, 0); //Writing new value to Ga
 372              		.loc 1 86 0
 373 0036 0A4D     		ldr	r5, .L24+8
 374 0038 0023     		movs	r3, #0
 375 003a 2A00     		movs	r2, r5
 376 003c 0021     		movs	r1, #0
 377 003e 2000     		movs	r0, r4
 378 0040 FFF7FEFF 		bl	CyBle_GattsWriteAttributeValue
 379              	.LVL37:
  87:uv.c          ****     CyBle_GattsNotification(cyBle_connHandle, &tempHandle); //Sends out Notification to Gatt Centra
 380              		.loc 1 87 0
 381 0044 2B78     		ldrb	r3, [r5]
 382 0046 6878     		ldrb	r0, [r5, #1]
 383 0048 0002     		lsls	r0, r0, #8
 384 004a 1843     		orrs	r0, r3
 385 004c 2100     		movs	r1, r4
 386 004e FFF7FEFF 		bl	CyBle_GattsNotification
 387              	.LVL38:
 388              	.L21:
  88:uv.c          ****     
  89:uv.c          **** }...
 389              		.loc 1 89 0
 390 0052 07B0     		add	sp, sp, #28
 391              		@ sp needed
 392 0054 30BD     		pop	{r4, r5, pc}
 393              	.L25:
 394 0056 C046     		.align	2
 395              	.L24:
 396 0058 00000000 		.word	cyBle_state
 397 005c 00000000 		.word	uv_Power_Notify
 398 0060 00000000 		.word	cyBle_connHandle
 399              		.cfi_endproc
 400              	.LFE69:
 401              		.size	update_UV, .-update_UV
 402              		.section	.rodata.str1.4,"aMS",%progbits,1
 403              		.align	2
 404              	.LC3:
 405 0000 252E3466 		.ascii	"%.4f\000"
 405      00
 406              		.text
 407              	.Letext0:
 408              		.file 2 "Generated_Source\\PSoC4/cytypes.h"
 409              		.file 3 "Generated_Source\\PSoC4/BLE_StackGatt.h"
 410              		.file 4 "Generated_Source\\PSoC4/BLE_StackGattServer.h"
 411              		.file 5 "Generated_Source\\PSoC4/BLE_eventHandler.h"
 412              		.file 6 "Generated_Source\\PSoC4/RTC.h"
 413              		.file 7 "system.h"
 414              		.file 8 "c:\\program files (x86)\\cypress\\psoc creator\\4.2\\psoc creator\\import\\gnu\\arm\\5.4.
 415              		.file 9 "c:\\program files (x86)\\cypress\\psoc creator\\4.2\\psoc creator\\import\\gnu\\arm\\5.4.
 416              		.file 10 "Generated_Source\\PSoC4/BLE_StackGattDb.h"