ARM GAS  C:\Users\Intern\AppData\Local\Temp\cctX6C5T.s 			page 1


   1              		.syntax unified
   2              		.cpu cortex-m0
   3              		.fpu softvfp
   4              		.eabi_attribute 20, 1
   5              		.eabi_attribute 21, 1
   6              		.eabi_attribute 23, 3
   7              		.eabi_attribute 24, 1
   8              		.eabi_attribute 25, 1
   9              		.eabi_attribute 26, 1
  10              		.eabi_attribute 30, 1
  11              		.eabi_attribute 34, 0
  12              		.eabi_attribute 18, 4
  13              		.thumb
  14              		.syntax unified
  15              		.file	"watchdog.c"
  16              		.text
  17              	.Ltext0:
  18              		.cfi_sections	.debug_frame
  19              		.section	.text.WDT_ISR_Handler,"ax",%progbits
  20              		.align	2
  21              		.global	WDT_ISR_Handler
  22              		.code	16
  23              		.thumb_func
  24              		.type	WDT_ISR_Handler, %function
  25              	WDT_ISR_Handler:
  26              	.LFB63:
  27              		.file 1 "watchdog.c"
   1:watchdog.c    **** #include "watchdog.h"
   2:watchdog.c    **** #include "uv.h"
   3:watchdog.c    **** #include "tmp116.h"
   4:watchdog.c    **** #include "battery.h"
   5:watchdog.c    **** #include "bluetooth.h"
   6:watchdog.c    **** #include "guvb_c31sm.h"
   7:watchdog.c    **** #include "adafruit_guva.h"
   8:watchdog.c    **** 
   9:watchdog.c    **** void WDT_ISR_Handler()
  10:watchdog.c    **** {
  28              		.loc 1 10 0
  29              		.cfi_startproc
  30              		@ args = 0, pretend = 0, frame = 0
  31              		@ frame_needed = 0, uses_anonymous_args = 0
  32 0000 70B5     		push	{r4, r5, r6, lr}
  33              		.cfi_def_cfa_offset 16
  34              		.cfi_offset 4, -16
  35              		.cfi_offset 5, -12
  36              		.cfi_offset 6, -8
  37              		.cfi_offset 14, -4
  11:watchdog.c    ****     uint32 reason = CySysWdtGetInterruptSource();
  38              		.loc 1 11 0
  39 0002 FFF7FEFF 		bl	CySysWdtGetInterruptSource
  40              	.LVL0:
  41 0006 0400     		movs	r4, r0
  42              	.LVL1:
  12:watchdog.c    ****     // Update Gatt Database every 8 seconds
  13:watchdog.c    ****     if(reason & CY_SYS_WDT_COUNTER2_INT)
  43              		.loc 1 13 0
  44 0008 4303     		lsls	r3, r0, #13
ARM GAS  C:\Users\Intern\AppData\Local\Temp\cctX6C5T.s 			page 2


  45 000a 21D5     		bpl	.L2
  46              	.LBB2:
  14:watchdog.c    ****     {
  15:watchdog.c    **** //        if(CyBle_GetState() == CYBLE_STATE_CONNECTED)
  16:watchdog.c    **** //        {
  17:watchdog.c    **** //            system_wakeup();    // Waking up System from sleep to perform measurements
  18:watchdog.c    **** //            update_tmp116();
  19:watchdog.c    **** //            update_UV();
  20:watchdog.c    **** //            update_battery();
  21:watchdog.c    ****         
  22:watchdog.c    ****             guvb_c31sm_wakeup();
  47              		.loc 1 22 0
  48 000c FFF7FEFF 		bl	guvb_c31sm_wakeup
  49              	.LVL2:
  23:watchdog.c    ****             guvb_c31sm_range();
  50              		.loc 1 23 0
  51 0010 FFF7FEFF 		bl	guvb_c31sm_range
  52              	.LVL3:
  24:watchdog.c    **** //            uint16 b_scale = guvb_c31sm_nvm();
  25:watchdog.c    ****             CyDelay(200);
  53              		.loc 1 25 0
  54 0014 C820     		movs	r0, #200
  55 0016 FFF7FEFF 		bl	CyDelay
  56              	.LVL4:
  26:watchdog.c    **** //            uint8 nvm_control = guvb_c31sm_read_register(0x30);
  27:watchdog.c    ****             uint16 sensor_value = guvb_c31sm_get_uint16();
  57              		.loc 1 27 0
  58 001a FFF7FEFF 		bl	guvb_c31sm_get_uint16
  59              	.LVL5:
  60 001e 0500     		movs	r5, r0
  61              	.LVL6:
  28:watchdog.c    ****             guvb_c31sm_shutdown();            
  62              		.loc 1 28 0
  63 0020 FFF7FEFF 		bl	guvb_c31sm_shutdown
  64              	.LVL7:
  29:watchdog.c    ****             
  30:watchdog.c    ****             uint8 lsb1 = sensor_value & 0xFF;
  65              		.loc 1 30 0
  66 0024 E8B2     		uxtb	r0, r5
  67              	.LVL8:
  31:watchdog.c    ****             uint8 msb1 = sensor_value >> 8;
  68              		.loc 1 31 0
  69 0026 2D0A     		lsrs	r5, r5, #8
  70              	.LVL9:
  71 0028 EDB2     		uxtb	r5, r5
  72              	.LVL10:
  32:watchdog.c    ****             UART_UartPutChar(lsb1);
  73              		.loc 1 32 0
  74 002a FFF7FEFF 		bl	UART_UartPutChar
  75              	.LVL11:
  33:watchdog.c    ****             UART_UartPutChar(msb1);
  76              		.loc 1 33 0
  77 002e 2800     		movs	r0, r5
  78 0030 FFF7FEFF 		bl	UART_UartPutChar
  79              	.LVL12:
  34:watchdog.c    ****             
  35:watchdog.c    **** //            uint8 lsb2 = b_scale & 0xFF;
ARM GAS  C:\Users\Intern\AppData\Local\Temp\cctX6C5T.s 			page 3


  36:watchdog.c    **** //            uint8 msb2 = b_scale >> 8;
  37:watchdog.c    **** //            UART_UartPutChar(lsb2);
  38:watchdog.c    **** //            UART_UartPutChar(msb2);
  39:watchdog.c    **** //            
  40:watchdog.c    **** //            UART_UartPutChar(nvm_control);           
  41:watchdog.c    ****             
  42:watchdog.c    ****             uint16 guva = (uint16) adc_acquire_channel(3);
  80              		.loc 1 42 0
  81 0034 0320     		movs	r0, #3
  82 0036 FFF7FEFF 		bl	adc_acquire_channel
  83              	.LVL13:
  84 003a 0300     		movs	r3, r0
  85              	.LVL14:
  43:watchdog.c    ****             uint8 lsb3 = guva & 0xFF;
  86              		.loc 1 43 0
  87 003c C0B2     		uxtb	r0, r0
  88              	.LVL15:
  44:watchdog.c    ****             uint8 msb3 = guva >> 8;
  89              		.loc 1 44 0
  90 003e 1B0A     		lsrs	r3, r3, #8
  91 0040 DDB2     		uxtb	r5, r3
  92              	.LVL16:
  45:watchdog.c    ****             UART_UartPutChar(lsb3);
  93              		.loc 1 45 0
  94 0042 FFF7FEFF 		bl	UART_UartPutChar
  95              	.LVL17:
  46:watchdog.c    ****             UART_UartPutChar(msb3);
  96              		.loc 1 46 0
  97 0046 2800     		movs	r0, r5
  98 0048 FFF7FEFF 		bl	UART_UartPutChar
  99              	.LVL18:
  47:watchdog.c    ****             
  48:watchdog.c    **** //            system_sleep(); // Took Measurements, now going back into sleep mode.
  49:watchdog.c    **** //        }
  50:watchdog.c    ****         
  51:watchdog.c    ****         system_red_led_blink(); //Blink LED 
 100              		.loc 1 51 0
 101 004c FFF7FEFF 		bl	system_red_led_blink
 102              	.LVL19:
 103              	.L2:
 104              	.LBE2:
  52:watchdog.c    ****     }
  53:watchdog.c    ****     CySysWdtClearInterrupt(reason); //Clear the WDT Interrupt
 105              		.loc 1 53 0
 106 0050 2000     		movs	r0, r4
 107 0052 FFF7FEFF 		bl	CySysWdtClearInterrupt
 108              	.LVL20:
  54:watchdog.c    **** }
 109              		.loc 1 54 0
 110              		@ sp needed
 111              	.LVL21:
 112 0056 70BD     		pop	{r4, r5, r6, pc}
 113              		.cfi_endproc
 114              	.LFE63:
 115              		.size	WDT_ISR_Handler, .-WDT_ISR_Handler
 116              		.section	.text.update_timer0,"ax",%progbits
 117              		.align	2
ARM GAS  C:\Users\Intern\AppData\Local\Temp\cctX6C5T.s 			page 4


 118              		.global	update_timer0
 119              		.code	16
 120              		.thumb_func
 121              		.type	update_timer0, %function
 122              	update_timer0:
 123              	.LFB64:
  55:watchdog.c    **** 
  56:watchdog.c    **** void update_timer0(void)
  57:watchdog.c    **** {
 124              		.loc 1 57 0
 125              		.cfi_startproc
 126              		@ args = 0, pretend = 0, frame = 0
 127              		@ frame_needed = 0, uses_anonymous_args = 0
 128 0000 10B5     		push	{r4, lr}
 129              		.cfi_def_cfa_offset 8
 130              		.cfi_offset 4, -8
 131              		.cfi_offset 14, -4
  58:watchdog.c    ****     CySysWdtUnlock();
 132              		.loc 1 58 0
 133 0002 FFF7FEFF 		bl	CySysWdtUnlock
 134              	.LVL22:
  59:watchdog.c    ****     /* Update the WDT_MATCH counter with the current match value + desired match value */
  60:watchdog.c    ****     uint32 new_match_value0 = CySysWdtGetMatch(CY_SYS_WDT_COUNTER0) + 4096*wdt0_frequency;
 135              		.loc 1 60 0
 136 0006 0020     		movs	r0, #0
 137 0008 FFF7FEFF 		bl	CySysWdtGetMatch
 138              	.LVL23:
 139 000c 044B     		ldr	r3, .L4
 140 000e 1968     		ldr	r1, [r3]
 141 0010 0903     		lsls	r1, r1, #12
 142 0012 4118     		adds	r1, r0, r1
 143              	.LVL24:
  61:watchdog.c    ****     CySysWdtSetMatch(CY_SYS_WDT_COUNTER0, new_match_value0); //Updating the new match rate of the W
 144              		.loc 1 61 0
 145 0014 0020     		movs	r0, #0
 146 0016 FFF7FEFF 		bl	CySysWdtSetMatch
 147              	.LVL25:
  62:watchdog.c    ****     CySysWdtLock(); 
 148              		.loc 1 62 0
 149 001a FFF7FEFF 		bl	CySysWdtLock
 150              	.LVL26:
  63:watchdog.c    **** }
 151              		.loc 1 63 0
 152              		@ sp needed
 153 001e 10BD     		pop	{r4, pc}
 154              	.L5:
 155              		.align	2
 156              	.L4:
 157 0020 00000000 		.word	wdt0_frequency
 158              		.cfi_endproc
 159              	.LFE64:
 160              		.size	update_timer0, .-update_timer0
 161              		.section	.text.update_timer1,"ax",%progbits
 162              		.align	2
 163              		.global	update_timer1
 164              		.code	16
 165              		.thumb_func
ARM GAS  C:\Users\Intern\AppData\Local\Temp\cctX6C5T.s 			page 5


 166              		.type	update_timer1, %function
 167              	update_timer1:
 168              	.LFB65:
  64:watchdog.c    **** 
  65:watchdog.c    **** void update_timer1(void)
  66:watchdog.c    **** {
 169              		.loc 1 66 0
 170              		.cfi_startproc
 171              		@ args = 0, pretend = 0, frame = 0
 172              		@ frame_needed = 0, uses_anonymous_args = 0
 173 0000 10B5     		push	{r4, lr}
 174              		.cfi_def_cfa_offset 8
 175              		.cfi_offset 4, -8
 176              		.cfi_offset 14, -4
  67:watchdog.c    ****     CySysWdtUnlock();
 177              		.loc 1 67 0
 178 0002 FFF7FEFF 		bl	CySysWdtUnlock
 179              	.LVL27:
  68:watchdog.c    ****     /* Update the WDT_MATCH counter with the current match value + desired match value */
  69:watchdog.c    ****     uint32 new_match_value1 = CySysWdtGetMatch(CY_SYS_WDT_COUNTER1) + 4096*wdt1_frequency;
 180              		.loc 1 69 0
 181 0006 0120     		movs	r0, #1
 182 0008 FFF7FEFF 		bl	CySysWdtGetMatch
 183              	.LVL28:
 184 000c 044B     		ldr	r3, .L7
 185 000e 1968     		ldr	r1, [r3]
 186 0010 0903     		lsls	r1, r1, #12
 187 0012 4118     		adds	r1, r0, r1
 188              	.LVL29:
  70:watchdog.c    **** //    uint32 new_match_value1 = CySysWdtGetMatch(CY_SYS_WDT_COUNTER1) + 51625;
  71:watchdog.c    ****     CySysWdtSetMatch(CY_SYS_WDT_COUNTER1, new_match_value1); //Updating the new match rate of the W
 189              		.loc 1 71 0
 190 0014 0120     		movs	r0, #1
 191 0016 FFF7FEFF 		bl	CySysWdtSetMatch
 192              	.LVL30:
  72:watchdog.c    ****     CySysWdtLock();
 193              		.loc 1 72 0
 194 001a FFF7FEFF 		bl	CySysWdtLock
 195              	.LVL31:
  73:watchdog.c    **** }
 196              		.loc 1 73 0
 197              		@ sp needed
 198 001e 10BD     		pop	{r4, pc}
 199              	.L8:
 200              		.align	2
 201              	.L7:
 202 0020 00000000 		.word	wdt1_frequency
 203              		.cfi_endproc
 204              	.LFE65:
 205              		.size	update_timer1, .-update_timer1
 206              		.section	.text.watchdog_init,"ax",%progbits
 207              		.align	2
 208              		.global	watchdog_init
 209              		.code	16
 210              		.thumb_func
 211              		.type	watchdog_init, %function
 212              	watchdog_init:
ARM GAS  C:\Users\Intern\AppData\Local\Temp\cctX6C5T.s 			page 6


 213              	.LFB66:
  74:watchdog.c    **** 
  75:watchdog.c    **** void watchdog_init(void)
  76:watchdog.c    **** {
 214              		.loc 1 76 0
 215              		.cfi_startproc
 216              		@ args = 0, pretend = 0, frame = 0
 217              		@ frame_needed = 0, uses_anonymous_args = 0
 218 0000 10B5     		push	{r4, lr}
 219              		.cfi_def_cfa_offset 8
 220              		.cfi_offset 4, -8
 221              		.cfi_offset 14, -4
  77:watchdog.c    ****     WDT_ISR_StartEx(WDT_ISR_Handler);    
 222              		.loc 1 77 0
 223 0002 0248     		ldr	r0, .L10
 224 0004 FFF7FEFF 		bl	WDT_ISR_StartEx
 225              	.LVL32:
  78:watchdog.c    **** }
 226              		.loc 1 78 0
 227              		@ sp needed
 228 0008 10BD     		pop	{r4, pc}
 229              	.L11:
 230 000a C046     		.align	2
 231              	.L10:
 232 000c 00000000 		.word	WDT_ISR_Handler
 233              		.cfi_endproc
 234              	.LFE66:
 235              		.size	watchdog_init, .-watchdog_init
 236              		.section	.text.wdt1_enable,"ax",%progbits
 237              		.align	2
 238              		.global	wdt1_enable
 239              		.code	16
 240              		.thumb_func
 241              		.type	wdt1_enable, %function
 242              	wdt1_enable:
 243              	.LFB67:
  79:watchdog.c    **** 
  80:watchdog.c    **** void wdt1_enable(void)
  81:watchdog.c    **** {   
 244              		.loc 1 81 0
 245              		.cfi_startproc
 246              		@ args = 0, pretend = 0, frame = 0
 247              		@ frame_needed = 0, uses_anonymous_args = 0
 248 0000 10B5     		push	{r4, lr}
 249              		.cfi_def_cfa_offset 8
 250              		.cfi_offset 4, -8
 251              		.cfi_offset 14, -4
  82:watchdog.c    ****     CySysWdtUnlock(); 
 252              		.loc 1 82 0
 253 0002 FFF7FEFF 		bl	CySysWdtUnlock
 254              	.LVL33:
  83:watchdog.c    ****     CySysWdtEnable(CY_SYS_WDT_COUNTER1_MASK);
 255              		.loc 1 83 0
 256 0006 8020     		movs	r0, #128
 257 0008 4000     		lsls	r0, r0, #1
 258 000a FFF7FEFF 		bl	CySysWdtEnable
 259              	.LVL34:
ARM GAS  C:\Users\Intern\AppData\Local\Temp\cctX6C5T.s 			page 7


  84:watchdog.c    ****     CyDelay(1);
 260              		.loc 1 84 0
 261 000e 0120     		movs	r0, #1
 262 0010 FFF7FEFF 		bl	CyDelay
 263              	.LVL35:
  85:watchdog.c    ****     CySysWdtLock(); 
 264              		.loc 1 85 0
 265 0014 FFF7FEFF 		bl	CySysWdtLock
 266              	.LVL36:
  86:watchdog.c    **** }
 267              		.loc 1 86 0
 268              		@ sp needed
 269 0018 10BD     		pop	{r4, pc}
 270              		.cfi_endproc
 271              	.LFE67:
 272              		.size	wdt1_enable, .-wdt1_enable
 273 001a C046     		.section	.text.wdt2_enable,"ax",%progbits
 274              		.align	2
 275              		.global	wdt2_enable
 276              		.code	16
 277              		.thumb_func
 278              		.type	wdt2_enable, %function
 279              	wdt2_enable:
 280              	.LFB68:
  87:watchdog.c    **** 
  88:watchdog.c    **** void wdt2_enable(void)
  89:watchdog.c    **** {
 281              		.loc 1 89 0
 282              		.cfi_startproc
 283              		@ args = 0, pretend = 0, frame = 0
 284              		@ frame_needed = 0, uses_anonymous_args = 0
 285 0000 10B5     		push	{r4, lr}
 286              		.cfi_def_cfa_offset 8
 287              		.cfi_offset 4, -8
 288              		.cfi_offset 14, -4
  90:watchdog.c    ****     CySysWdtUnlock(); 
 289              		.loc 1 90 0
 290 0002 FFF7FEFF 		bl	CySysWdtUnlock
 291              	.LVL37:
  91:watchdog.c    ****     CySysWdtEnable(CY_SYS_WDT_COUNTER2_MASK);
 292              		.loc 1 91 0
 293 0006 8020     		movs	r0, #128
 294 0008 4002     		lsls	r0, r0, #9
 295 000a FFF7FEFF 		bl	CySysWdtEnable
 296              	.LVL38:
  92:watchdog.c    ****     CyDelay(1);
 297              		.loc 1 92 0
 298 000e 0120     		movs	r0, #1
 299 0010 FFF7FEFF 		bl	CyDelay
 300              	.LVL39:
  93:watchdog.c    ****     CySysWdtLock(); 
 301              		.loc 1 93 0
 302 0014 FFF7FEFF 		bl	CySysWdtLock
 303              	.LVL40:
  94:watchdog.c    **** }
 304              		.loc 1 94 0
 305              		@ sp needed
ARM GAS  C:\Users\Intern\AppData\Local\Temp\cctX6C5T.s 			page 8


 306 0018 10BD     		pop	{r4, pc}
 307              		.cfi_endproc
 308              	.LFE68:
 309              		.size	wdt2_enable, .-wdt2_enable
 310 001a C046     		.section	.text.wdt1_disable,"ax",%progbits
 311              		.align	2
 312              		.global	wdt1_disable
 313              		.code	16
 314              		.thumb_func
 315              		.type	wdt1_disable, %function
 316              	wdt1_disable:
 317              	.LFB69:
  95:watchdog.c    **** 
  96:watchdog.c    **** void wdt1_disable(void)
  97:watchdog.c    **** {   
 318              		.loc 1 97 0
 319              		.cfi_startproc
 320              		@ args = 0, pretend = 0, frame = 0
 321              		@ frame_needed = 0, uses_anonymous_args = 0
 322 0000 10B5     		push	{r4, lr}
 323              		.cfi_def_cfa_offset 8
 324              		.cfi_offset 4, -8
 325              		.cfi_offset 14, -4
  98:watchdog.c    ****     CySysWdtUnlock(); 
 326              		.loc 1 98 0
 327 0002 FFF7FEFF 		bl	CySysWdtUnlock
 328              	.LVL41:
  99:watchdog.c    ****     CySysWdtDisable(CY_SYS_WDT_COUNTER1_MASK);
 329              		.loc 1 99 0
 330 0006 8020     		movs	r0, #128
 331 0008 4000     		lsls	r0, r0, #1
 332 000a FFF7FEFF 		bl	CySysWdtDisable
 333              	.LVL42:
 100:watchdog.c    ****     CyDelay(1);
 334              		.loc 1 100 0
 335 000e 0120     		movs	r0, #1
 336 0010 FFF7FEFF 		bl	CyDelay
 337              	.LVL43:
 101:watchdog.c    ****     CySysWdtLock(); 
 338              		.loc 1 101 0
 339 0014 FFF7FEFF 		bl	CySysWdtLock
 340              	.LVL44:
 102:watchdog.c    **** }
 341              		.loc 1 102 0
 342              		@ sp needed
 343 0018 10BD     		pop	{r4, pc}
 344              		.cfi_endproc
 345              	.LFE69:
 346              		.size	wdt1_disable, .-wdt1_disable
 347 001a C046     		.section	.text.wdt2_disable,"ax",%progbits
 348              		.align	2
 349              		.global	wdt2_disable
 350              		.code	16
 351              		.thumb_func
 352              		.type	wdt2_disable, %function
 353              	wdt2_disable:
 354              	.LFB70:
ARM GAS  C:\Users\Intern\AppData\Local\Temp\cctX6C5T.s 			page 9


 103:watchdog.c    **** 
 104:watchdog.c    **** void wdt2_disable(void)
 105:watchdog.c    **** {   
 355              		.loc 1 105 0
 356              		.cfi_startproc
 357              		@ args = 0, pretend = 0, frame = 0
 358              		@ frame_needed = 0, uses_anonymous_args = 0
 359 0000 10B5     		push	{r4, lr}
 360              		.cfi_def_cfa_offset 8
 361              		.cfi_offset 4, -8
 362              		.cfi_offset 14, -4
 106:watchdog.c    ****     CySysWdtUnlock(); 
 363              		.loc 1 106 0
 364 0002 FFF7FEFF 		bl	CySysWdtUnlock
 365              	.LVL45:
 107:watchdog.c    ****     CySysWdtDisable(CY_SYS_WDT_COUNTER2_MASK);
 366              		.loc 1 107 0
 367 0006 8020     		movs	r0, #128
 368 0008 4002     		lsls	r0, r0, #9
 369 000a FFF7FEFF 		bl	CySysWdtDisable
 370              	.LVL46:
 108:watchdog.c    ****     CyDelay(1);
 371              		.loc 1 108 0
 372 000e 0120     		movs	r0, #1
 373 0010 FFF7FEFF 		bl	CyDelay
 374              	.LVL47:
 109:watchdog.c    ****     CySysWdtLock(); 
 375              		.loc 1 109 0
 376 0014 FFF7FEFF 		bl	CySysWdtLock
 377              	.LVL48:
 110:watchdog.c    **** }
 378              		.loc 1 110 0
 379              		@ sp needed
 380 0018 10BD     		pop	{r4, pc}
 381              		.cfi_endproc
 382              	.LFE70:
 383              		.size	wdt2_disable, .-wdt2_disable
 384 001a C046     		.section	.text.watchdog_enable,"ax",%progbits
 385              		.align	2
 386              		.global	watchdog_enable
 387              		.code	16
 388              		.thumb_func
 389              		.type	watchdog_enable, %function
 390              	watchdog_enable:
 391              	.LFB71:
 111:watchdog.c    **** 
 112:watchdog.c    **** void watchdog_enable(void)
 113:watchdog.c    **** {
 392              		.loc 1 113 0
 393              		.cfi_startproc
 394              		@ args = 0, pretend = 0, frame = 0
 395              		@ frame_needed = 0, uses_anonymous_args = 0
 396 0000 10B5     		push	{r4, lr}
 397              		.cfi_def_cfa_offset 8
 398              		.cfi_offset 4, -8
 399              		.cfi_offset 14, -4
 114:watchdog.c    ****     /* Unlock the WDT registers for modification */
ARM GAS  C:\Users\Intern\AppData\Local\Temp\cctX6C5T.s 			page 10


 115:watchdog.c    ****     CySysWdtUnlock(); 
 400              		.loc 1 115 0
 401 0002 FFF7FEFF 		bl	CySysWdtUnlock
 402              	.LVL49:
 116:watchdog.c    ****     /* Enable the specified WDT counter */
 117:watchdog.c    ****     //CySysWdtEnable(CY_SYS_WDT_COUNTER0_MASK);
 118:watchdog.c    **** //    CySysWdtEnable(CY_SYS_WDT_COUNTER1_MASK);
 119:watchdog.c    ****     CySysWdtEnable(CY_SYS_WDT_COUNTER2_MASK);
 403              		.loc 1 119 0
 404 0006 8020     		movs	r0, #128
 405 0008 4002     		lsls	r0, r0, #9
 406 000a FFF7FEFF 		bl	CySysWdtEnable
 407              	.LVL50:
 120:watchdog.c    **** //    CySysWdtEnable(CY_SYS_WDT_COUNTER0_MASK | CY_SYS_WDT_COUNTER1_MASK); // used to cascade timer
 121:watchdog.c    **** //    CySysWdtEnable(CY_SYS_WDT_COUNTER1_MASK | CY_SYS_WDT_COUNTER2_MASK); // used to cascade timer
 122:watchdog.c    **** 
 123:watchdog.c    ****     //    /* check if counter 1 is enabled, otherwise keep looping here */
 124:watchdog.c    **** //    while(!CySysWdtReadEnabledStatus(CY_SYS_WDT_COUNTER1));
 125:watchdog.c    **** //    /* check if counter 2 is enabled, otherwise keep looping here */
 126:watchdog.c    **** //    while(!CySysWdtReadEnabledStatus(CY_SYS_WDT_COUNTER2));
 127:watchdog.c    ****         
 128:watchdog.c    ****     /* Locks out configuration changes to the Watchdog timer registers */
 129:watchdog.c    ****     CySysWdtLock(); 
 408              		.loc 1 129 0
 409 000e FFF7FEFF 		bl	CySysWdtLock
 410              	.LVL51:
 130:watchdog.c    **** }
 411              		.loc 1 130 0
 412              		@ sp needed
 413 0012 10BD     		pop	{r4, pc}
 414              		.cfi_endproc
 415              	.LFE71:
 416              		.size	watchdog_enable, .-watchdog_enable
 417              		.section	.text.watchdog_disable,"ax",%progbits
 418              		.align	2
 419              		.global	watchdog_disable
 420              		.code	16
 421              		.thumb_func
 422              		.type	watchdog_disable, %function
 423              	watchdog_disable:
 424              	.LFB72:
 131:watchdog.c    **** 
 132:watchdog.c    **** void watchdog_disable(void)
 133:watchdog.c    **** {
 425              		.loc 1 133 0
 426              		.cfi_startproc
 427              		@ args = 0, pretend = 0, frame = 0
 428              		@ frame_needed = 0, uses_anonymous_args = 0
 429 0000 10B5     		push	{r4, lr}
 430              		.cfi_def_cfa_offset 8
 431              		.cfi_offset 4, -8
 432              		.cfi_offset 14, -4
 134:watchdog.c    ****     /* Unlock the WDT registers for modification */
 135:watchdog.c    ****     CySysWdtUnlock(); 
 433              		.loc 1 135 0
 434 0002 FFF7FEFF 		bl	CySysWdtUnlock
 435              	.LVL52:
ARM GAS  C:\Users\Intern\AppData\Local\Temp\cctX6C5T.s 			page 11


 136:watchdog.c    ****     /* Disable the specified WDT counter */
 137:watchdog.c    **** //    CySysWdtDisable(CY_SYS_WDT_COUNTER0_MASK);  // Disabling Counter #0
 138:watchdog.c    ****     CySysWdtDisable(CY_SYS_WDT_COUNTER1_MASK);  // Disabling Counter #1
 436              		.loc 1 138 0
 437 0006 8020     		movs	r0, #128
 438 0008 4000     		lsls	r0, r0, #1
 439 000a FFF7FEFF 		bl	CySysWdtDisable
 440              	.LVL53:
 139:watchdog.c    ****     CySysWdtDisable(CY_SYS_WDT_COUNTER2_MASK);  // Disabling Counter #2
 441              		.loc 1 139 0
 442 000e 8020     		movs	r0, #128
 443 0010 4002     		lsls	r0, r0, #9
 444 0012 FFF7FEFF 		bl	CySysWdtDisable
 445              	.LVL54:
 140:watchdog.c    ****     /* Locks out configuration changes to the Watchdog timer registers */
 141:watchdog.c    ****     CySysWdtLock(); 
 446              		.loc 1 141 0
 447 0016 FFF7FEFF 		bl	CySysWdtLock
 448              	.LVL55:
 142:watchdog.c    **** }
 449              		.loc 1 142 0
 450              		@ sp needed
 451 001a 10BD     		pop	{r4, pc}
 452              		.cfi_endproc
 453              	.LFE72:
 454              		.size	watchdog_disable, .-watchdog_disable
 455              		.section	.text.watchdog_setup,"ax",%progbits
 456              		.align	2
 457              		.global	watchdog_setup
 458              		.code	16
 459              		.thumb_func
 460              		.type	watchdog_setup, %function
 461              	watchdog_setup:
 462              	.LFB74:
 143:watchdog.c    **** 
 144:watchdog.c    **** void watchdog_start(void)
 145:watchdog.c    **** {
 146:watchdog.c    ****     watchdog_init(); //Initializing the Watchdog Timer
 147:watchdog.c    ****     watchdog_setup(); //Setuping the Watchdog Timer
 148:watchdog.c    ****     watchdog_enable(); //Enabling the Watchdog Timer
 149:watchdog.c    **** }
 150:watchdog.c    **** 
 151:watchdog.c    **** /* Setup the Watchdog Timer Configuration */
 152:watchdog.c    **** void watchdog_setup(void)
 153:watchdog.c    **** {     
 463              		.loc 1 153 0
 464              		.cfi_startproc
 465              		@ args = 0, pretend = 0, frame = 0
 466              		@ frame_needed = 0, uses_anonymous_args = 0
 467 0000 10B5     		push	{r4, lr}
 468              		.cfi_def_cfa_offset 8
 469              		.cfi_offset 4, -8
 470              		.cfi_offset 14, -4
 154:watchdog.c    **** //    CySysWdtClearInterrupt(CY_SYS_WDT_COUNTER0); // Clear WDT 0 interrupt
 155:watchdog.c    **** //    CySysWdtClearInterrupt(CY_SYS_WDT_COUNTER1); // Clear WDT 1 interrupt
 156:watchdog.c    ****     CySysWdtClearInterrupt(CY_SYS_WDT_COUNTER2); // Clear WDT 2 interrupt
 471              		.loc 1 156 0
ARM GAS  C:\Users\Intern\AppData\Local\Temp\cctX6C5T.s 			page 12


 472 0002 0220     		movs	r0, #2
 473 0004 FFF7FEFF 		bl	CySysWdtClearInterrupt
 474              	.LVL56:
 157:watchdog.c    ****     
 158:watchdog.c    ****     CySysWdtUnlock(); // Enable modification of the WDT Timers
 475              		.loc 1 158 0
 476 0008 FFF7FEFF 		bl	CySysWdtUnlock
 477              	.LVL57:
 159:watchdog.c    ****     
 160:watchdog.c    ****     //system_enable_wco(); //Enable WCO Crystal Oscillator
 161:watchdog.c    ****     //CySysClkSetLfclkSource(CY_SYS_CLK_LFCLK_SRC_WCO); // Setting Low-Frequency Clock to 32.768 kH
 162:watchdog.c    ****     //CySysClkWcoSetPowerMode(CY_SYS_CLK_WCO_LPM); // Settting the WCO to low power mode 
 163:watchdog.c    ****     //CySysClkIloStop(); // Disabling the ILO since we are using the ILO
 164:watchdog.c    ****     
 165:watchdog.c    ****     // Turn off the WDTs (all three of them)
 166:watchdog.c    **** //    CySysWdtDisable(CY_SYS_WDT_COUNTER0_MASK); 
 167:watchdog.c    **** //    CySysWdtDisable(CY_SYS_WDT_COUNTER1_MASK);
 168:watchdog.c    ****     CySysWdtDisable(CY_SYS_WDT_COUNTER2_MASK);
 478              		.loc 1 168 0
 479 000c 8020     		movs	r0, #128
 480 000e 4002     		lsls	r0, r0, #9
 481 0010 FFF7FEFF 		bl	CySysWdtDisable
 482              	.LVL58:
 169:watchdog.c    ****     
 170:watchdog.c    ****     CyDelay(1); // Waiting for the system to disable the counters and wait for them to stop
 483              		.loc 1 170 0
 484 0014 0120     		movs	r0, #1
 485 0016 FFF7FEFF 		bl	CyDelay
 486              	.LVL59:
 171:watchdog.c    ****     
 172:watchdog.c    **** //    CySysWdtSetMode(CY_SYS_WDT_COUNTER0,CY_SYS_WDT_MODE_INT); // Make Timer 0 cause an interrupt 
 173:watchdog.c    **** //    uint32 match_rate0 = wdt0_frequency * 4096; // Setting Match rate for the period of WDT #0 ba
 174:watchdog.c    **** //    CySysWdtSetMatch(CY_SYS_WDT_COUNTER0, match_rate0);  // Setting the Match Rate counter of Tim
 175:watchdog.c    **** //
 176:watchdog.c    **** //    CySysWdtSetCascade(CY_SYS_WDT_CASCADE_01);  // Setting the cascade to trigger both Timer 1 an
 177:watchdog.c    ****     
 178:watchdog.c    **** //    CySysWdtSetMode(CY_SYS_WDT_COUNTER1,CY_SYS_WDT_MODE_INT); // Make Timer 1 cause an interrupt 
 179:watchdog.c    **** //    uint32 match_rate1 = wdt1_frequency * 4096; // Setting Match rate for the period of WDT #1 ba
 180:watchdog.c    **** //    CySysWdtSetMatch(CY_SYS_WDT_COUNTER1, match_rate1);  // Setting the Match Rate counter of Tim
 181:watchdog.c    ****     
 182:watchdog.c    ****     //CySysWdtSetCascade(CY_SYS_WDT_CASCADE_12);  // Setting the cascade to trigger both Timer 1 an
 183:watchdog.c    ****     
 184:watchdog.c    ****     CySysWdtSetMode(CY_SYS_WDT_COUNTER2,CY_SYS_WDT_MODE_INT); // Make Timer 2 cause an interrupt on
 487              		.loc 1 184 0
 488 001a 0121     		movs	r1, #1
 489 001c 0220     		movs	r0, #2
 490 001e FFF7FEFF 		bl	CySysWdtSetMode
 491              	.LVL60:
 185:watchdog.c    ****     CySysWdtSetToggleBit(timer2_toggle);   //   When the bit toggles, an interrupt is generated
 492              		.loc 1 185 0
 493 0022 034B     		ldr	r3, .L19
 494 0024 1868     		ldr	r0, [r3]
 495 0026 FFF7FEFF 		bl	CySysWdtSetToggleBit
 496              	.LVL61:
 186:watchdog.c    ****     
 187:watchdog.c    ****     CySysWdtLock(); // Disable modification of the WDT Timers 
 497              		.loc 1 187 0
ARM GAS  C:\Users\Intern\AppData\Local\Temp\cctX6C5T.s 			page 13


 498 002a FFF7FEFF 		bl	CySysWdtLock
 499              	.LVL62:
 188:watchdog.c    **** }
 500              		.loc 1 188 0
 501              		@ sp needed
 502 002e 10BD     		pop	{r4, pc}
 503              	.L20:
 504              		.align	2
 505              	.L19:
 506 0030 00000000 		.word	timer2_toggle
 507              		.cfi_endproc
 508              	.LFE74:
 509              		.size	watchdog_setup, .-watchdog_setup
 510              		.section	.text.watchdog_start,"ax",%progbits
 511              		.align	2
 512              		.global	watchdog_start
 513              		.code	16
 514              		.thumb_func
 515              		.type	watchdog_start, %function
 516              	watchdog_start:
 517              	.LFB73:
 145:watchdog.c    ****     watchdog_init(); //Initializing the Watchdog Timer
 518              		.loc 1 145 0
 519              		.cfi_startproc
 520              		@ args = 0, pretend = 0, frame = 0
 521              		@ frame_needed = 0, uses_anonymous_args = 0
 522 0000 10B5     		push	{r4, lr}
 523              		.cfi_def_cfa_offset 8
 524              		.cfi_offset 4, -8
 525              		.cfi_offset 14, -4
 146:watchdog.c    ****     watchdog_setup(); //Setuping the Watchdog Timer
 526              		.loc 1 146 0
 527 0002 FFF7FEFF 		bl	watchdog_init
 528              	.LVL63:
 147:watchdog.c    ****     watchdog_enable(); //Enabling the Watchdog Timer
 529              		.loc 1 147 0
 530 0006 FFF7FEFF 		bl	watchdog_setup
 531              	.LVL64:
 148:watchdog.c    **** }
 532              		.loc 1 148 0
 533 000a FFF7FEFF 		bl	watchdog_enable
 534              	.LVL65:
 149:watchdog.c    **** 
 535              		.loc 1 149 0
 536              		@ sp needed
 537 000e 10BD     		pop	{r4, pc}
 538              		.cfi_endproc
 539              	.LFE73:
 540              		.size	watchdog_start, .-watchdog_start
 541              		.comm	guvb_c31sm_address,4,4
 542              		.comm	BLE_Connection_Handle,2,4
 543              		.text
 544              	.Letext0:
 545              		.file 2 "Generated_Source\\PSoC4/cytypes.h"
 546              		.file 3 "Generated_Source\\PSoC4/BLE_StackGatt.h"
 547              		.file 4 "Generated_Source\\PSoC4/RTC.h"
 548              		.file 5 "system.h"
ARM GAS  C:\Users\Intern\AppData\Local\Temp\cctX6C5T.s 			page 14


 549              		.file 6 "bluetooth.h"
 550              		.file 7 "guvb_c31sm.h"
 551              		.file 8 "Generated_Source\\PSoC4/CyLib.h"
 552              		.file 9 "Generated_Source\\PSoC4/CyLFClk.h"
 553              		.file 10 "Generated_Source\\PSoC4/WDT_ISR.h"
 554              		.file 11 "Generated_Source\\PSoC4/BLE_Stack.h"