ARM GAS  C:\Users\Intern\AppData\Local\Temp\cc8xw9iJ.s 			page 1


   1              		.syntax unified
   2              		.cpu cortex-m0
   3              		.fpu softvfp
   4              		.eabi_attribute 20, 1
   5              		.eabi_attribute 21, 1
   6              		.eabi_attribute 23, 3
   7              		.eabi_attribute 24, 1
   8              		.eabi_attribute 25, 1
   9              		.eabi_attribute 26, 1
  10              		.eabi_attribute 30, 6
  11              		.eabi_attribute 34, 0
  12              		.eabi_attribute 18, 4
  13              		.thumb
  14              		.syntax unified
  15              		.file	"BLE_eventHandler.c"
  16              		.text
  17              	.Ltext0:
  18              		.cfi_sections	.debug_frame
  19              		.comm	cyBle_connHandle,2,4
  20              		.comm	cyBle_eventHandlerFlag,1,1
  21              		.comm	cyBle_busyStatus,1,1
  22              		.global	cyBle_gaps
  23              		.section	.rodata
  24              		.align	2
  25              		.type	cyBle_gaps, %object
  26              		.size	cyBle_gaps, 12
  27              	cyBle_gaps:
  28 0000 0100     		.short	1
  29 0002 0300     		.short	3
  30 0004 0500     		.short	5
  31 0006 0700     		.short	7
  32 0008 0000     		.short	0
  33 000a 0000     		.short	0
  34              		.comm	cyBle_advertisingIntervalType,1,1
  35              		.global	cyBle_authInfo
  36              		.data
  37              		.align	2
  38              		.type	cyBle_authInfo, %object
  39              		.size	cyBle_authInfo, 5
  40              	cyBle_authInfo:
  41 0000 11       		.byte	17
  42 0001 00       		.byte	0
  43 0002 10       		.byte	16
  44 0003 00       		.byte	0
  45 0004 00       		.byte	0
  46              		.section	.text.CyBle_WriteReqHandler,"ax",%progbits
  47              		.align	2
  48              		.code	16
  49              		.thumb_func
  50              		.type	CyBle_WriteReqHandler, %function
  51              	CyBle_WriteReqHandler:
  52              	.LFB2:
  53              		.file 1 "Generated_Source\\PSoC4\\BLE_eventHandler.c"
   1:Generated_Source\PSoC4/BLE_eventHandler.c **** /***************************************************************************//**
   2:Generated_Source\PSoC4/BLE_eventHandler.c **** * \file CYBLE_eventHandler.c
   3:Generated_Source\PSoC4/BLE_eventHandler.c **** * \version 3.30
   4:Generated_Source\PSoC4/BLE_eventHandler.c **** * 
ARM GAS  C:\Users\Intern\AppData\Local\Temp\cc8xw9iJ.s 			page 2


   5:Generated_Source\PSoC4/BLE_eventHandler.c **** * \brief
   6:Generated_Source\PSoC4/BLE_eventHandler.c **** *  This file contains the source code for the Event Handler State Machine
   7:Generated_Source\PSoC4/BLE_eventHandler.c **** *  of the BLE Component.
   8:Generated_Source\PSoC4/BLE_eventHandler.c **** * 
   9:Generated_Source\PSoC4/BLE_eventHandler.c **** ********************************************************************************
  10:Generated_Source\PSoC4/BLE_eventHandler.c **** * \copyright
  11:Generated_Source\PSoC4/BLE_eventHandler.c **** * Copyright 2014-2016, Cypress Semiconductor Corporation.  All rights reserved.
  12:Generated_Source\PSoC4/BLE_eventHandler.c **** * You may use this file only in accordance with the license, terms, conditions,
  13:Generated_Source\PSoC4/BLE_eventHandler.c **** * disclaimers, and limitations in the end user license agreement accompanying
  14:Generated_Source\PSoC4/BLE_eventHandler.c **** * the software package with which this file was provided.
  15:Generated_Source\PSoC4/BLE_eventHandler.c **** *******************************************************************************/
  16:Generated_Source\PSoC4/BLE_eventHandler.c **** 
  17:Generated_Source\PSoC4/BLE_eventHandler.c **** #include "BLE_eventHandler.h"
  18:Generated_Source\PSoC4/BLE_eventHandler.c **** 
  19:Generated_Source\PSoC4/BLE_eventHandler.c **** 
  20:Generated_Source\PSoC4/BLE_eventHandler.c **** /***************************************
  21:Generated_Source\PSoC4/BLE_eventHandler.c **** * Private Function Prototypes
  22:Generated_Source\PSoC4/BLE_eventHandler.c **** ***************************************/
  23:Generated_Source\PSoC4/BLE_eventHandler.c **** 
  24:Generated_Source\PSoC4/BLE_eventHandler.c **** static void CyBle_GattDisconnectEventHandler(void);
  25:Generated_Source\PSoC4/BLE_eventHandler.c **** static void CyBle_TimeOutEventHandler(const CYBLE_TO_REASON_CODE_T *eventParam);
  26:Generated_Source\PSoC4/BLE_eventHandler.c **** static void CyBle_GattConnectReqHandler(void);
  27:Generated_Source\PSoC4/BLE_eventHandler.c **** static void CyBle_L2Cap_ConnParamUpdateRspEventHandler(uint16 response);
  28:Generated_Source\PSoC4/BLE_eventHandler.c **** static void CyBle_GapConnUpdateCompleteEventHandler(const CYBLE_GAP_CONN_PARAM_UPDATED_IN_CONTROLLE
  29:Generated_Source\PSoC4/BLE_eventHandler.c **** 
  30:Generated_Source\PSoC4/BLE_eventHandler.c **** 
  31:Generated_Source\PSoC4/BLE_eventHandler.c **** #if (CYBLE_GATT_ROLE_SERVER)
  32:Generated_Source\PSoC4/BLE_eventHandler.c **** 
  33:Generated_Source\PSoC4/BLE_eventHandler.c **** static void CyBle_WriteReqHandler(CYBLE_GATTS_WRITE_REQ_PARAM_T *eventParam);
  34:Generated_Source\PSoC4/BLE_eventHandler.c **** static void CyBle_ValueConfirmation(const CYBLE_CONN_HANDLE_T *eventParam);
  35:Generated_Source\PSoC4/BLE_eventHandler.c **** 
  36:Generated_Source\PSoC4/BLE_eventHandler.c **** #endif /* CYBLE_GATT_ROLE_SERVER */
  37:Generated_Source\PSoC4/BLE_eventHandler.c **** 
  38:Generated_Source\PSoC4/BLE_eventHandler.c **** #if (CYBLE_GATT_ROLE_CLIENT)
  39:Generated_Source\PSoC4/BLE_eventHandler.c **** 
  40:Generated_Source\PSoC4/BLE_eventHandler.c **** static void CyBle_GapcDiscoverCharacteristicsEventHandler(CYBLE_DISC_CHAR_INFO_T *discCharInfo);
  41:Generated_Source\PSoC4/BLE_eventHandler.c **** static CYBLE_GATT_ATTR_HANDLE_RANGE_T CyBle_GetCharRange(void);
  42:Generated_Source\PSoC4/BLE_eventHandler.c **** static void CyBle_GattcWriteResponseEventHandler(const CYBLE_CONN_HANDLE_T *eventParam);
  43:Generated_Source\PSoC4/BLE_eventHandler.c **** static void CyBle_NotificationEventHandler(CYBLE_GATTC_HANDLE_VALUE_NTF_PARAM_T *eventParam);
  44:Generated_Source\PSoC4/BLE_eventHandler.c **** static void CyBle_IndicationEventHandler(CYBLE_GATTC_HANDLE_VALUE_IND_PARAM_T *eventParam);
  45:Generated_Source\PSoC4/BLE_eventHandler.c **** static void CyBle_ReadResponseEventHandler(CYBLE_GATTC_READ_RSP_PARAM_T *eventParam);
  46:Generated_Source\PSoC4/BLE_eventHandler.c **** static void CyBle_ReadMultipleResponseEventHandler(CYBLE_GATTC_READ_RSP_PARAM_T *eventParam);
  47:Generated_Source\PSoC4/BLE_eventHandler.c **** 
  48:Generated_Source\PSoC4/BLE_eventHandler.c **** #endif /* CYBLE_GATT_ROLE_CLIENT */
  49:Generated_Source\PSoC4/BLE_eventHandler.c **** 
  50:Generated_Source\PSoC4/BLE_eventHandler.c **** 
  51:Generated_Source\PSoC4/BLE_eventHandler.c **** /***************************************
  52:Generated_Source\PSoC4/BLE_eventHandler.c **** * Global Variables
  53:Generated_Source\PSoC4/BLE_eventHandler.c **** ***************************************/
  54:Generated_Source\PSoC4/BLE_eventHandler.c **** 
  55:Generated_Source\PSoC4/BLE_eventHandler.c **** /* This global variable is initialized after connection with peer device, 
  56:Generated_Source\PSoC4/BLE_eventHandler.c ****    after CYBLE_EVT_GATT_CONNECT_IND event, and could be used by application code
  57:Generated_Source\PSoC4/BLE_eventHandler.c ****    to send data to peer device. 
  58:Generated_Source\PSoC4/BLE_eventHandler.c **** */
  59:Generated_Source\PSoC4/BLE_eventHandler.c **** CYBLE_CONN_HANDLE_T cyBle_connHandle;
  60:Generated_Source\PSoC4/BLE_eventHandler.c **** 
  61:Generated_Source\PSoC4/BLE_eventHandler.c **** volatile uint8 cyBle_eventHandlerFlag;
ARM GAS  C:\Users\Intern\AppData\Local\Temp\cc8xw9iJ.s 			page 3


  62:Generated_Source\PSoC4/BLE_eventHandler.c **** volatile uint8 cyBle_busyStatus;
  63:Generated_Source\PSoC4/BLE_eventHandler.c **** 
  64:Generated_Source\PSoC4/BLE_eventHandler.c **** const CYBLE_GAPS_T cyBle_gaps =
  65:Generated_Source\PSoC4/BLE_eventHandler.c **** {
  66:Generated_Source\PSoC4/BLE_eventHandler.c ****     0x0001u,    /* Handle of the GAP service */
  67:Generated_Source\PSoC4/BLE_eventHandler.c ****     0x0003u,    /* Handle of the Device Name characteristic */
  68:Generated_Source\PSoC4/BLE_eventHandler.c ****     0x0005u,    /* Handle of the Appearance characteristic */
  69:Generated_Source\PSoC4/BLE_eventHandler.c ****     0x0007u,    /* Handle of the Peripheral Preferred Connection Parameters characteristic */
  70:Generated_Source\PSoC4/BLE_eventHandler.c ****     CYBLE_GATT_INVALID_ATTR_HANDLE_VALUE, /* Handle of the Central Address Resolution characteristi
  71:Generated_Source\PSoC4/BLE_eventHandler.c ****     CYBLE_GATT_INVALID_ATTR_HANDLE_VALUE, /* Handle of the Resolvable Private Address Only characte
  72:Generated_Source\PSoC4/BLE_eventHandler.c **** };
  73:Generated_Source\PSoC4/BLE_eventHandler.c **** 
  74:Generated_Source\PSoC4/BLE_eventHandler.c **** 
  75:Generated_Source\PSoC4/BLE_eventHandler.c **** #if(CYBLE_GAP_ROLE_PERIPHERAL || CYBLE_GAP_ROLE_BROADCASTER) 
  76:Generated_Source\PSoC4/BLE_eventHandler.c ****     uint8 cyBle_advertisingIntervalType;
  77:Generated_Source\PSoC4/BLE_eventHandler.c **** #endif /* CYBLE_GAP_ROLE_PERIPHERAL || CYBLE_GAP_ROLE_BROADCASTER) */
  78:Generated_Source\PSoC4/BLE_eventHandler.c **** 
  79:Generated_Source\PSoC4/BLE_eventHandler.c **** #if(CYBLE_GAP_ROLE_CENTRAL || CYBLE_GAP_ROLE_OBSERVER) 
  80:Generated_Source\PSoC4/BLE_eventHandler.c ****     uint8 cyBle_scanningIntervalType;
  81:Generated_Source\PSoC4/BLE_eventHandler.c **** #endif /* CYBLE_GAP_ROLE_CENTRAL || CYBLE_GAP_ROLE_OBSERVER */
  82:Generated_Source\PSoC4/BLE_eventHandler.c **** 
  83:Generated_Source\PSoC4/BLE_eventHandler.c **** #if(CYBLE_GATT_ROLE_SERVER)
  84:Generated_Source\PSoC4/BLE_eventHandler.c **** #if defined CYBLE_CTS_SERVER || defined CYBLE_ESS_SERVER
  85:Generated_Source\PSoC4/BLE_eventHandler.c **** CYBLE_GATT_ERR_CODE_T cyBle_gattError;
  86:Generated_Source\PSoC4/BLE_eventHandler.c **** #endif /* defined CYBLE_CTS_SERVER || defined CYBLE_ESS_SERVER */
  87:Generated_Source\PSoC4/BLE_eventHandler.c **** #endif /* CYBLE_GATT_ROLE_SERVER */
  88:Generated_Source\PSoC4/BLE_eventHandler.c **** 
  89:Generated_Source\PSoC4/BLE_eventHandler.c **** #if(CYBLE_GATT_ROLE_CLIENT)
  90:Generated_Source\PSoC4/BLE_eventHandler.c **** uint8 cyBle_disCount; /* Counter for discovery procedures */
  91:Generated_Source\PSoC4/BLE_eventHandler.c **** 
  92:Generated_Source\PSoC4/BLE_eventHandler.c **** #ifdef CYBLE_CUSTOM_CLIENT
  93:Generated_Source\PSoC4/BLE_eventHandler.c **** /* Discovery included service information, used for 128-bit UUID read response handle 
  94:Generated_Source\PSoC4/BLE_eventHandler.c ****    and for continue discovery. 
  95:Generated_Source\PSoC4/BLE_eventHandler.c **** */
  96:Generated_Source\PSoC4/BLE_eventHandler.c **** static CYBLE_DISC_INCL_INFO_T cyBle_discInclInfo;
  97:Generated_Source\PSoC4/BLE_eventHandler.c **** #endif /* CYBLE_CUSTOM_CLIENT */
  98:Generated_Source\PSoC4/BLE_eventHandler.c **** 
  99:Generated_Source\PSoC4/BLE_eventHandler.c **** #ifdef CYBLE_HIDS_CLIENT
 100:Generated_Source\PSoC4/BLE_eventHandler.c ****     static uint8 disServiceIndex;      /* To discovery descriptors for multiple HID service instanc
 101:Generated_Source\PSoC4/BLE_eventHandler.c **** #endif /* CYBLE_HIDS_CLIENT */
 102:Generated_Source\PSoC4/BLE_eventHandler.c **** 
 103:Generated_Source\PSoC4/BLE_eventHandler.c **** CYBLE_DISC_SRVC_INFO_T cyBle_serverInfo[CYBLE_SRVI_COUNT] = /*5*/
 104:Generated_Source\PSoC4/BLE_eventHandler.c **** {
 105:Generated_Source\PSoC4/BLE_eventHandler.c ****     {{CYBLE_GATT_INVALID_ATTR_HANDLE_VALUE, CYBLE_GATT_INVALID_ATTR_HANDLE_VALUE}, CYBLE_UUID_GAP_S
 106:Generated_Source\PSoC4/BLE_eventHandler.c ****     {{CYBLE_GATT_INVALID_ATTR_HANDLE_VALUE, CYBLE_GATT_INVALID_ATTR_HANDLE_VALUE}, CYBLE_UUID_GATT_
 107:Generated_Source\PSoC4/BLE_eventHandler.c **** #ifdef CYBLE_AIOS_CLIENT
 108:Generated_Source\PSoC4/BLE_eventHandler.c ****     {{CYBLE_GATT_INVALID_ATTR_HANDLE_VALUE, CYBLE_GATT_INVALID_ATTR_HANDLE_VALUE}, CYBLE_UUID_AUTOM
 109:Generated_Source\PSoC4/BLE_eventHandler.c **** #endif /* CYBLE_BCS_CLIENT */
 110:Generated_Source\PSoC4/BLE_eventHandler.c **** #ifdef CYBLE_ANCS_CLIENT
 111:Generated_Source\PSoC4/BLE_eventHandler.c ****     {{CYBLE_GATT_INVALID_ATTR_HANDLE_VALUE, CYBLE_GATT_INVALID_ATTR_HANDLE_VALUE}, 0x0000u},
 112:Generated_Source\PSoC4/BLE_eventHandler.c **** #endif /* CYBLE_ANCS_CLIENT */
 113:Generated_Source\PSoC4/BLE_eventHandler.c **** #ifdef CYBLE_ANS_CLIENT
 114:Generated_Source\PSoC4/BLE_eventHandler.c ****     {{CYBLE_GATT_INVALID_ATTR_HANDLE_VALUE, CYBLE_GATT_INVALID_ATTR_HANDLE_VALUE}, 
 115:Generated_Source\PSoC4/BLE_eventHandler.c ****         CYBLE_UUID_ALERT_NOTIFICATION_SERVICE},
 116:Generated_Source\PSoC4/BLE_eventHandler.c **** #endif /* CYBLE_ANS_CLIENT */
 117:Generated_Source\PSoC4/BLE_eventHandler.c **** #ifdef CYBLE_BAS_CLIENT
 118:Generated_Source\PSoC4/BLE_eventHandler.c ****     {{CYBLE_GATT_INVALID_ATTR_HANDLE_VALUE, CYBLE_GATT_INVALID_ATTR_HANDLE_VALUE}, CYBLE_UUID_BAS_S
ARM GAS  C:\Users\Intern\AppData\Local\Temp\cc8xw9iJ.s 			page 4


 119:Generated_Source\PSoC4/BLE_eventHandler.c ****     #if(CYBLE_BASC_SERVICE_COUNT > 1u) /* Generate it by GUI */
 120:Generated_Source\PSoC4/BLE_eventHandler.c ****         
 121:Generated_Source\PSoC4/BLE_eventHandler.c ****     #endif /* CYBLE_BASC_SERVICE_COUNT > 1u */
 122:Generated_Source\PSoC4/BLE_eventHandler.c **** #endif /* CYBLE_BAS_CLIENT */
 123:Generated_Source\PSoC4/BLE_eventHandler.c **** #ifdef CYBLE_BCS_CLIENT
 124:Generated_Source\PSoC4/BLE_eventHandler.c ****     {{CYBLE_GATT_INVALID_ATTR_HANDLE_VALUE, CYBLE_GATT_INVALID_ATTR_HANDLE_VALUE}, CYBLE_UUID_BODY_
 125:Generated_Source\PSoC4/BLE_eventHandler.c **** #endif /* CYBLE_BCS_CLIENT */
 126:Generated_Source\PSoC4/BLE_eventHandler.c **** #ifdef CYBLE_BLS_CLIENT
 127:Generated_Source\PSoC4/BLE_eventHandler.c ****     {{CYBLE_GATT_INVALID_ATTR_HANDLE_VALUE, CYBLE_GATT_INVALID_ATTR_HANDLE_VALUE}, CYBLE_UUID_BLOOD
 128:Generated_Source\PSoC4/BLE_eventHandler.c **** #endif /* CYBLE_BLS_CLIENT */
 129:Generated_Source\PSoC4/BLE_eventHandler.c **** #ifdef CYBLE_BMS_CLIENT
 130:Generated_Source\PSoC4/BLE_eventHandler.c ****     {{CYBLE_GATT_INVALID_ATTR_HANDLE_VALUE, CYBLE_GATT_INVALID_ATTR_HANDLE_VALUE}, CYBLE_UUID_BOND_
 131:Generated_Source\PSoC4/BLE_eventHandler.c **** #endif /* CYBLE_BMS_CLIENT */
 132:Generated_Source\PSoC4/BLE_eventHandler.c **** #ifdef CYBLE_CGMS_CLIENT
 133:Generated_Source\PSoC4/BLE_eventHandler.c ****     {{CYBLE_GATT_INVALID_ATTR_HANDLE_VALUE, CYBLE_GATT_INVALID_ATTR_HANDLE_VALUE}, CYBLE_UUID_CGM_S
 134:Generated_Source\PSoC4/BLE_eventHandler.c **** #endif /* CYBLE_CGMS_CLIENT */
 135:Generated_Source\PSoC4/BLE_eventHandler.c **** #ifdef CYBLE_CPS_CLIENT
 136:Generated_Source\PSoC4/BLE_eventHandler.c ****     {{CYBLE_GATT_INVALID_ATTR_HANDLE_VALUE, CYBLE_GATT_INVALID_ATTR_HANDLE_VALUE}, CYBLE_UUID_CPS_S
 137:Generated_Source\PSoC4/BLE_eventHandler.c **** #endif /* CYBLE_CPS_CLIENT */
 138:Generated_Source\PSoC4/BLE_eventHandler.c **** #ifdef CYBLE_CSCS_CLIENT
 139:Generated_Source\PSoC4/BLE_eventHandler.c ****     {{CYBLE_GATT_INVALID_ATTR_HANDLE_VALUE, CYBLE_GATT_INVALID_ATTR_HANDLE_VALUE}, 
 140:Generated_Source\PSoC4/BLE_eventHandler.c ****         CYBLE_UUID_CYCLING_SPEED_AND_CADENCE_SERVICE},
 141:Generated_Source\PSoC4/BLE_eventHandler.c **** #endif /* CYBLE_CSCS_CLIENT */
 142:Generated_Source\PSoC4/BLE_eventHandler.c **** #ifdef CYBLE_CTS_CLIENT
 143:Generated_Source\PSoC4/BLE_eventHandler.c ****     {{CYBLE_GATT_INVALID_ATTR_HANDLE_VALUE, CYBLE_GATT_INVALID_ATTR_HANDLE_VALUE}, CYBLE_UUID_CURRE
 144:Generated_Source\PSoC4/BLE_eventHandler.c **** #endif /* CYBLE_CTS_CLIENT */
 145:Generated_Source\PSoC4/BLE_eventHandler.c **** #ifdef CYBLE_CUSTOM_CLIENT
 146:Generated_Source\PSoC4/BLE_eventHandler.c ****     
 147:Generated_Source\PSoC4/BLE_eventHandler.c **** #endif /* CYBLE_CUSTOM_CLIENT */
 148:Generated_Source\PSoC4/BLE_eventHandler.c **** #ifdef CYBLE_DIS_CLIENT
 149:Generated_Source\PSoC4/BLE_eventHandler.c ****     {{CYBLE_GATT_INVALID_ATTR_HANDLE_VALUE, CYBLE_GATT_INVALID_ATTR_HANDLE_VALUE}, CYBLE_UUID_DEVIC
 150:Generated_Source\PSoC4/BLE_eventHandler.c **** #endif /* CYBLE_DIS_CLIENT */
 151:Generated_Source\PSoC4/BLE_eventHandler.c **** #ifdef CYBLE_ESS_CLIENT
 152:Generated_Source\PSoC4/BLE_eventHandler.c ****     {{CYBLE_GATT_INVALID_ATTR_HANDLE_VALUE, CYBLE_GATT_INVALID_ATTR_HANDLE_VALUE}, 
 153:Generated_Source\PSoC4/BLE_eventHandler.c ****         CYBLE_UUID_ENVIRONMENTAL_SENSING_SERVICE},
 154:Generated_Source\PSoC4/BLE_eventHandler.c **** #endif /* CYBLE_ESS_CLIENT */
 155:Generated_Source\PSoC4/BLE_eventHandler.c **** #ifdef CYBLE_GLS_CLIENT
 156:Generated_Source\PSoC4/BLE_eventHandler.c ****     {{CYBLE_GATT_INVALID_ATTR_HANDLE_VALUE, CYBLE_GATT_INVALID_ATTR_HANDLE_VALUE}, CYBLE_UUID_GLUCO
 157:Generated_Source\PSoC4/BLE_eventHandler.c **** #endif /* CYBLE_GLS_CLIENT */
 158:Generated_Source\PSoC4/BLE_eventHandler.c **** #ifdef CYBLE_HIDS_CLIENT
 159:Generated_Source\PSoC4/BLE_eventHandler.c ****     {{CYBLE_GATT_INVALID_ATTR_HANDLE_VALUE, CYBLE_GATT_INVALID_ATTR_HANDLE_VALUE}, CYBLE_UUID_HIDS_
 160:Generated_Source\PSoC4/BLE_eventHandler.c ****     #if(CYBLE_HIDSC_SERVICE_COUNT > 1u) /* Generate it by GUI */
 161:Generated_Source\PSoC4/BLE_eventHandler.c ****         
 162:Generated_Source\PSoC4/BLE_eventHandler.c ****     #endif /* CYBLE_HIDSC_SERVICE_COUNT > 1u */
 163:Generated_Source\PSoC4/BLE_eventHandler.c **** #endif /* CYBLE_HIDS_CLIENT */
 164:Generated_Source\PSoC4/BLE_eventHandler.c **** #ifdef CYBLE_HPS_CLIENT
 165:Generated_Source\PSoC4/BLE_eventHandler.c ****     {{CYBLE_GATT_INVALID_ATTR_HANDLE_VALUE, CYBLE_GATT_INVALID_ATTR_HANDLE_VALUE}, CYBLE_UUID_HTTP_
 166:Generated_Source\PSoC4/BLE_eventHandler.c **** #endif /* CYBLE_HPS_CLIENT */
 167:Generated_Source\PSoC4/BLE_eventHandler.c **** #ifdef CYBLE_HRS_CLIENT
 168:Generated_Source\PSoC4/BLE_eventHandler.c ****     {{CYBLE_GATT_INVALID_ATTR_HANDLE_VALUE, CYBLE_GATT_INVALID_ATTR_HANDLE_VALUE}, CYBLE_UUID_HEART
 169:Generated_Source\PSoC4/BLE_eventHandler.c **** #endif /* CYBLE_HRS_CLIENT */
 170:Generated_Source\PSoC4/BLE_eventHandler.c **** #ifdef CYBLE_HTS_CLIENT
 171:Generated_Source\PSoC4/BLE_eventHandler.c ****     {{CYBLE_GATT_INVALID_ATTR_HANDLE_VALUE, CYBLE_GATT_INVALID_ATTR_HANDLE_VALUE}, CYBLE_UUID_HEALT
 172:Generated_Source\PSoC4/BLE_eventHandler.c **** #endif /* CYBLE_HTS_CLIENT */
 173:Generated_Source\PSoC4/BLE_eventHandler.c **** #ifdef CYBLE_IAS_CLIENT
 174:Generated_Source\PSoC4/BLE_eventHandler.c ****     {{CYBLE_GATT_INVALID_ATTR_HANDLE_VALUE, CYBLE_GATT_INVALID_ATTR_HANDLE_VALUE}, CYBLE_UUID_IMMED
 175:Generated_Source\PSoC4/BLE_eventHandler.c **** #endif /* CYBLE_IAS_CLIENT */
ARM GAS  C:\Users\Intern\AppData\Local\Temp\cc8xw9iJ.s 			page 5


 176:Generated_Source\PSoC4/BLE_eventHandler.c **** #ifdef CYBLE_IPS_CLIENT
 177:Generated_Source\PSoC4/BLE_eventHandler.c ****     {{CYBLE_GATT_INVALID_ATTR_HANDLE_VALUE, CYBLE_GATT_INVALID_ATTR_HANDLE_VALUE}, CYBLE_UUID_IPS_S
 178:Generated_Source\PSoC4/BLE_eventHandler.c **** #endif /* CYBLE_IPS_CLIENT */
 179:Generated_Source\PSoC4/BLE_eventHandler.c **** #ifdef CYBLE_LLS_CLIENT
 180:Generated_Source\PSoC4/BLE_eventHandler.c ****     {{CYBLE_GATT_INVALID_ATTR_HANDLE_VALUE, CYBLE_GATT_INVALID_ATTR_HANDLE_VALUE}, CYBLE_UUID_LINK_
 181:Generated_Source\PSoC4/BLE_eventHandler.c **** #endif /* CYBLE_LLS_CLIENT */
 182:Generated_Source\PSoC4/BLE_eventHandler.c **** #ifdef CYBLE_LNS_CLIENT
 183:Generated_Source\PSoC4/BLE_eventHandler.c ****     {{CYBLE_GATT_INVALID_ATTR_HANDLE_VALUE, CYBLE_GATT_INVALID_ATTR_HANDLE_VALUE}, CYBLE_UUID_LOCAT
 184:Generated_Source\PSoC4/BLE_eventHandler.c **** #endif /* CYBLE_LNS_CLIENT */
 185:Generated_Source\PSoC4/BLE_eventHandler.c **** #ifdef CYBLE_NDCS_CLIENT
 186:Generated_Source\PSoC4/BLE_eventHandler.c ****     {{CYBLE_GATT_INVALID_ATTR_HANDLE_VALUE, CYBLE_GATT_INVALID_ATTR_HANDLE_VALUE}, CYBLE_UUID_NEXT_
 187:Generated_Source\PSoC4/BLE_eventHandler.c **** #endif /* CYBLE_NDCS_CLIENT */
 188:Generated_Source\PSoC4/BLE_eventHandler.c **** #ifdef CYBLE_IPSS_CLIENT
 189:Generated_Source\PSoC4/BLE_eventHandler.c ****     {{CYBLE_GATT_INVALID_ATTR_HANDLE_VALUE, CYBLE_GATT_INVALID_ATTR_HANDLE_VALUE}, CYBLE_UUID_INTER
 190:Generated_Source\PSoC4/BLE_eventHandler.c **** #endif /* CYBLE_IPSS_CLIENT */
 191:Generated_Source\PSoC4/BLE_eventHandler.c **** #ifdef CYBLE_PASS_CLIENT
 192:Generated_Source\PSoC4/BLE_eventHandler.c ****     {{CYBLE_GATT_INVALID_ATTR_HANDLE_VALUE, CYBLE_GATT_INVALID_ATTR_HANDLE_VALUE}, CYBLE_UUID_PHONE
 193:Generated_Source\PSoC4/BLE_eventHandler.c **** #endif /* CYBLE_PASS_CLIENT */
 194:Generated_Source\PSoC4/BLE_eventHandler.c **** #ifdef CYBLE_PLXS_CLIENT
 195:Generated_Source\PSoC4/BLE_eventHandler.c ****     {{CYBLE_GATT_INVALID_ATTR_HANDLE_VALUE, CYBLE_GATT_INVALID_ATTR_HANDLE_VALUE}, CYBLE_UUID_PLXS_
 196:Generated_Source\PSoC4/BLE_eventHandler.c **** #endif /* CYBLE_PLXS_CLIENT */
 197:Generated_Source\PSoC4/BLE_eventHandler.c **** #ifdef CYBLE_RSCS_CLIENT
 198:Generated_Source\PSoC4/BLE_eventHandler.c ****     {{CYBLE_GATT_INVALID_ATTR_HANDLE_VALUE, CYBLE_GATT_INVALID_ATTR_HANDLE_VALUE}, CYBLE_UUID_RUNNI
 199:Generated_Source\PSoC4/BLE_eventHandler.c **** #endif /* CYBLE_RSCS_CLIENT */
 200:Generated_Source\PSoC4/BLE_eventHandler.c **** #ifdef CYBLE_RTUS_CLIENT
 201:Generated_Source\PSoC4/BLE_eventHandler.c ****     {{CYBLE_GATT_INVALID_ATTR_HANDLE_VALUE, CYBLE_GATT_INVALID_ATTR_HANDLE_VALUE}, CYBLE_UUID_REF_T
 202:Generated_Source\PSoC4/BLE_eventHandler.c **** #endif /* CYBLE_RTUS_CLIENT */
 203:Generated_Source\PSoC4/BLE_eventHandler.c **** #ifdef CYBLE_SCPS_CLIENT
 204:Generated_Source\PSoC4/BLE_eventHandler.c ****     {{CYBLE_GATT_INVALID_ATTR_HANDLE_VALUE, CYBLE_GATT_INVALID_ATTR_HANDLE_VALUE}, CYBLE_UUID_SCAN_
 205:Generated_Source\PSoC4/BLE_eventHandler.c **** #endif /* CYBLE_SCPS_CLIENT */
 206:Generated_Source\PSoC4/BLE_eventHandler.c **** #ifdef CYBLE_TPS_CLIENT
 207:Generated_Source\PSoC4/BLE_eventHandler.c ****     {{CYBLE_GATT_INVALID_ATTR_HANDLE_VALUE, CYBLE_GATT_INVALID_ATTR_HANDLE_VALUE}, CYBLE_UUID_TX_PO
 208:Generated_Source\PSoC4/BLE_eventHandler.c **** #endif /* CYBLE_TPS_CLIENT */
 209:Generated_Source\PSoC4/BLE_eventHandler.c **** #ifdef CYBLE_UDS_CLIENT
 210:Generated_Source\PSoC4/BLE_eventHandler.c ****     {{CYBLE_GATT_INVALID_ATTR_HANDLE_VALUE, CYBLE_GATT_INVALID_ATTR_HANDLE_VALUE}, CYBLE_UUID_USER_
 211:Generated_Source\PSoC4/BLE_eventHandler.c **** #endif /* CYBLE_UDS_CLIENT */
 212:Generated_Source\PSoC4/BLE_eventHandler.c **** #ifdef CYBLE_WSS_CLIENT
 213:Generated_Source\PSoC4/BLE_eventHandler.c ****     {{CYBLE_GATT_INVALID_ATTR_HANDLE_VALUE, CYBLE_GATT_INVALID_ATTR_HANDLE_VALUE}, CYBLE_UUID_WEIGH
 214:Generated_Source\PSoC4/BLE_eventHandler.c **** #endif /* CYBLE_WSS_CLIENT */
 215:Generated_Source\PSoC4/BLE_eventHandler.c **** #ifdef CYBLE_WPTS_CLIENT
 216:Generated_Source\PSoC4/BLE_eventHandler.c ****     {{CYBLE_GATT_INVALID_ATTR_HANDLE_VALUE, CYBLE_GATT_INVALID_ATTR_HANDLE_VALUE}, CYBLE_UUID_WIREL
 217:Generated_Source\PSoC4/BLE_eventHandler.c **** #endif /* CYBLE_WPTS_CLIENT */
 218:Generated_Source\PSoC4/BLE_eventHandler.c **** };
 219:Generated_Source\PSoC4/BLE_eventHandler.c **** 
 220:Generated_Source\PSoC4/BLE_eventHandler.c **** CYBLE_GAPC_T cyBle_gapc;
 221:Generated_Source\PSoC4/BLE_eventHandler.c **** 
 222:Generated_Source\PSoC4/BLE_eventHandler.c **** #endif /* CYBLE_GATT_ROLE_CLIENT */
 223:Generated_Source\PSoC4/BLE_eventHandler.c **** 
 224:Generated_Source\PSoC4/BLE_eventHandler.c **** /* Default device security */
 225:Generated_Source\PSoC4/BLE_eventHandler.c **** CYBLE_GAP_AUTH_INFO_T cyBle_authInfo =
 226:Generated_Source\PSoC4/BLE_eventHandler.c **** {
 227:Generated_Source\PSoC4/BLE_eventHandler.c ****     (CYBLE_GAP_SEC_MODE_1 | CYBLE_GAP_SEC_LEVEL_2 ), /* uint8 security */
 228:Generated_Source\PSoC4/BLE_eventHandler.c ****     CYBLE_GAP_BONDING_NONE, /* uint8 bonding */
 229:Generated_Source\PSoC4/BLE_eventHandler.c ****     0x10u,      /* uint8 ekeySize */
 230:Generated_Source\PSoC4/BLE_eventHandler.c ****     CYBLE_GAP_AUTH_ERROR_NONE, /* CYBLE_AUTH_FAILED_REASON_T authErr */
 231:Generated_Source\PSoC4/BLE_eventHandler.c ****     0x00u,      /* uint8 pairingProperties */
 232:Generated_Source\PSoC4/BLE_eventHandler.c **** };
ARM GAS  C:\Users\Intern\AppData\Local\Temp\cc8xw9iJ.s 			page 6


 233:Generated_Source\PSoC4/BLE_eventHandler.c **** 
 234:Generated_Source\PSoC4/BLE_eventHandler.c **** #if(CYBLE_GATT_ROLE_SERVER)
 235:Generated_Source\PSoC4/BLE_eventHandler.c **** 
 236:Generated_Source\PSoC4/BLE_eventHandler.c **** 
 237:Generated_Source\PSoC4/BLE_eventHandler.c **** /******************************************************************************    
 238:Generated_Source\PSoC4/BLE_eventHandler.c **** * Function Name: CyBle_WriteReqHandler
 239:Generated_Source\PSoC4/BLE_eventHandler.c **** ***************************************************************************//**
 240:Generated_Source\PSoC4/BLE_eventHandler.c **** * 
 241:Generated_Source\PSoC4/BLE_eventHandler.c **** *  Handles the Write Request event from BLE stack.
 242:Generated_Source\PSoC4/BLE_eventHandler.c **** * 
 243:Generated_Source\PSoC4/BLE_eventHandler.c **** *  CYBLE_GATTS_WRITE_REQ_PARAM_T * eventParam - event parameter
 244:Generated_Source\PSoC4/BLE_eventHandler.c **** * 
 245:Generated_Source\PSoC4/BLE_eventHandler.c **** * \return
 246:Generated_Source\PSoC4/BLE_eventHandler.c **** *  None
 247:Generated_Source\PSoC4/BLE_eventHandler.c **** * 
 248:Generated_Source\PSoC4/BLE_eventHandler.c **** ******************************************************************************/
 249:Generated_Source\PSoC4/BLE_eventHandler.c **** static void CyBle_WriteReqHandler(CYBLE_GATTS_WRITE_REQ_PARAM_T *eventParam)
 250:Generated_Source\PSoC4/BLE_eventHandler.c **** {
  54              		.loc 1 250 0
  55              		.cfi_startproc
  56              		@ args = 0, pretend = 0, frame = 16
  57              		@ frame_needed = 1, uses_anonymous_args = 0
  58 0000 90B5     		push	{r4, r7, lr}
  59              		.cfi_def_cfa_offset 12
  60              		.cfi_offset 4, -12
  61              		.cfi_offset 7, -8
  62              		.cfi_offset 14, -4
  63 0002 85B0     		sub	sp, sp, #20
  64              		.cfi_def_cfa_offset 32
  65 0004 00AF     		add	r7, sp, #0
  66              		.cfi_def_cfa_register 7
  67 0006 7860     		str	r0, [r7, #4]
 251:Generated_Source\PSoC4/BLE_eventHandler.c ****     CYBLE_GATT_ERR_CODE_T gattErr;
 252:Generated_Source\PSoC4/BLE_eventHandler.c **** #if defined CYBLE_CTS_SERVER || defined CYBLE_ESS_SERVER
 253:Generated_Source\PSoC4/BLE_eventHandler.c ****     cyBle_gattError = CYBLE_GATT_ERR_NONE;
 254:Generated_Source\PSoC4/BLE_eventHandler.c **** #endif /* defined CYBLE_CTS_SERVER || defined CYBLE_ESS_SERVER */
 255:Generated_Source\PSoC4/BLE_eventHandler.c ****     
 256:Generated_Source\PSoC4/BLE_eventHandler.c ****     gattErr = CyBle_GattsWriteEventHandler(eventParam);
  68              		.loc 1 256 0
  69 0008 0F23     		movs	r3, #15
  70 000a FC18     		adds	r4, r7, r3
  71 000c 7B68     		ldr	r3, [r7, #4]
  72 000e 1800     		movs	r0, r3
  73 0010 FFF7FEFF 		bl	CyBle_GattsWriteEventHandler
  74 0014 0300     		movs	r3, r0
  75 0016 2370     		strb	r3, [r4]
 257:Generated_Source\PSoC4/BLE_eventHandler.c **** #ifdef CYBLE_AIOS_SERVER
 258:Generated_Source\PSoC4/BLE_eventHandler.c ****     if(((cyBle_eventHandlerFlag & CYBLE_CALLBACK) != 0u) && (gattErr == CYBLE_GATT_ERR_NONE))
 259:Generated_Source\PSoC4/BLE_eventHandler.c ****     {
 260:Generated_Source\PSoC4/BLE_eventHandler.c ****         gattErr = CyBle_AiossWriteEventHandler(eventParam);
 261:Generated_Source\PSoC4/BLE_eventHandler.c ****     }
 262:Generated_Source\PSoC4/BLE_eventHandler.c **** #endif /* CYBLE_AIOS_SERVER */
 263:Generated_Source\PSoC4/BLE_eventHandler.c **** #ifdef CYBLE_ANCS_SERVER
 264:Generated_Source\PSoC4/BLE_eventHandler.c ****     if(((cyBle_eventHandlerFlag & CYBLE_CALLBACK) != 0u) && (gattErr == CYBLE_GATT_ERR_NONE))
 265:Generated_Source\PSoC4/BLE_eventHandler.c ****     {
 266:Generated_Source\PSoC4/BLE_eventHandler.c ****         gattErr = CyBle_AncssWriteEventHandler(eventParam);
 267:Generated_Source\PSoC4/BLE_eventHandler.c ****     }
ARM GAS  C:\Users\Intern\AppData\Local\Temp\cc8xw9iJ.s 			page 7


 268:Generated_Source\PSoC4/BLE_eventHandler.c **** #endif /* CYBLE_ANCS_SERVER */
 269:Generated_Source\PSoC4/BLE_eventHandler.c **** #ifdef CYBLE_ANS_SERVER
 270:Generated_Source\PSoC4/BLE_eventHandler.c ****     if(((cyBle_eventHandlerFlag & CYBLE_CALLBACK) != 0u) && (gattErr == CYBLE_GATT_ERR_NONE))
 271:Generated_Source\PSoC4/BLE_eventHandler.c ****     {
 272:Generated_Source\PSoC4/BLE_eventHandler.c ****         gattErr = CyBle_AnssWriteEventHandler(eventParam);
 273:Generated_Source\PSoC4/BLE_eventHandler.c ****     }
 274:Generated_Source\PSoC4/BLE_eventHandler.c **** #endif /* CYBLE_ANS_SERVER */
 275:Generated_Source\PSoC4/BLE_eventHandler.c **** #ifdef CYBLE_BAS_SERVER
 276:Generated_Source\PSoC4/BLE_eventHandler.c ****     if(((cyBle_eventHandlerFlag & CYBLE_CALLBACK) != 0u) && (gattErr == CYBLE_GATT_ERR_NONE))
  76              		.loc 1 276 0
  77 0018 294B     		ldr	r3, .L7
  78 001a 1B78     		ldrb	r3, [r3]
  79 001c DBB2     		uxtb	r3, r3
  80 001e 1A00     		movs	r2, r3
  81 0020 0123     		movs	r3, #1
  82 0022 1340     		ands	r3, r2
  83 0024 0CD0     		beq	.L2
  84              		.loc 1 276 0 is_stmt 0 discriminator 1
  85 0026 0F23     		movs	r3, #15
  86 0028 FB18     		adds	r3, r7, r3
  87 002a 1B78     		ldrb	r3, [r3]
  88 002c 002B     		cmp	r3, #0
  89 002e 07D1     		bne	.L2
 277:Generated_Source\PSoC4/BLE_eventHandler.c ****     {
 278:Generated_Source\PSoC4/BLE_eventHandler.c ****         gattErr = CyBle_BassWriteEventHandler(eventParam);
  90              		.loc 1 278 0 is_stmt 1
  91 0030 0F23     		movs	r3, #15
  92 0032 FC18     		adds	r4, r7, r3
  93 0034 7B68     		ldr	r3, [r7, #4]
  94 0036 1800     		movs	r0, r3
  95 0038 FFF7FEFF 		bl	CyBle_BassWriteEventHandler
  96 003c 0300     		movs	r3, r0
  97 003e 2370     		strb	r3, [r4]
  98              	.L2:
 279:Generated_Source\PSoC4/BLE_eventHandler.c ****     }
 280:Generated_Source\PSoC4/BLE_eventHandler.c **** #endif /* CYBLE_BAS_SERVER */
 281:Generated_Source\PSoC4/BLE_eventHandler.c **** #ifdef CYBLE_BCS_SERVER
 282:Generated_Source\PSoC4/BLE_eventHandler.c ****     if(((cyBle_eventHandlerFlag & CYBLE_CALLBACK) != 0u) && (gattErr == CYBLE_GATT_ERR_NONE))
 283:Generated_Source\PSoC4/BLE_eventHandler.c ****     {
 284:Generated_Source\PSoC4/BLE_eventHandler.c ****         gattErr = CyBle_BcssWriteEventHandler(eventParam);
 285:Generated_Source\PSoC4/BLE_eventHandler.c ****     }
 286:Generated_Source\PSoC4/BLE_eventHandler.c **** #endif /* CYBLE_BCS_SERVER */
 287:Generated_Source\PSoC4/BLE_eventHandler.c **** #ifdef CYBLE_BLS_SERVER
 288:Generated_Source\PSoC4/BLE_eventHandler.c ****     if(((cyBle_eventHandlerFlag & CYBLE_CALLBACK) != 0u) && (gattErr == CYBLE_GATT_ERR_NONE))
 289:Generated_Source\PSoC4/BLE_eventHandler.c ****     {
 290:Generated_Source\PSoC4/BLE_eventHandler.c ****         gattErr = CyBle_BlssWriteEventHandler(eventParam);
 291:Generated_Source\PSoC4/BLE_eventHandler.c ****     }
 292:Generated_Source\PSoC4/BLE_eventHandler.c **** #endif /* CYBLE_BLS_SERVER */
 293:Generated_Source\PSoC4/BLE_eventHandler.c **** #ifdef CYBLE_BMS_SERVER
 294:Generated_Source\PSoC4/BLE_eventHandler.c ****     if(((cyBle_eventHandlerFlag & CYBLE_CALLBACK) != 0u) && (gattErr == CYBLE_GATT_ERR_NONE))
 295:Generated_Source\PSoC4/BLE_eventHandler.c ****     {
 296:Generated_Source\PSoC4/BLE_eventHandler.c ****         gattErr = CyBle_BmssWriteEventHandler(eventParam);
 297:Generated_Source\PSoC4/BLE_eventHandler.c ****     }
 298:Generated_Source\PSoC4/BLE_eventHandler.c **** #endif /* CYBLE_BMS_SERVER */
 299:Generated_Source\PSoC4/BLE_eventHandler.c **** #ifdef CYBLE_BTS_SERVER
 300:Generated_Source\PSoC4/BLE_eventHandler.c ****     if((cyBle_eventHandlerFlag & CYBLE_CALLBACK) != 0u)
 301:Generated_Source\PSoC4/BLE_eventHandler.c ****     {
ARM GAS  C:\Users\Intern\AppData\Local\Temp\cc8xw9iJ.s 			page 8


 302:Generated_Source\PSoC4/BLE_eventHandler.c ****         gattErr = CyBle_BtsWriteEventHandler(eventParam);
 303:Generated_Source\PSoC4/BLE_eventHandler.c ****     }
 304:Generated_Source\PSoC4/BLE_eventHandler.c **** #endif /* CYBLE_BTS_SERVER */
 305:Generated_Source\PSoC4/BLE_eventHandler.c **** #ifdef CYBLE_CGMS_SERVER
 306:Generated_Source\PSoC4/BLE_eventHandler.c ****     if(((cyBle_eventHandlerFlag & CYBLE_CALLBACK) != 0u) && (gattErr == CYBLE_GATT_ERR_NONE))
 307:Generated_Source\PSoC4/BLE_eventHandler.c ****     {
 308:Generated_Source\PSoC4/BLE_eventHandler.c ****         gattErr = CyBle_CgmssWriteEventHandler(eventParam);
 309:Generated_Source\PSoC4/BLE_eventHandler.c ****     }
 310:Generated_Source\PSoC4/BLE_eventHandler.c **** #endif /* CYBLE_CGMS_SERVER */
 311:Generated_Source\PSoC4/BLE_eventHandler.c **** #ifdef CYBLE_CPS_SERVER
 312:Generated_Source\PSoC4/BLE_eventHandler.c ****     if(((cyBle_eventHandlerFlag & CYBLE_CALLBACK) != 0u) && (gattErr == CYBLE_GATT_ERR_NONE))
 313:Generated_Source\PSoC4/BLE_eventHandler.c ****     {
 314:Generated_Source\PSoC4/BLE_eventHandler.c ****         gattErr = CyBle_CpssWriteEventHandler(eventParam);
 315:Generated_Source\PSoC4/BLE_eventHandler.c ****     }
 316:Generated_Source\PSoC4/BLE_eventHandler.c **** #endif /* CYBLE_CPS_SERVER */
 317:Generated_Source\PSoC4/BLE_eventHandler.c **** #ifdef CYBLE_CSCS_SERVER
 318:Generated_Source\PSoC4/BLE_eventHandler.c ****     if(((cyBle_eventHandlerFlag & CYBLE_CALLBACK) != 0u) && (gattErr == CYBLE_GATT_ERR_NONE))
 319:Generated_Source\PSoC4/BLE_eventHandler.c ****     {
 320:Generated_Source\PSoC4/BLE_eventHandler.c ****         gattErr = CyBle_CscssWriteEventHandler(eventParam);
 321:Generated_Source\PSoC4/BLE_eventHandler.c ****     }
 322:Generated_Source\PSoC4/BLE_eventHandler.c **** #endif /* CYBLE_CSCS_SERVER */
 323:Generated_Source\PSoC4/BLE_eventHandler.c **** #ifdef CYBLE_CTS_SERVER
 324:Generated_Source\PSoC4/BLE_eventHandler.c ****     if(((cyBle_eventHandlerFlag & CYBLE_CALLBACK) != 0u) && (gattErr == CYBLE_GATT_ERR_NONE))
 325:Generated_Source\PSoC4/BLE_eventHandler.c ****     {
 326:Generated_Source\PSoC4/BLE_eventHandler.c ****         gattErr = CyBle_CtssWriteEventHandler(eventParam);
 327:Generated_Source\PSoC4/BLE_eventHandler.c ****     }
 328:Generated_Source\PSoC4/BLE_eventHandler.c **** #endif /* CYBLE_CTS_SERVER */
 329:Generated_Source\PSoC4/BLE_eventHandler.c **** #ifdef CYBLE_ESS_SERVER
 330:Generated_Source\PSoC4/BLE_eventHandler.c ****     if(((cyBle_eventHandlerFlag & CYBLE_CALLBACK) != 0u) && (gattErr == CYBLE_GATT_ERR_NONE))
 331:Generated_Source\PSoC4/BLE_eventHandler.c ****     {
 332:Generated_Source\PSoC4/BLE_eventHandler.c ****         gattErr = CyBle_EsssWriteEventHandler(eventParam);
 333:Generated_Source\PSoC4/BLE_eventHandler.c ****     }
 334:Generated_Source\PSoC4/BLE_eventHandler.c **** #endif /* CYBLE_ESS_SERVER */
 335:Generated_Source\PSoC4/BLE_eventHandler.c **** #ifdef CYBLE_GLS_SERVER
 336:Generated_Source\PSoC4/BLE_eventHandler.c ****     if(((cyBle_eventHandlerFlag & CYBLE_CALLBACK) != 0u) && (gattErr == CYBLE_GATT_ERR_NONE))
 337:Generated_Source\PSoC4/BLE_eventHandler.c ****     {
 338:Generated_Source\PSoC4/BLE_eventHandler.c ****         gattErr = CyBle_GlssWriteEventHandler(eventParam);
 339:Generated_Source\PSoC4/BLE_eventHandler.c ****     }
 340:Generated_Source\PSoC4/BLE_eventHandler.c **** #endif /* CYBLE_GLS_SERVER */
 341:Generated_Source\PSoC4/BLE_eventHandler.c **** #ifdef CYBLE_HIDS_SERVER
 342:Generated_Source\PSoC4/BLE_eventHandler.c ****     if(((cyBle_eventHandlerFlag & CYBLE_CALLBACK) != 0u) && (gattErr == CYBLE_GATT_ERR_NONE))
 343:Generated_Source\PSoC4/BLE_eventHandler.c ****     {
 344:Generated_Source\PSoC4/BLE_eventHandler.c ****         gattErr = CyBle_HidssWriteEventHandler(eventParam);
 345:Generated_Source\PSoC4/BLE_eventHandler.c ****     }
 346:Generated_Source\PSoC4/BLE_eventHandler.c **** #endif /* CYBLE_HIDS_SERVER */
 347:Generated_Source\PSoC4/BLE_eventHandler.c **** #ifdef CYBLE_HPS_SERVER
 348:Generated_Source\PSoC4/BLE_eventHandler.c ****     if(((cyBle_eventHandlerFlag & CYBLE_CALLBACK) != 0u) && (gattErr == CYBLE_GATT_ERR_NONE))
 349:Generated_Source\PSoC4/BLE_eventHandler.c ****     {
 350:Generated_Source\PSoC4/BLE_eventHandler.c ****         gattErr = CyBle_HpssWriteEventHandler(eventParam);
 351:Generated_Source\PSoC4/BLE_eventHandler.c ****     }
 352:Generated_Source\PSoC4/BLE_eventHandler.c **** #endif /* CYBLE_HPS_SERVER */
 353:Generated_Source\PSoC4/BLE_eventHandler.c **** #ifdef CYBLE_HRS_SERVER
 354:Generated_Source\PSoC4/BLE_eventHandler.c ****     if(((cyBle_eventHandlerFlag & CYBLE_CALLBACK) != 0u) && (gattErr == CYBLE_GATT_ERR_NONE))
 355:Generated_Source\PSoC4/BLE_eventHandler.c ****     {
 356:Generated_Source\PSoC4/BLE_eventHandler.c ****         gattErr = CyBle_HrssWriteEventHandler(eventParam);
 357:Generated_Source\PSoC4/BLE_eventHandler.c ****     }
 358:Generated_Source\PSoC4/BLE_eventHandler.c **** #endif /* CYBLE_HRS_SERVER */
ARM GAS  C:\Users\Intern\AppData\Local\Temp\cc8xw9iJ.s 			page 9


 359:Generated_Source\PSoC4/BLE_eventHandler.c **** #ifdef CYBLE_HTS_SERVER
 360:Generated_Source\PSoC4/BLE_eventHandler.c ****     if(((cyBle_eventHandlerFlag & CYBLE_CALLBACK) != 0u) && (gattErr == CYBLE_GATT_ERR_NONE))
  99              		.loc 1 360 0
 100 0040 1F4B     		ldr	r3, .L7
 101 0042 1B78     		ldrb	r3, [r3]
 102 0044 DBB2     		uxtb	r3, r3
 103 0046 1A00     		movs	r2, r3
 104 0048 0123     		movs	r3, #1
 105 004a 1340     		ands	r3, r2
 106 004c 0CD0     		beq	.L3
 107              		.loc 1 360 0 is_stmt 0 discriminator 1
 108 004e 0F23     		movs	r3, #15
 109 0050 FB18     		adds	r3, r7, r3
 110 0052 1B78     		ldrb	r3, [r3]
 111 0054 002B     		cmp	r3, #0
 112 0056 07D1     		bne	.L3
 361:Generated_Source\PSoC4/BLE_eventHandler.c ****     {
 362:Generated_Source\PSoC4/BLE_eventHandler.c ****         gattErr = CyBle_HtssWriteEventHandler(eventParam);
 113              		.loc 1 362 0 is_stmt 1
 114 0058 0F23     		movs	r3, #15
 115 005a FC18     		adds	r4, r7, r3
 116 005c 7B68     		ldr	r3, [r7, #4]
 117 005e 1800     		movs	r0, r3
 118 0060 FFF7FEFF 		bl	CyBle_HtssWriteEventHandler
 119 0064 0300     		movs	r3, r0
 120 0066 2370     		strb	r3, [r4]
 121              	.L3:
 363:Generated_Source\PSoC4/BLE_eventHandler.c ****     }
 364:Generated_Source\PSoC4/BLE_eventHandler.c **** #endif /* CYBLE_HTS_SERVER */
 365:Generated_Source\PSoC4/BLE_eventHandler.c **** #ifdef CYBLE_IPS_SERVER
 366:Generated_Source\PSoC4/BLE_eventHandler.c ****     if(((cyBle_eventHandlerFlag & CYBLE_CALLBACK) != 0u) && (gattErr == CYBLE_GATT_ERR_NONE))
 367:Generated_Source\PSoC4/BLE_eventHandler.c ****     {
 368:Generated_Source\PSoC4/BLE_eventHandler.c ****         gattErr = CyBle_IpssWriteEventHandler(eventParam);
 369:Generated_Source\PSoC4/BLE_eventHandler.c ****     }
 370:Generated_Source\PSoC4/BLE_eventHandler.c **** #endif /* CYBLE_IPS_SERVER */
 371:Generated_Source\PSoC4/BLE_eventHandler.c **** #ifdef CYBLE_LLS_SERVER
 372:Generated_Source\PSoC4/BLE_eventHandler.c ****     if(((cyBle_eventHandlerFlag & CYBLE_CALLBACK) != 0u) && (gattErr == CYBLE_GATT_ERR_NONE))
 373:Generated_Source\PSoC4/BLE_eventHandler.c ****     {
 374:Generated_Source\PSoC4/BLE_eventHandler.c ****         gattErr = CyBle_LlssWriteEventHandler(eventParam);
 375:Generated_Source\PSoC4/BLE_eventHandler.c ****     }
 376:Generated_Source\PSoC4/BLE_eventHandler.c **** #endif /* CYBLE_LLS_SERVER */
 377:Generated_Source\PSoC4/BLE_eventHandler.c **** #ifdef CYBLE_LNS_SERVER
 378:Generated_Source\PSoC4/BLE_eventHandler.c ****     if(((cyBle_eventHandlerFlag & CYBLE_CALLBACK) != 0u) && (gattErr == CYBLE_GATT_ERR_NONE))
 379:Generated_Source\PSoC4/BLE_eventHandler.c ****     {
 380:Generated_Source\PSoC4/BLE_eventHandler.c ****         gattErr = CyBle_LnssWriteEventHandler(eventParam);
 381:Generated_Source\PSoC4/BLE_eventHandler.c ****     }
 382:Generated_Source\PSoC4/BLE_eventHandler.c **** #endif /* CYBLE_LNS_SERVER */
 383:Generated_Source\PSoC4/BLE_eventHandler.c **** #ifdef CYBLE_PASS_SERVER
 384:Generated_Source\PSoC4/BLE_eventHandler.c ****     if(((cyBle_eventHandlerFlag & CYBLE_CALLBACK) != 0u) && (gattErr == CYBLE_GATT_ERR_NONE))
 385:Generated_Source\PSoC4/BLE_eventHandler.c ****     {
 386:Generated_Source\PSoC4/BLE_eventHandler.c ****         gattErr = CyBle_PasssWriteEventHandler(eventParam);
 387:Generated_Source\PSoC4/BLE_eventHandler.c ****     }
 388:Generated_Source\PSoC4/BLE_eventHandler.c **** #endif /* CYBLE_PASS_SERVER */
 389:Generated_Source\PSoC4/BLE_eventHandler.c **** #ifdef CYBLE_PLXS_SERVER
 390:Generated_Source\PSoC4/BLE_eventHandler.c ****     if(((cyBle_eventHandlerFlag & CYBLE_CALLBACK) != 0u) && (gattErr == CYBLE_GATT_ERR_NONE))
 391:Generated_Source\PSoC4/BLE_eventHandler.c ****     {
 392:Generated_Source\PSoC4/BLE_eventHandler.c ****         gattErr = CyBle_PlxssWriteEventHandler(eventParam);
ARM GAS  C:\Users\Intern\AppData\Local\Temp\cc8xw9iJ.s 			page 10


 393:Generated_Source\PSoC4/BLE_eventHandler.c ****     }
 394:Generated_Source\PSoC4/BLE_eventHandler.c **** #endif /* CYBLE_PLXS_SERVER */    
 395:Generated_Source\PSoC4/BLE_eventHandler.c **** #ifdef CYBLE_RSCS_SERVER
 396:Generated_Source\PSoC4/BLE_eventHandler.c ****     if(((cyBle_eventHandlerFlag & CYBLE_CALLBACK) != 0u) && (gattErr == CYBLE_GATT_ERR_NONE))
 397:Generated_Source\PSoC4/BLE_eventHandler.c ****     {
 398:Generated_Source\PSoC4/BLE_eventHandler.c ****         gattErr = CyBle_RscssWriteEventHandler(eventParam);
 399:Generated_Source\PSoC4/BLE_eventHandler.c ****     }
 400:Generated_Source\PSoC4/BLE_eventHandler.c **** #endif /* CYBLE_RSCS_SERVER */
 401:Generated_Source\PSoC4/BLE_eventHandler.c **** #ifdef CYBLE_SCPS_SERVER
 402:Generated_Source\PSoC4/BLE_eventHandler.c ****     if(((cyBle_eventHandlerFlag & CYBLE_CALLBACK) != 0u) && (gattErr == CYBLE_GATT_ERR_NONE))
 403:Generated_Source\PSoC4/BLE_eventHandler.c ****     {
 404:Generated_Source\PSoC4/BLE_eventHandler.c ****         gattErr = CyBle_ScpssWriteEventHandler(eventParam);
 405:Generated_Source\PSoC4/BLE_eventHandler.c ****     }
 406:Generated_Source\PSoC4/BLE_eventHandler.c **** #endif /* CYBLE_SCPS_SERVER */
 407:Generated_Source\PSoC4/BLE_eventHandler.c **** #ifdef CYBLE_TPS_SERVER
 408:Generated_Source\PSoC4/BLE_eventHandler.c ****     if(((cyBle_eventHandlerFlag & CYBLE_CALLBACK) != 0u) && (gattErr == CYBLE_GATT_ERR_NONE))
 409:Generated_Source\PSoC4/BLE_eventHandler.c ****     {
 410:Generated_Source\PSoC4/BLE_eventHandler.c ****         gattErr = CyBle_TpssWriteEventHandler(eventParam);
 411:Generated_Source\PSoC4/BLE_eventHandler.c ****     }
 412:Generated_Source\PSoC4/BLE_eventHandler.c **** #endif /* CYBLE_TPS_SERVER */
 413:Generated_Source\PSoC4/BLE_eventHandler.c **** #ifdef CYBLE_UDS_SERVER
 414:Generated_Source\PSoC4/BLE_eventHandler.c ****     if(((cyBle_eventHandlerFlag & CYBLE_CALLBACK) != 0u) && (gattErr == CYBLE_GATT_ERR_NONE))
 415:Generated_Source\PSoC4/BLE_eventHandler.c ****     {
 416:Generated_Source\PSoC4/BLE_eventHandler.c ****         gattErr = CyBle_UdssWriteEventHandler(eventParam);
 417:Generated_Source\PSoC4/BLE_eventHandler.c ****     }
 418:Generated_Source\PSoC4/BLE_eventHandler.c **** #endif /* CYBLE_UDS_SERVER */
 419:Generated_Source\PSoC4/BLE_eventHandler.c **** #ifdef CYBLE_WPTS_SERVER
 420:Generated_Source\PSoC4/BLE_eventHandler.c ****     if(((cyBle_eventHandlerFlag & CYBLE_CALLBACK) != 0u) && (gattErr == CYBLE_GATT_ERR_NONE))
 421:Generated_Source\PSoC4/BLE_eventHandler.c ****     {
 422:Generated_Source\PSoC4/BLE_eventHandler.c ****         gattErr = CyBle_WptssWriteEventHandler(eventParam);
 423:Generated_Source\PSoC4/BLE_eventHandler.c ****     }
 424:Generated_Source\PSoC4/BLE_eventHandler.c **** #endif /* CYBLE_WPTS_SERVER */
 425:Generated_Source\PSoC4/BLE_eventHandler.c **** #ifdef CYBLE_WSS_SERVER
 426:Generated_Source\PSoC4/BLE_eventHandler.c ****     if(((cyBle_eventHandlerFlag & CYBLE_CALLBACK) != 0u) && (gattErr == CYBLE_GATT_ERR_NONE))
 427:Generated_Source\PSoC4/BLE_eventHandler.c ****     {
 428:Generated_Source\PSoC4/BLE_eventHandler.c ****         gattErr = CyBle_WsssWriteEventHandler(eventParam);
 429:Generated_Source\PSoC4/BLE_eventHandler.c ****     }
 430:Generated_Source\PSoC4/BLE_eventHandler.c **** #endif /* CYBLE_WSS_SERVER */
 431:Generated_Source\PSoC4/BLE_eventHandler.c **** 
 432:Generated_Source\PSoC4/BLE_eventHandler.c ****     /* Send response when event was handled by service */
 433:Generated_Source\PSoC4/BLE_eventHandler.c ****     if((cyBle_eventHandlerFlag & CYBLE_CALLBACK) == 0u)
 122              		.loc 1 433 0
 123 0068 154B     		ldr	r3, .L7
 124 006a 1B78     		ldrb	r3, [r3]
 125 006c DBB2     		uxtb	r3, r3
 126 006e 1A00     		movs	r2, r3
 127 0070 0123     		movs	r3, #1
 128 0072 1340     		ands	r3, r2
 129 0074 1FD1     		bne	.L6
 434:Generated_Source\PSoC4/BLE_eventHandler.c ****     {
 435:Generated_Source\PSoC4/BLE_eventHandler.c ****         if(gattErr != CYBLE_GATT_ERR_NONE)
 130              		.loc 1 435 0
 131 0076 0F23     		movs	r3, #15
 132 0078 FB18     		adds	r3, r7, r3
 133 007a 1B78     		ldrb	r3, [r3]
 134 007c 002B     		cmp	r3, #0
 135 007e 16D0     		beq	.L5
ARM GAS  C:\Users\Intern\AppData\Local\Temp\cc8xw9iJ.s 			page 11


 136              	.LBB2:
 436:Generated_Source\PSoC4/BLE_eventHandler.c ****         {
 437:Generated_Source\PSoC4/BLE_eventHandler.c ****             CYBLE_GATTS_ERR_PARAM_T err_param;
 438:Generated_Source\PSoC4/BLE_eventHandler.c ****             
 439:Generated_Source\PSoC4/BLE_eventHandler.c ****             err_param.opcode = (uint8) CYBLE_GATT_WRITE_REQ;
 137              		.loc 1 439 0
 138 0080 0823     		movs	r3, #8
 139 0082 FB18     		adds	r3, r7, r3
 140 0084 1222     		movs	r2, #18
 141 0086 9A70     		strb	r2, [r3, #2]
 440:Generated_Source\PSoC4/BLE_eventHandler.c ****             err_param.attrHandle = eventParam->handleValPair.attrHandle;
 142              		.loc 1 440 0
 143 0088 7B68     		ldr	r3, [r7, #4]
 144 008a 9A89     		ldrh	r2, [r3, #12]
 145 008c 0823     		movs	r3, #8
 146 008e FB18     		adds	r3, r7, r3
 147 0090 1A80     		strh	r2, [r3]
 441:Generated_Source\PSoC4/BLE_eventHandler.c ****             err_param.errorCode = gattErr;
 148              		.loc 1 441 0
 149 0092 0823     		movs	r3, #8
 150 0094 FB18     		adds	r3, r7, r3
 151 0096 0F22     		movs	r2, #15
 152 0098 BA18     		adds	r2, r7, r2
 153 009a 1278     		ldrb	r2, [r2]
 154 009c DA70     		strb	r2, [r3, #3]
 442:Generated_Source\PSoC4/BLE_eventHandler.c **** 
 443:Generated_Source\PSoC4/BLE_eventHandler.c ****             /* Send Error Response */
 444:Generated_Source\PSoC4/BLE_eventHandler.c ****             (void)CyBle_GattsErrorRsp(eventParam->connHandle, &err_param);
 155              		.loc 1 444 0
 156 009e 0823     		movs	r3, #8
 157 00a0 FA18     		adds	r2, r7, r3
 158 00a2 7B68     		ldr	r3, [r7, #4]
 159 00a4 1100     		movs	r1, r2
 160 00a6 1868     		ldr	r0, [r3]
 161 00a8 FFF7FEFF 		bl	CyBle_GattsErrorRsp
 162              	.LBE2:
 445:Generated_Source\PSoC4/BLE_eventHandler.c ****         }
 446:Generated_Source\PSoC4/BLE_eventHandler.c ****         else
 447:Generated_Source\PSoC4/BLE_eventHandler.c ****         {
 448:Generated_Source\PSoC4/BLE_eventHandler.c ****             (void)CyBle_GattsWriteRsp(eventParam->connHandle);
 449:Generated_Source\PSoC4/BLE_eventHandler.c ****         }
 450:Generated_Source\PSoC4/BLE_eventHandler.c ****     }
 451:Generated_Source\PSoC4/BLE_eventHandler.c **** }
 163              		.loc 1 451 0
 164 00ac 03E0     		b	.L6
 165              	.L5:
 448:Generated_Source\PSoC4/BLE_eventHandler.c ****         }
 166              		.loc 1 448 0
 167 00ae 7B68     		ldr	r3, [r7, #4]
 168 00b0 1868     		ldr	r0, [r3]
 169 00b2 FFF7FEFF 		bl	CyBle_GattsWriteRsp
 170              	.L6:
 171              		.loc 1 451 0
 172 00b6 C046     		nop
 173 00b8 BD46     		mov	sp, r7
 174 00ba 05B0     		add	sp, sp, #20
 175              		@ sp needed
ARM GAS  C:\Users\Intern\AppData\Local\Temp\cc8xw9iJ.s 			page 12


 176 00bc 90BD     		pop	{r4, r7, pc}
 177              	.L8:
 178 00be C046     		.align	2
 179              	.L7:
 180 00c0 00000000 		.word	cyBle_eventHandlerFlag
 181              		.cfi_endproc
 182              	.LFE2:
 183              		.size	CyBle_WriteReqHandler, .-CyBle_WriteReqHandler
 184              		.section	.text.CyBle_ValueConfirmation,"ax",%progbits
 185              		.align	2
 186              		.code	16
 187              		.thumb_func
 188              		.type	CyBle_ValueConfirmation, %function
 189              	CyBle_ValueConfirmation:
 190              	.LFB3:
 452:Generated_Source\PSoC4/BLE_eventHandler.c **** 
 453:Generated_Source\PSoC4/BLE_eventHandler.c **** 
 454:Generated_Source\PSoC4/BLE_eventHandler.c **** /****************************************************************************** 
 455:Generated_Source\PSoC4/BLE_eventHandler.c **** * Function Name: CyBle_ValueConfirmation
 456:Generated_Source\PSoC4/BLE_eventHandler.c **** ***************************************************************************//**
 457:Generated_Source\PSoC4/BLE_eventHandler.c **** * 
 458:Generated_Source\PSoC4/BLE_eventHandler.c **** *  Handles the Value Confirmation request event from the BLE stack.
 459:Generated_Source\PSoC4/BLE_eventHandler.c **** * 
 460:Generated_Source\PSoC4/BLE_eventHandler.c **** *  \param eventParam: Pointer to a structure of type 'CYBLE_CONN_HANDLE_T'
 461:Generated_Source\PSoC4/BLE_eventHandler.c **** * 
 462:Generated_Source\PSoC4/BLE_eventHandler.c **** * \return
 463:Generated_Source\PSoC4/BLE_eventHandler.c **** *  None
 464:Generated_Source\PSoC4/BLE_eventHandler.c **** * 
 465:Generated_Source\PSoC4/BLE_eventHandler.c **** ******************************************************************************/
 466:Generated_Source\PSoC4/BLE_eventHandler.c **** static void CyBle_ValueConfirmation(const CYBLE_CONN_HANDLE_T *eventParam)
 467:Generated_Source\PSoC4/BLE_eventHandler.c **** {
 191              		.loc 1 467 0
 192              		.cfi_startproc
 193              		@ args = 0, pretend = 0, frame = 8
 194              		@ frame_needed = 1, uses_anonymous_args = 0
 195 0000 80B5     		push	{r7, lr}
 196              		.cfi_def_cfa_offset 8
 197              		.cfi_offset 7, -8
 198              		.cfi_offset 14, -4
 199 0002 82B0     		sub	sp, sp, #8
 200              		.cfi_def_cfa_offset 16
 201 0004 00AF     		add	r7, sp, #0
 202              		.cfi_def_cfa_register 7
 203 0006 7860     		str	r0, [r7, #4]
 468:Generated_Source\PSoC4/BLE_eventHandler.c ****     if(eventParam != NULL)
 204              		.loc 1 468 0
 205 0008 7B68     		ldr	r3, [r7, #4]
 206 000a 002B     		cmp	r3, #0
 207 000c 0AD0     		beq	.L11
 469:Generated_Source\PSoC4/BLE_eventHandler.c ****     {
 470:Generated_Source\PSoC4/BLE_eventHandler.c ****     #ifdef CYBLE_AIOS_SERVER
 471:Generated_Source\PSoC4/BLE_eventHandler.c ****         if((cyBle_eventHandlerFlag & CYBLE_CALLBACK) != 0u)
 472:Generated_Source\PSoC4/BLE_eventHandler.c ****         {
 473:Generated_Source\PSoC4/BLE_eventHandler.c ****             CyBle_AiossConfirmationEventHandler(eventParam);
 474:Generated_Source\PSoC4/BLE_eventHandler.c ****         }
 475:Generated_Source\PSoC4/BLE_eventHandler.c ****     #endif /* CYBLE_AIOS_SERVER */
 476:Generated_Source\PSoC4/BLE_eventHandler.c ****     #ifdef CYBLE_BCS_SERVER
ARM GAS  C:\Users\Intern\AppData\Local\Temp\cc8xw9iJ.s 			page 13


 477:Generated_Source\PSoC4/BLE_eventHandler.c ****         CyBle_BcssConfirmationEventHandler(eventParam);
 478:Generated_Source\PSoC4/BLE_eventHandler.c ****     #endif /* CYBLE_BCS_SERVER */
 479:Generated_Source\PSoC4/BLE_eventHandler.c ****     #ifdef CYBLE_BLS_SERVER
 480:Generated_Source\PSoC4/BLE_eventHandler.c ****         if((cyBle_eventHandlerFlag & CYBLE_CALLBACK) != 0u)
 481:Generated_Source\PSoC4/BLE_eventHandler.c ****         {
 482:Generated_Source\PSoC4/BLE_eventHandler.c ****             CyBle_BlssConfirmationEventHandler(eventParam);
 483:Generated_Source\PSoC4/BLE_eventHandler.c ****         }
 484:Generated_Source\PSoC4/BLE_eventHandler.c ****     #endif /* CYBLE_BLS_SERVER */
 485:Generated_Source\PSoC4/BLE_eventHandler.c ****     
 486:Generated_Source\PSoC4/BLE_eventHandler.c ****     #ifdef CYBLE_CGMS_SERVER
 487:Generated_Source\PSoC4/BLE_eventHandler.c ****         if((cyBle_eventHandlerFlag & CYBLE_CALLBACK) != 0u)
 488:Generated_Source\PSoC4/BLE_eventHandler.c ****         {
 489:Generated_Source\PSoC4/BLE_eventHandler.c ****             CyBle_CgmssConfirmationEventHandler(eventParam);
 490:Generated_Source\PSoC4/BLE_eventHandler.c ****         }
 491:Generated_Source\PSoC4/BLE_eventHandler.c ****     #endif /* CYBLE_CGMS_SERVER */
 492:Generated_Source\PSoC4/BLE_eventHandler.c ****     
 493:Generated_Source\PSoC4/BLE_eventHandler.c ****     #ifdef CYBLE_CPS_SERVER
 494:Generated_Source\PSoC4/BLE_eventHandler.c ****         if((cyBle_eventHandlerFlag & CYBLE_CALLBACK) != 0u)
 495:Generated_Source\PSoC4/BLE_eventHandler.c ****         {
 496:Generated_Source\PSoC4/BLE_eventHandler.c ****             CyBle_CpssConfirmationEventHandler(eventParam);
 497:Generated_Source\PSoC4/BLE_eventHandler.c ****         }
 498:Generated_Source\PSoC4/BLE_eventHandler.c ****     #endif /* CYBLE_CPS_SERVER */
 499:Generated_Source\PSoC4/BLE_eventHandler.c ****     
 500:Generated_Source\PSoC4/BLE_eventHandler.c ****     #ifdef CYBLE_CSCS_SERVER
 501:Generated_Source\PSoC4/BLE_eventHandler.c ****         if((cyBle_eventHandlerFlag & CYBLE_CALLBACK) != 0u)
 502:Generated_Source\PSoC4/BLE_eventHandler.c ****         {
 503:Generated_Source\PSoC4/BLE_eventHandler.c ****             CyBle_CscssConfirmationEventHandler(eventParam);
 504:Generated_Source\PSoC4/BLE_eventHandler.c ****         }
 505:Generated_Source\PSoC4/BLE_eventHandler.c ****     #endif /* CYBLE_CSCS_SERVER */
 506:Generated_Source\PSoC4/BLE_eventHandler.c ****     
 507:Generated_Source\PSoC4/BLE_eventHandler.c ****     #ifdef CYBLE_ESS_SERVER
 508:Generated_Source\PSoC4/BLE_eventHandler.c ****         if((cyBle_eventHandlerFlag & CYBLE_CALLBACK) != 0u)
 509:Generated_Source\PSoC4/BLE_eventHandler.c ****         {
 510:Generated_Source\PSoC4/BLE_eventHandler.c ****             CyBle_EsssConfirmationEventHandler(eventParam);
 511:Generated_Source\PSoC4/BLE_eventHandler.c ****         }
 512:Generated_Source\PSoC4/BLE_eventHandler.c ****     #endif /* CYBLE_ESS_SERVER */
 513:Generated_Source\PSoC4/BLE_eventHandler.c ****     
 514:Generated_Source\PSoC4/BLE_eventHandler.c ****     #ifdef CYBLE_GLS_SERVER
 515:Generated_Source\PSoC4/BLE_eventHandler.c ****         if((cyBle_eventHandlerFlag & CYBLE_CALLBACK) != 0u)
 516:Generated_Source\PSoC4/BLE_eventHandler.c ****         {
 517:Generated_Source\PSoC4/BLE_eventHandler.c ****             CyBle_GlssConfirmationEventHandler(eventParam);
 518:Generated_Source\PSoC4/BLE_eventHandler.c ****         }
 519:Generated_Source\PSoC4/BLE_eventHandler.c ****     #endif /* CYBLE_GLS_SERVER */
 520:Generated_Source\PSoC4/BLE_eventHandler.c ****     
 521:Generated_Source\PSoC4/BLE_eventHandler.c ****     #ifdef CYBLE_HTS_SERVER
 522:Generated_Source\PSoC4/BLE_eventHandler.c ****         if((cyBle_eventHandlerFlag & CYBLE_CALLBACK) != 0u)
 208              		.loc 1 522 0
 209 000e 074B     		ldr	r3, .L12
 210 0010 1B78     		ldrb	r3, [r3]
 211 0012 DBB2     		uxtb	r3, r3
 212 0014 1A00     		movs	r2, r3
 213 0016 0123     		movs	r3, #1
 214 0018 1340     		ands	r3, r2
 215 001a 03D0     		beq	.L11
 523:Generated_Source\PSoC4/BLE_eventHandler.c ****         {
 524:Generated_Source\PSoC4/BLE_eventHandler.c ****             CyBle_HtssConfirmationEventHandler(eventParam);
 216              		.loc 1 524 0
ARM GAS  C:\Users\Intern\AppData\Local\Temp\cc8xw9iJ.s 			page 14


 217 001c 7B68     		ldr	r3, [r7, #4]
 218 001e 1800     		movs	r0, r3
 219 0020 FFF7FEFF 		bl	CyBle_HtssConfirmationEventHandler
 220              	.L11:
 525:Generated_Source\PSoC4/BLE_eventHandler.c ****         }
 526:Generated_Source\PSoC4/BLE_eventHandler.c ****     #endif /* CYBLE_HTS_SERVER */
 527:Generated_Source\PSoC4/BLE_eventHandler.c **** 
 528:Generated_Source\PSoC4/BLE_eventHandler.c ****     #ifdef CYBLE_LNS_SERVER
 529:Generated_Source\PSoC4/BLE_eventHandler.c ****         if((cyBle_eventHandlerFlag & CYBLE_CALLBACK) != 0u)
 530:Generated_Source\PSoC4/BLE_eventHandler.c ****         {
 531:Generated_Source\PSoC4/BLE_eventHandler.c ****             CyBle_LnssConfirmationEventHandler(eventParam);
 532:Generated_Source\PSoC4/BLE_eventHandler.c ****         }
 533:Generated_Source\PSoC4/BLE_eventHandler.c ****     #endif /* CYBLE_LNS_SERVER */
 534:Generated_Source\PSoC4/BLE_eventHandler.c ****     
 535:Generated_Source\PSoC4/BLE_eventHandler.c ****     #ifdef CYBLE_RSCS_SERVER
 536:Generated_Source\PSoC4/BLE_eventHandler.c ****         if((cyBle_eventHandlerFlag & CYBLE_CALLBACK) != 0u)
 537:Generated_Source\PSoC4/BLE_eventHandler.c ****         {
 538:Generated_Source\PSoC4/BLE_eventHandler.c ****             CyBle_RscssConfirmationEventHandler(eventParam);
 539:Generated_Source\PSoC4/BLE_eventHandler.c ****         }
 540:Generated_Source\PSoC4/BLE_eventHandler.c ****     #endif /* CYBLE_RSCS_SERVER */
 541:Generated_Source\PSoC4/BLE_eventHandler.c ****     
 542:Generated_Source\PSoC4/BLE_eventHandler.c ****     #ifdef CYBLE_UDS_SERVER
 543:Generated_Source\PSoC4/BLE_eventHandler.c ****         if((cyBle_eventHandlerFlag & CYBLE_CALLBACK) != 0u)
 544:Generated_Source\PSoC4/BLE_eventHandler.c ****         {
 545:Generated_Source\PSoC4/BLE_eventHandler.c ****             CyBle_UdssConfirmationEventHandler(eventParam);
 546:Generated_Source\PSoC4/BLE_eventHandler.c ****         }
 547:Generated_Source\PSoC4/BLE_eventHandler.c ****     #endif /* CYBLE_UDS_SERVER */
 548:Generated_Source\PSoC4/BLE_eventHandler.c ****     
 549:Generated_Source\PSoC4/BLE_eventHandler.c ****     #ifdef CYBLE_WPTS_SERVER
 550:Generated_Source\PSoC4/BLE_eventHandler.c ****         if((cyBle_eventHandlerFlag & CYBLE_CALLBACK) != 0u)
 551:Generated_Source\PSoC4/BLE_eventHandler.c ****         {
 552:Generated_Source\PSoC4/BLE_eventHandler.c ****             CyBle_WptssConfirmationEventHandler(eventParam);
 553:Generated_Source\PSoC4/BLE_eventHandler.c ****         }
 554:Generated_Source\PSoC4/BLE_eventHandler.c ****     #endif /* CYBLE_WPTS_SERVER */
 555:Generated_Source\PSoC4/BLE_eventHandler.c ****     
 556:Generated_Source\PSoC4/BLE_eventHandler.c ****     #ifdef CYBLE_WSS_SERVER
 557:Generated_Source\PSoC4/BLE_eventHandler.c ****         if((cyBle_eventHandlerFlag & CYBLE_CALLBACK) != 0u)
 558:Generated_Source\PSoC4/BLE_eventHandler.c ****         {
 559:Generated_Source\PSoC4/BLE_eventHandler.c ****             CyBle_WsssConfirmationEventHandler(eventParam);
 560:Generated_Source\PSoC4/BLE_eventHandler.c ****         }
 561:Generated_Source\PSoC4/BLE_eventHandler.c ****     #endif /* CYBLE_WSS_SERVER */
 562:Generated_Source\PSoC4/BLE_eventHandler.c ****     }
 563:Generated_Source\PSoC4/BLE_eventHandler.c **** }
 221              		.loc 1 563 0
 222 0024 C046     		nop
 223 0026 BD46     		mov	sp, r7
 224 0028 02B0     		add	sp, sp, #8
 225              		@ sp needed
 226 002a 80BD     		pop	{r7, pc}
 227              	.L13:
 228              		.align	2
 229              	.L12:
 230 002c 00000000 		.word	cyBle_eventHandlerFlag
 231              		.cfi_endproc
 232              	.LFE3:
 233              		.size	CyBle_ValueConfirmation, .-CyBle_ValueConfirmation
 234              		.section	.text.CyBle_GattDisconnectEventHandler,"ax",%progbits
ARM GAS  C:\Users\Intern\AppData\Local\Temp\cc8xw9iJ.s 			page 15


 235              		.align	2
 236              		.code	16
 237              		.thumb_func
 238              		.type	CyBle_GattDisconnectEventHandler, %function
 239              	CyBle_GattDisconnectEventHandler:
 240              	.LFB4:
 564:Generated_Source\PSoC4/BLE_eventHandler.c **** 
 565:Generated_Source\PSoC4/BLE_eventHandler.c **** #endif /* CYBLE_GATT_ROLE_SERVER */
 566:Generated_Source\PSoC4/BLE_eventHandler.c **** 
 567:Generated_Source\PSoC4/BLE_eventHandler.c **** 
 568:Generated_Source\PSoC4/BLE_eventHandler.c **** #if (CYBLE_GATT_ROLE_CLIENT)
 569:Generated_Source\PSoC4/BLE_eventHandler.c **** 
 570:Generated_Source\PSoC4/BLE_eventHandler.c **** /****************************************************************************** 
 571:Generated_Source\PSoC4/BLE_eventHandler.c **** * Function Name: CyBle_GattcWriteResponseEventHandler
 572:Generated_Source\PSoC4/BLE_eventHandler.c **** ***************************************************************************//**
 573:Generated_Source\PSoC4/BLE_eventHandler.c **** * 
 574:Generated_Source\PSoC4/BLE_eventHandler.c **** *  Handles the Write response event from the BLE stack.
 575:Generated_Source\PSoC4/BLE_eventHandler.c **** * 
 576:Generated_Source\PSoC4/BLE_eventHandler.c **** *  \param eventParam: Pointer to a structure of type 'CYBLE_CONN_HANDLE_T'
 577:Generated_Source\PSoC4/BLE_eventHandler.c **** * 
 578:Generated_Source\PSoC4/BLE_eventHandler.c **** * \return
 579:Generated_Source\PSoC4/BLE_eventHandler.c **** *  None
 580:Generated_Source\PSoC4/BLE_eventHandler.c **** * 
 581:Generated_Source\PSoC4/BLE_eventHandler.c **** ******************************************************************************/
 582:Generated_Source\PSoC4/BLE_eventHandler.c **** static void CyBle_GattcWriteResponseEventHandler(const CYBLE_CONN_HANDLE_T *eventParam)
 583:Generated_Source\PSoC4/BLE_eventHandler.c **** {
 584:Generated_Source\PSoC4/BLE_eventHandler.c **** 
 585:Generated_Source\PSoC4/BLE_eventHandler.c **** #ifdef CYBLE_AIOS_CLIENT
 586:Generated_Source\PSoC4/BLE_eventHandler.c ****     if((cyBle_eventHandlerFlag & CYBLE_CALLBACK) != 0u)
 587:Generated_Source\PSoC4/BLE_eventHandler.c ****     {
 588:Generated_Source\PSoC4/BLE_eventHandler.c ****         CyBle_AioscWriteResponseEventHandler(eventParam);
 589:Generated_Source\PSoC4/BLE_eventHandler.c ****     }
 590:Generated_Source\PSoC4/BLE_eventHandler.c **** #endif /* CYBLE_AIOS_CLIENT */
 591:Generated_Source\PSoC4/BLE_eventHandler.c **** 
 592:Generated_Source\PSoC4/BLE_eventHandler.c **** #ifdef CYBLE_ANCS_CLIENT
 593:Generated_Source\PSoC4/BLE_eventHandler.c ****     CyBle_AncscWriteResponseEventHandler(eventParam);
 594:Generated_Source\PSoC4/BLE_eventHandler.c **** #endif /* CYBLE_ANCS_CLIENT */
 595:Generated_Source\PSoC4/BLE_eventHandler.c **** 
 596:Generated_Source\PSoC4/BLE_eventHandler.c **** #ifdef CYBLE_ANS_CLIENT
 597:Generated_Source\PSoC4/BLE_eventHandler.c ****     if((cyBle_eventHandlerFlag & CYBLE_CALLBACK) != 0u)
 598:Generated_Source\PSoC4/BLE_eventHandler.c ****     {
 599:Generated_Source\PSoC4/BLE_eventHandler.c ****         CyBle_AnscWriteResponseEventHandler(eventParam);
 600:Generated_Source\PSoC4/BLE_eventHandler.c ****     }
 601:Generated_Source\PSoC4/BLE_eventHandler.c **** #endif /* CYBLE_ANS_CLIENT */
 602:Generated_Source\PSoC4/BLE_eventHandler.c **** 
 603:Generated_Source\PSoC4/BLE_eventHandler.c **** #ifdef CYBLE_BAS_CLIENT
 604:Generated_Source\PSoC4/BLE_eventHandler.c ****     if((cyBle_eventHandlerFlag & CYBLE_CALLBACK) != 0u)
 605:Generated_Source\PSoC4/BLE_eventHandler.c ****     {
 606:Generated_Source\PSoC4/BLE_eventHandler.c ****         CyBle_BascWriteResponseEventHandler(eventParam);
 607:Generated_Source\PSoC4/BLE_eventHandler.c ****     }
 608:Generated_Source\PSoC4/BLE_eventHandler.c **** #endif /* CYBLE_BAS_CLIENT */
 609:Generated_Source\PSoC4/BLE_eventHandler.c **** 
 610:Generated_Source\PSoC4/BLE_eventHandler.c **** #ifdef CYBLE_BCS_CLIENT
 611:Generated_Source\PSoC4/BLE_eventHandler.c ****     if((cyBle_eventHandlerFlag & CYBLE_CALLBACK) != 0u)
 612:Generated_Source\PSoC4/BLE_eventHandler.c ****     {
 613:Generated_Source\PSoC4/BLE_eventHandler.c ****         CyBle_BcscWriteResponseEventHandler(eventParam);
 614:Generated_Source\PSoC4/BLE_eventHandler.c ****     }
ARM GAS  C:\Users\Intern\AppData\Local\Temp\cc8xw9iJ.s 			page 16


 615:Generated_Source\PSoC4/BLE_eventHandler.c **** #endif /* CYBLE_BCS_CLIENT */
 616:Generated_Source\PSoC4/BLE_eventHandler.c **** 
 617:Generated_Source\PSoC4/BLE_eventHandler.c **** #ifdef CYBLE_BLS_CLIENT
 618:Generated_Source\PSoC4/BLE_eventHandler.c ****     if((cyBle_eventHandlerFlag & CYBLE_CALLBACK) != 0u)
 619:Generated_Source\PSoC4/BLE_eventHandler.c ****     {
 620:Generated_Source\PSoC4/BLE_eventHandler.c ****         CyBle_BlscWriteResponseEventHandler(eventParam);
 621:Generated_Source\PSoC4/BLE_eventHandler.c ****     }
 622:Generated_Source\PSoC4/BLE_eventHandler.c **** #endif /* CYBLE_BLS_CLIENT */
 623:Generated_Source\PSoC4/BLE_eventHandler.c **** 
 624:Generated_Source\PSoC4/BLE_eventHandler.c **** #ifdef CYBLE_BMS_CLIENT
 625:Generated_Source\PSoC4/BLE_eventHandler.c ****     if((cyBle_eventHandlerFlag & CYBLE_CALLBACK) != 0u)
 626:Generated_Source\PSoC4/BLE_eventHandler.c ****     {
 627:Generated_Source\PSoC4/BLE_eventHandler.c ****         CyBle_BmscWriteResponseEventHandler(eventParam);
 628:Generated_Source\PSoC4/BLE_eventHandler.c ****     }
 629:Generated_Source\PSoC4/BLE_eventHandler.c **** #endif /* CYBLE_BMS_CLIENT */
 630:Generated_Source\PSoC4/BLE_eventHandler.c **** 
 631:Generated_Source\PSoC4/BLE_eventHandler.c **** #ifdef CYBLE_CGMS_CLIENT
 632:Generated_Source\PSoC4/BLE_eventHandler.c ****     if((cyBle_eventHandlerFlag & CYBLE_CALLBACK) != 0u)
 633:Generated_Source\PSoC4/BLE_eventHandler.c ****     {
 634:Generated_Source\PSoC4/BLE_eventHandler.c ****         CyBle_CgmscWriteResponseEventHandler(eventParam);
 635:Generated_Source\PSoC4/BLE_eventHandler.c ****     }
 636:Generated_Source\PSoC4/BLE_eventHandler.c **** #endif /* CYBLE_CGMS_CLIENT */
 637:Generated_Source\PSoC4/BLE_eventHandler.c **** 
 638:Generated_Source\PSoC4/BLE_eventHandler.c **** #ifdef CYBLE_CPS_CLIENT
 639:Generated_Source\PSoC4/BLE_eventHandler.c ****     if((cyBle_eventHandlerFlag & CYBLE_CALLBACK) != 0u)
 640:Generated_Source\PSoC4/BLE_eventHandler.c ****     {
 641:Generated_Source\PSoC4/BLE_eventHandler.c ****         CyBle_CpscWriteResponseEventHandler(eventParam);
 642:Generated_Source\PSoC4/BLE_eventHandler.c ****     }
 643:Generated_Source\PSoC4/BLE_eventHandler.c **** #endif /* CYBLE_CPS_CLIENT */
 644:Generated_Source\PSoC4/BLE_eventHandler.c **** 
 645:Generated_Source\PSoC4/BLE_eventHandler.c **** #ifdef CYBLE_CSCS_CLIENT
 646:Generated_Source\PSoC4/BLE_eventHandler.c ****     if((cyBle_eventHandlerFlag & CYBLE_CALLBACK) != 0u)
 647:Generated_Source\PSoC4/BLE_eventHandler.c ****     {
 648:Generated_Source\PSoC4/BLE_eventHandler.c ****         CyBle_CscscWriteResponseEventHandler(eventParam);
 649:Generated_Source\PSoC4/BLE_eventHandler.c ****     }
 650:Generated_Source\PSoC4/BLE_eventHandler.c **** #endif /* CYBLE_CSCS_CLIENT */
 651:Generated_Source\PSoC4/BLE_eventHandler.c **** 
 652:Generated_Source\PSoC4/BLE_eventHandler.c **** #ifdef CYBLE_CTS_CLIENT
 653:Generated_Source\PSoC4/BLE_eventHandler.c ****     if((cyBle_eventHandlerFlag & CYBLE_CALLBACK) != 0u)
 654:Generated_Source\PSoC4/BLE_eventHandler.c ****     {
 655:Generated_Source\PSoC4/BLE_eventHandler.c ****         CyBle_CtscWriteResponseEventHandler(eventParam);
 656:Generated_Source\PSoC4/BLE_eventHandler.c ****     }
 657:Generated_Source\PSoC4/BLE_eventHandler.c **** #endif /* CYBLE_CTS_CLIENT */
 658:Generated_Source\PSoC4/BLE_eventHandler.c **** 
 659:Generated_Source\PSoC4/BLE_eventHandler.c **** #ifdef CYBLE_ESS_CLIENT
 660:Generated_Source\PSoC4/BLE_eventHandler.c ****     if((cyBle_eventHandlerFlag & CYBLE_CALLBACK) != 0u)
 661:Generated_Source\PSoC4/BLE_eventHandler.c ****     {
 662:Generated_Source\PSoC4/BLE_eventHandler.c ****         CyBle_EsscWriteResponseEventHandler(eventParam);
 663:Generated_Source\PSoC4/BLE_eventHandler.c ****     }
 664:Generated_Source\PSoC4/BLE_eventHandler.c **** #endif /* CYBLE_ESS_CLIENT */
 665:Generated_Source\PSoC4/BLE_eventHandler.c **** 
 666:Generated_Source\PSoC4/BLE_eventHandler.c **** #ifdef CYBLE_GLS_CLIENT
 667:Generated_Source\PSoC4/BLE_eventHandler.c ****     if((cyBle_eventHandlerFlag & CYBLE_CALLBACK) != 0u)
 668:Generated_Source\PSoC4/BLE_eventHandler.c ****     {
 669:Generated_Source\PSoC4/BLE_eventHandler.c ****         CyBle_GlscWriteResponseEventHandler(eventParam);
 670:Generated_Source\PSoC4/BLE_eventHandler.c ****     }
 671:Generated_Source\PSoC4/BLE_eventHandler.c **** #endif /* CYBLE_GLS_CLIENT */
ARM GAS  C:\Users\Intern\AppData\Local\Temp\cc8xw9iJ.s 			page 17


 672:Generated_Source\PSoC4/BLE_eventHandler.c **** 
 673:Generated_Source\PSoC4/BLE_eventHandler.c **** #ifdef CYBLE_HIDS_CLIENT
 674:Generated_Source\PSoC4/BLE_eventHandler.c ****     if((cyBle_eventHandlerFlag & CYBLE_CALLBACK) != 0u)
 675:Generated_Source\PSoC4/BLE_eventHandler.c ****     {
 676:Generated_Source\PSoC4/BLE_eventHandler.c ****         CyBle_HidscWriteResponseEventHandler(eventParam);
 677:Generated_Source\PSoC4/BLE_eventHandler.c ****     }
 678:Generated_Source\PSoC4/BLE_eventHandler.c **** #endif /* CYBLE_HIDS_CLIENT */
 679:Generated_Source\PSoC4/BLE_eventHandler.c **** 
 680:Generated_Source\PSoC4/BLE_eventHandler.c **** #ifdef CYBLE_HPS_CLIENT
 681:Generated_Source\PSoC4/BLE_eventHandler.c ****     if((cyBle_eventHandlerFlag & CYBLE_CALLBACK) != 0u)
 682:Generated_Source\PSoC4/BLE_eventHandler.c ****     {
 683:Generated_Source\PSoC4/BLE_eventHandler.c ****         CyBle_HpscWriteResponseEventHandler(eventParam);
 684:Generated_Source\PSoC4/BLE_eventHandler.c ****     }
 685:Generated_Source\PSoC4/BLE_eventHandler.c **** #endif /* CYBLE_HPS_CLIENT */
 686:Generated_Source\PSoC4/BLE_eventHandler.c **** 
 687:Generated_Source\PSoC4/BLE_eventHandler.c **** #ifdef CYBLE_HRS_CLIENT
 688:Generated_Source\PSoC4/BLE_eventHandler.c ****     if((cyBle_eventHandlerFlag & CYBLE_CALLBACK) != 0u)
 689:Generated_Source\PSoC4/BLE_eventHandler.c ****     {
 690:Generated_Source\PSoC4/BLE_eventHandler.c ****         CyBle_HrscWriteResponseEventHandler(eventParam);
 691:Generated_Source\PSoC4/BLE_eventHandler.c ****     }
 692:Generated_Source\PSoC4/BLE_eventHandler.c **** #endif /* CYBLE_HRS_CLIENT */
 693:Generated_Source\PSoC4/BLE_eventHandler.c **** 
 694:Generated_Source\PSoC4/BLE_eventHandler.c **** #ifdef CYBLE_HTS_CLIENT
 695:Generated_Source\PSoC4/BLE_eventHandler.c ****     if((cyBle_eventHandlerFlag & CYBLE_CALLBACK) != 0u)
 696:Generated_Source\PSoC4/BLE_eventHandler.c ****     {
 697:Generated_Source\PSoC4/BLE_eventHandler.c ****         CyBle_HtscWriteResponseEventHandler(eventParam);
 698:Generated_Source\PSoC4/BLE_eventHandler.c ****     }
 699:Generated_Source\PSoC4/BLE_eventHandler.c **** #endif /* CYBLE_HTS_CLIENT */
 700:Generated_Source\PSoC4/BLE_eventHandler.c **** 
 701:Generated_Source\PSoC4/BLE_eventHandler.c **** #ifdef CYBLE_IPS_CLIENT
 702:Generated_Source\PSoC4/BLE_eventHandler.c ****     if((cyBle_eventHandlerFlag & CYBLE_CALLBACK) != 0u)
 703:Generated_Source\PSoC4/BLE_eventHandler.c ****     {
 704:Generated_Source\PSoC4/BLE_eventHandler.c ****         CyBle_IpscWriteResponseEventHandler(eventParam);
 705:Generated_Source\PSoC4/BLE_eventHandler.c ****     }
 706:Generated_Source\PSoC4/BLE_eventHandler.c **** #endif /* CYBLE_IPS_CLIENT */
 707:Generated_Source\PSoC4/BLE_eventHandler.c **** 
 708:Generated_Source\PSoC4/BLE_eventHandler.c **** #ifdef CYBLE_LLS_CLIENT
 709:Generated_Source\PSoC4/BLE_eventHandler.c ****     if((cyBle_eventHandlerFlag & CYBLE_CALLBACK) != 0u)
 710:Generated_Source\PSoC4/BLE_eventHandler.c ****     {
 711:Generated_Source\PSoC4/BLE_eventHandler.c ****         CyBle_LlscWriteResponseEventHandler(eventParam);
 712:Generated_Source\PSoC4/BLE_eventHandler.c ****     }
 713:Generated_Source\PSoC4/BLE_eventHandler.c **** #endif /* CYBLE_LLS_CLIENT */
 714:Generated_Source\PSoC4/BLE_eventHandler.c **** 
 715:Generated_Source\PSoC4/BLE_eventHandler.c **** #ifdef CYBLE_LNS_CLIENT
 716:Generated_Source\PSoC4/BLE_eventHandler.c ****     if((cyBle_eventHandlerFlag & CYBLE_CALLBACK) != 0u)
 717:Generated_Source\PSoC4/BLE_eventHandler.c ****     {
 718:Generated_Source\PSoC4/BLE_eventHandler.c ****         CyBle_LnscWriteResponseEventHandler(eventParam);
 719:Generated_Source\PSoC4/BLE_eventHandler.c ****     }
 720:Generated_Source\PSoC4/BLE_eventHandler.c **** #endif /* CYBLE_LNS_CLIENT */
 721:Generated_Source\PSoC4/BLE_eventHandler.c **** 
 722:Generated_Source\PSoC4/BLE_eventHandler.c **** #ifdef CYBLE_PASS_CLIENT
 723:Generated_Source\PSoC4/BLE_eventHandler.c ****     if((cyBle_eventHandlerFlag & CYBLE_CALLBACK) != 0u)
 724:Generated_Source\PSoC4/BLE_eventHandler.c ****     {
 725:Generated_Source\PSoC4/BLE_eventHandler.c ****         CyBle_PasscWriteResponseEventHandler(eventParam);
 726:Generated_Source\PSoC4/BLE_eventHandler.c ****     }
 727:Generated_Source\PSoC4/BLE_eventHandler.c **** #endif /* CYBLE_PASS_CLIENT */
 728:Generated_Source\PSoC4/BLE_eventHandler.c **** 
ARM GAS  C:\Users\Intern\AppData\Local\Temp\cc8xw9iJ.s 			page 18


 729:Generated_Source\PSoC4/BLE_eventHandler.c **** #ifdef CYBLE_PLXS_CLIENT
 730:Generated_Source\PSoC4/BLE_eventHandler.c ****     if((cyBle_eventHandlerFlag & CYBLE_CALLBACK) != 0u)
 731:Generated_Source\PSoC4/BLE_eventHandler.c ****     {
 732:Generated_Source\PSoC4/BLE_eventHandler.c ****         CyBle_PlxscWriteResponseEventHandler(eventParam);
 733:Generated_Source\PSoC4/BLE_eventHandler.c ****     }
 734:Generated_Source\PSoC4/BLE_eventHandler.c **** #endif /* CYBLE_PASS_CLIENT */
 735:Generated_Source\PSoC4/BLE_eventHandler.c **** 
 736:Generated_Source\PSoC4/BLE_eventHandler.c **** #ifdef CYBLE_RSCS_CLIENT
 737:Generated_Source\PSoC4/BLE_eventHandler.c ****     if((cyBle_eventHandlerFlag & CYBLE_CALLBACK) != 0u)
 738:Generated_Source\PSoC4/BLE_eventHandler.c ****     {
 739:Generated_Source\PSoC4/BLE_eventHandler.c ****         CyBle_RscscWriteResponseEventHandler(eventParam);
 740:Generated_Source\PSoC4/BLE_eventHandler.c ****     }
 741:Generated_Source\PSoC4/BLE_eventHandler.c **** #endif /* CYBLE_RSCS_CLIENT */
 742:Generated_Source\PSoC4/BLE_eventHandler.c **** 
 743:Generated_Source\PSoC4/BLE_eventHandler.c **** #ifdef CYBLE_SCPS_CLIENT
 744:Generated_Source\PSoC4/BLE_eventHandler.c ****     if((cyBle_eventHandlerFlag & CYBLE_CALLBACK) != 0u)
 745:Generated_Source\PSoC4/BLE_eventHandler.c ****     {
 746:Generated_Source\PSoC4/BLE_eventHandler.c ****         CyBle_ScpscWriteResponseEventHandler(eventParam);
 747:Generated_Source\PSoC4/BLE_eventHandler.c ****     }
 748:Generated_Source\PSoC4/BLE_eventHandler.c **** #endif /* CYBLE_SCPS_CLIENT */
 749:Generated_Source\PSoC4/BLE_eventHandler.c **** 
 750:Generated_Source\PSoC4/BLE_eventHandler.c **** #ifdef CYBLE_TPS_CLIENT
 751:Generated_Source\PSoC4/BLE_eventHandler.c ****     if((cyBle_eventHandlerFlag & CYBLE_CALLBACK) != 0u)
 752:Generated_Source\PSoC4/BLE_eventHandler.c ****     {
 753:Generated_Source\PSoC4/BLE_eventHandler.c ****         CyBle_TpscWriteResponseEventHandler(eventParam);
 754:Generated_Source\PSoC4/BLE_eventHandler.c ****     }
 755:Generated_Source\PSoC4/BLE_eventHandler.c **** #endif /* CYBLE_TPS_CLIENT */
 756:Generated_Source\PSoC4/BLE_eventHandler.c **** 
 757:Generated_Source\PSoC4/BLE_eventHandler.c **** #ifdef CYBLE_UDS_CLIENT
 758:Generated_Source\PSoC4/BLE_eventHandler.c ****     if((cyBle_eventHandlerFlag & CYBLE_CALLBACK) != 0u)
 759:Generated_Source\PSoC4/BLE_eventHandler.c ****     {
 760:Generated_Source\PSoC4/BLE_eventHandler.c ****         CyBle_UdscWriteResponseEventHandler(eventParam);
 761:Generated_Source\PSoC4/BLE_eventHandler.c ****     }
 762:Generated_Source\PSoC4/BLE_eventHandler.c **** #endif /* CYBLE_UDS_CLIENT */
 763:Generated_Source\PSoC4/BLE_eventHandler.c **** #ifdef CYBLE_WPTS_CLIENT
 764:Generated_Source\PSoC4/BLE_eventHandler.c ****     if((cyBle_eventHandlerFlag & CYBLE_CALLBACK) != 0u)
 765:Generated_Source\PSoC4/BLE_eventHandler.c ****     {
 766:Generated_Source\PSoC4/BLE_eventHandler.c ****         CyBle_WptscWriteResponseEventHandler(eventParam);
 767:Generated_Source\PSoC4/BLE_eventHandler.c ****     }
 768:Generated_Source\PSoC4/BLE_eventHandler.c **** #endif /* CYBLE_WPTS_CLIENT */
 769:Generated_Source\PSoC4/BLE_eventHandler.c **** #ifdef CYBLE_WSS_CLIENT
 770:Generated_Source\PSoC4/BLE_eventHandler.c ****     if((cyBle_eventHandlerFlag & CYBLE_CALLBACK) != 0u)
 771:Generated_Source\PSoC4/BLE_eventHandler.c ****     {
 772:Generated_Source\PSoC4/BLE_eventHandler.c ****         CyBle_WsscWriteResponseEventHandler(eventParam);
 773:Generated_Source\PSoC4/BLE_eventHandler.c ****     }
 774:Generated_Source\PSoC4/BLE_eventHandler.c **** #endif /* CYBLE_WSS_CLIENT */
 775:Generated_Source\PSoC4/BLE_eventHandler.c **** }
 776:Generated_Source\PSoC4/BLE_eventHandler.c **** 
 777:Generated_Source\PSoC4/BLE_eventHandler.c **** 
 778:Generated_Source\PSoC4/BLE_eventHandler.c **** /******************************************************************************    
 779:Generated_Source\PSoC4/BLE_eventHandler.c **** * Function Name: CyBle_NotificationEventHandler
 780:Generated_Source\PSoC4/BLE_eventHandler.c **** ***************************************************************************//**
 781:Generated_Source\PSoC4/BLE_eventHandler.c **** * 
 782:Generated_Source\PSoC4/BLE_eventHandler.c **** *  Handles the Notification event from BLE stack.
 783:Generated_Source\PSoC4/BLE_eventHandler.c **** * 
 784:Generated_Source\PSoC4/BLE_eventHandler.c **** *  \param eventParam: event parameter
 785:Generated_Source\PSoC4/BLE_eventHandler.c **** * 
ARM GAS  C:\Users\Intern\AppData\Local\Temp\cc8xw9iJ.s 			page 19


 786:Generated_Source\PSoC4/BLE_eventHandler.c **** * \return
 787:Generated_Source\PSoC4/BLE_eventHandler.c **** *  None
 788:Generated_Source\PSoC4/BLE_eventHandler.c **** * 
 789:Generated_Source\PSoC4/BLE_eventHandler.c **** ******************************************************************************/
 790:Generated_Source\PSoC4/BLE_eventHandler.c **** static void CyBle_NotificationEventHandler(CYBLE_GATTC_HANDLE_VALUE_NTF_PARAM_T *eventParam)
 791:Generated_Source\PSoC4/BLE_eventHandler.c **** {
 792:Generated_Source\PSoC4/BLE_eventHandler.c **** #ifdef CYBLE_AIOS_CLIENT
 793:Generated_Source\PSoC4/BLE_eventHandler.c ****     if((cyBle_eventHandlerFlag & CYBLE_CALLBACK) != 0u)
 794:Generated_Source\PSoC4/BLE_eventHandler.c ****     {
 795:Generated_Source\PSoC4/BLE_eventHandler.c ****         CyBle_AioscNotificationEventHandler(eventParam);
 796:Generated_Source\PSoC4/BLE_eventHandler.c ****     }
 797:Generated_Source\PSoC4/BLE_eventHandler.c **** #endif /* CYBLE_AIOS_CLIENT */
 798:Generated_Source\PSoC4/BLE_eventHandler.c **** #ifdef CYBLE_ANCS_CLIENT
 799:Generated_Source\PSoC4/BLE_eventHandler.c ****     CyBle_AncscNotificationEventHandler(eventParam);
 800:Generated_Source\PSoC4/BLE_eventHandler.c **** #endif /* CYBLE_ANCS_CLIENT */
 801:Generated_Source\PSoC4/BLE_eventHandler.c **** #ifdef CYBLE_ANS_CLIENT
 802:Generated_Source\PSoC4/BLE_eventHandler.c ****     if((cyBle_eventHandlerFlag & CYBLE_CALLBACK) != 0u)
 803:Generated_Source\PSoC4/BLE_eventHandler.c ****     {
 804:Generated_Source\PSoC4/BLE_eventHandler.c ****         CyBle_AnscNotificationEventHandler(eventParam);
 805:Generated_Source\PSoC4/BLE_eventHandler.c ****     }
 806:Generated_Source\PSoC4/BLE_eventHandler.c **** #endif /* CYBLE_ANS_CLIENT */
 807:Generated_Source\PSoC4/BLE_eventHandler.c **** #ifdef CYBLE_BAS_CLIENT
 808:Generated_Source\PSoC4/BLE_eventHandler.c ****     if((cyBle_eventHandlerFlag & CYBLE_CALLBACK) != 0u)
 809:Generated_Source\PSoC4/BLE_eventHandler.c ****     {
 810:Generated_Source\PSoC4/BLE_eventHandler.c ****         CyBle_BascNotificationEventHandler(eventParam);
 811:Generated_Source\PSoC4/BLE_eventHandler.c ****     }
 812:Generated_Source\PSoC4/BLE_eventHandler.c **** #endif /* CYBLE_BAS_CLIENT */
 813:Generated_Source\PSoC4/BLE_eventHandler.c **** #ifdef CYBLE_BLS_CLIENT
 814:Generated_Source\PSoC4/BLE_eventHandler.c ****     if((cyBle_eventHandlerFlag & CYBLE_CALLBACK) != 0u)
 815:Generated_Source\PSoC4/BLE_eventHandler.c ****     {
 816:Generated_Source\PSoC4/BLE_eventHandler.c ****         CyBle_BlscNotificationEventHandler(eventParam);
 817:Generated_Source\PSoC4/BLE_eventHandler.c ****     }
 818:Generated_Source\PSoC4/BLE_eventHandler.c **** #endif /* CYBLE_BLS_CLIENT */
 819:Generated_Source\PSoC4/BLE_eventHandler.c **** #ifdef CYBLE_CGMS_CLIENT
 820:Generated_Source\PSoC4/BLE_eventHandler.c ****     if((cyBle_eventHandlerFlag & CYBLE_CALLBACK) != 0u)
 821:Generated_Source\PSoC4/BLE_eventHandler.c ****     {
 822:Generated_Source\PSoC4/BLE_eventHandler.c ****         CyBle_CgmscNotificationEventHandler(eventParam);
 823:Generated_Source\PSoC4/BLE_eventHandler.c ****     }
 824:Generated_Source\PSoC4/BLE_eventHandler.c **** #endif /* CYBLE_CGMS_CLIENT */
 825:Generated_Source\PSoC4/BLE_eventHandler.c **** #ifdef CYBLE_CPS_CLIENT
 826:Generated_Source\PSoC4/BLE_eventHandler.c ****     if((cyBle_eventHandlerFlag & CYBLE_CALLBACK) != 0u)
 827:Generated_Source\PSoC4/BLE_eventHandler.c ****     {
 828:Generated_Source\PSoC4/BLE_eventHandler.c ****         CyBle_CpscNotificationEventHandler(eventParam);
 829:Generated_Source\PSoC4/BLE_eventHandler.c ****     }
 830:Generated_Source\PSoC4/BLE_eventHandler.c **** #endif /* CYBLE_CPS_CLIENT */
 831:Generated_Source\PSoC4/BLE_eventHandler.c **** #ifdef CYBLE_CSCS_CLIENT
 832:Generated_Source\PSoC4/BLE_eventHandler.c ****     if((cyBle_eventHandlerFlag & CYBLE_CALLBACK) != 0u)
 833:Generated_Source\PSoC4/BLE_eventHandler.c ****     {
 834:Generated_Source\PSoC4/BLE_eventHandler.c ****         CyBle_CscscNotificationEventHandler(eventParam);
 835:Generated_Source\PSoC4/BLE_eventHandler.c ****     }
 836:Generated_Source\PSoC4/BLE_eventHandler.c **** #endif /* CYBLE_CSCS_CLIENT */
 837:Generated_Source\PSoC4/BLE_eventHandler.c **** #ifdef CYBLE_CTS_CLIENT
 838:Generated_Source\PSoC4/BLE_eventHandler.c ****     if((cyBle_eventHandlerFlag & CYBLE_CALLBACK) != 0u)
 839:Generated_Source\PSoC4/BLE_eventHandler.c ****     {
 840:Generated_Source\PSoC4/BLE_eventHandler.c ****         CyBle_CtscNotificationEventHandler(eventParam);
 841:Generated_Source\PSoC4/BLE_eventHandler.c ****     }
 842:Generated_Source\PSoC4/BLE_eventHandler.c **** #endif /* CYBLE_CTS_CLIENT */
ARM GAS  C:\Users\Intern\AppData\Local\Temp\cc8xw9iJ.s 			page 20


 843:Generated_Source\PSoC4/BLE_eventHandler.c **** #ifdef CYBLE_ESS_CLIENT
 844:Generated_Source\PSoC4/BLE_eventHandler.c ****     if((cyBle_eventHandlerFlag & CYBLE_CALLBACK) != 0u)
 845:Generated_Source\PSoC4/BLE_eventHandler.c ****     {
 846:Generated_Source\PSoC4/BLE_eventHandler.c ****         CyBle_EsscNotificationEventHandler(eventParam);
 847:Generated_Source\PSoC4/BLE_eventHandler.c ****     }
 848:Generated_Source\PSoC4/BLE_eventHandler.c **** #endif /* CYBLE_ESS_CLIENT */
 849:Generated_Source\PSoC4/BLE_eventHandler.c **** #ifdef CYBLE_GLS_CLIENT
 850:Generated_Source\PSoC4/BLE_eventHandler.c ****     if((cyBle_eventHandlerFlag & CYBLE_CALLBACK) != 0u)
 851:Generated_Source\PSoC4/BLE_eventHandler.c ****     {
 852:Generated_Source\PSoC4/BLE_eventHandler.c ****         CyBle_GlscNotificationEventHandler(eventParam);
 853:Generated_Source\PSoC4/BLE_eventHandler.c ****     }
 854:Generated_Source\PSoC4/BLE_eventHandler.c **** #endif /* CYBLE_GLS_CLIENT */
 855:Generated_Source\PSoC4/BLE_eventHandler.c **** #ifdef CYBLE_HIDS_CLIENT
 856:Generated_Source\PSoC4/BLE_eventHandler.c ****     if((cyBle_eventHandlerFlag & CYBLE_CALLBACK) != 0u)
 857:Generated_Source\PSoC4/BLE_eventHandler.c ****     {
 858:Generated_Source\PSoC4/BLE_eventHandler.c ****         CyBle_HidscNotificationEventHandler(eventParam);
 859:Generated_Source\PSoC4/BLE_eventHandler.c ****     }
 860:Generated_Source\PSoC4/BLE_eventHandler.c **** #endif /* CYBLE_HIDS_CLIENT */
 861:Generated_Source\PSoC4/BLE_eventHandler.c **** #ifdef CYBLE_HPS_CLIENT
 862:Generated_Source\PSoC4/BLE_eventHandler.c ****     if((cyBle_eventHandlerFlag & CYBLE_CALLBACK) != 0u)
 863:Generated_Source\PSoC4/BLE_eventHandler.c ****     {
 864:Generated_Source\PSoC4/BLE_eventHandler.c ****         CyBle_HpscNotificationEventHandler(eventParam);
 865:Generated_Source\PSoC4/BLE_eventHandler.c ****     }
 866:Generated_Source\PSoC4/BLE_eventHandler.c **** #endif /* CYBLE_HPS_CLIENT */
 867:Generated_Source\PSoC4/BLE_eventHandler.c **** #ifdef CYBLE_HRS_CLIENT
 868:Generated_Source\PSoC4/BLE_eventHandler.c ****     if((cyBle_eventHandlerFlag & CYBLE_CALLBACK) != 0u)
 869:Generated_Source\PSoC4/BLE_eventHandler.c ****     {
 870:Generated_Source\PSoC4/BLE_eventHandler.c ****         CyBle_HrscNotificationEventHandler(eventParam);
 871:Generated_Source\PSoC4/BLE_eventHandler.c ****     }
 872:Generated_Source\PSoC4/BLE_eventHandler.c **** #endif /* CYBLE_HRS_CLIENT */
 873:Generated_Source\PSoC4/BLE_eventHandler.c **** #ifdef CYBLE_HTS_CLIENT
 874:Generated_Source\PSoC4/BLE_eventHandler.c ****     if((cyBle_eventHandlerFlag & CYBLE_CALLBACK) != 0u)
 875:Generated_Source\PSoC4/BLE_eventHandler.c ****     {
 876:Generated_Source\PSoC4/BLE_eventHandler.c ****         CyBle_HtscNotificationEventHandler(eventParam);
 877:Generated_Source\PSoC4/BLE_eventHandler.c ****     }
 878:Generated_Source\PSoC4/BLE_eventHandler.c **** #endif /* CYBLE_HTS_CLIENT */
 879:Generated_Source\PSoC4/BLE_eventHandler.c **** #ifdef CYBLE_LNS_CLIENT
 880:Generated_Source\PSoC4/BLE_eventHandler.c ****     if((cyBle_eventHandlerFlag & CYBLE_CALLBACK) != 0u)
 881:Generated_Source\PSoC4/BLE_eventHandler.c ****     {
 882:Generated_Source\PSoC4/BLE_eventHandler.c ****         CyBle_LnscNotificationEventHandler(eventParam);
 883:Generated_Source\PSoC4/BLE_eventHandler.c ****     }
 884:Generated_Source\PSoC4/BLE_eventHandler.c **** #endif /* CYBLE_LNS_CLIENT */
 885:Generated_Source\PSoC4/BLE_eventHandler.c **** #ifdef CYBLE_PASS_CLIENT
 886:Generated_Source\PSoC4/BLE_eventHandler.c ****     if((cyBle_eventHandlerFlag & CYBLE_CALLBACK) != 0u)
 887:Generated_Source\PSoC4/BLE_eventHandler.c ****     {
 888:Generated_Source\PSoC4/BLE_eventHandler.c ****         CyBle_PasscNotificationEventHandler(eventParam);
 889:Generated_Source\PSoC4/BLE_eventHandler.c ****     }
 890:Generated_Source\PSoC4/BLE_eventHandler.c **** #endif /* CYBLE_PASS_CLIENT */
 891:Generated_Source\PSoC4/BLE_eventHandler.c **** #ifdef CYBLE_RSCS_CLIENT
 892:Generated_Source\PSoC4/BLE_eventHandler.c ****     if((cyBle_eventHandlerFlag & CYBLE_CALLBACK) != 0u)
 893:Generated_Source\PSoC4/BLE_eventHandler.c ****     {
 894:Generated_Source\PSoC4/BLE_eventHandler.c ****         CyBle_RscscNotificationEventHandler(eventParam);
 895:Generated_Source\PSoC4/BLE_eventHandler.c ****     }
 896:Generated_Source\PSoC4/BLE_eventHandler.c **** #endif /* CYBLE_RSCS_CLIENT */
 897:Generated_Source\PSoC4/BLE_eventHandler.c **** #ifdef CYBLE_SCPS_CLIENT
 898:Generated_Source\PSoC4/BLE_eventHandler.c ****     if((cyBle_eventHandlerFlag & CYBLE_CALLBACK) != 0u)
 899:Generated_Source\PSoC4/BLE_eventHandler.c ****     {
ARM GAS  C:\Users\Intern\AppData\Local\Temp\cc8xw9iJ.s 			page 21


 900:Generated_Source\PSoC4/BLE_eventHandler.c ****         CyBle_ScpscNotificationEventHandler(eventParam);
 901:Generated_Source\PSoC4/BLE_eventHandler.c ****     }
 902:Generated_Source\PSoC4/BLE_eventHandler.c **** #endif /* CYBLE_SCPS_CLIENT */
 903:Generated_Source\PSoC4/BLE_eventHandler.c **** #ifdef CYBLE_TPS_CLIENT
 904:Generated_Source\PSoC4/BLE_eventHandler.c ****     if((cyBle_eventHandlerFlag & CYBLE_CALLBACK) != 0u)
 905:Generated_Source\PSoC4/BLE_eventHandler.c ****     {
 906:Generated_Source\PSoC4/BLE_eventHandler.c ****         CyBle_TpscNotificationEventHandler(eventParam);
 907:Generated_Source\PSoC4/BLE_eventHandler.c ****     }
 908:Generated_Source\PSoC4/BLE_eventHandler.c **** #endif /* CYBLE_TPS_CLIENT */
 909:Generated_Source\PSoC4/BLE_eventHandler.c **** #ifdef CYBLE_UDS_CLIENT
 910:Generated_Source\PSoC4/BLE_eventHandler.c ****     if((cyBle_eventHandlerFlag & CYBLE_CALLBACK) != 0u)
 911:Generated_Source\PSoC4/BLE_eventHandler.c ****     {
 912:Generated_Source\PSoC4/BLE_eventHandler.c ****         CyBle_UdscNotificationEventHandler(eventParam);
 913:Generated_Source\PSoC4/BLE_eventHandler.c ****     }
 914:Generated_Source\PSoC4/BLE_eventHandler.c **** #endif /* CYBLE_UDS_CLIENT */
 915:Generated_Source\PSoC4/BLE_eventHandler.c **** #ifdef CYBLE_WPTS_CLIENT
 916:Generated_Source\PSoC4/BLE_eventHandler.c ****     if((cyBle_eventHandlerFlag & CYBLE_CALLBACK) != 0u)
 917:Generated_Source\PSoC4/BLE_eventHandler.c ****     {
 918:Generated_Source\PSoC4/BLE_eventHandler.c ****         CyBle_WptscNotificationEventHandler(eventParam);
 919:Generated_Source\PSoC4/BLE_eventHandler.c ****     }
 920:Generated_Source\PSoC4/BLE_eventHandler.c **** #endif /* CYBLE_WPTS_CLIENT */
 921:Generated_Source\PSoC4/BLE_eventHandler.c **** }
 922:Generated_Source\PSoC4/BLE_eventHandler.c **** 
 923:Generated_Source\PSoC4/BLE_eventHandler.c **** 
 924:Generated_Source\PSoC4/BLE_eventHandler.c **** /******************************************************************************    
 925:Generated_Source\PSoC4/BLE_eventHandler.c **** * Function Name: CyBle_IndicationEventHandler
 926:Generated_Source\PSoC4/BLE_eventHandler.c **** ***************************************************************************//**
 927:Generated_Source\PSoC4/BLE_eventHandler.c **** * 
 928:Generated_Source\PSoC4/BLE_eventHandler.c **** *  Handles the Indication event from BLE stack.
 929:Generated_Source\PSoC4/BLE_eventHandler.c **** * 
 930:Generated_Source\PSoC4/BLE_eventHandler.c **** *  \param eventParam: event parameter
 931:Generated_Source\PSoC4/BLE_eventHandler.c **** * 
 932:Generated_Source\PSoC4/BLE_eventHandler.c **** * \return
 933:Generated_Source\PSoC4/BLE_eventHandler.c **** *  None
 934:Generated_Source\PSoC4/BLE_eventHandler.c **** * 
 935:Generated_Source\PSoC4/BLE_eventHandler.c **** ******************************************************************************/
 936:Generated_Source\PSoC4/BLE_eventHandler.c **** static void CyBle_IndicationEventHandler(CYBLE_GATTC_HANDLE_VALUE_IND_PARAM_T *eventParam)
 937:Generated_Source\PSoC4/BLE_eventHandler.c **** {
 938:Generated_Source\PSoC4/BLE_eventHandler.c **** #ifdef CYBLE_AIOS_CLIENT
 939:Generated_Source\PSoC4/BLE_eventHandler.c ****     if((cyBle_eventHandlerFlag & CYBLE_CALLBACK) != 0u)
 940:Generated_Source\PSoC4/BLE_eventHandler.c ****     {
 941:Generated_Source\PSoC4/BLE_eventHandler.c ****         CyBle_AioscIndicationEventHandler(eventParam);
 942:Generated_Source\PSoC4/BLE_eventHandler.c ****     }
 943:Generated_Source\PSoC4/BLE_eventHandler.c **** #endif /* CYBLE_AIOS_CLIENT */
 944:Generated_Source\PSoC4/BLE_eventHandler.c **** #ifdef CYBLE_BCS_CLIENT
 945:Generated_Source\PSoC4/BLE_eventHandler.c ****     if((cyBle_eventHandlerFlag & CYBLE_CALLBACK) != 0u)
 946:Generated_Source\PSoC4/BLE_eventHandler.c ****     {
 947:Generated_Source\PSoC4/BLE_eventHandler.c ****         CyBle_BcscIndicationEventHandler(eventParam);
 948:Generated_Source\PSoC4/BLE_eventHandler.c ****     }
 949:Generated_Source\PSoC4/BLE_eventHandler.c **** #endif /* CYBLE_BCS_CLIENT */
 950:Generated_Source\PSoC4/BLE_eventHandler.c **** #ifdef CYBLE_BLS_CLIENT
 951:Generated_Source\PSoC4/BLE_eventHandler.c ****     if((cyBle_eventHandlerFlag & CYBLE_CALLBACK) != 0u)
 952:Generated_Source\PSoC4/BLE_eventHandler.c ****     {
 953:Generated_Source\PSoC4/BLE_eventHandler.c ****         CyBle_BlscIndicationEventHandler(eventParam);
 954:Generated_Source\PSoC4/BLE_eventHandler.c ****     }
 955:Generated_Source\PSoC4/BLE_eventHandler.c **** #endif /* CYBLE_BLS_CLIENT */
 956:Generated_Source\PSoC4/BLE_eventHandler.c **** #ifdef CYBLE_CGMS_CLIENT
ARM GAS  C:\Users\Intern\AppData\Local\Temp\cc8xw9iJ.s 			page 22


 957:Generated_Source\PSoC4/BLE_eventHandler.c ****     if((cyBle_eventHandlerFlag & CYBLE_CALLBACK) != 0u)
 958:Generated_Source\PSoC4/BLE_eventHandler.c ****     {
 959:Generated_Source\PSoC4/BLE_eventHandler.c ****         CyBle_CgmscIndicationEventHandler(eventParam);
 960:Generated_Source\PSoC4/BLE_eventHandler.c ****     }
 961:Generated_Source\PSoC4/BLE_eventHandler.c **** #endif /* CYBLE_CGMS_CLIENT */
 962:Generated_Source\PSoC4/BLE_eventHandler.c **** #ifdef CYBLE_CPS_CLIENT
 963:Generated_Source\PSoC4/BLE_eventHandler.c ****     if((cyBle_eventHandlerFlag & CYBLE_CALLBACK) != 0u)
 964:Generated_Source\PSoC4/BLE_eventHandler.c ****     {
 965:Generated_Source\PSoC4/BLE_eventHandler.c ****         CyBle_CpscIndicationEventHandler(eventParam);
 966:Generated_Source\PSoC4/BLE_eventHandler.c ****     }
 967:Generated_Source\PSoC4/BLE_eventHandler.c **** #endif /* CYBLE_CPS_CLIENT */
 968:Generated_Source\PSoC4/BLE_eventHandler.c **** #ifdef CYBLE_CSCS_CLIENT
 969:Generated_Source\PSoC4/BLE_eventHandler.c ****     if((cyBle_eventHandlerFlag & CYBLE_CALLBACK) != 0u)
 970:Generated_Source\PSoC4/BLE_eventHandler.c ****     {
 971:Generated_Source\PSoC4/BLE_eventHandler.c ****         CyBle_CscscIndicationEventHandler(eventParam);
 972:Generated_Source\PSoC4/BLE_eventHandler.c ****     }
 973:Generated_Source\PSoC4/BLE_eventHandler.c **** #endif /* CYBLE_CSCS_CLIENT */
 974:Generated_Source\PSoC4/BLE_eventHandler.c **** #ifdef CYBLE_ESS_CLIENT
 975:Generated_Source\PSoC4/BLE_eventHandler.c ****     if((cyBle_eventHandlerFlag & CYBLE_CALLBACK) != 0u)
 976:Generated_Source\PSoC4/BLE_eventHandler.c ****     {
 977:Generated_Source\PSoC4/BLE_eventHandler.c ****         CyBle_EsscIndicationEventHandler(eventParam);
 978:Generated_Source\PSoC4/BLE_eventHandler.c ****     }
 979:Generated_Source\PSoC4/BLE_eventHandler.c **** #endif /* CYBLE_ESS_CLIENT */
 980:Generated_Source\PSoC4/BLE_eventHandler.c **** #ifdef CYBLE_GLS_CLIENT
 981:Generated_Source\PSoC4/BLE_eventHandler.c ****     if((cyBle_eventHandlerFlag & CYBLE_CALLBACK) != 0u)
 982:Generated_Source\PSoC4/BLE_eventHandler.c ****     {
 983:Generated_Source\PSoC4/BLE_eventHandler.c ****         CyBle_GlscIndicationEventHandler(eventParam);
 984:Generated_Source\PSoC4/BLE_eventHandler.c ****     }
 985:Generated_Source\PSoC4/BLE_eventHandler.c **** #endif /* CYBLE_GLS_CLIENT */
 986:Generated_Source\PSoC4/BLE_eventHandler.c **** #ifdef CYBLE_HTS_CLIENT
 987:Generated_Source\PSoC4/BLE_eventHandler.c ****     if((cyBle_eventHandlerFlag & CYBLE_CALLBACK) != 0u)
 988:Generated_Source\PSoC4/BLE_eventHandler.c ****     {
 989:Generated_Source\PSoC4/BLE_eventHandler.c ****         CyBle_HtscIndicationEventHandler(eventParam);
 990:Generated_Source\PSoC4/BLE_eventHandler.c ****     }
 991:Generated_Source\PSoC4/BLE_eventHandler.c **** #endif /* CYBLE_HTS_CLIENT */
 992:Generated_Source\PSoC4/BLE_eventHandler.c **** #ifdef CYBLE_LNS_CLIENT
 993:Generated_Source\PSoC4/BLE_eventHandler.c ****     if((cyBle_eventHandlerFlag & CYBLE_CALLBACK) != 0u)
 994:Generated_Source\PSoC4/BLE_eventHandler.c ****     {
 995:Generated_Source\PSoC4/BLE_eventHandler.c ****         CyBle_LnscIndicationEventHandler(eventParam);
 996:Generated_Source\PSoC4/BLE_eventHandler.c ****     }
 997:Generated_Source\PSoC4/BLE_eventHandler.c **** #endif /* CYBLE_LNS_CLIENT */
 998:Generated_Source\PSoC4/BLE_eventHandler.c **** #ifdef CYBLE_RSCS_CLIENT
 999:Generated_Source\PSoC4/BLE_eventHandler.c ****     if((cyBle_eventHandlerFlag & CYBLE_CALLBACK) != 0u)
1000:Generated_Source\PSoC4/BLE_eventHandler.c ****     {
1001:Generated_Source\PSoC4/BLE_eventHandler.c ****         CyBle_RscscIndicationEventHandler(eventParam);
1002:Generated_Source\PSoC4/BLE_eventHandler.c ****     }
1003:Generated_Source\PSoC4/BLE_eventHandler.c **** #endif /* CYBLE_RSCS_CLIENT */
1004:Generated_Source\PSoC4/BLE_eventHandler.c **** #ifdef CYBLE_UDS_CLIENT
1005:Generated_Source\PSoC4/BLE_eventHandler.c ****     if((cyBle_eventHandlerFlag & CYBLE_CALLBACK) != 0u)
1006:Generated_Source\PSoC4/BLE_eventHandler.c ****     {
1007:Generated_Source\PSoC4/BLE_eventHandler.c ****         CyBle_UdscIndicationEventHandler(eventParam);
1008:Generated_Source\PSoC4/BLE_eventHandler.c ****     }
1009:Generated_Source\PSoC4/BLE_eventHandler.c **** #endif /* CYBLE_UDS_CLIENT */
1010:Generated_Source\PSoC4/BLE_eventHandler.c **** #ifdef CYBLE_WPTS_CLIENT
1011:Generated_Source\PSoC4/BLE_eventHandler.c ****     if((cyBle_eventHandlerFlag & CYBLE_CALLBACK) != 0u)
1012:Generated_Source\PSoC4/BLE_eventHandler.c ****     {
1013:Generated_Source\PSoC4/BLE_eventHandler.c ****         CyBle_WptscIndicationEventHandler(eventParam);
ARM GAS  C:\Users\Intern\AppData\Local\Temp\cc8xw9iJ.s 			page 23


1014:Generated_Source\PSoC4/BLE_eventHandler.c ****     }
1015:Generated_Source\PSoC4/BLE_eventHandler.c **** #endif /* CYBLE_WPTS_CLIENT */
1016:Generated_Source\PSoC4/BLE_eventHandler.c **** #ifdef CYBLE_WSS_CLIENT
1017:Generated_Source\PSoC4/BLE_eventHandler.c ****     if((cyBle_eventHandlerFlag & CYBLE_CALLBACK) != 0u)
1018:Generated_Source\PSoC4/BLE_eventHandler.c ****     {
1019:Generated_Source\PSoC4/BLE_eventHandler.c ****         CyBle_WsscIndicationEventHandler(eventParam);
1020:Generated_Source\PSoC4/BLE_eventHandler.c ****     }
1021:Generated_Source\PSoC4/BLE_eventHandler.c **** #endif /* CYBLE_WSS_CLIENT */
1022:Generated_Source\PSoC4/BLE_eventHandler.c **** }
1023:Generated_Source\PSoC4/BLE_eventHandler.c **** 
1024:Generated_Source\PSoC4/BLE_eventHandler.c **** /******************************************************************************    
1025:Generated_Source\PSoC4/BLE_eventHandler.c **** * Function Name: CyBle_ReadResponseEventHandler
1026:Generated_Source\PSoC4/BLE_eventHandler.c **** ***************************************************************************//**
1027:Generated_Source\PSoC4/BLE_eventHandler.c **** * 
1028:Generated_Source\PSoC4/BLE_eventHandler.c **** *  Handles the Read Response event from BLE stack.
1029:Generated_Source\PSoC4/BLE_eventHandler.c **** * 
1030:Generated_Source\PSoC4/BLE_eventHandler.c **** *  \param eventParam: event parameter
1031:Generated_Source\PSoC4/BLE_eventHandler.c **** * 
1032:Generated_Source\PSoC4/BLE_eventHandler.c **** * \return
1033:Generated_Source\PSoC4/BLE_eventHandler.c **** *  None
1034:Generated_Source\PSoC4/BLE_eventHandler.c **** * 
1035:Generated_Source\PSoC4/BLE_eventHandler.c **** ******************************************************************************/
1036:Generated_Source\PSoC4/BLE_eventHandler.c **** static void CyBle_ReadResponseEventHandler(CYBLE_GATTC_READ_RSP_PARAM_T *eventParam)
1037:Generated_Source\PSoC4/BLE_eventHandler.c **** {
1038:Generated_Source\PSoC4/BLE_eventHandler.c **** #ifdef CYBLE_CUSTOM_CLIENT
1039:Generated_Source\PSoC4/BLE_eventHandler.c ****     /* Read response with 128-bit included service uuid */
1040:Generated_Source\PSoC4/BLE_eventHandler.c ****     if((CyBle_GetClientState() == CYBLE_CLIENT_STATE_INCL_DISCOVERING) &&
1041:Generated_Source\PSoC4/BLE_eventHandler.c ****        (cyBle_discInclInfo.inclDefHandle != 0u))
1042:Generated_Source\PSoC4/BLE_eventHandler.c ****     {
1043:Generated_Source\PSoC4/BLE_eventHandler.c ****         CYBLE_DISC_SRVC128_INFO_T discServInfo;
1044:Generated_Source\PSoC4/BLE_eventHandler.c **** 
1045:Generated_Source\PSoC4/BLE_eventHandler.c ****         /* Store service range */
1046:Generated_Source\PSoC4/BLE_eventHandler.c ****         discServInfo.range = cyBle_discInclInfo.inclHandleRange;
1047:Generated_Source\PSoC4/BLE_eventHandler.c ****         (void)memcpy((void *) discServInfo.uuid.uuid128.value, (void *)eventParam->value.val, event
1048:Generated_Source\PSoC4/BLE_eventHandler.c ****         CyBle_CustomcDiscoverServiceEventHandler(&discServInfo);
1049:Generated_Source\PSoC4/BLE_eventHandler.c ****         
1050:Generated_Source\PSoC4/BLE_eventHandler.c ****         /* Re-initiate CyBle_GattcFindIncludedServices function, setting the start
1051:Generated_Source\PSoC4/BLE_eventHandler.c ****            handle to the attribute handle which is placed next to the one used in
1052:Generated_Source\PSoC4/BLE_eventHandler.c ****            the above step.
1053:Generated_Source\PSoC4/BLE_eventHandler.c ****         */
1054:Generated_Source\PSoC4/BLE_eventHandler.c ****         discServInfo.range.startHandle = cyBle_discInclInfo.inclDefHandle + 1u;
1055:Generated_Source\PSoC4/BLE_eventHandler.c ****         discServInfo.range.endHandle = cyBle_serverInfo[cyBle_disCount].range.endHandle;
1056:Generated_Source\PSoC4/BLE_eventHandler.c ****         if(discServInfo.range.startHandle <= discServInfo.range.endHandle)
1057:Generated_Source\PSoC4/BLE_eventHandler.c ****         {
1058:Generated_Source\PSoC4/BLE_eventHandler.c ****             if(CYBLE_ERROR_OK != CyBle_GattcFindIncludedServices(cyBle_connHandle, &discServInfo.ra
1059:Generated_Source\PSoC4/BLE_eventHandler.c ****             {
1060:Generated_Source\PSoC4/BLE_eventHandler.c ****                 CyBle_ApplCallback(CYBLE_EVT_GATTC_INCL_DISCOVERY_FAILED, NULL);
1061:Generated_Source\PSoC4/BLE_eventHandler.c ****                 cyBle_eventHandlerFlag &= (uint8)~CYBLE_AUTO_DISCOVERY;
1062:Generated_Source\PSoC4/BLE_eventHandler.c ****             }
1063:Generated_Source\PSoC4/BLE_eventHandler.c ****         }
1064:Generated_Source\PSoC4/BLE_eventHandler.c ****         else /* Continue discovery of the following service */
1065:Generated_Source\PSoC4/BLE_eventHandler.c ****         {
1066:Generated_Source\PSoC4/BLE_eventHandler.c ****             CyBle_NextInclDiscovery(CYBLE_DISCOVERY_CONTINUE);
1067:Generated_Source\PSoC4/BLE_eventHandler.c ****         }
1068:Generated_Source\PSoC4/BLE_eventHandler.c ****         
1069:Generated_Source\PSoC4/BLE_eventHandler.c ****         cyBle_eventHandlerFlag &= (uint8)~CYBLE_CALLBACK;
1070:Generated_Source\PSoC4/BLE_eventHandler.c ****     #ifdef CYBLE_CUSTOM_CLIENT
ARM GAS  C:\Users\Intern\AppData\Local\Temp\cc8xw9iJ.s 			page 24


1071:Generated_Source\PSoC4/BLE_eventHandler.c ****         cyBle_discInclInfo.inclDefHandle = 0u;
1072:Generated_Source\PSoC4/BLE_eventHandler.c ****     #endif /* CYBLE_CUSTOM_CLIENT */
1073:Generated_Source\PSoC4/BLE_eventHandler.c ****     }
1074:Generated_Source\PSoC4/BLE_eventHandler.c **** #endif /* CYBLE_CUSTOM_CLIENT */
1075:Generated_Source\PSoC4/BLE_eventHandler.c **** #ifdef CYBLE_AIOS_CLIENT
1076:Generated_Source\PSoC4/BLE_eventHandler.c ****     if((cyBle_eventHandlerFlag & CYBLE_CALLBACK) != 0u)
1077:Generated_Source\PSoC4/BLE_eventHandler.c ****     {
1078:Generated_Source\PSoC4/BLE_eventHandler.c ****         CyBle_AioscReadResponseEventHandler(eventParam);
1079:Generated_Source\PSoC4/BLE_eventHandler.c ****     }
1080:Generated_Source\PSoC4/BLE_eventHandler.c **** #endif /* CYBLE_AIOS_CLIENT */
1081:Generated_Source\PSoC4/BLE_eventHandler.c **** #ifdef CYBLE_ANCS_CLIENT
1082:Generated_Source\PSoC4/BLE_eventHandler.c ****     if((cyBle_eventHandlerFlag & CYBLE_CALLBACK) != 0u)
1083:Generated_Source\PSoC4/BLE_eventHandler.c ****     {
1084:Generated_Source\PSoC4/BLE_eventHandler.c ****         CyBle_AncscReadResponseEventHandler(eventParam);
1085:Generated_Source\PSoC4/BLE_eventHandler.c ****     }
1086:Generated_Source\PSoC4/BLE_eventHandler.c **** #endif /* CYBLE_ANCS_CLIENT */
1087:Generated_Source\PSoC4/BLE_eventHandler.c **** #ifdef CYBLE_ANS_CLIENT
1088:Generated_Source\PSoC4/BLE_eventHandler.c ****     if((cyBle_eventHandlerFlag & CYBLE_CALLBACK) != 0u)
1089:Generated_Source\PSoC4/BLE_eventHandler.c ****     {
1090:Generated_Source\PSoC4/BLE_eventHandler.c ****         CyBle_AnscReadResponseEventHandler(eventParam);
1091:Generated_Source\PSoC4/BLE_eventHandler.c ****     }
1092:Generated_Source\PSoC4/BLE_eventHandler.c **** #endif /* CYBLE_ANS_CLIENT */
1093:Generated_Source\PSoC4/BLE_eventHandler.c **** #ifdef CYBLE_BAS_CLIENT
1094:Generated_Source\PSoC4/BLE_eventHandler.c ****     if((cyBle_eventHandlerFlag & CYBLE_CALLBACK) != 0u)
1095:Generated_Source\PSoC4/BLE_eventHandler.c ****     {
1096:Generated_Source\PSoC4/BLE_eventHandler.c ****         CyBle_BascReadResponseEventHandler(eventParam);
1097:Generated_Source\PSoC4/BLE_eventHandler.c ****     }
1098:Generated_Source\PSoC4/BLE_eventHandler.c **** #endif /* CYBLE_BAS_CLIENT */
1099:Generated_Source\PSoC4/BLE_eventHandler.c **** #ifdef CYBLE_BLS_CLIENT
1100:Generated_Source\PSoC4/BLE_eventHandler.c ****     if((cyBle_eventHandlerFlag & CYBLE_CALLBACK) != 0u)
1101:Generated_Source\PSoC4/BLE_eventHandler.c ****     {
1102:Generated_Source\PSoC4/BLE_eventHandler.c ****         CyBle_BlscReadResponseEventHandler(eventParam);
1103:Generated_Source\PSoC4/BLE_eventHandler.c ****     }
1104:Generated_Source\PSoC4/BLE_eventHandler.c **** #endif /* CYBLE_BLS_CLIENT */
1105:Generated_Source\PSoC4/BLE_eventHandler.c **** #ifdef CYBLE_BCS_CLIENT
1106:Generated_Source\PSoC4/BLE_eventHandler.c ****     if((cyBle_eventHandlerFlag & CYBLE_CALLBACK) != 0u)
1107:Generated_Source\PSoC4/BLE_eventHandler.c ****     {
1108:Generated_Source\PSoC4/BLE_eventHandler.c ****         CyBle_BcscReadResponseEventHandler(eventParam);
1109:Generated_Source\PSoC4/BLE_eventHandler.c ****     }
1110:Generated_Source\PSoC4/BLE_eventHandler.c **** #endif /* CYBLE_BCS_CLIENT */
1111:Generated_Source\PSoC4/BLE_eventHandler.c **** #ifdef CYBLE_BMS_CLIENT
1112:Generated_Source\PSoC4/BLE_eventHandler.c ****     if((cyBle_eventHandlerFlag & CYBLE_CALLBACK) != 0u)
1113:Generated_Source\PSoC4/BLE_eventHandler.c ****     {
1114:Generated_Source\PSoC4/BLE_eventHandler.c ****         CyBle_BmscReadResponseEventHandler(eventParam);
1115:Generated_Source\PSoC4/BLE_eventHandler.c ****     }
1116:Generated_Source\PSoC4/BLE_eventHandler.c **** #endif /* CYBLE_BMS_CLIENT */
1117:Generated_Source\PSoC4/BLE_eventHandler.c **** #ifdef CYBLE_CGMS_CLIENT
1118:Generated_Source\PSoC4/BLE_eventHandler.c ****     if((cyBle_eventHandlerFlag & CYBLE_CALLBACK) != 0u)
1119:Generated_Source\PSoC4/BLE_eventHandler.c ****     {
1120:Generated_Source\PSoC4/BLE_eventHandler.c ****         CyBle_CgmscReadResponseEventHandler(eventParam);
1121:Generated_Source\PSoC4/BLE_eventHandler.c ****     }
1122:Generated_Source\PSoC4/BLE_eventHandler.c **** #endif /* CYBLE_CGMS_CLIENT */
1123:Generated_Source\PSoC4/BLE_eventHandler.c **** #ifdef CYBLE_CPS_CLIENT
1124:Generated_Source\PSoC4/BLE_eventHandler.c ****     if((cyBle_eventHandlerFlag & CYBLE_CALLBACK) != 0u)
1125:Generated_Source\PSoC4/BLE_eventHandler.c ****     {
1126:Generated_Source\PSoC4/BLE_eventHandler.c ****         CyBle_CpscReadResponseEventHandler(eventParam);
1127:Generated_Source\PSoC4/BLE_eventHandler.c ****     }
ARM GAS  C:\Users\Intern\AppData\Local\Temp\cc8xw9iJ.s 			page 25


1128:Generated_Source\PSoC4/BLE_eventHandler.c **** #endif /* CYBLE_CPS_CLIENT */
1129:Generated_Source\PSoC4/BLE_eventHandler.c **** #ifdef CYBLE_CSCS_CLIENT
1130:Generated_Source\PSoC4/BLE_eventHandler.c ****     if((cyBle_eventHandlerFlag & CYBLE_CALLBACK) != 0u)
1131:Generated_Source\PSoC4/BLE_eventHandler.c ****     {
1132:Generated_Source\PSoC4/BLE_eventHandler.c ****         CyBle_CscscReadResponseEventHandler(eventParam);
1133:Generated_Source\PSoC4/BLE_eventHandler.c ****     }
1134:Generated_Source\PSoC4/BLE_eventHandler.c **** #endif /* CYBLE_CSCS_CLIENT */
1135:Generated_Source\PSoC4/BLE_eventHandler.c **** #ifdef CYBLE_CTS_CLIENT
1136:Generated_Source\PSoC4/BLE_eventHandler.c ****     if((cyBle_eventHandlerFlag & CYBLE_CALLBACK) != 0u)
1137:Generated_Source\PSoC4/BLE_eventHandler.c ****     {
1138:Generated_Source\PSoC4/BLE_eventHandler.c ****         CyBle_CtscReadResponseEventHandler(eventParam);
1139:Generated_Source\PSoC4/BLE_eventHandler.c ****     }
1140:Generated_Source\PSoC4/BLE_eventHandler.c **** #endif /* CYBLE_BAS_CLIENT */
1141:Generated_Source\PSoC4/BLE_eventHandler.c **** #ifdef CYBLE_DIS_CLIENT
1142:Generated_Source\PSoC4/BLE_eventHandler.c ****     if((cyBle_eventHandlerFlag & CYBLE_CALLBACK) != 0u)
1143:Generated_Source\PSoC4/BLE_eventHandler.c ****     {
1144:Generated_Source\PSoC4/BLE_eventHandler.c ****         CyBle_DiscReadResponseEventHandler(eventParam);
1145:Generated_Source\PSoC4/BLE_eventHandler.c ****     }
1146:Generated_Source\PSoC4/BLE_eventHandler.c **** #endif /* CYBLE_DIS_CLIENT */
1147:Generated_Source\PSoC4/BLE_eventHandler.c **** #ifdef CYBLE_ESS_CLIENT
1148:Generated_Source\PSoC4/BLE_eventHandler.c ****     if((cyBle_eventHandlerFlag & CYBLE_CALLBACK) != 0u)
1149:Generated_Source\PSoC4/BLE_eventHandler.c ****     {
1150:Generated_Source\PSoC4/BLE_eventHandler.c ****         CyBle_EsscReadResponseEventHandler(eventParam);
1151:Generated_Source\PSoC4/BLE_eventHandler.c ****     }
1152:Generated_Source\PSoC4/BLE_eventHandler.c **** #endif /* CYBLE_ESS_CLIENT */
1153:Generated_Source\PSoC4/BLE_eventHandler.c **** #ifdef CYBLE_GLS_CLIENT
1154:Generated_Source\PSoC4/BLE_eventHandler.c ****     if((cyBle_eventHandlerFlag & CYBLE_CALLBACK) != 0u)
1155:Generated_Source\PSoC4/BLE_eventHandler.c ****     {
1156:Generated_Source\PSoC4/BLE_eventHandler.c ****         CyBle_GlscReadResponseEventHandler(eventParam);
1157:Generated_Source\PSoC4/BLE_eventHandler.c ****     }
1158:Generated_Source\PSoC4/BLE_eventHandler.c **** #endif /* CYBLE_GLS_CLIENT */
1159:Generated_Source\PSoC4/BLE_eventHandler.c **** #ifdef CYBLE_HIDS_CLIENT
1160:Generated_Source\PSoC4/BLE_eventHandler.c ****     if((cyBle_eventHandlerFlag & CYBLE_CALLBACK) != 0u)
1161:Generated_Source\PSoC4/BLE_eventHandler.c ****     {
1162:Generated_Source\PSoC4/BLE_eventHandler.c ****         CyBle_HidscReadResponseEventHandler(eventParam);
1163:Generated_Source\PSoC4/BLE_eventHandler.c ****     }
1164:Generated_Source\PSoC4/BLE_eventHandler.c **** #endif /* CYBLE_HIDS_CLIENT */
1165:Generated_Source\PSoC4/BLE_eventHandler.c **** #ifdef CYBLE_HPS_CLIENT
1166:Generated_Source\PSoC4/BLE_eventHandler.c ****     if((cyBle_eventHandlerFlag & CYBLE_CALLBACK) != 0u)
1167:Generated_Source\PSoC4/BLE_eventHandler.c ****     {
1168:Generated_Source\PSoC4/BLE_eventHandler.c ****         CyBle_HpscReadResponseEventHandler(eventParam);
1169:Generated_Source\PSoC4/BLE_eventHandler.c ****     }
1170:Generated_Source\PSoC4/BLE_eventHandler.c **** #endif /* CYBLE_HPS_CLIENT */
1171:Generated_Source\PSoC4/BLE_eventHandler.c **** #ifdef CYBLE_HRS_CLIENT
1172:Generated_Source\PSoC4/BLE_eventHandler.c ****     if((cyBle_eventHandlerFlag & CYBLE_CALLBACK) != 0u)
1173:Generated_Source\PSoC4/BLE_eventHandler.c ****     {
1174:Generated_Source\PSoC4/BLE_eventHandler.c ****         CyBle_HrscReadResponseEventHandler(eventParam);
1175:Generated_Source\PSoC4/BLE_eventHandler.c ****     }
1176:Generated_Source\PSoC4/BLE_eventHandler.c **** #endif /* CYBLE_HRS_CLIENT */
1177:Generated_Source\PSoC4/BLE_eventHandler.c **** #ifdef CYBLE_HTS_CLIENT
1178:Generated_Source\PSoC4/BLE_eventHandler.c ****     if((cyBle_eventHandlerFlag & CYBLE_CALLBACK) != 0u)
1179:Generated_Source\PSoC4/BLE_eventHandler.c ****     {
1180:Generated_Source\PSoC4/BLE_eventHandler.c ****         CyBle_HtscReadResponseEventHandler(eventParam);
1181:Generated_Source\PSoC4/BLE_eventHandler.c ****     }
1182:Generated_Source\PSoC4/BLE_eventHandler.c **** #endif /* CYBLE_HTS_CLIENT */
1183:Generated_Source\PSoC4/BLE_eventHandler.c **** #ifdef CYBLE_IPS_CLIENT
1184:Generated_Source\PSoC4/BLE_eventHandler.c ****     if((cyBle_eventHandlerFlag & CYBLE_CALLBACK) != 0u)
ARM GAS  C:\Users\Intern\AppData\Local\Temp\cc8xw9iJ.s 			page 26


1185:Generated_Source\PSoC4/BLE_eventHandler.c ****     {
1186:Generated_Source\PSoC4/BLE_eventHandler.c ****         CyBle_IpscReadResponseEventHandler(eventParam);
1187:Generated_Source\PSoC4/BLE_eventHandler.c ****     }
1188:Generated_Source\PSoC4/BLE_eventHandler.c **** #endif /* CYBLE_IPS_CLIENT */
1189:Generated_Source\PSoC4/BLE_eventHandler.c **** #ifdef CYBLE_LLS_CLIENT
1190:Generated_Source\PSoC4/BLE_eventHandler.c ****     if((cyBle_eventHandlerFlag & CYBLE_CALLBACK) != 0u)
1191:Generated_Source\PSoC4/BLE_eventHandler.c ****     {
1192:Generated_Source\PSoC4/BLE_eventHandler.c ****         CyBle_LlscReadResponseEventHandler(eventParam);
1193:Generated_Source\PSoC4/BLE_eventHandler.c ****     }
1194:Generated_Source\PSoC4/BLE_eventHandler.c **** #endif /* CYBLE_LLS_CLIENT */
1195:Generated_Source\PSoC4/BLE_eventHandler.c **** #ifdef CYBLE_LNS_CLIENT
1196:Generated_Source\PSoC4/BLE_eventHandler.c ****     if((cyBle_eventHandlerFlag & CYBLE_CALLBACK) != 0u)
1197:Generated_Source\PSoC4/BLE_eventHandler.c ****     {
1198:Generated_Source\PSoC4/BLE_eventHandler.c ****         CyBle_LnscReadResponseEventHandler(eventParam);
1199:Generated_Source\PSoC4/BLE_eventHandler.c ****     }
1200:Generated_Source\PSoC4/BLE_eventHandler.c **** #endif /* CYBLE_LNS_CLIENT */
1201:Generated_Source\PSoC4/BLE_eventHandler.c **** #ifdef CYBLE_NDCS_CLIENT
1202:Generated_Source\PSoC4/BLE_eventHandler.c ****     if((cyBle_eventHandlerFlag & CYBLE_CALLBACK) != 0u)
1203:Generated_Source\PSoC4/BLE_eventHandler.c ****     {
1204:Generated_Source\PSoC4/BLE_eventHandler.c ****         CyBle_NdcscReadResponseEventHandler(eventParam);
1205:Generated_Source\PSoC4/BLE_eventHandler.c ****     }
1206:Generated_Source\PSoC4/BLE_eventHandler.c **** #endif /* CYBLE_NDCS_CLIENT */
1207:Generated_Source\PSoC4/BLE_eventHandler.c **** #ifdef CYBLE_PASS_CLIENT
1208:Generated_Source\PSoC4/BLE_eventHandler.c ****     if((cyBle_eventHandlerFlag & CYBLE_CALLBACK) != 0u)
1209:Generated_Source\PSoC4/BLE_eventHandler.c ****     {
1210:Generated_Source\PSoC4/BLE_eventHandler.c ****         CyBle_PasscReadResponseEventHandler(eventParam);
1211:Generated_Source\PSoC4/BLE_eventHandler.c ****     }
1212:Generated_Source\PSoC4/BLE_eventHandler.c **** #endif /* CYBLE_PASS_CLIENT */
1213:Generated_Source\PSoC4/BLE_eventHandler.c **** #ifdef CYBLE_PLXS_CLIENT
1214:Generated_Source\PSoC4/BLE_eventHandler.c ****     if((cyBle_eventHandlerFlag & CYBLE_CALLBACK) != 0u)
1215:Generated_Source\PSoC4/BLE_eventHandler.c ****     {
1216:Generated_Source\PSoC4/BLE_eventHandler.c ****         CyBle_PlxscReadResponseEventHandler(eventParam);
1217:Generated_Source\PSoC4/BLE_eventHandler.c ****     }
1218:Generated_Source\PSoC4/BLE_eventHandler.c **** #endif /* CYBLE_PLXS_CLIENT */
1219:Generated_Source\PSoC4/BLE_eventHandler.c **** #ifdef CYBLE_RSCS_CLIENT
1220:Generated_Source\PSoC4/BLE_eventHandler.c ****     if((cyBle_eventHandlerFlag & CYBLE_CALLBACK) != 0u)
1221:Generated_Source\PSoC4/BLE_eventHandler.c ****     {
1222:Generated_Source\PSoC4/BLE_eventHandler.c ****         CyBle_RscscReadResponseEventHandler(eventParam);
1223:Generated_Source\PSoC4/BLE_eventHandler.c ****     }
1224:Generated_Source\PSoC4/BLE_eventHandler.c **** #endif /* CYBLE_RSCS_CLIENT */
1225:Generated_Source\PSoC4/BLE_eventHandler.c **** #ifdef CYBLE_RTUS_CLIENT
1226:Generated_Source\PSoC4/BLE_eventHandler.c ****     if((cyBle_eventHandlerFlag & CYBLE_CALLBACK) != 0u)
1227:Generated_Source\PSoC4/BLE_eventHandler.c ****     {
1228:Generated_Source\PSoC4/BLE_eventHandler.c ****         CyBle_RtuscReadResponseEventHandler(eventParam);
1229:Generated_Source\PSoC4/BLE_eventHandler.c ****     }
1230:Generated_Source\PSoC4/BLE_eventHandler.c **** #endif /* CYBLE_RTUS_CLIENT */
1231:Generated_Source\PSoC4/BLE_eventHandler.c **** #ifdef CYBLE_SCPS_CLIENT
1232:Generated_Source\PSoC4/BLE_eventHandler.c ****     if((cyBle_eventHandlerFlag & CYBLE_CALLBACK) != 0u)
1233:Generated_Source\PSoC4/BLE_eventHandler.c ****     {
1234:Generated_Source\PSoC4/BLE_eventHandler.c ****         CyBle_ScpscReadResponseEventHandler(eventParam);
1235:Generated_Source\PSoC4/BLE_eventHandler.c ****     }
1236:Generated_Source\PSoC4/BLE_eventHandler.c **** #endif /* CYBLE_SCPS_CLIENT */
1237:Generated_Source\PSoC4/BLE_eventHandler.c **** #ifdef CYBLE_TPS_CLIENT
1238:Generated_Source\PSoC4/BLE_eventHandler.c ****     if((cyBle_eventHandlerFlag & CYBLE_CALLBACK) != 0u)
1239:Generated_Source\PSoC4/BLE_eventHandler.c ****     {
1240:Generated_Source\PSoC4/BLE_eventHandler.c ****         CyBle_TpscReadResponseEventHandler(eventParam);
1241:Generated_Source\PSoC4/BLE_eventHandler.c ****     }
ARM GAS  C:\Users\Intern\AppData\Local\Temp\cc8xw9iJ.s 			page 27


1242:Generated_Source\PSoC4/BLE_eventHandler.c **** #endif /* CYBLE_TPS_CLIENT */
1243:Generated_Source\PSoC4/BLE_eventHandler.c **** #ifdef CYBLE_UDS_CLIENT
1244:Generated_Source\PSoC4/BLE_eventHandler.c ****     if((cyBle_eventHandlerFlag & CYBLE_CALLBACK) != 0u)
1245:Generated_Source\PSoC4/BLE_eventHandler.c ****     {
1246:Generated_Source\PSoC4/BLE_eventHandler.c ****         CyBle_UdscReadResponseEventHandler(eventParam);
1247:Generated_Source\PSoC4/BLE_eventHandler.c ****     }
1248:Generated_Source\PSoC4/BLE_eventHandler.c **** #endif /* CYBLE_UDS_CLIENT */
1249:Generated_Source\PSoC4/BLE_eventHandler.c **** #ifdef CYBLE_WPTS_CLIENT
1250:Generated_Source\PSoC4/BLE_eventHandler.c ****     if((cyBle_eventHandlerFlag & CYBLE_CALLBACK) != 0u)
1251:Generated_Source\PSoC4/BLE_eventHandler.c ****     {
1252:Generated_Source\PSoC4/BLE_eventHandler.c ****         CyBle_WptscReadResponseEventHandler(eventParam);
1253:Generated_Source\PSoC4/BLE_eventHandler.c ****     }
1254:Generated_Source\PSoC4/BLE_eventHandler.c **** #endif /* CYBLE_WPTS_CLIENT */
1255:Generated_Source\PSoC4/BLE_eventHandler.c **** #ifdef CYBLE_WSS_CLIENT
1256:Generated_Source\PSoC4/BLE_eventHandler.c ****     if((cyBle_eventHandlerFlag & CYBLE_CALLBACK) != 0u)
1257:Generated_Source\PSoC4/BLE_eventHandler.c ****     {
1258:Generated_Source\PSoC4/BLE_eventHandler.c ****         CyBle_WsscReadResponseEventHandler(eventParam);
1259:Generated_Source\PSoC4/BLE_eventHandler.c ****     }
1260:Generated_Source\PSoC4/BLE_eventHandler.c **** #endif /* CYBLE_WSS_CLIENT */
1261:Generated_Source\PSoC4/BLE_eventHandler.c **** }
1262:Generated_Source\PSoC4/BLE_eventHandler.c **** 
1263:Generated_Source\PSoC4/BLE_eventHandler.c **** /******************************************************************************    
1264:Generated_Source\PSoC4/BLE_eventHandler.c **** * Function Name: CyBle_ReadMultipleResponseEventHandler
1265:Generated_Source\PSoC4/BLE_eventHandler.c **** ***************************************************************************//**
1266:Generated_Source\PSoC4/BLE_eventHandler.c **** * 
1267:Generated_Source\PSoC4/BLE_eventHandler.c **** *  Handles the Read Multiple Response event from BLE stack.
1268:Generated_Source\PSoC4/BLE_eventHandler.c **** * 
1269:Generated_Source\PSoC4/BLE_eventHandler.c **** *  \param eventParam: event parameter
1270:Generated_Source\PSoC4/BLE_eventHandler.c **** * 
1271:Generated_Source\PSoC4/BLE_eventHandler.c **** * \return
1272:Generated_Source\PSoC4/BLE_eventHandler.c **** *  None
1273:Generated_Source\PSoC4/BLE_eventHandler.c **** * 
1274:Generated_Source\PSoC4/BLE_eventHandler.c **** ******************************************************************************/
1275:Generated_Source\PSoC4/BLE_eventHandler.c **** static void CyBle_ReadMultipleResponseEventHandler(CYBLE_GATTC_READ_RSP_PARAM_T *eventParam)
1276:Generated_Source\PSoC4/BLE_eventHandler.c **** {
1277:Generated_Source\PSoC4/BLE_eventHandler.c **** #ifdef CYBLE_CUSTOM_CLIENT
1278:Generated_Source\PSoC4/BLE_eventHandler.c ****     /* Read response with 128-bit included service uuid */
1279:Generated_Source\PSoC4/BLE_eventHandler.c ****     if((CYBLE_CLIENT_STATE_INCL_DISCOVERING == CyBle_GetClientState()) &&
1280:Generated_Source\PSoC4/BLE_eventHandler.c ****        (cyBle_discInclInfo.inclDefHandle != 0u))
1281:Generated_Source\PSoC4/BLE_eventHandler.c ****     {
1282:Generated_Source\PSoC4/BLE_eventHandler.c ****         CYBLE_DISC_SRVC128_INFO_T discServInfo;
1283:Generated_Source\PSoC4/BLE_eventHandler.c **** 
1284:Generated_Source\PSoC4/BLE_eventHandler.c ****         /* Store service range */
1285:Generated_Source\PSoC4/BLE_eventHandler.c ****         discServInfo.range = cyBle_discInclInfo.inclHandleRange;
1286:Generated_Source\PSoC4/BLE_eventHandler.c ****         (void)memcpy((void *) discServInfo.uuid.uuid128.value, (void *)eventParam->value.val, event
1287:Generated_Source\PSoC4/BLE_eventHandler.c ****         CyBle_CustomcDiscoverServiceEventHandler(&discServInfo);
1288:Generated_Source\PSoC4/BLE_eventHandler.c ****         
1289:Generated_Source\PSoC4/BLE_eventHandler.c ****         /* Re-initiate CyBle_GattcFindIncludedServices function, setting the start
1290:Generated_Source\PSoC4/BLE_eventHandler.c ****            handle to the attribute handle which is placed next to the one used in
1291:Generated_Source\PSoC4/BLE_eventHandler.c ****            the above step.
1292:Generated_Source\PSoC4/BLE_eventHandler.c ****         */
1293:Generated_Source\PSoC4/BLE_eventHandler.c ****         discServInfo.range.startHandle = cyBle_discInclInfo.inclDefHandle + 1;
1294:Generated_Source\PSoC4/BLE_eventHandler.c ****         discServInfo.range.endHandle = cyBle_serverInfo[cyBle_disCount].range.endHandle;
1295:Generated_Source\PSoC4/BLE_eventHandler.c ****         if(discServInfo.range.startHandle <= discServInfo.range.endHandle)
1296:Generated_Source\PSoC4/BLE_eventHandler.c ****         {
1297:Generated_Source\PSoC4/BLE_eventHandler.c ****             if(CYBLE_ERROR_OK != CyBle_GattcFindIncludedServices(cyBle_connHandle, &discServInfo.ra
1298:Generated_Source\PSoC4/BLE_eventHandler.c ****             {
ARM GAS  C:\Users\Intern\AppData\Local\Temp\cc8xw9iJ.s 			page 28


1299:Generated_Source\PSoC4/BLE_eventHandler.c ****                 CyBle_ApplCallback(CYBLE_EVT_GATTC_INCL_DISCOVERY_FAILED, NULL);
1300:Generated_Source\PSoC4/BLE_eventHandler.c ****                 cyBle_eventHandlerFlag &= (uint8)~CYBLE_AUTO_DISCOVERY;
1301:Generated_Source\PSoC4/BLE_eventHandler.c ****             }
1302:Generated_Source\PSoC4/BLE_eventHandler.c ****         }
1303:Generated_Source\PSoC4/BLE_eventHandler.c ****         else /* Continue discovery of the following service */
1304:Generated_Source\PSoC4/BLE_eventHandler.c ****         {
1305:Generated_Source\PSoC4/BLE_eventHandler.c ****             CyBle_NextInclDiscovery(CYBLE_DISCOVERY_CONTINUE);
1306:Generated_Source\PSoC4/BLE_eventHandler.c ****         }
1307:Generated_Source\PSoC4/BLE_eventHandler.c ****         
1308:Generated_Source\PSoC4/BLE_eventHandler.c ****         cyBle_eventHandlerFlag &= (uint8)~CYBLE_CALLBACK;
1309:Generated_Source\PSoC4/BLE_eventHandler.c ****     #ifdef CYBLE_CUSTOM_CLIENT
1310:Generated_Source\PSoC4/BLE_eventHandler.c ****         cyBle_discInclInfo.inclDefHandle = 0u;
1311:Generated_Source\PSoC4/BLE_eventHandler.c ****     #endif /* CYBLE_CUSTOM_CLIENT */
1312:Generated_Source\PSoC4/BLE_eventHandler.c ****     }
1313:Generated_Source\PSoC4/BLE_eventHandler.c **** #endif /* CYBLE_CUSTOM_CLIENT */
1314:Generated_Source\PSoC4/BLE_eventHandler.c **** #ifdef CYBLE_IPS_CLIENT
1315:Generated_Source\PSoC4/BLE_eventHandler.c ****     if((cyBle_eventHandlerFlag & CYBLE_CALLBACK) != 0u)
1316:Generated_Source\PSoC4/BLE_eventHandler.c ****     {
1317:Generated_Source\PSoC4/BLE_eventHandler.c ****         CyBle_IpscReadMultipleResponseEventHandler(eventParam);
1318:Generated_Source\PSoC4/BLE_eventHandler.c ****     }
1319:Generated_Source\PSoC4/BLE_eventHandler.c **** #endif /* CYBLE_IPS_CLIENT */
1320:Generated_Source\PSoC4/BLE_eventHandler.c ****     /* MISRA 16.7 violation workaround */
1321:Generated_Source\PSoC4/BLE_eventHandler.c ****     eventParam = eventParam;
1322:Generated_Source\PSoC4/BLE_eventHandler.c **** }
1323:Generated_Source\PSoC4/BLE_eventHandler.c **** #endif /* CYBLE_GATT_ROLE_CLIENT */
1324:Generated_Source\PSoC4/BLE_eventHandler.c **** 
1325:Generated_Source\PSoC4/BLE_eventHandler.c **** 
1326:Generated_Source\PSoC4/BLE_eventHandler.c **** /****************************************************************************** 
1327:Generated_Source\PSoC4/BLE_eventHandler.c **** * Function Name: CyBle_DisconnectEventHandler
1328:Generated_Source\PSoC4/BLE_eventHandler.c **** ***************************************************************************//**
1329:Generated_Source\PSoC4/BLE_eventHandler.c **** * 
1330:Generated_Source\PSoC4/BLE_eventHandler.c **** *  Handles the GATT Disconnection event from the BLE stack.
1331:Generated_Source\PSoC4/BLE_eventHandler.c **** * 
1332:Generated_Source\PSoC4/BLE_eventHandler.c **** * \return
1333:Generated_Source\PSoC4/BLE_eventHandler.c **** *  None
1334:Generated_Source\PSoC4/BLE_eventHandler.c **** * 
1335:Generated_Source\PSoC4/BLE_eventHandler.c **** ******************************************************************************/
1336:Generated_Source\PSoC4/BLE_eventHandler.c **** static void CyBle_GattDisconnectEventHandler(void)
1337:Generated_Source\PSoC4/BLE_eventHandler.c **** {
 241              		.loc 1 1337 0
 242              		.cfi_startproc
 243              		@ args = 0, pretend = 0, frame = 0
 244              		@ frame_needed = 1, uses_anonymous_args = 0
 245 0000 80B5     		push	{r7, lr}
 246              		.cfi_def_cfa_offset 8
 247              		.cfi_offset 7, -8
 248              		.cfi_offset 14, -4
 249 0002 00AF     		add	r7, sp, #0
 250              		.cfi_def_cfa_register 7
1338:Generated_Source\PSoC4/BLE_eventHandler.c ****     cyBle_connHandle.attId = 0u;
 251              		.loc 1 1338 0
 252 0004 044B     		ldr	r3, .L15
 253 0006 0022     		movs	r2, #0
 254 0008 5A70     		strb	r2, [r3, #1]
1339:Generated_Source\PSoC4/BLE_eventHandler.c ****     cyBle_connHandle.bdHandle = 0u;
 255              		.loc 1 1339 0
 256 000a 034B     		ldr	r3, .L15
ARM GAS  C:\Users\Intern\AppData\Local\Temp\cc8xw9iJ.s 			page 29


 257 000c 0022     		movs	r2, #0
 258 000e 1A70     		strb	r2, [r3]
1340:Generated_Source\PSoC4/BLE_eventHandler.c ****     
1341:Generated_Source\PSoC4/BLE_eventHandler.c ****     #if (CYBLE_GATT_ROLE_CLIENT)
1342:Generated_Source\PSoC4/BLE_eventHandler.c ****         if(CyBle_GetClientState() == CYBLE_CLIENT_STATE_DISCOVERED)
1343:Generated_Source\PSoC4/BLE_eventHandler.c ****         {
1344:Generated_Source\PSoC4/BLE_eventHandler.c ****             CyBle_SetClientState(CYBLE_CLIENT_STATE_DISCONNECTED_DISCOVERED);
1345:Generated_Source\PSoC4/BLE_eventHandler.c ****         }
1346:Generated_Source\PSoC4/BLE_eventHandler.c ****         else
1347:Generated_Source\PSoC4/BLE_eventHandler.c ****         {
1348:Generated_Source\PSoC4/BLE_eventHandler.c ****             CyBle_SetClientState(CYBLE_CLIENT_STATE_DISCONNECTED);
1349:Generated_Source\PSoC4/BLE_eventHandler.c ****         }
1350:Generated_Source\PSoC4/BLE_eventHandler.c ****     #endif /* CYBLE_GATT_ROLE_CLIENT */
1351:Generated_Source\PSoC4/BLE_eventHandler.c ****         
1352:Generated_Source\PSoC4/BLE_eventHandler.c ****     #ifdef CYBLE_CPS_SERVER
1353:Generated_Source\PSoC4/BLE_eventHandler.c ****         #if CYBLE_GAP_ROLE_BROADCASTER
1354:Generated_Source\PSoC4/BLE_eventHandler.c ****             CyBle_CpssDisconnectEventHandler();
1355:Generated_Source\PSoC4/BLE_eventHandler.c ****         #endif /* CYBLE_GAP_ROLE_BROADCASTER */
1356:Generated_Source\PSoC4/BLE_eventHandler.c ****     #endif /* CYBLE_CPS_SERVER */
1357:Generated_Source\PSoC4/BLE_eventHandler.c **** 
1358:Generated_Source\PSoC4/BLE_eventHandler.c ****     #ifdef CYBLE_CPS_CLIENT
1359:Generated_Source\PSoC4/BLE_eventHandler.c ****         CyBle_CpscDisconnectEventHandler();
1360:Generated_Source\PSoC4/BLE_eventHandler.c ****     #endif /* CYBLE_CPS_CLIENT */
1361:Generated_Source\PSoC4/BLE_eventHandler.c **** 
1362:Generated_Source\PSoC4/BLE_eventHandler.c ****     #ifdef CYBLE_IAS_SERVER
1363:Generated_Source\PSoC4/BLE_eventHandler.c ****         CyBle_IassDisconnectEventHandler();
1364:Generated_Source\PSoC4/BLE_eventHandler.c ****     #endif /* CYBLE_IAS_SERVER */
1365:Generated_Source\PSoC4/BLE_eventHandler.c ****     
1366:Generated_Source\PSoC4/BLE_eventHandler.c ****     #ifdef CYBLE_GLS_SERVER
1367:Generated_Source\PSoC4/BLE_eventHandler.c ****         CyBle_GlsInit();
1368:Generated_Source\PSoC4/BLE_eventHandler.c ****     #endif /* CYBLE_GLS_SERVER */
1369:Generated_Source\PSoC4/BLE_eventHandler.c ****     
1370:Generated_Source\PSoC4/BLE_eventHandler.c ****     #ifdef CYBLE_LNS_SERVER
1371:Generated_Source\PSoC4/BLE_eventHandler.c ****         CyBle_LnsInit();
1372:Generated_Source\PSoC4/BLE_eventHandler.c ****     #endif /* CYBLE_LNS_SERVER */
1373:Generated_Source\PSoC4/BLE_eventHandler.c ****     
1374:Generated_Source\PSoC4/BLE_eventHandler.c ****     #ifdef CYBLE_UDS_SERVER
1375:Generated_Source\PSoC4/BLE_eventHandler.c ****         CyBle_UdsInit();
1376:Generated_Source\PSoC4/BLE_eventHandler.c ****     #endif /* CYBLE_UDS_SERVER */
1377:Generated_Source\PSoC4/BLE_eventHandler.c **** }
 259              		.loc 1 1377 0
 260 0010 C046     		nop
 261 0012 BD46     		mov	sp, r7
 262              		@ sp needed
 263 0014 80BD     		pop	{r7, pc}
 264              	.L16:
 265 0016 C046     		.align	2
 266              	.L15:
 267 0018 00000000 		.word	cyBle_connHandle
 268              		.cfi_endproc
 269              	.LFE4:
 270              		.size	CyBle_GattDisconnectEventHandler, .-CyBle_GattDisconnectEventHandler
 271              		.section	.text.CyBle_TimeOutEventHandler,"ax",%progbits
 272              		.align	2
 273              		.code	16
 274              		.thumb_func
 275              		.type	CyBle_TimeOutEventHandler, %function
ARM GAS  C:\Users\Intern\AppData\Local\Temp\cc8xw9iJ.s 			page 30


 276              	CyBle_TimeOutEventHandler:
 277              	.LFB5:
1378:Generated_Source\PSoC4/BLE_eventHandler.c **** 
1379:Generated_Source\PSoC4/BLE_eventHandler.c **** 
1380:Generated_Source\PSoC4/BLE_eventHandler.c **** /****************************************************************************** 
1381:Generated_Source\PSoC4/BLE_eventHandler.c **** * Function Name: CyBle_TimeOutEventHandler
1382:Generated_Source\PSoC4/BLE_eventHandler.c **** ***************************************************************************//**
1383:Generated_Source\PSoC4/BLE_eventHandler.c **** * 
1384:Generated_Source\PSoC4/BLE_eventHandler.c **** *  Handles the CYBLE_EVT_TIMEOUT event from the BLE stack.
1385:Generated_Source\PSoC4/BLE_eventHandler.c **** * 
1386:Generated_Source\PSoC4/BLE_eventHandler.c **** *  \param eventParam: The pointer to a structure of type CYBLE_TO_REASON_CODE_T.
1387:Generated_Source\PSoC4/BLE_eventHandler.c **** * 
1388:Generated_Source\PSoC4/BLE_eventHandler.c **** * \return
1389:Generated_Source\PSoC4/BLE_eventHandler.c **** *  None
1390:Generated_Source\PSoC4/BLE_eventHandler.c **** * 
1391:Generated_Source\PSoC4/BLE_eventHandler.c **** ******************************************************************************/
1392:Generated_Source\PSoC4/BLE_eventHandler.c **** static void CyBle_TimeOutEventHandler(const CYBLE_TO_REASON_CODE_T *eventParam)
1393:Generated_Source\PSoC4/BLE_eventHandler.c **** {
 278              		.loc 1 1393 0
 279              		.cfi_startproc
 280              		@ args = 0, pretend = 0, frame = 8
 281              		@ frame_needed = 1, uses_anonymous_args = 0
 282 0000 80B5     		push	{r7, lr}
 283              		.cfi_def_cfa_offset 8
 284              		.cfi_offset 7, -8
 285              		.cfi_offset 14, -4
 286 0002 82B0     		sub	sp, sp, #8
 287              		.cfi_def_cfa_offset 16
 288 0004 00AF     		add	r7, sp, #0
 289              		.cfi_def_cfa_register 7
 290 0006 7860     		str	r0, [r7, #4]
1394:Generated_Source\PSoC4/BLE_eventHandler.c ****     if(*eventParam == CYBLE_GATT_RSP_TO)
1395:Generated_Source\PSoC4/BLE_eventHandler.c ****     {
1396:Generated_Source\PSoC4/BLE_eventHandler.c ****     #if (CYBLE_GATT_ROLE_CLIENT)
1397:Generated_Source\PSoC4/BLE_eventHandler.c ****         if((cyBle_eventHandlerFlag & CYBLE_AUTO_DISCOVERY) != 0u)
1398:Generated_Source\PSoC4/BLE_eventHandler.c ****         {
1399:Generated_Source\PSoC4/BLE_eventHandler.c ****             switch(CyBle_GetClientState())
1400:Generated_Source\PSoC4/BLE_eventHandler.c ****             {
1401:Generated_Source\PSoC4/BLE_eventHandler.c ****                 case CYBLE_CLIENT_STATE_SRVC_DISCOVERING:
1402:Generated_Source\PSoC4/BLE_eventHandler.c ****                     CyBle_ApplCallback(CYBLE_EVT_GATTC_SRVC_DISCOVERY_FAILED, NULL);
1403:Generated_Source\PSoC4/BLE_eventHandler.c ****                     break;
1404:Generated_Source\PSoC4/BLE_eventHandler.c ****                 case CYBLE_CLIENT_STATE_INCL_DISCOVERING:
1405:Generated_Source\PSoC4/BLE_eventHandler.c ****                     CyBle_ApplCallback(CYBLE_EVT_GATTC_INCL_DISCOVERY_FAILED, NULL);
1406:Generated_Source\PSoC4/BLE_eventHandler.c ****                     break;
1407:Generated_Source\PSoC4/BLE_eventHandler.c ****                 case CYBLE_CLIENT_STATE_CHAR_DISCOVERING:
1408:Generated_Source\PSoC4/BLE_eventHandler.c ****                     CyBle_ApplCallback(CYBLE_EVT_GATTC_CHAR_DISCOVERY_FAILED, NULL);
1409:Generated_Source\PSoC4/BLE_eventHandler.c ****                     break;
1410:Generated_Source\PSoC4/BLE_eventHandler.c ****                 case CYBLE_CLIENT_STATE_DESCR_DISCOVERING:
1411:Generated_Source\PSoC4/BLE_eventHandler.c ****                     CyBle_ApplCallback(CYBLE_EVT_GATTC_DESCR_DISCOVERY_FAILED, NULL);
1412:Generated_Source\PSoC4/BLE_eventHandler.c ****                     break;
1413:Generated_Source\PSoC4/BLE_eventHandler.c ****                 default:        /* Other states should not be set in Auto discovery mode */
1414:Generated_Source\PSoC4/BLE_eventHandler.c ****                     break;
1415:Generated_Source\PSoC4/BLE_eventHandler.c ****             }
1416:Generated_Source\PSoC4/BLE_eventHandler.c ****             cyBle_eventHandlerFlag &= (uint8)~CYBLE_AUTO_DISCOVERY;
1417:Generated_Source\PSoC4/BLE_eventHandler.c ****             CyBle_SetClientState(CYBLE_CLIENT_STATE_CONNECTED);
1418:Generated_Source\PSoC4/BLE_eventHandler.c ****         }
1419:Generated_Source\PSoC4/BLE_eventHandler.c ****     #endif /* CYBLE_GATT_ROLE_CLIENT */
ARM GAS  C:\Users\Intern\AppData\Local\Temp\cc8xw9iJ.s 			page 31


1420:Generated_Source\PSoC4/BLE_eventHandler.c ****     #ifdef CYBLE_CPS_SERVER
1421:Generated_Source\PSoC4/BLE_eventHandler.c ****         CyBle_CpssTimeOutEventHandler();
1422:Generated_Source\PSoC4/BLE_eventHandler.c ****     #endif /* CYBLE_CPS_SERVER */
1423:Generated_Source\PSoC4/BLE_eventHandler.c ****     }
1424:Generated_Source\PSoC4/BLE_eventHandler.c ****     
1425:Generated_Source\PSoC4/BLE_eventHandler.c ****     /* Connection procedure timeout */
1426:Generated_Source\PSoC4/BLE_eventHandler.c ****     if(*eventParam == CYBLE_GENERIC_TO)
1427:Generated_Source\PSoC4/BLE_eventHandler.c ****     {
1428:Generated_Source\PSoC4/BLE_eventHandler.c ****     #if(CYBLE_GAP_ROLE_CENTRAL)
1429:Generated_Source\PSoC4/BLE_eventHandler.c ****         if(CyBle_GetState() == CYBLE_STATE_CONNECTING)
1430:Generated_Source\PSoC4/BLE_eventHandler.c ****         {
1431:Generated_Source\PSoC4/BLE_eventHandler.c ****             (void)CyBle_GapcCancelDeviceConnection();
1432:Generated_Source\PSoC4/BLE_eventHandler.c ****         }
1433:Generated_Source\PSoC4/BLE_eventHandler.c ****     #endif /* CYBLE_GAP_ROLE_CENTRAL */
1434:Generated_Source\PSoC4/BLE_eventHandler.c ****     }
1435:Generated_Source\PSoC4/BLE_eventHandler.c **** }
 291              		.loc 1 1435 0
 292 0008 C046     		nop
 293 000a BD46     		mov	sp, r7
 294 000c 02B0     		add	sp, sp, #8
 295              		@ sp needed
 296 000e 80BD     		pop	{r7, pc}
 297              		.cfi_endproc
 298              	.LFE5:
 299              		.size	CyBle_TimeOutEventHandler, .-CyBle_TimeOutEventHandler
 300              		.section	.text.CyBle_GattConnectReqHandler,"ax",%progbits
 301              		.align	2
 302              		.code	16
 303              		.thumb_func
 304              		.type	CyBle_GattConnectReqHandler, %function
 305              	CyBle_GattConnectReqHandler:
 306              	.LFB6:
1436:Generated_Source\PSoC4/BLE_eventHandler.c **** 
1437:Generated_Source\PSoC4/BLE_eventHandler.c **** 
1438:Generated_Source\PSoC4/BLE_eventHandler.c **** /****************************************************************************** 
1439:Generated_Source\PSoC4/BLE_eventHandler.c **** * Function Name: CyBle_GattConnectReqHandler
1440:Generated_Source\PSoC4/BLE_eventHandler.c **** ***************************************************************************//**
1441:Generated_Source\PSoC4/BLE_eventHandler.c **** * 
1442:Generated_Source\PSoC4/BLE_eventHandler.c **** *  Handles the GATT connect event from the BLE stack.
1443:Generated_Source\PSoC4/BLE_eventHandler.c **** * 
1444:Generated_Source\PSoC4/BLE_eventHandler.c **** * \return
1445:Generated_Source\PSoC4/BLE_eventHandler.c **** *  None
1446:Generated_Source\PSoC4/BLE_eventHandler.c **** * 
1447:Generated_Source\PSoC4/BLE_eventHandler.c **** ******************************************************************************/
1448:Generated_Source\PSoC4/BLE_eventHandler.c **** static void CyBle_GattConnectReqHandler(void)
1449:Generated_Source\PSoC4/BLE_eventHandler.c **** {
 307              		.loc 1 1449 0
 308              		.cfi_startproc
 309              		@ args = 0, pretend = 0, frame = 0
 310              		@ frame_needed = 1, uses_anonymous_args = 0
 311 0000 80B5     		push	{r7, lr}
 312              		.cfi_def_cfa_offset 8
 313              		.cfi_offset 7, -8
 314              		.cfi_offset 14, -4
 315 0002 00AF     		add	r7, sp, #0
 316              		.cfi_def_cfa_register 7
1450:Generated_Source\PSoC4/BLE_eventHandler.c ****     #ifdef CYBLE_CGMS_SERVER
ARM GAS  C:\Users\Intern\AppData\Local\Temp\cc8xw9iJ.s 			page 32


1451:Generated_Source\PSoC4/BLE_eventHandler.c ****         CyBle_CgmsInit();
1452:Generated_Source\PSoC4/BLE_eventHandler.c ****     #endif /* CYBLE_CGMS_SERVER */
1453:Generated_Source\PSoC4/BLE_eventHandler.c ****     
1454:Generated_Source\PSoC4/BLE_eventHandler.c ****     #ifdef CYBLE_CPS_SERVER
1455:Generated_Source\PSoC4/BLE_eventHandler.c ****         CyBle_CpssConnectEventHandler();
1456:Generated_Source\PSoC4/BLE_eventHandler.c ****     #endif /* CYBLE_CPS_SERVER */
1457:Generated_Source\PSoC4/BLE_eventHandler.c ****     
1458:Generated_Source\PSoC4/BLE_eventHandler.c ****     #ifdef CYBLE_CSCS_SERVER
1459:Generated_Source\PSoC4/BLE_eventHandler.c ****             CyBle_CscsInit();
1460:Generated_Source\PSoC4/BLE_eventHandler.c ****     #endif /* CYBLE_CSCS_SERVER */
1461:Generated_Source\PSoC4/BLE_eventHandler.c ****     
1462:Generated_Source\PSoC4/BLE_eventHandler.c ****     #ifdef CYBLE_LLS_SERVER
1463:Generated_Source\PSoC4/BLE_eventHandler.c ****         CyBle_LlssConnectEventHandler();
1464:Generated_Source\PSoC4/BLE_eventHandler.c ****     #endif /* CYBLE_LLS_SERVER */
1465:Generated_Source\PSoC4/BLE_eventHandler.c ****     
1466:Generated_Source\PSoC4/BLE_eventHandler.c ****     #ifdef CYBLE_HIDS_SERVER
1467:Generated_Source\PSoC4/BLE_eventHandler.c ****         CyBle_HidssOnDeviceConnected();
1468:Generated_Source\PSoC4/BLE_eventHandler.c ****     #endif /* CYBLE_HIDS_SERVER */
1469:Generated_Source\PSoC4/BLE_eventHandler.c **** 
1470:Generated_Source\PSoC4/BLE_eventHandler.c ****     #ifdef CYBLE_RSCS_SERVER
1471:Generated_Source\PSoC4/BLE_eventHandler.c ****         CyBle_RscsInit();
1472:Generated_Source\PSoC4/BLE_eventHandler.c ****     #endif /* CYBLE_RSCS_SERVER */
1473:Generated_Source\PSoC4/BLE_eventHandler.c **** }
 317              		.loc 1 1473 0
 318 0004 C046     		nop
 319 0006 BD46     		mov	sp, r7
 320              		@ sp needed
 321 0008 80BD     		pop	{r7, pc}
 322              		.cfi_endproc
 323              	.LFE6:
 324              		.size	CyBle_GattConnectReqHandler, .-CyBle_GattConnectReqHandler
 325 000a C046     		.section	.text.CyBle_IsDeviceAddressValid,"ax",%progbits
 326              		.align	2
 327              		.global	CyBle_IsDeviceAddressValid
 328              		.code	16
 329              		.thumb_func
 330              		.type	CyBle_IsDeviceAddressValid, %function
 331              	CyBle_IsDeviceAddressValid:
 332              	.LFB7:
1474:Generated_Source\PSoC4/BLE_eventHandler.c **** 
1475:Generated_Source\PSoC4/BLE_eventHandler.c **** 
1476:Generated_Source\PSoC4/BLE_eventHandler.c **** #if (CYBLE_GATT_ROLE_SERVER || CYBLE_GATT_ROLE_CLIENT)
1477:Generated_Source\PSoC4/BLE_eventHandler.c **** 
1478:Generated_Source\PSoC4/BLE_eventHandler.c **** /****************************************************************************** 
1479:Generated_Source\PSoC4/BLE_eventHandler.c **** * Function Name: CyBle_IsDeviceAddressValid
1480:Generated_Source\PSoC4/BLE_eventHandler.c **** ***************************************************************************//**
1481:Generated_Source\PSoC4/BLE_eventHandler.c **** * 
1482:Generated_Source\PSoC4/BLE_eventHandler.c **** *  This function verifies that BLE public address has been programmed to SFLASH 
1483:Generated_Source\PSoC4/BLE_eventHandler.c **** *  during manufacture. It could be used to verify if public device address is 
1484:Generated_Source\PSoC4/BLE_eventHandler.c **** *  programmed to flash memory.
1485:Generated_Source\PSoC4/BLE_eventHandler.c **** * 
1486:Generated_Source\PSoC4/BLE_eventHandler.c **** *  \param deviceAddress: the pointer to the BD address of type CYBLE_GAP_BD_ADDR_T. 
1487:Generated_Source\PSoC4/BLE_eventHandler.c **** * 
1488:Generated_Source\PSoC4/BLE_eventHandler.c **** * \return
1489:Generated_Source\PSoC4/BLE_eventHandler.c **** *  Non zero value when a device address differs from the default SFLASH content.
1490:Generated_Source\PSoC4/BLE_eventHandler.c **** * 
1491:Generated_Source\PSoC4/BLE_eventHandler.c **** ******************************************************************************/
ARM GAS  C:\Users\Intern\AppData\Local\Temp\cc8xw9iJ.s 			page 33


1492:Generated_Source\PSoC4/BLE_eventHandler.c **** uint8 CyBle_IsDeviceAddressValid(const CYBLE_GAP_BD_ADDR_T *deviceAddress)
1493:Generated_Source\PSoC4/BLE_eventHandler.c **** {
 333              		.loc 1 1493 0
 334              		.cfi_startproc
 335              		@ args = 0, pretend = 0, frame = 16
 336              		@ frame_needed = 1, uses_anonymous_args = 0
 337 0000 80B5     		push	{r7, lr}
 338              		.cfi_def_cfa_offset 8
 339              		.cfi_offset 7, -8
 340              		.cfi_offset 14, -4
 341 0002 84B0     		sub	sp, sp, #16
 342              		.cfi_def_cfa_offset 24
 343 0004 00AF     		add	r7, sp, #0
 344              		.cfi_def_cfa_register 7
 345 0006 7860     		str	r0, [r7, #4]
1494:Generated_Source\PSoC4/BLE_eventHandler.c ****     uint8 i;
1495:Generated_Source\PSoC4/BLE_eventHandler.c ****     uint8 addressValid = 0u;
 346              		.loc 1 1495 0
 347 0008 0E23     		movs	r3, #14
 348 000a FB18     		adds	r3, r7, r3
 349 000c 0022     		movs	r2, #0
 350 000e 1A70     		strb	r2, [r3]
1496:Generated_Source\PSoC4/BLE_eventHandler.c ****     
1497:Generated_Source\PSoC4/BLE_eventHandler.c ****     if(deviceAddress -> type == CYBLE_GAP_ADDR_TYPE_PUBLIC)  
 351              		.loc 1 1497 0
 352 0010 7B68     		ldr	r3, [r7, #4]
 353 0012 9B79     		ldrb	r3, [r3, #6]
 354 0014 002B     		cmp	r3, #0
 355 0016 1CD1     		bne	.L20
1498:Generated_Source\PSoC4/BLE_eventHandler.c ****     {
1499:Generated_Source\PSoC4/BLE_eventHandler.c ****         for(i = 0u; i < CYBLE_GAP_BD_ADDR_SIZE; i++)
 356              		.loc 1 1499 0
 357 0018 0F23     		movs	r3, #15
 358 001a FB18     		adds	r3, r7, r3
 359 001c 0022     		movs	r2, #0
 360 001e 1A70     		strb	r2, [r3]
 361 0020 12E0     		b	.L21
 362              	.L23:
1500:Generated_Source\PSoC4/BLE_eventHandler.c ****         {
1501:Generated_Source\PSoC4/BLE_eventHandler.c ****             if(deviceAddress->bdAddr[i] != 0u)
 363              		.loc 1 1501 0
 364 0022 0F23     		movs	r3, #15
 365 0024 FB18     		adds	r3, r7, r3
 366 0026 1B78     		ldrb	r3, [r3]
 367 0028 7A68     		ldr	r2, [r7, #4]
 368 002a D35C     		ldrb	r3, [r2, r3]
 369 002c 002B     		cmp	r3, #0
 370 002e 04D0     		beq	.L22
1502:Generated_Source\PSoC4/BLE_eventHandler.c ****             {
1503:Generated_Source\PSoC4/BLE_eventHandler.c ****                 addressValid = 1u;
 371              		.loc 1 1503 0
 372 0030 0E23     		movs	r3, #14
 373 0032 FB18     		adds	r3, r7, r3
 374 0034 0122     		movs	r2, #1
 375 0036 1A70     		strb	r2, [r3]
1504:Generated_Source\PSoC4/BLE_eventHandler.c ****                 break;
 376              		.loc 1 1504 0
ARM GAS  C:\Users\Intern\AppData\Local\Temp\cc8xw9iJ.s 			page 34


 377 0038 0BE0     		b	.L20
 378              	.L22:
1499:Generated_Source\PSoC4/BLE_eventHandler.c ****         {
 379              		.loc 1 1499 0 discriminator 2
 380 003a 0F23     		movs	r3, #15
 381 003c FB18     		adds	r3, r7, r3
 382 003e 1A78     		ldrb	r2, [r3]
 383 0040 0F23     		movs	r3, #15
 384 0042 FB18     		adds	r3, r7, r3
 385 0044 0132     		adds	r2, r2, #1
 386 0046 1A70     		strb	r2, [r3]
 387              	.L21:
1499:Generated_Source\PSoC4/BLE_eventHandler.c ****         {
 388              		.loc 1 1499 0 is_stmt 0 discriminator 1
 389 0048 0F23     		movs	r3, #15
 390 004a FB18     		adds	r3, r7, r3
 391 004c 1B78     		ldrb	r3, [r3]
 392 004e 052B     		cmp	r3, #5
 393 0050 E7D9     		bls	.L23
 394              	.L20:
1505:Generated_Source\PSoC4/BLE_eventHandler.c ****             }
1506:Generated_Source\PSoC4/BLE_eventHandler.c ****         }
1507:Generated_Source\PSoC4/BLE_eventHandler.c ****     }
1508:Generated_Source\PSoC4/BLE_eventHandler.c ****     return (addressValid);
 395              		.loc 1 1508 0 is_stmt 1
 396 0052 0E23     		movs	r3, #14
 397 0054 FB18     		adds	r3, r7, r3
 398 0056 1B78     		ldrb	r3, [r3]
1509:Generated_Source\PSoC4/BLE_eventHandler.c **** }
 399              		.loc 1 1509 0
 400 0058 1800     		movs	r0, r3
 401 005a BD46     		mov	sp, r7
 402 005c 04B0     		add	sp, sp, #16
 403              		@ sp needed
 404 005e 80BD     		pop	{r7, pc}
 405              		.cfi_endproc
 406              	.LFE7:
 407              		.size	CyBle_IsDeviceAddressValid, .-CyBle_IsDeviceAddressValid
 408              		.section	.text.CyBle_L2Cap_ConnParamUpdateRspEventHandler,"ax",%progbits
 409              		.align	2
 410              		.code	16
 411              		.thumb_func
 412              		.type	CyBle_L2Cap_ConnParamUpdateRspEventHandler, %function
 413              	CyBle_L2Cap_ConnParamUpdateRspEventHandler:
 414              	.LFB8:
1510:Generated_Source\PSoC4/BLE_eventHandler.c **** #endif /* CYBLE_GATT_ROLE_SERVER || CYBLE_GATT_ROLE_CLIENT */
1511:Generated_Source\PSoC4/BLE_eventHandler.c **** 
1512:Generated_Source\PSoC4/BLE_eventHandler.c **** 
1513:Generated_Source\PSoC4/BLE_eventHandler.c **** /****************************************************************************** 
1514:Generated_Source\PSoC4/BLE_eventHandler.c **** * Function Name: CyBle_L2Cap_ConnParamUpdateRspHandler
1515:Generated_Source\PSoC4/BLE_eventHandler.c **** ***************************************************************************//**
1516:Generated_Source\PSoC4/BLE_eventHandler.c **** * 
1517:Generated_Source\PSoC4/BLE_eventHandler.c **** *  Handles the L2CAP connection parameter response event from
1518:Generated_Source\PSoC4/BLE_eventHandler.c **** *  the BLE stack.
1519:Generated_Source\PSoC4/BLE_eventHandler.c **** * 
1520:Generated_Source\PSoC4/BLE_eventHandler.c **** *  \param response:
1521:Generated_Source\PSoC4/BLE_eventHandler.c **** *      * Accepted = 0x0000
ARM GAS  C:\Users\Intern\AppData\Local\Temp\cc8xw9iJ.s 			page 35


1522:Generated_Source\PSoC4/BLE_eventHandler.c **** *      * Rejected = 0x0001
1523:Generated_Source\PSoC4/BLE_eventHandler.c **** * 
1524:Generated_Source\PSoC4/BLE_eventHandler.c **** * \return
1525:Generated_Source\PSoC4/BLE_eventHandler.c **** *  None
1526:Generated_Source\PSoC4/BLE_eventHandler.c **** * 
1527:Generated_Source\PSoC4/BLE_eventHandler.c **** ******************************************************************************/
1528:Generated_Source\PSoC4/BLE_eventHandler.c **** static void CyBle_L2Cap_ConnParamUpdateRspEventHandler(uint16 response)
1529:Generated_Source\PSoC4/BLE_eventHandler.c **** {
 415              		.loc 1 1529 0
 416              		.cfi_startproc
 417              		@ args = 0, pretend = 0, frame = 8
 418              		@ frame_needed = 1, uses_anonymous_args = 0
 419 0000 80B5     		push	{r7, lr}
 420              		.cfi_def_cfa_offset 8
 421              		.cfi_offset 7, -8
 422              		.cfi_offset 14, -4
 423 0002 82B0     		sub	sp, sp, #8
 424              		.cfi_def_cfa_offset 16
 425 0004 00AF     		add	r7, sp, #0
 426              		.cfi_def_cfa_register 7
 427 0006 0200     		movs	r2, r0
 428 0008 BB1D     		adds	r3, r7, #6
 429 000a 1A80     		strh	r2, [r3]
1530:Generated_Source\PSoC4/BLE_eventHandler.c ****     #ifdef CYBLE_CPS_SERVER
1531:Generated_Source\PSoC4/BLE_eventHandler.c ****         CyBle_CpssConnParamUpdateRspEventHandler(response);
1532:Generated_Source\PSoC4/BLE_eventHandler.c ****     #endif /* CYBLE_CPS_SERVER */
1533:Generated_Source\PSoC4/BLE_eventHandler.c ****     
1534:Generated_Source\PSoC4/BLE_eventHandler.c ****     /* Unreferenced variable warning workaround */
1535:Generated_Source\PSoC4/BLE_eventHandler.c ****     if(response != 0u)
1536:Generated_Source\PSoC4/BLE_eventHandler.c ****     {
1537:Generated_Source\PSoC4/BLE_eventHandler.c ****     }
1538:Generated_Source\PSoC4/BLE_eventHandler.c **** }
 430              		.loc 1 1538 0
 431 000c C046     		nop
 432 000e BD46     		mov	sp, r7
 433 0010 02B0     		add	sp, sp, #8
 434              		@ sp needed
 435 0012 80BD     		pop	{r7, pc}
 436              		.cfi_endproc
 437              	.LFE8:
 438              		.size	CyBle_L2Cap_ConnParamUpdateRspEventHandler, .-CyBle_L2Cap_ConnParamUpdateRspEventHandler
 439              		.section	.text.CyBle_GapConnUpdateCompleteEventHandler,"ax",%progbits
 440              		.align	2
 441              		.code	16
 442              		.thumb_func
 443              		.type	CyBle_GapConnUpdateCompleteEventHandler, %function
 444              	CyBle_GapConnUpdateCompleteEventHandler:
 445              	.LFB9:
1539:Generated_Source\PSoC4/BLE_eventHandler.c **** 
1540:Generated_Source\PSoC4/BLE_eventHandler.c **** 
1541:Generated_Source\PSoC4/BLE_eventHandler.c **** /****************************************************************************** 
1542:Generated_Source\PSoC4/BLE_eventHandler.c **** * Function Name: CyBle_GapConnUpdateCompleteEventHandler
1543:Generated_Source\PSoC4/BLE_eventHandler.c **** ***************************************************************************//**
1544:Generated_Source\PSoC4/BLE_eventHandler.c **** * 
1545:Generated_Source\PSoC4/BLE_eventHandler.c **** *  Handles the CYBLE_EVT_GAP_CONNECTION_UPDATE_COMPLETE event from
1546:Generated_Source\PSoC4/BLE_eventHandler.c **** *  the BLE stack.
1547:Generated_Source\PSoC4/BLE_eventHandler.c **** * 
ARM GAS  C:\Users\Intern\AppData\Local\Temp\cc8xw9iJ.s 			page 36


1548:Generated_Source\PSoC4/BLE_eventHandler.c **** *  \param eventParam: The pointer to the data structure specified by the event.
1549:Generated_Source\PSoC4/BLE_eventHandler.c **** * 
1550:Generated_Source\PSoC4/BLE_eventHandler.c **** * \return
1551:Generated_Source\PSoC4/BLE_eventHandler.c **** *  None
1552:Generated_Source\PSoC4/BLE_eventHandler.c **** * 
1553:Generated_Source\PSoC4/BLE_eventHandler.c **** ******************************************************************************/
1554:Generated_Source\PSoC4/BLE_eventHandler.c **** static void CyBle_GapConnUpdateCompleteEventHandler(const CYBLE_GAP_CONN_PARAM_UPDATED_IN_CONTROLLE
1555:Generated_Source\PSoC4/BLE_eventHandler.c **** {
 446              		.loc 1 1555 0
 447              		.cfi_startproc
 448              		@ args = 0, pretend = 0, frame = 8
 449              		@ frame_needed = 1, uses_anonymous_args = 0
 450 0000 80B5     		push	{r7, lr}
 451              		.cfi_def_cfa_offset 8
 452              		.cfi_offset 7, -8
 453              		.cfi_offset 14, -4
 454 0002 82B0     		sub	sp, sp, #8
 455              		.cfi_def_cfa_offset 16
 456 0004 00AF     		add	r7, sp, #0
 457              		.cfi_def_cfa_register 7
 458 0006 7860     		str	r0, [r7, #4]
1556:Generated_Source\PSoC4/BLE_eventHandler.c ****     #ifdef CYBLE_CPS_SERVER
1557:Generated_Source\PSoC4/BLE_eventHandler.c ****         CyBle_CpssConnUpdateCompleteEventHandler(eventParam);
1558:Generated_Source\PSoC4/BLE_eventHandler.c ****     #endif /* CYBLE_CPS_SERVER */
1559:Generated_Source\PSoC4/BLE_eventHandler.c ****     
1560:Generated_Source\PSoC4/BLE_eventHandler.c ****     /* Unreferenced variable warning workaround */
1561:Generated_Source\PSoC4/BLE_eventHandler.c ****     if(eventParam != 0u)
1562:Generated_Source\PSoC4/BLE_eventHandler.c ****     {
1563:Generated_Source\PSoC4/BLE_eventHandler.c ****     }
1564:Generated_Source\PSoC4/BLE_eventHandler.c **** }
 459              		.loc 1 1564 0
 460 0008 C046     		nop
 461 000a BD46     		mov	sp, r7
 462 000c 02B0     		add	sp, sp, #8
 463              		@ sp needed
 464 000e 80BD     		pop	{r7, pc}
 465              		.cfi_endproc
 466              	.LFE9:
 467              		.size	CyBle_GapConnUpdateCompleteEventHandler, .-CyBle_GapConnUpdateCompleteEventHandler
 468              		.section	.text.CyBle_EventHandler,"ax",%progbits
 469              		.align	2
 470              		.global	CyBle_EventHandler
 471              		.code	16
 472              		.thumb_func
 473              		.type	CyBle_EventHandler, %function
 474              	CyBle_EventHandler:
 475              	.LFB10:
1565:Generated_Source\PSoC4/BLE_eventHandler.c **** 
1566:Generated_Source\PSoC4/BLE_eventHandler.c **** 
1567:Generated_Source\PSoC4/BLE_eventHandler.c **** /****************************************************************************** 
1568:Generated_Source\PSoC4/BLE_eventHandler.c **** * Function Name: CyBle_EventHandler
1569:Generated_Source\PSoC4/BLE_eventHandler.c **** ***************************************************************************//**
1570:Generated_Source\PSoC4/BLE_eventHandler.c **** * 
1571:Generated_Source\PSoC4/BLE_eventHandler.c **** *  Handles the events from the BLE stack
1572:Generated_Source\PSoC4/BLE_eventHandler.c **** * 
1573:Generated_Source\PSoC4/BLE_eventHandler.c **** *  \param eventCode:    the event code
1574:Generated_Source\PSoC4/BLE_eventHandler.c **** *  \param eventParam:  the event parameters
ARM GAS  C:\Users\Intern\AppData\Local\Temp\cc8xw9iJ.s 			page 37


1575:Generated_Source\PSoC4/BLE_eventHandler.c **** * 
1576:Generated_Source\PSoC4/BLE_eventHandler.c **** * \return
1577:Generated_Source\PSoC4/BLE_eventHandler.c **** *  None.
1578:Generated_Source\PSoC4/BLE_eventHandler.c **** * 
1579:Generated_Source\PSoC4/BLE_eventHandler.c **** ******************************************************************************/
1580:Generated_Source\PSoC4/BLE_eventHandler.c **** void CyBle_EventHandler(uint8 eventCode, void *eventParam)
1581:Generated_Source\PSoC4/BLE_eventHandler.c **** {
 476              		.loc 1 1581 0
 477              		.cfi_startproc
 478              		@ args = 0, pretend = 0, frame = 32
 479              		@ frame_needed = 1, uses_anonymous_args = 0
 480 0000 80B5     		push	{r7, lr}
 481              		.cfi_def_cfa_offset 8
 482              		.cfi_offset 7, -8
 483              		.cfi_offset 14, -4
 484 0002 88B0     		sub	sp, sp, #32
 485              		.cfi_def_cfa_offset 40
 486 0004 00AF     		add	r7, sp, #0
 487              		.cfi_def_cfa_register 7
 488 0006 0200     		movs	r2, r0
 489 0008 3960     		str	r1, [r7]
 490 000a FB1D     		adds	r3, r7, #7
 491 000c 1A70     		strb	r2, [r3]
1582:Generated_Source\PSoC4/BLE_eventHandler.c ****     cyBle_eventHandlerFlag |= CYBLE_CALLBACK;
 492              		.loc 1 1582 0
 493 000e BE4B     		ldr	r3, .L70
 494 0010 1B78     		ldrb	r3, [r3]
 495 0012 DBB2     		uxtb	r3, r3
 496 0014 0122     		movs	r2, #1
 497 0016 1343     		orrs	r3, r2
 498 0018 DAB2     		uxtb	r2, r3
 499 001a BB4B     		ldr	r3, .L70
 500 001c 1A70     		strb	r2, [r3]
1583:Generated_Source\PSoC4/BLE_eventHandler.c **** 
1584:Generated_Source\PSoC4/BLE_eventHandler.c ****     /* Common Profile event handling */
1585:Generated_Source\PSoC4/BLE_eventHandler.c ****     switch(eventCode)
 501              		.loc 1 1585 0
 502 001e FB1D     		adds	r3, r7, #7
 503 0020 1B78     		ldrb	r3, [r3]
 504 0022 712B     		cmp	r3, #113
 505 0024 00D9     		bls	.LCB397
 506 0026 4EE1     		b	.L65	@long jump
 507              	.LCB397:
 508 0028 9A00     		lsls	r2, r3, #2
 509 002a B84B     		ldr	r3, .L70+4
 510 002c D318     		adds	r3, r2, r3
 511 002e 1B68     		ldr	r3, [r3]
 512 0030 9F46     		mov	pc, r3
 513              		.section	.rodata
 514              		.align	2
 515              	.L30:
 516 000c C6020000 		.word	.L65
 517 0010 32000000 		.word	.L29
 518 0014 E6000000 		.word	.L31
 519 0018 C6020000 		.word	.L65
 520 001c C6020000 		.word	.L65
 521 0020 F0000000 		.word	.L32
ARM GAS  C:\Users\Intern\AppData\Local\Temp\cc8xw9iJ.s 			page 38


 522 0024 FA000000 		.word	.L33
 523 0028 C6020000 		.word	.L65
 524 002c C6020000 		.word	.L65
 525 0030 C6020000 		.word	.L65
 526 0034 C6020000 		.word	.L65
 527 0038 C6020000 		.word	.L65
 528 003c C6020000 		.word	.L65
 529 0040 C6020000 		.word	.L65
 530 0044 C6020000 		.word	.L65
 531 0048 C6020000 		.word	.L65
 532 004c C6020000 		.word	.L65
 533 0050 C6020000 		.word	.L65
 534 0054 C6020000 		.word	.L65
 535 0058 C6020000 		.word	.L65
 536 005c C6020000 		.word	.L65
 537 0060 C6020000 		.word	.L65
 538 0064 C6020000 		.word	.L65
 539 0068 C6020000 		.word	.L65
 540 006c C6020000 		.word	.L65
 541 0070 C6020000 		.word	.L65
 542 0074 C6020000 		.word	.L65
 543 0078 C6020000 		.word	.L65
 544 007c C6020000 		.word	.L65
 545 0080 C6020000 		.word	.L65
 546 0084 C6020000 		.word	.L65
 547 0088 C6020000 		.word	.L65
 548 008c C6020000 		.word	.L65
 549 0090 3A010000 		.word	.L34
 550 0094 C6020000 		.word	.L65
 551 0098 C6020000 		.word	.L65
 552 009c C6020000 		.word	.L65
 553 00a0 C6020000 		.word	.L65
 554 00a4 BC010000 		.word	.L36
 555 00a8 A4010000 		.word	.L37
 556 00ac B4010000 		.word	.L38
 557 00b0 C6020000 		.word	.L65
 558 00b4 9A010000 		.word	.L39
 559 00b8 C6020000 		.word	.L65
 560 00bc C6020000 		.word	.L65
 561 00c0 C6020000 		.word	.L65
 562 00c4 C6020000 		.word	.L65
 563 00c8 C6020000 		.word	.L65
 564 00cc C6020000 		.word	.L65
 565 00d0 C6020000 		.word	.L65
 566 00d4 C6020000 		.word	.L65
 567 00d8 C6020000 		.word	.L65
 568 00dc C6020000 		.word	.L65
 569 00e0 C6020000 		.word	.L65
 570 00e4 C6020000 		.word	.L65
 571 00e8 C6020000 		.word	.L65
 572 00ec C6020000 		.word	.L65
 573 00f0 C6020000 		.word	.L65
 574 00f4 C6020000 		.word	.L65
 575 00f8 C6020000 		.word	.L65
 576 00fc C6020000 		.word	.L65
 577 0100 C6020000 		.word	.L65
 578 0104 C6020000 		.word	.L65
ARM GAS  C:\Users\Intern\AppData\Local\Temp\cc8xw9iJ.s 			page 39


 579 0108 C6020000 		.word	.L65
 580 010c C6020000 		.word	.L65
 581 0110 56020000 		.word	.L40
 582 0114 72020000 		.word	.L41
 583 0118 78020000 		.word	.L42
 584 011c C6020000 		.word	.L65
 585 0120 C6020000 		.word	.L65
 586 0124 C6020000 		.word	.L65
 587 0128 C6020000 		.word	.L65
 588 012c C6020000 		.word	.L65
 589 0130 C6020000 		.word	.L65
 590 0134 C6020000 		.word	.L65
 591 0138 C6020000 		.word	.L65
 592 013c B2020000 		.word	.L43
 593 0140 C6020000 		.word	.L65
 594 0144 C6020000 		.word	.L65
 595 0148 C6020000 		.word	.L65
 596 014c C6020000 		.word	.L65
 597 0150 C6020000 		.word	.L65
 598 0154 C6020000 		.word	.L65
 599 0158 C6020000 		.word	.L65
 600 015c BC020000 		.word	.L47
 601 0160 C6020000 		.word	.L65
 602 0164 C6020000 		.word	.L65
 603 0168 C6020000 		.word	.L65
 604 016c C6020000 		.word	.L65
 605 0170 C6020000 		.word	.L65
 606 0174 C6020000 		.word	.L65
 607 0178 C6020000 		.word	.L65
 608 017c C6020000 		.word	.L65
 609 0180 C6020000 		.word	.L65
 610 0184 C6020000 		.word	.L65
 611 0188 C6020000 		.word	.L65
 612 018c C6020000 		.word	.L65
 613 0190 C6020000 		.word	.L65
 614 0194 C6020000 		.word	.L65
 615 0198 C6020000 		.word	.L65
 616 019c C6020000 		.word	.L65
 617 01a0 C6020000 		.word	.L65
 618 01a4 C6020000 		.word	.L65
 619 01a8 C6020000 		.word	.L65
 620 01ac C6020000 		.word	.L65
 621 01b0 C6020000 		.word	.L65
 622 01b4 C6020000 		.word	.L65
 623 01b8 C6020000 		.word	.L65
 624 01bc C6020000 		.word	.L65
 625 01c0 C6020000 		.word	.L65
 626 01c4 C6020000 		.word	.L65
 627 01c8 C6020000 		.word	.L65
 628 01cc C6020000 		.word	.L65
 629 01d0 4A020000 		.word	.L49
 630              		.section	.text.CyBle_EventHandler
 631              	.L29:
 632              	.LBB3:
1586:Generated_Source\PSoC4/BLE_eventHandler.c ****     {
1587:Generated_Source\PSoC4/BLE_eventHandler.c ****         /**********************************************************
1588:Generated_Source\PSoC4/BLE_eventHandler.c ****         * General events
ARM GAS  C:\Users\Intern\AppData\Local\Temp\cc8xw9iJ.s 			page 40


1589:Generated_Source\PSoC4/BLE_eventHandler.c ****         ************************************************************/
1590:Generated_Source\PSoC4/BLE_eventHandler.c ****         case CYBLE_EVT_STACK_ON:
1591:Generated_Source\PSoC4/BLE_eventHandler.c ****         #if(CYBLE_MODE_PROFILE)
1592:Generated_Source\PSoC4/BLE_eventHandler.c ****         {
1593:Generated_Source\PSoC4/BLE_eventHandler.c ****             CYBLE_BLESS_PWR_IN_DB_T bleSsPowerLevel;
1594:Generated_Source\PSoC4/BLE_eventHandler.c ****             
1595:Generated_Source\PSoC4/BLE_eventHandler.c ****             /* Set Tx Power Level for advertising and connection channels */
1596:Generated_Source\PSoC4/BLE_eventHandler.c ****             bleSsPowerLevel.blePwrLevelInDbm = CYBLE_TX_POWER_LEVEL_ADV;
 633              		.loc 1 1596 0
 634 0032 1423     		movs	r3, #20
 635 0034 FB18     		adds	r3, r7, r3
 636 0036 0722     		movs	r2, #7
 637 0038 1A70     		strb	r2, [r3]
1597:Generated_Source\PSoC4/BLE_eventHandler.c ****             bleSsPowerLevel.bleSsChId = CYBLE_LL_ADV_CH_TYPE;
 638              		.loc 1 1597 0
 639 003a 1423     		movs	r3, #20
 640 003c FB18     		adds	r3, r7, r3
 641 003e 0022     		movs	r2, #0
 642 0040 5A70     		strb	r2, [r3, #1]
1598:Generated_Source\PSoC4/BLE_eventHandler.c ****             (void) CyBle_SetTxPowerLevel (&bleSsPowerLevel);
 643              		.loc 1 1598 0
 644 0042 1423     		movs	r3, #20
 645 0044 FB18     		adds	r3, r7, r3
 646 0046 1800     		movs	r0, r3
 647 0048 FFF7FEFF 		bl	CyBle_SetTxPowerLevel
1599:Generated_Source\PSoC4/BLE_eventHandler.c ****             bleSsPowerLevel.blePwrLevelInDbm = CYBLE_TX_POWER_LEVEL_CONN;
 648              		.loc 1 1599 0
 649 004c 1423     		movs	r3, #20
 650 004e FB18     		adds	r3, r7, r3
 651 0050 0722     		movs	r2, #7
 652 0052 1A70     		strb	r2, [r3]
1600:Generated_Source\PSoC4/BLE_eventHandler.c ****             bleSsPowerLevel.bleSsChId = CYBLE_LL_CONN_CH_TYPE;
 653              		.loc 1 1600 0
 654 0054 1423     		movs	r3, #20
 655 0056 FB18     		adds	r3, r7, r3
 656 0058 0122     		movs	r2, #1
 657 005a 5A70     		strb	r2, [r3, #1]
1601:Generated_Source\PSoC4/BLE_eventHandler.c ****             (void) CyBle_SetTxPowerLevel (&bleSsPowerLevel);
 658              		.loc 1 1601 0
 659 005c 1423     		movs	r3, #20
 660 005e FB18     		adds	r3, r7, r3
 661 0060 1800     		movs	r0, r3
 662 0062 FFF7FEFF 		bl	CyBle_SetTxPowerLevel
1602:Generated_Source\PSoC4/BLE_eventHandler.c ****             
1603:Generated_Source\PSoC4/BLE_eventHandler.c ****             #if (CYBLE_GATT_ROLE_SERVER)
1604:Generated_Source\PSoC4/BLE_eventHandler.c ****                 /* As per Privacy Errata a call to CyBle_EnableDefaultDevicePrivacy() is
1605:Generated_Source\PSoC4/BLE_eventHandler.c ****                   required to set a device to use device privacy instead of network privacy
1606:Generated_Source\PSoC4/BLE_eventHandler.c ****                   that is enabled by default starting from BLE Stack 3.3.
1607:Generated_Source\PSoC4/BLE_eventHandler.c ****                 */
1608:Generated_Source\PSoC4/BLE_eventHandler.c ****                 if(cyBle_gaps.rpaOnlyCharHandle != CYBLE_GATT_INVALID_ATTR_HANDLE_VALUE)
 663              		.loc 1 1608 0
 664 0066 0023     		movs	r3, #0
 665 0068 002B     		cmp	r3, #0
 666 006a 01D0     		beq	.L50
1609:Generated_Source\PSoC4/BLE_eventHandler.c ****                 {
1610:Generated_Source\PSoC4/BLE_eventHandler.c ****                     CyBle_EnableDefaultDevicePrivacy();
 667              		.loc 1 1610 0
ARM GAS  C:\Users\Intern\AppData\Local\Temp\cc8xw9iJ.s 			page 41


 668 006c FFF7FEFF 		bl	CyBle_EnableDefaultDevicePrivacy
 669              	.L50:
 670              	.LBE3:
1611:Generated_Source\PSoC4/BLE_eventHandler.c ****                 }
1612:Generated_Source\PSoC4/BLE_eventHandler.c ****             #endif /* (CYBLE_GATT_ROLE_SERVER) */
1613:Generated_Source\PSoC4/BLE_eventHandler.c ****             
1614:Generated_Source\PSoC4/BLE_eventHandler.c ****             #if (CYBLE_STRICT_PAIRING_ENABLED)
1615:Generated_Source\PSoC4/BLE_eventHandler.c ****                 (void) CyBle_GapSetSecurityRequirements(CYBLE_STRICT_PAIRING_REQ_VALUE, CYBLE_SECUR
1616:Generated_Source\PSoC4/BLE_eventHandler.c ****             #endif /* (CYBLE_STRICT_PAIRING_ENABLED) */
1617:Generated_Source\PSoC4/BLE_eventHandler.c ****             
1618:Generated_Source\PSoC4/BLE_eventHandler.c ****         }
1619:Generated_Source\PSoC4/BLE_eventHandler.c ****         #endif /* CYBLE_MODE_PROFILE */
1620:Generated_Source\PSoC4/BLE_eventHandler.c ****         #if (CYBLE_GATT_ROLE_SERVER || CYBLE_GATT_ROLE_CLIENT)
1621:Generated_Source\PSoC4/BLE_eventHandler.c ****             /* Set device Address  */
1622:Generated_Source\PSoC4/BLE_eventHandler.c ****             if(CyBle_IsDeviceAddressValid(cyBle_sflashDeviceAddress) != 0u)
 671              		.loc 1 1622 0
 672 0070 A74B     		ldr	r3, .L70+8
 673 0072 1B68     		ldr	r3, [r3]
 674 0074 1800     		movs	r0, r3
 675 0076 FFF7FEFF 		bl	CyBle_IsDeviceAddressValid
 676 007a 031E     		subs	r3, r0, #0
 677 007c 11D0     		beq	.L51
1623:Generated_Source\PSoC4/BLE_eventHandler.c ****             {
1624:Generated_Source\PSoC4/BLE_eventHandler.c ****                 (void) CyBle_SetDeviceAddress(cyBle_sflashDeviceAddress);
 678              		.loc 1 1624 0
 679 007e A44B     		ldr	r3, .L70+8
 680 0080 1B68     		ldr	r3, [r3]
 681 0082 1800     		movs	r0, r3
 682 0084 FFF7FEFF 		bl	CyBle_SetDeviceAddress
1625:Generated_Source\PSoC4/BLE_eventHandler.c ****                 #if(CYBLE_GAP_ROLE_PERIPHERAL || CYBLE_GAP_ROLE_BROADCASTER)
1626:Generated_Source\PSoC4/BLE_eventHandler.c ****                     CyBle_ChangeAdDeviceAddress(cyBle_sflashDeviceAddress, 0u);
 683              		.loc 1 1626 0
 684 0088 A14B     		ldr	r3, .L70+8
 685 008a 1B68     		ldr	r3, [r3]
 686 008c 0021     		movs	r1, #0
 687 008e 1800     		movs	r0, r3
 688 0090 FFF7FEFF 		bl	CyBle_ChangeAdDeviceAddress
1627:Generated_Source\PSoC4/BLE_eventHandler.c ****                     CyBle_ChangeAdDeviceAddress(cyBle_sflashDeviceAddress, 1u);
 689              		.loc 1 1627 0
 690 0094 9E4B     		ldr	r3, .L70+8
 691 0096 1B68     		ldr	r3, [r3]
 692 0098 0121     		movs	r1, #1
 693 009a 1800     		movs	r0, r3
 694 009c FFF7FEFF 		bl	CyBle_ChangeAdDeviceAddress
 695 00a0 0DE0     		b	.L52
 696              	.L51:
1628:Generated_Source\PSoC4/BLE_eventHandler.c ****                 #endif /* CYBLE_GAP_ROLE_PERIPHERAL || CYBLE_GAP_ROLE_BROADCASTER */    
1629:Generated_Source\PSoC4/BLE_eventHandler.c ****             }
1630:Generated_Source\PSoC4/BLE_eventHandler.c ****             else
1631:Generated_Source\PSoC4/BLE_eventHandler.c ****             {
1632:Generated_Source\PSoC4/BLE_eventHandler.c ****             #if (SILICON_GENERATED_DEVICE_ADDRESS != 0u)
1633:Generated_Source\PSoC4/BLE_eventHandler.c ****             {
1634:Generated_Source\PSoC4/BLE_eventHandler.c ****                 uint32 bdAddrLoc;
1635:Generated_Source\PSoC4/BLE_eventHandler.c ****                 bdAddrLoc = (CYBLE_SFLASH_DIE_X_REG & CYBLE_SFLASH_DIE_X_MASK) |
1636:Generated_Source\PSoC4/BLE_eventHandler.c ****                     ((uint32)(((uint32)CYBLE_SFLASH_DIE_Y_REG) & ((uint32)CYBLE_SFLASH_DIE_Y_MASK))
1637:Generated_Source\PSoC4/BLE_eventHandler.c ****                         CYBLE_SFLASH_DIE_X_BITS) |
1638:Generated_Source\PSoC4/BLE_eventHandler.c ****                     ((uint32)(((uint32)CYBLE_SFLASH_DIE_WAFER_REG) & ((uint32)CYBLE_SFLASH_DIE_WAFE
ARM GAS  C:\Users\Intern\AppData\Local\Temp\cc8xw9iJ.s 			page 42


1639:Generated_Source\PSoC4/BLE_eventHandler.c ****                         CYBLE_SFLASH_DIE_XY_BITS) |
1640:Generated_Source\PSoC4/BLE_eventHandler.c ****                     ((uint32)(((uint32)CYBLE_SFLASH_DIE_LOT_REG) & ((uint32)CYBLE_SFLASH_DIE_LOT_MA
1641:Generated_Source\PSoC4/BLE_eventHandler.c ****                         CYBLE_SFLASH_DIE_XYWAFER_BITS);
1642:Generated_Source\PSoC4/BLE_eventHandler.c ****                             
1643:Generated_Source\PSoC4/BLE_eventHandler.c ****                 cyBle_deviceAddress.bdAddr[0] = (uint8)bdAddrLoc;
1644:Generated_Source\PSoC4/BLE_eventHandler.c ****                 cyBle_deviceAddress.bdAddr[1] = (uint8)(bdAddrLoc >> 8u);
1645:Generated_Source\PSoC4/BLE_eventHandler.c ****                 cyBle_deviceAddress.bdAddr[2] = (uint8)(bdAddrLoc >> 16u);
1646:Generated_Source\PSoC4/BLE_eventHandler.c ****             }
1647:Generated_Source\PSoC4/BLE_eventHandler.c ****             #endif /* SILICON_GENERATED_DEVICE_ADDRESS != 0u */
1648:Generated_Source\PSoC4/BLE_eventHandler.c ****                 (void) CyBle_SetDeviceAddress(&cyBle_deviceAddress);
 697              		.loc 1 1648 0
 698 00a2 9C4B     		ldr	r3, .L70+12
 699 00a4 1800     		movs	r0, r3
 700 00a6 FFF7FEFF 		bl	CyBle_SetDeviceAddress
1649:Generated_Source\PSoC4/BLE_eventHandler.c ****                 #if(CYBLE_GAP_ROLE_PERIPHERAL || CYBLE_GAP_ROLE_BROADCASTER)
1650:Generated_Source\PSoC4/BLE_eventHandler.c ****                     CyBle_ChangeAdDeviceAddress(&cyBle_deviceAddress, 0u);
 701              		.loc 1 1650 0
 702 00aa 9A4B     		ldr	r3, .L70+12
 703 00ac 0021     		movs	r1, #0
 704 00ae 1800     		movs	r0, r3
 705 00b0 FFF7FEFF 		bl	CyBle_ChangeAdDeviceAddress
1651:Generated_Source\PSoC4/BLE_eventHandler.c ****                     CyBle_ChangeAdDeviceAddress(&cyBle_deviceAddress, 1u);
 706              		.loc 1 1651 0
 707 00b4 974B     		ldr	r3, .L70+12
 708 00b6 0121     		movs	r1, #1
 709 00b8 1800     		movs	r0, r3
 710 00ba FFF7FEFF 		bl	CyBle_ChangeAdDeviceAddress
 711              	.L52:
1652:Generated_Source\PSoC4/BLE_eventHandler.c ****                 #endif /* CYBLE_GAP_ROLE_PERIPHERAL || CYBLE_GAP_ROLE_BROADCASTER */    
1653:Generated_Source\PSoC4/BLE_eventHandler.c ****             }
1654:Generated_Source\PSoC4/BLE_eventHandler.c ****             /* Set device IO Capability  */
1655:Generated_Source\PSoC4/BLE_eventHandler.c ****             (void) CyBle_GapSetIoCap(CYBLE_IO_CAPABILITY);    
 712              		.loc 1 1655 0
 713 00be 0320     		movs	r0, #3
 714 00c0 FFF7FEFF 		bl	CyBle_GapSetIoCap
 715              	.LBB4:
1656:Generated_Source\PSoC4/BLE_eventHandler.c ****             {
1657:Generated_Source\PSoC4/BLE_eventHandler.c ****                 /* Enable all 4.1 events and configured 4.2 events */
1658:Generated_Source\PSoC4/BLE_eventHandler.c ****                 uint8 leMask[CYBLE_LE_MASK_LENGTH] = {LO8(CYBLE_LE_MASK), HI8(CYBLE_LE_MASK)};
 716              		.loc 1 1658 0
 717 00c4 1023     		movs	r3, #16
 718 00c6 FB18     		adds	r3, r7, r3
 719 00c8 3F22     		movs	r2, #63
 720 00ca 1A70     		strb	r2, [r3]
 721 00cc 1023     		movs	r3, #16
 722 00ce FB18     		adds	r3, r7, r3
 723 00d0 0022     		movs	r2, #0
 724 00d2 5A70     		strb	r2, [r3, #1]
1659:Generated_Source\PSoC4/BLE_eventHandler.c ****                 (void) CyBle_GapSetLeEventMask(leMask);
 725              		.loc 1 1659 0
 726 00d4 1023     		movs	r3, #16
 727 00d6 FB18     		adds	r3, r7, r3
 728 00d8 1800     		movs	r0, r3
 729 00da FFF7FEFF 		bl	CyBle_GapSetLeEventMask
 730              	.LBE4:
1660:Generated_Source\PSoC4/BLE_eventHandler.c ****             }
1661:Generated_Source\PSoC4/BLE_eventHandler.c ****         #if(CYBLE_DLE_FEATURE_ENABLED)
ARM GAS  C:\Users\Intern\AppData\Local\Temp\cc8xw9iJ.s 			page 43


1662:Generated_Source\PSoC4/BLE_eventHandler.c ****         {
1663:Generated_Source\PSoC4/BLE_eventHandler.c ****             /* Set maximum suggested TX payload size */
1664:Generated_Source\PSoC4/BLE_eventHandler.c ****             uint16 payloadTime = CYBLE_LL_MAX_TX_TIME;
1665:Generated_Source\PSoC4/BLE_eventHandler.c ****             (void) CyBle_GapConvertOctetToTime(CYBLE_GAP_PHY_1MBPS, CYBLE_LL_MAX_TX_PAYLOAD_SIZE, &
1666:Generated_Source\PSoC4/BLE_eventHandler.c ****             (void) CyBle_GapSetSuggestedDataLength(CYBLE_LL_MAX_TX_PAYLOAD_SIZE, payloadTime); 
1667:Generated_Source\PSoC4/BLE_eventHandler.c ****         }
1668:Generated_Source\PSoC4/BLE_eventHandler.c ****         #endif /* CYBLE_DLE_FEATURE != 0u */
1669:Generated_Source\PSoC4/BLE_eventHandler.c ****         
1670:Generated_Source\PSoC4/BLE_eventHandler.c ****         #endif /* CYBLE_GATT_ROLE_SERVER || CYBLE_GATT_ROLE_CLIENT */
1671:Generated_Source\PSoC4/BLE_eventHandler.c ****             CyBle_SetState(CYBLE_STATE_DISCONNECTED);
 731              		.loc 1 1671 0
 732 00de 8E4B     		ldr	r3, .L70+16
 733 00e0 0422     		movs	r2, #4
 734 00e2 1A70     		strb	r2, [r3]
1672:Generated_Source\PSoC4/BLE_eventHandler.c ****             break;
 735              		.loc 1 1672 0
 736 00e4 F6E0     		b	.L53
 737              	.L31:
1673:Generated_Source\PSoC4/BLE_eventHandler.c ****         case CYBLE_EVT_TIMEOUT:
1674:Generated_Source\PSoC4/BLE_eventHandler.c ****             CyBle_TimeOutEventHandler((CYBLE_TO_REASON_CODE_T *)eventParam);
 738              		.loc 1 1674 0
 739 00e6 3B68     		ldr	r3, [r7]
 740 00e8 1800     		movs	r0, r3
 741 00ea FFF7FEFF 		bl	CyBle_TimeOutEventHandler
1675:Generated_Source\PSoC4/BLE_eventHandler.c ****             break;
 742              		.loc 1 1675 0
 743 00ee F1E0     		b	.L53
 744              	.L32:
1676:Generated_Source\PSoC4/BLE_eventHandler.c ****     	case CYBLE_EVT_STACK_BUSY_STATUS:
1677:Generated_Source\PSoC4/BLE_eventHandler.c ****             cyBle_busyStatus = *(uint8 *)eventParam;
 745              		.loc 1 1677 0
 746 00f0 3B68     		ldr	r3, [r7]
 747 00f2 1A78     		ldrb	r2, [r3]
 748 00f4 894B     		ldr	r3, .L70+20
 749 00f6 1A70     		strb	r2, [r3]
1678:Generated_Source\PSoC4/BLE_eventHandler.c ****             break;
 750              		.loc 1 1678 0
 751 00f8 ECE0     		b	.L53
 752              	.L33:
 753              	.LBB5:
1679:Generated_Source\PSoC4/BLE_eventHandler.c ****     	case CYBLE_EVT_MEMORY_REQUEST:
1680:Generated_Source\PSoC4/BLE_eventHandler.c ****         #if(CYBLE_MODE_PROFILE)
1681:Generated_Source\PSoC4/BLE_eventHandler.c ****         {
1682:Generated_Source\PSoC4/BLE_eventHandler.c ****             CYBLE_MEMORY_REQUEST_T *memReq = (CYBLE_MEMORY_REQUEST_T *)eventParam;
 754              		.loc 1 1682 0
 755 00fa 3B68     		ldr	r3, [r7]
 756 00fc BB61     		str	r3, [r7, #24]
1683:Generated_Source\PSoC4/BLE_eventHandler.c ****             if(memReq->request == CYBLE_PREPARED_WRITE_REQUEST)
 757              		.loc 1 1683 0
 758 00fe BB69     		ldr	r3, [r7, #24]
 759 0100 1B78     		ldrb	r3, [r3]
 760 0102 002B     		cmp	r3, #0
 761 0104 00D0     		beq	.LCB523
 762 0106 E0E0     		b	.L66	@long jump
 763              	.LCB523:
1684:Generated_Source\PSoC4/BLE_eventHandler.c ****             {  
1685:Generated_Source\PSoC4/BLE_eventHandler.c ****             #if(CYBLE_GATT_ENABLE_EXTERNAL_PREP_WRITE_BUFF == 0u)
ARM GAS  C:\Users\Intern\AppData\Local\Temp\cc8xw9iJ.s 			page 44


1686:Generated_Source\PSoC4/BLE_eventHandler.c ****                 /* Stack requests to provide memory to process remote request */
1687:Generated_Source\PSoC4/BLE_eventHandler.c ****                 if(memReq->allocFree == CYBLE_ALLOC_MEMORY)
 764              		.loc 1 1687 0
 765 0108 BB69     		ldr	r3, [r7, #24]
 766 010a 5B78     		ldrb	r3, [r3, #1]
 767 010c 002B     		cmp	r3, #0
 768 010e 0BD1     		bne	.L55
 769              	.LBB6:
1688:Generated_Source\PSoC4/BLE_eventHandler.c ****                 {
1689:Generated_Source\PSoC4/BLE_eventHandler.c ****                     static CYBLE_PREPARE_WRITE_REQUEST_MEMORY_T gPrepWriteReqMem;
1690:Generated_Source\PSoC4/BLE_eventHandler.c ****                     
1691:Generated_Source\PSoC4/BLE_eventHandler.c ****                     /* Configure and return statically allocated buffer at the end of cyBle_stackMe
1692:Generated_Source\PSoC4/BLE_eventHandler.c ****                     gPrepWriteReqMem.prepareWriteQueueSize = CYBLE_GATT_MAX_PREPARE_BUFF_COUNT;
 770              		.loc 1 1692 0
 771 0110 834B     		ldr	r3, .L70+24
 772 0112 0222     		movs	r2, #2
 773 0114 DA80     		strh	r2, [r3, #6]
1693:Generated_Source\PSoC4/BLE_eventHandler.c ****                     gPrepWriteReqMem.totalAttrValueLength = CYBLE_GATT_PREPARE_LENGTH_ALIGN;
 774              		.loc 1 1693 0
 775 0116 824B     		ldr	r3, .L70+24
 776 0118 1822     		movs	r2, #24
 777 011a 9A80     		strh	r2, [r3, #4]
1694:Generated_Source\PSoC4/BLE_eventHandler.c ****                     gPrepWriteReqMem.queueBuffer = &cyBle_stackMemoryRam[CYBLE_STACK_RAM_SIZE - 
 778              		.loc 1 1694 0
 779 011c 804B     		ldr	r3, .L70+24
 780 011e 814A     		ldr	r2, .L70+28
 781 0120 1A60     		str	r2, [r3]
1695:Generated_Source\PSoC4/BLE_eventHandler.c ****                                                                          CYBLE_GATT_PREPARE_WRITE_B
1696:Generated_Source\PSoC4/BLE_eventHandler.c ****                     memReq->configMemory = &gPrepWriteReqMem;  
 782              		.loc 1 1696 0
 783 0122 BB69     		ldr	r3, [r7, #24]
 784 0124 7E4A     		ldr	r2, .L70+24
 785 0126 5A60     		str	r2, [r3, #4]
 786              	.L55:
 787              	.LBE6:
1697:Generated_Source\PSoC4/BLE_eventHandler.c ****                 }                
1698:Generated_Source\PSoC4/BLE_eventHandler.c ****                 /* Clear CYBLE_CALLBACK flag not to provide handled event to application */
1699:Generated_Source\PSoC4/BLE_eventHandler.c ****                 cyBle_eventHandlerFlag &= (uint8)~CYBLE_CALLBACK;
 788              		.loc 1 1699 0
 789 0128 774B     		ldr	r3, .L70
 790 012a 1B78     		ldrb	r3, [r3]
 791 012c DBB2     		uxtb	r3, r3
 792 012e 0122     		movs	r2, #1
 793 0130 9343     		bics	r3, r2
 794 0132 DAB2     		uxtb	r2, r3
 795 0134 744B     		ldr	r3, .L70
 796 0136 1A70     		strb	r2, [r3]
 797              	.LBE5:
1700:Generated_Source\PSoC4/BLE_eventHandler.c ****             #endif  /* CYBLE_GATT_ENABLE_EXTERNAL_PREP_WRITE_BUFF == 0u */
1701:Generated_Source\PSoC4/BLE_eventHandler.c ****             }
1702:Generated_Source\PSoC4/BLE_eventHandler.c ****         }
1703:Generated_Source\PSoC4/BLE_eventHandler.c ****         #endif /* CYBLE_MODE_PROFILE */
1704:Generated_Source\PSoC4/BLE_eventHandler.c ****             break;
 798              		.loc 1 1704 0
 799 0138 C7E0     		b	.L66
 800              	.L34:
1705:Generated_Source\PSoC4/BLE_eventHandler.c ****         /**********************************************************
ARM GAS  C:\Users\Intern\AppData\Local\Temp\cc8xw9iJ.s 			page 45


1706:Generated_Source\PSoC4/BLE_eventHandler.c ****         * GAP events
1707:Generated_Source\PSoC4/BLE_eventHandler.c ****         ************************************************************/
1708:Generated_Source\PSoC4/BLE_eventHandler.c ****         case CYBLE_EVT_GAP_AUTH_REQ:
1709:Generated_Source\PSoC4/BLE_eventHandler.c ****         #if(CYBLE_MODE_PROFILE)
1710:Generated_Source\PSoC4/BLE_eventHandler.c ****             if((cyBle_eventHandlerFlag & CYBLE_DISABLE_AUTOMATIC_AUTH) == 0u)
 801              		.loc 1 1710 0
 802 013a 734B     		ldr	r3, .L70
 803 013c 1B78     		ldrb	r3, [r3]
 804 013e DBB2     		uxtb	r3, r3
 805 0140 1A00     		movs	r2, r3
 806 0142 2023     		movs	r3, #32
 807 0144 1340     		ands	r3, r2
 808 0146 00D0     		beq	.LCB564
 809 0148 C1E0     		b	.L67	@long jump
 810              	.LCB564:
1711:Generated_Source\PSoC4/BLE_eventHandler.c ****             {
1712:Generated_Source\PSoC4/BLE_eventHandler.c ****                 /* If the responding device does not support pairing then the responding 
1713:Generated_Source\PSoC4/BLE_eventHandler.c ****                    device shall respond using the Pairing Failed message with the error 
1714:Generated_Source\PSoC4/BLE_eventHandler.c ****                    code "Pairing Not Supported" otherwise it responds with a Pairing 
1715:Generated_Source\PSoC4/BLE_eventHandler.c ****                    Response message.
1716:Generated_Source\PSoC4/BLE_eventHandler.c ****                 */
1717:Generated_Source\PSoC4/BLE_eventHandler.c ****                 if(cyBle_authInfo.security == (CYBLE_GAP_SEC_MODE_1 | CYBLE_GAP_SEC_LEVEL_1))
 811              		.loc 1 1717 0
 812 014a 774B     		ldr	r3, .L70+32
 813 014c 1B78     		ldrb	r3, [r3]
 814 014e 102B     		cmp	r3, #16
 815 0150 02D1     		bne	.L57
1718:Generated_Source\PSoC4/BLE_eventHandler.c ****                 {
1719:Generated_Source\PSoC4/BLE_eventHandler.c ****                     cyBle_authInfo.authErr = CYBLE_GAP_AUTH_ERROR_PAIRING_NOT_SUPPORTED;
 816              		.loc 1 1719 0
 817 0152 754B     		ldr	r3, .L70+32
 818 0154 0522     		movs	r2, #5
 819 0156 DA70     		strb	r2, [r3, #3]
 820              	.L57:
 821              	.LBB7:
1720:Generated_Source\PSoC4/BLE_eventHandler.c ****                 }    
1721:Generated_Source\PSoC4/BLE_eventHandler.c ****             #if(CYBLE_GAP_ROLE_PERIPHERAL)
1722:Generated_Source\PSoC4/BLE_eventHandler.c ****                 {
1723:Generated_Source\PSoC4/BLE_eventHandler.c ****                     CYBLE_API_RESULT_T apiResult;
1724:Generated_Source\PSoC4/BLE_eventHandler.c ****                     
1725:Generated_Source\PSoC4/BLE_eventHandler.c ****                     apiResult = CyBle_GappAuthReqReply(cyBle_connHandle.bdHandle, &cyBle_authInfo);
 822              		.loc 1 1725 0
 823 0158 744B     		ldr	r3, .L70+36
 824 015a 1B78     		ldrb	r3, [r3]
 825 015c 724A     		ldr	r2, .L70+32
 826 015e 1100     		movs	r1, r2
 827 0160 1800     		movs	r0, r3
 828 0162 FFF7FEFF 		bl	CyBle_GappAuthReqReply
 829 0166 0300     		movs	r3, r0
 830 0168 1A00     		movs	r2, r3
 831 016a 0E23     		movs	r3, #14
 832 016c FB18     		adds	r3, r7, r3
 833 016e 1A80     		strh	r2, [r3]
1726:Generated_Source\PSoC4/BLE_eventHandler.c ****                     /* Setting callback flag again as CyBle_GappAuthReqReply() will generate
1727:Generated_Source\PSoC4/BLE_eventHandler.c ****                     * CYBLE_EVT_GAP_SMP_NEGOTIATED_AUTH_INFO event which will clear the callback
1728:Generated_Source\PSoC4/BLE_eventHandler.c ****                     * flag.
1729:Generated_Source\PSoC4/BLE_eventHandler.c ****                     */
ARM GAS  C:\Users\Intern\AppData\Local\Temp\cc8xw9iJ.s 			page 46


1730:Generated_Source\PSoC4/BLE_eventHandler.c ****                     if (apiResult != CYBLE_ERROR_OK)
 834              		.loc 1 1730 0
 835 0170 0E23     		movs	r3, #14
 836 0172 FB18     		adds	r3, r7, r3
 837 0174 1B88     		ldrh	r3, [r3]
 838 0176 002B     		cmp	r3, #0
 839 0178 06D0     		beq	.L58
1731:Generated_Source\PSoC4/BLE_eventHandler.c ****                     {   
1732:Generated_Source\PSoC4/BLE_eventHandler.c ****                         CyBle_ApplCallback(CYBLE_EVT_GAP_AUTH_REQ_REPLY_ERR , &apiResult);
 840              		.loc 1 1732 0
 841 017a 6D4B     		ldr	r3, .L70+40
 842 017c 1B68     		ldr	r3, [r3]
 843 017e 0E22     		movs	r2, #14
 844 0180 BA18     		adds	r2, r7, r2
 845 0182 1100     		movs	r1, r2
 846 0184 3620     		movs	r0, #54
 847 0186 9847     		blx	r3
 848              	.L58:
1733:Generated_Source\PSoC4/BLE_eventHandler.c ****                     }
1734:Generated_Source\PSoC4/BLE_eventHandler.c ****                     cyBle_eventHandlerFlag |= CYBLE_CALLBACK;
 849              		.loc 1 1734 0
 850 0188 5F4B     		ldr	r3, .L70
 851 018a 1B78     		ldrb	r3, [r3]
 852 018c DBB2     		uxtb	r3, r3
 853 018e 0122     		movs	r2, #1
 854 0190 1343     		orrs	r3, r2
 855 0192 DAB2     		uxtb	r2, r3
 856 0194 5C4B     		ldr	r3, .L70
 857 0196 1A70     		strb	r2, [r3]
 858              	.LBE7:
1735:Generated_Source\PSoC4/BLE_eventHandler.c ****                 }
1736:Generated_Source\PSoC4/BLE_eventHandler.c ****             #endif /* CYBLE_GAP_ROLE_PERIPHERAL */
1737:Generated_Source\PSoC4/BLE_eventHandler.c ****             #if (CYBLE_GAP_ROLE_CENTRAL)
1738:Generated_Source\PSoC4/BLE_eventHandler.c ****                 (void)CyBle_GapAuthReq(cyBle_connHandle.bdHandle, &cyBle_authInfo);
1739:Generated_Source\PSoC4/BLE_eventHandler.c ****             #endif /* CYBLE_GAP_ROLE_CENTRAL */
1740:Generated_Source\PSoC4/BLE_eventHandler.c ****             }
1741:Generated_Source\PSoC4/BLE_eventHandler.c ****         #endif /* CYBLE_MODE_PROFILE */
1742:Generated_Source\PSoC4/BLE_eventHandler.c ****             break;
 859              		.loc 1 1742 0
 860 0198 99E0     		b	.L67
 861              	.L39:
1743:Generated_Source\PSoC4/BLE_eventHandler.c ****         
1744:Generated_Source\PSoC4/BLE_eventHandler.c ****         case CYBLE_EVT_GAP_AUTH_COMPLETE:
1745:Generated_Source\PSoC4/BLE_eventHandler.c ****         #if((CYBLE_GAP_ROLE_PERIPHERAL || CYBLE_GAP_ROLE_CENTRAL) && (CYBLE_BONDING_REQUIREMENT == 
1746:Generated_Source\PSoC4/BLE_eventHandler.c ****             cyBle_peerBonding = ((CYBLE_GAP_AUTH_INFO_T *)eventParam)->bonding;
1747:Generated_Source\PSoC4/BLE_eventHandler.c ****         #endif  /* CYBLE_BONDING_REQUIREMENT == CYBLE_BONDING_YES */
1748:Generated_Source\PSoC4/BLE_eventHandler.c ****             break;
1749:Generated_Source\PSoC4/BLE_eventHandler.c ****         
1750:Generated_Source\PSoC4/BLE_eventHandler.c ****         case CYBLE_EVT_GAP_CONNECTION_UPDATE_COMPLETE:
1751:Generated_Source\PSoC4/BLE_eventHandler.c ****             CyBle_GapConnUpdateCompleteEventHandler((const CYBLE_GAP_CONN_PARAM_UPDATED_IN_CONTROLL
 862              		.loc 1 1751 0
 863 019a 3B68     		ldr	r3, [r7]
 864 019c 1800     		movs	r0, r3
 865 019e FFF7FEFF 		bl	CyBle_GapConnUpdateCompleteEventHandler
1752:Generated_Source\PSoC4/BLE_eventHandler.c ****             break;
 866              		.loc 1 1752 0
 867 01a2 97E0     		b	.L53
ARM GAS  C:\Users\Intern\AppData\Local\Temp\cc8xw9iJ.s 			page 47


 868              	.L37:
1753:Generated_Source\PSoC4/BLE_eventHandler.c ****             
1754:Generated_Source\PSoC4/BLE_eventHandler.c ****     #if(CYBLE_LL_PRIVACY_FEATURE != 0u)        
1755:Generated_Source\PSoC4/BLE_eventHandler.c ****         case CYBLE_EVT_GAP_ENHANCE_CONN_COMPLETE:
1756:Generated_Source\PSoC4/BLE_eventHandler.c ****         {
1757:Generated_Source\PSoC4/BLE_eventHandler.c ****             CYBLE_GAP_CONN_PARAM_UPDATED_IN_CONTROLLER_T  connCParam;
1758:Generated_Source\PSoC4/BLE_eventHandler.c ****             CYBLE_GAP_ENHANCE_CONN_COMPLETE_T *connEnhanceParam;
1759:Generated_Source\PSoC4/BLE_eventHandler.c ****             
1760:Generated_Source\PSoC4/BLE_eventHandler.c ****             connEnhanceParam = (CYBLE_GAP_ENHANCE_CONN_COMPLETE_T *)eventParam;
1761:Generated_Source\PSoC4/BLE_eventHandler.c ****             connCParam.status = connEnhanceParam->status;
1762:Generated_Source\PSoC4/BLE_eventHandler.c ****             connCParam.connIntv = connEnhanceParam->connIntv;
1763:Generated_Source\PSoC4/BLE_eventHandler.c ****             connCParam.connLatency = connEnhanceParam->connLatency;
1764:Generated_Source\PSoC4/BLE_eventHandler.c ****             connCParam.supervisionTO = connEnhanceParam->supervisionTo;
1765:Generated_Source\PSoC4/BLE_eventHandler.c ****             CyBle_GapConnUpdateCompleteEventHandler((const CYBLE_GAP_CONN_PARAM_UPDATED_IN_CONTROLL
1766:Generated_Source\PSoC4/BLE_eventHandler.c ****             
1767:Generated_Source\PSoC4/BLE_eventHandler.c ****             #if(CYBLE_GAP_ROLE_CENTRAL)
1768:Generated_Source\PSoC4/BLE_eventHandler.c ****                 if(cyBle_connectingTimeout != 0u)
1769:Generated_Source\PSoC4/BLE_eventHandler.c ****                 {
1770:Generated_Source\PSoC4/BLE_eventHandler.c ****                    (void)CyBle_StopTimer();
1771:Generated_Source\PSoC4/BLE_eventHandler.c ****                 }
1772:Generated_Source\PSoC4/BLE_eventHandler.c ****             #endif /* CYBLE_GAP_ROLE_CENTRAL */
1773:Generated_Source\PSoC4/BLE_eventHandler.c ****             CyBle_SetState(CYBLE_STATE_CONNECTED);
1774:Generated_Source\PSoC4/BLE_eventHandler.c ****         }
1775:Generated_Source\PSoC4/BLE_eventHandler.c ****             break;
1776:Generated_Source\PSoC4/BLE_eventHandler.c ****     #endif /* CYBLE_LL_PRIVACY_FEATURE != 0u */      
1777:Generated_Source\PSoC4/BLE_eventHandler.c ****             
1778:Generated_Source\PSoC4/BLE_eventHandler.c ****         case CYBLE_EVT_GAP_DEVICE_CONNECTED:
1779:Generated_Source\PSoC4/BLE_eventHandler.c ****             CyBle_GapConnUpdateCompleteEventHandler((const CYBLE_GAP_CONN_PARAM_UPDATED_IN_CONTROLL
 869              		.loc 1 1779 0
 870 01a4 3B68     		ldr	r3, [r7]
 871 01a6 1800     		movs	r0, r3
 872 01a8 FFF7FEFF 		bl	CyBle_GapConnUpdateCompleteEventHandler
1780:Generated_Source\PSoC4/BLE_eventHandler.c ****             #if(CYBLE_GAP_ROLE_CENTRAL)
1781:Generated_Source\PSoC4/BLE_eventHandler.c ****                 if(cyBle_connectingTimeout != 0u)
1782:Generated_Source\PSoC4/BLE_eventHandler.c ****                 {
1783:Generated_Source\PSoC4/BLE_eventHandler.c ****                    (void)CyBle_StopTimer();
1784:Generated_Source\PSoC4/BLE_eventHandler.c ****                 }
1785:Generated_Source\PSoC4/BLE_eventHandler.c ****             #endif /* CYBLE_GAP_ROLE_CENTRAL */
1786:Generated_Source\PSoC4/BLE_eventHandler.c ****             CyBle_SetState(CYBLE_STATE_CONNECTED);
 873              		.loc 1 1786 0
 874 01ac 5A4B     		ldr	r3, .L70+16
 875 01ae 0222     		movs	r2, #2
 876 01b0 1A70     		strb	r2, [r3]
1787:Generated_Source\PSoC4/BLE_eventHandler.c ****             break;
 877              		.loc 1 1787 0
 878 01b2 8FE0     		b	.L53
 879              	.L38:
1788:Generated_Source\PSoC4/BLE_eventHandler.c **** 
1789:Generated_Source\PSoC4/BLE_eventHandler.c ****         case CYBLE_EVT_GAP_DEVICE_DISCONNECTED:
1790:Generated_Source\PSoC4/BLE_eventHandler.c ****             CyBle_SetState(CYBLE_STATE_DISCONNECTED);
 880              		.loc 1 1790 0
 881 01b4 584B     		ldr	r3, .L70+16
 882 01b6 0422     		movs	r2, #4
 883 01b8 1A70     		strb	r2, [r3]
1791:Generated_Source\PSoC4/BLE_eventHandler.c ****             break;
 884              		.loc 1 1791 0
 885 01ba 8BE0     		b	.L53
ARM GAS  C:\Users\Intern\AppData\Local\Temp\cc8xw9iJ.s 			page 48


 886              	.L36:
1792:Generated_Source\PSoC4/BLE_eventHandler.c ****         #if(CYBLE_GAP_ROLE_PERIPHERAL || CYBLE_GAP_ROLE_BROADCASTER)
1793:Generated_Source\PSoC4/BLE_eventHandler.c ****             
1794:Generated_Source\PSoC4/BLE_eventHandler.c ****         case CYBLE_EVT_GAPP_ADVERTISEMENT_START_STOP:
1795:Generated_Source\PSoC4/BLE_eventHandler.c ****             #ifdef CYBLE_CPS_SERVER
1796:Generated_Source\PSoC4/BLE_eventHandler.c ****                 #if(CYBLE_GAP_ROLE_BROADCASTER)
1797:Generated_Source\PSoC4/BLE_eventHandler.c ****                     CyBle_CpssAdvertisementStartStopEventHandler();
1798:Generated_Source\PSoC4/BLE_eventHandler.c ****                 #endif /* CYBLE_GAP_ROLE_BROADCASTER */
1799:Generated_Source\PSoC4/BLE_eventHandler.c ****             #endif /* CYBLE_CPS_SERVER */
1800:Generated_Source\PSoC4/BLE_eventHandler.c ****             
1801:Generated_Source\PSoC4/BLE_eventHandler.c ****             if((CYBLE_STATE_CONNECTED != CyBle_GetState()) && ((cyBle_eventHandlerFlag & CYBLE_CALL
 887              		.loc 1 1801 0
 888 01bc 564B     		ldr	r3, .L70+16
 889 01be 1B78     		ldrb	r3, [r3]
 890 01c0 022B     		cmp	r3, #2
 891 01c2 00D1     		bne	.LCB640
 892 01c4 85E0     		b	.L68	@long jump
 893              	.LCB640:
 894              		.loc 1 1801 0 is_stmt 0 discriminator 1
 895 01c6 504B     		ldr	r3, .L70
 896 01c8 1B78     		ldrb	r3, [r3]
 897 01ca DBB2     		uxtb	r3, r3
 898 01cc 1A00     		movs	r2, r3
 899 01ce 0123     		movs	r3, #1
 900 01d0 1340     		ands	r3, r2
 901 01d2 00D1     		bne	.LCB648
 902 01d4 7DE0     		b	.L68	@long jump
 903              	.LCB648:
1802:Generated_Source\PSoC4/BLE_eventHandler.c ****             {
1803:Generated_Source\PSoC4/BLE_eventHandler.c ****                 /* After CyBle_GappStartAdvertisement first event indicates that advertising has be
1804:Generated_Source\PSoC4/BLE_eventHandler.c ****                 if(0u != (cyBle_eventHandlerFlag & CYBLE_START_FLAG))
 904              		.loc 1 1804 0 is_stmt 1
 905 01d6 4C4B     		ldr	r3, .L70
 906 01d8 1B78     		ldrb	r3, [r3]
 907 01da DBB2     		uxtb	r3, r3
 908 01dc 1A00     		movs	r2, r3
 909 01de 0423     		movs	r3, #4
 910 01e0 1340     		ands	r3, r2
 911 01e2 0BD0     		beq	.L60
1805:Generated_Source\PSoC4/BLE_eventHandler.c ****                 {
1806:Generated_Source\PSoC4/BLE_eventHandler.c ****                     CyBle_SetState(CYBLE_STATE_ADVERTISING);
 912              		.loc 1 1806 0
 913 01e4 4C4B     		ldr	r3, .L70+16
 914 01e6 0322     		movs	r2, #3
 915 01e8 1A70     		strb	r2, [r3]
1807:Generated_Source\PSoC4/BLE_eventHandler.c ****                     cyBle_eventHandlerFlag &= (uint8)~CYBLE_START_FLAG;
 916              		.loc 1 1807 0
 917 01ea 474B     		ldr	r3, .L70
 918 01ec 1B78     		ldrb	r3, [r3]
 919 01ee DBB2     		uxtb	r3, r3
 920 01f0 0422     		movs	r2, #4
 921 01f2 9343     		bics	r3, r2
 922 01f4 DAB2     		uxtb	r2, r3
 923 01f6 444B     		ldr	r3, .L70
 924 01f8 1A70     		strb	r2, [r3]
1808:Generated_Source\PSoC4/BLE_eventHandler.c ****                 }
1809:Generated_Source\PSoC4/BLE_eventHandler.c ****                 /* When application initiated stop advertisement */
ARM GAS  C:\Users\Intern\AppData\Local\Temp\cc8xw9iJ.s 			page 49


1810:Generated_Source\PSoC4/BLE_eventHandler.c ****                 else if(0u != (cyBle_eventHandlerFlag & CYBLE_STOP_FLAG))
1811:Generated_Source\PSoC4/BLE_eventHandler.c ****                 {
1812:Generated_Source\PSoC4/BLE_eventHandler.c ****                     CyBle_SetState(CYBLE_STATE_DISCONNECTED);  
1813:Generated_Source\PSoC4/BLE_eventHandler.c ****                     cyBle_eventHandlerFlag &= (uint8)~CYBLE_STOP_FLAG;
1814:Generated_Source\PSoC4/BLE_eventHandler.c ****                 }
1815:Generated_Source\PSoC4/BLE_eventHandler.c ****                 else /* Following event indicates that advertising has been stopped */
1816:Generated_Source\PSoC4/BLE_eventHandler.c ****                 {
1817:Generated_Source\PSoC4/BLE_eventHandler.c ****                     if(CyBle_GetState() == CYBLE_STATE_ADVERTISING)
1818:Generated_Source\PSoC4/BLE_eventHandler.c ****                     {
1819:Generated_Source\PSoC4/BLE_eventHandler.c ****                         CyBle_SetState(CYBLE_STATE_DISCONNECTED);
1820:Generated_Source\PSoC4/BLE_eventHandler.c ****                     #if ((CYBLE_SLOW_ADV_ENABLED != 0u) && (CYBLE_FAST_ADV_TIMEOUT != 0u))
1821:Generated_Source\PSoC4/BLE_eventHandler.c ****                         if(cyBle_advertisingIntervalType == CYBLE_ADVERTISING_FAST)
1822:Generated_Source\PSoC4/BLE_eventHandler.c ****                         {
1823:Generated_Source\PSoC4/BLE_eventHandler.c ****                             /* When fast advertising time out occur: Start slow advertising */
1824:Generated_Source\PSoC4/BLE_eventHandler.c ****                             if(CyBle_GappStartAdvertisement(CYBLE_ADVERTISING_SLOW) == CYBLE_ERROR_
1825:Generated_Source\PSoC4/BLE_eventHandler.c ****                             {
1826:Generated_Source\PSoC4/BLE_eventHandler.c ****                                 CyBle_SetState(CYBLE_STATE_ADVERTISING);
1827:Generated_Source\PSoC4/BLE_eventHandler.c ****                             }
1828:Generated_Source\PSoC4/BLE_eventHandler.c ****                         }
1829:Generated_Source\PSoC4/BLE_eventHandler.c ****                     #endif /* CYBLE_SLOW_ADV_ENABLED */
1830:Generated_Source\PSoC4/BLE_eventHandler.c ****                     }
1831:Generated_Source\PSoC4/BLE_eventHandler.c ****                 }
1832:Generated_Source\PSoC4/BLE_eventHandler.c ****             }
1833:Generated_Source\PSoC4/BLE_eventHandler.c ****             break;
 925              		.loc 1 1833 0
 926 01fa 6AE0     		b	.L68
 927              	.L60:
1810:Generated_Source\PSoC4/BLE_eventHandler.c ****                 {
 928              		.loc 1 1810 0
 929 01fc 424B     		ldr	r3, .L70
 930 01fe 1B78     		ldrb	r3, [r3]
 931 0200 DBB2     		uxtb	r3, r3
 932 0202 1A00     		movs	r2, r3
 933 0204 0823     		movs	r3, #8
 934 0206 1340     		ands	r3, r2
 935 0208 0BD0     		beq	.L61
1812:Generated_Source\PSoC4/BLE_eventHandler.c ****                     cyBle_eventHandlerFlag &= (uint8)~CYBLE_STOP_FLAG;
 936              		.loc 1 1812 0
 937 020a 434B     		ldr	r3, .L70+16
 938 020c 0422     		movs	r2, #4
 939 020e 1A70     		strb	r2, [r3]
1813:Generated_Source\PSoC4/BLE_eventHandler.c ****                 }
 940              		.loc 1 1813 0
 941 0210 3D4B     		ldr	r3, .L70
 942 0212 1B78     		ldrb	r3, [r3]
 943 0214 DBB2     		uxtb	r3, r3
 944 0216 0822     		movs	r2, #8
 945 0218 9343     		bics	r3, r2
 946 021a DAB2     		uxtb	r2, r3
 947 021c 3A4B     		ldr	r3, .L70
 948 021e 1A70     		strb	r2, [r3]
 949              		.loc 1 1833 0
 950 0220 57E0     		b	.L68
 951              	.L61:
1817:Generated_Source\PSoC4/BLE_eventHandler.c ****                     {
 952              		.loc 1 1817 0
 953 0222 3D4B     		ldr	r3, .L70+16
ARM GAS  C:\Users\Intern\AppData\Local\Temp\cc8xw9iJ.s 			page 50


 954 0224 1B78     		ldrb	r3, [r3]
 955 0226 032B     		cmp	r3, #3
 956 0228 53D1     		bne	.L68
1819:Generated_Source\PSoC4/BLE_eventHandler.c ****                     #if ((CYBLE_SLOW_ADV_ENABLED != 0u) && (CYBLE_FAST_ADV_TIMEOUT != 0u))
 957              		.loc 1 1819 0
 958 022a 3B4B     		ldr	r3, .L70+16
 959 022c 0422     		movs	r2, #4
 960 022e 1A70     		strb	r2, [r3]
1821:Generated_Source\PSoC4/BLE_eventHandler.c ****                         {
 961              		.loc 1 1821 0
 962 0230 404B     		ldr	r3, .L70+44
 963 0232 1B78     		ldrb	r3, [r3]
 964 0234 002B     		cmp	r3, #0
 965 0236 4CD1     		bne	.L68
1824:Generated_Source\PSoC4/BLE_eventHandler.c ****                             {
 966              		.loc 1 1824 0
 967 0238 0120     		movs	r0, #1
 968 023a FFF7FEFF 		bl	CyBle_GappStartAdvertisement
 969 023e 031E     		subs	r3, r0, #0
 970 0240 47D1     		bne	.L68
1826:Generated_Source\PSoC4/BLE_eventHandler.c ****                             }
 971              		.loc 1 1826 0
 972 0242 354B     		ldr	r3, .L70+16
 973 0244 0322     		movs	r2, #3
 974 0246 1A70     		strb	r2, [r3]
 975              		.loc 1 1833 0
 976 0248 43E0     		b	.L68
 977              	.L49:
1834:Generated_Source\PSoC4/BLE_eventHandler.c ****         #endif /* CYBLE_GAP_ROLE_PERIPHERAL || CYBLE_GAP_ROLE_BROADCASTER */
1835:Generated_Source\PSoC4/BLE_eventHandler.c ****         
1836:Generated_Source\PSoC4/BLE_eventHandler.c ****         #if(CYBLE_GAP_ROLE_CENTRAL || CYBLE_GAP_ROLE_OBSERVER)    
1837:Generated_Source\PSoC4/BLE_eventHandler.c ****         case CYBLE_EVT_GAPC_SCAN_START_STOP:
1838:Generated_Source\PSoC4/BLE_eventHandler.c ****             #ifdef CYBLE_CPS_CLIENT
1839:Generated_Source\PSoC4/BLE_eventHandler.c ****                 CyBle_CpscScanStartStopEventHandler();
1840:Generated_Source\PSoC4/BLE_eventHandler.c ****             #endif /* CYBLE_CPS_CLIENT */
1841:Generated_Source\PSoC4/BLE_eventHandler.c ****             
1842:Generated_Source\PSoC4/BLE_eventHandler.c ****             if((CYBLE_STATE_CONNECTED != CyBle_GetState()) && ((cyBle_eventHandlerFlag & CYBLE_CALL
1843:Generated_Source\PSoC4/BLE_eventHandler.c ****             {
1844:Generated_Source\PSoC4/BLE_eventHandler.c ****                 /* After CyBle_GapcStartScan first event indicates that scanning has been started *
1845:Generated_Source\PSoC4/BLE_eventHandler.c ****                 if(0u != (cyBle_eventHandlerFlag & CYBLE_START_FLAG))
1846:Generated_Source\PSoC4/BLE_eventHandler.c ****                 {
1847:Generated_Source\PSoC4/BLE_eventHandler.c ****                     CyBle_SetState(CYBLE_STATE_SCANNING);
1848:Generated_Source\PSoC4/BLE_eventHandler.c ****                     cyBle_eventHandlerFlag &= (uint8)~CYBLE_START_FLAG;
1849:Generated_Source\PSoC4/BLE_eventHandler.c ****                 }
1850:Generated_Source\PSoC4/BLE_eventHandler.c ****                 /* When application initiated stop scanning */
1851:Generated_Source\PSoC4/BLE_eventHandler.c ****                 else if(0u != (cyBle_eventHandlerFlag & CYBLE_STOP_FLAG))
1852:Generated_Source\PSoC4/BLE_eventHandler.c ****                 {
1853:Generated_Source\PSoC4/BLE_eventHandler.c ****                     CyBle_SetState(CYBLE_STATE_DISCONNECTED);  
1854:Generated_Source\PSoC4/BLE_eventHandler.c ****                     cyBle_eventHandlerFlag &= (uint8)~CYBLE_STOP_FLAG;
1855:Generated_Source\PSoC4/BLE_eventHandler.c ****                 }
1856:Generated_Source\PSoC4/BLE_eventHandler.c ****                 else /* Following event indicates that scanning has been stopped by stack */
1857:Generated_Source\PSoC4/BLE_eventHandler.c ****                 {
1858:Generated_Source\PSoC4/BLE_eventHandler.c ****                     if(CyBle_GetState() == CYBLE_STATE_SCANNING)
1859:Generated_Source\PSoC4/BLE_eventHandler.c ****                     {
1860:Generated_Source\PSoC4/BLE_eventHandler.c ****                         CyBle_SetState(CYBLE_STATE_DISCONNECTED);  
1861:Generated_Source\PSoC4/BLE_eventHandler.c ****                     #if ((CYBLE_SLOW_SCAN_ENABLED != 0u) && (CYBLE_FAST_SCAN_TIMEOUT != 0u))
1862:Generated_Source\PSoC4/BLE_eventHandler.c ****                         if(cyBle_scanningIntervalType == CYBLE_SCANNING_FAST)
ARM GAS  C:\Users\Intern\AppData\Local\Temp\cc8xw9iJ.s 			page 51


1863:Generated_Source\PSoC4/BLE_eventHandler.c ****                         {
1864:Generated_Source\PSoC4/BLE_eventHandler.c ****                             /* When fast scanning time out occur: Start slow scanning */
1865:Generated_Source\PSoC4/BLE_eventHandler.c ****                             if(CyBle_GapcStartScan(CYBLE_SCANNING_SLOW) == CYBLE_ERROR_OK)
1866:Generated_Source\PSoC4/BLE_eventHandler.c ****                             {
1867:Generated_Source\PSoC4/BLE_eventHandler.c ****                                 CyBle_SetState(CYBLE_STATE_SCANNING);
1868:Generated_Source\PSoC4/BLE_eventHandler.c ****                             }
1869:Generated_Source\PSoC4/BLE_eventHandler.c ****                         }
1870:Generated_Source\PSoC4/BLE_eventHandler.c ****                     #endif /* CYBLE_SLOW_SCAN_ENABLED */
1871:Generated_Source\PSoC4/BLE_eventHandler.c ****                     }
1872:Generated_Source\PSoC4/BLE_eventHandler.c ****                 }
1873:Generated_Source\PSoC4/BLE_eventHandler.c ****             }
1874:Generated_Source\PSoC4/BLE_eventHandler.c ****             break;
1875:Generated_Source\PSoC4/BLE_eventHandler.c ****         #endif /* CYBLE_GAP_ROLE_CENTRAL || CYBLE_GAP_ROLE_OBSERVER */
1876:Generated_Source\PSoC4/BLE_eventHandler.c **** 
1877:Generated_Source\PSoC4/BLE_eventHandler.c ****         /**********************************************************
1878:Generated_Source\PSoC4/BLE_eventHandler.c ****         * L2AP events 
1879:Generated_Source\PSoC4/BLE_eventHandler.c ****         ************************************************************/
1880:Generated_Source\PSoC4/BLE_eventHandler.c ****         case CYBLE_EVT_L2CAP_CONN_PARAM_UPDATE_RSP:
1881:Generated_Source\PSoC4/BLE_eventHandler.c ****             CyBle_L2Cap_ConnParamUpdateRspEventHandler(*(uint16 *)eventParam);
 978              		.loc 1 1881 0
 979 024a 3B68     		ldr	r3, [r7]
 980 024c 1B88     		ldrh	r3, [r3]
 981 024e 1800     		movs	r0, r3
 982 0250 FFF7FEFF 		bl	CyBle_L2Cap_ConnParamUpdateRspEventHandler
1882:Generated_Source\PSoC4/BLE_eventHandler.c ****             break;
 983              		.loc 1 1882 0
 984 0254 3EE0     		b	.L53
 985              	.L40:
1883:Generated_Source\PSoC4/BLE_eventHandler.c ****         
1884:Generated_Source\PSoC4/BLE_eventHandler.c ****         /**********************************************************
1885:Generated_Source\PSoC4/BLE_eventHandler.c ****         * GATT events
1886:Generated_Source\PSoC4/BLE_eventHandler.c ****         ************************************************************/        
1887:Generated_Source\PSoC4/BLE_eventHandler.c ****         case CYBLE_EVT_GATT_CONNECT_IND:
1888:Generated_Source\PSoC4/BLE_eventHandler.c ****             cyBle_connHandle = *(CYBLE_CONN_HANDLE_T *)eventParam;
 986              		.loc 1 1888 0
 987 0256 354A     		ldr	r2, .L70+36
 988 0258 3B68     		ldr	r3, [r7]
 989 025a 1000     		movs	r0, r2
 990 025c 1900     		movs	r1, r3
 991 025e 0223     		movs	r3, #2
 992 0260 1A00     		movs	r2, r3
 993 0262 FFF7FEFF 		bl	memcpy
1889:Generated_Source\PSoC4/BLE_eventHandler.c ****             cyBle_busyStatus = CYBLE_STACK_STATE_FREE;
 994              		.loc 1 1889 0
 995 0266 2D4B     		ldr	r3, .L70+20
 996 0268 0022     		movs	r2, #0
 997 026a 1A70     		strb	r2, [r3]
1890:Generated_Source\PSoC4/BLE_eventHandler.c ****             
1891:Generated_Source\PSoC4/BLE_eventHandler.c ****         #if((CYBLE_GATT_ROLE_SERVER) && (CYBLE_GATT_DB_CCCD_COUNT != 0u) && \
1892:Generated_Source\PSoC4/BLE_eventHandler.c ****             (CYBLE_BONDING_REQUIREMENT == CYBLE_BONDING_YES))
1893:Generated_Source\PSoC4/BLE_eventHandler.c ****             /* Init CCCD values in RAM when bonding is enabled */
1894:Generated_Source\PSoC4/BLE_eventHandler.c ****         	(void) memcpy (cyBle_attValuesCCCD, cyBle_flashStorage.attValuesCCCDFlashMemory[cyBle_conn
1895:Generated_Source\PSoC4/BLE_eventHandler.c ****                             CYBLE_GATT_DB_CCCD_COUNT);
1896:Generated_Source\PSoC4/BLE_eventHandler.c ****         #endif /* CYBLE_GATT_ROLE_SERVER && (CYBLE_BONDING_REQUIREMENT == CYBLE_BONDING_YES) */
1897:Generated_Source\PSoC4/BLE_eventHandler.c ****         
1898:Generated_Source\PSoC4/BLE_eventHandler.c ****         #if (CYBLE_GATT_ROLE_CLIENT)
1899:Generated_Source\PSoC4/BLE_eventHandler.c ****             CyBle_SetClientState(CYBLE_CLIENT_STATE_CONNECTED);
ARM GAS  C:\Users\Intern\AppData\Local\Temp\cc8xw9iJ.s 			page 52


1900:Generated_Source\PSoC4/BLE_eventHandler.c ****         #endif /* CYBLE_GATT_ROLE_CLIENT */
1901:Generated_Source\PSoC4/BLE_eventHandler.c ****         
1902:Generated_Source\PSoC4/BLE_eventHandler.c ****             CyBle_GattConnectReqHandler();
 998              		.loc 1 1902 0
 999 026c FFF7FEFF 		bl	CyBle_GattConnectReqHandler
1903:Generated_Source\PSoC4/BLE_eventHandler.c ****             break;
 1000              		.loc 1 1903 0
 1001 0270 30E0     		b	.L53
 1002              	.L41:
1904:Generated_Source\PSoC4/BLE_eventHandler.c **** 
1905:Generated_Source\PSoC4/BLE_eventHandler.c ****         case CYBLE_EVT_GATT_DISCONNECT_IND:
1906:Generated_Source\PSoC4/BLE_eventHandler.c ****             CyBle_GattDisconnectEventHandler();
 1003              		.loc 1 1906 0
 1004 0272 FFF7FEFF 		bl	CyBle_GattDisconnectEventHandler
1907:Generated_Source\PSoC4/BLE_eventHandler.c ****             break;
 1005              		.loc 1 1907 0
 1006 0276 2DE0     		b	.L53
 1007              	.L42:
 1008              	.LBB8:
1908:Generated_Source\PSoC4/BLE_eventHandler.c **** 
1909:Generated_Source\PSoC4/BLE_eventHandler.c ****     #if((CYBLE_GATT_ROLE_SERVER) || (CYBLE_GATT_ROLE_CLIENT))
1910:Generated_Source\PSoC4/BLE_eventHandler.c ****         case CYBLE_EVT_GATTS_XCNHG_MTU_REQ:
1911:Generated_Source\PSoC4/BLE_eventHandler.c ****             {
1912:Generated_Source\PSoC4/BLE_eventHandler.c ****                 uint16 cyBle_mtuSize;
1913:Generated_Source\PSoC4/BLE_eventHandler.c ****                 if(CYBLE_GATT_MTU > ((CYBLE_GATT_XCHG_MTU_PARAM_T *)eventParam)->mtu)
 1009              		.loc 1 1913 0
 1010 0278 3B68     		ldr	r3, [r7]
 1011 027a 5B88     		ldrh	r3, [r3, #2]
 1012 027c 162B     		cmp	r3, #22
 1013 027e 05D8     		bhi	.L62
1914:Generated_Source\PSoC4/BLE_eventHandler.c ****                 {
1915:Generated_Source\PSoC4/BLE_eventHandler.c ****                     cyBle_mtuSize = ((CYBLE_GATT_XCHG_MTU_PARAM_T *)eventParam)->mtu;
 1014              		.loc 1 1915 0
 1015 0280 1E23     		movs	r3, #30
 1016 0282 FB18     		adds	r3, r7, r3
 1017 0284 3A68     		ldr	r2, [r7]
 1018 0286 5288     		ldrh	r2, [r2, #2]
 1019 0288 1A80     		strh	r2, [r3]
 1020 028a 03E0     		b	.L63
 1021              	.L62:
1916:Generated_Source\PSoC4/BLE_eventHandler.c ****                 }
1917:Generated_Source\PSoC4/BLE_eventHandler.c ****                 else
1918:Generated_Source\PSoC4/BLE_eventHandler.c ****                 {
1919:Generated_Source\PSoC4/BLE_eventHandler.c ****                     cyBle_mtuSize = CYBLE_GATT_MTU;
 1022              		.loc 1 1919 0
 1023 028c 1E23     		movs	r3, #30
 1024 028e FB18     		adds	r3, r7, r3
 1025 0290 1722     		movs	r2, #23
 1026 0292 1A80     		strh	r2, [r3]
 1027              	.L63:
1920:Generated_Source\PSoC4/BLE_eventHandler.c ****                 }
1921:Generated_Source\PSoC4/BLE_eventHandler.c ****                 (void)CyBle_GattsExchangeMtuRsp(((CYBLE_GATT_XCHG_MTU_PARAM_T *)eventParam)->connHa
 1028              		.loc 1 1921 0
 1029 0294 1E23     		movs	r3, #30
 1030 0296 FB18     		adds	r3, r7, r3
 1031 0298 1988     		ldrh	r1, [r3]
 1032 029a 3B68     		ldr	r3, [r7]
ARM GAS  C:\Users\Intern\AppData\Local\Temp\cc8xw9iJ.s 			page 53


 1033 029c 1A88     		ldrh	r2, [r3]
 1034 029e 0023     		movs	r3, #0
 1035 02a0 1204     		lsls	r2, r2, #16
 1036 02a2 120C     		lsrs	r2, r2, #16
 1037 02a4 1B0C     		lsrs	r3, r3, #16
 1038 02a6 1B04     		lsls	r3, r3, #16
 1039 02a8 1343     		orrs	r3, r2
 1040 02aa 1800     		movs	r0, r3
 1041 02ac FFF7FEFF 		bl	CyBle_GattsExchangeMtuRsp
 1042              	.LBE8:
1922:Generated_Source\PSoC4/BLE_eventHandler.c ****             }
1923:Generated_Source\PSoC4/BLE_eventHandler.c ****             break;
 1043              		.loc 1 1923 0
 1044 02b0 10E0     		b	.L53
 1045              	.L43:
1924:Generated_Source\PSoC4/BLE_eventHandler.c ****     #endif /* CYBLE_GATT_ROLE_SERVER || CYBLE_GATT_ROLE_CLIENT */
1925:Generated_Source\PSoC4/BLE_eventHandler.c ****     
1926:Generated_Source\PSoC4/BLE_eventHandler.c ****     #if (CYBLE_GATT_ROLE_CLIENT)
1927:Generated_Source\PSoC4/BLE_eventHandler.c ****         case CYBLE_EVT_GAPC_SCAN_PROGRESS_RESULT:
1928:Generated_Source\PSoC4/BLE_eventHandler.c ****         #ifdef CYBLE_CPS_CLIENT
1929:Generated_Source\PSoC4/BLE_eventHandler.c ****             CyBle_CpscScanProcessEventHandler((CYBLE_GAPC_ADV_REPORT_T *)eventParam);
1930:Generated_Source\PSoC4/BLE_eventHandler.c ****         #endif /* CYBLE_CPS_CLIENT */
1931:Generated_Source\PSoC4/BLE_eventHandler.c ****             break;
1932:Generated_Source\PSoC4/BLE_eventHandler.c ****     #endif /* CYBLE_GATT_ROLE_CLIENT */
1933:Generated_Source\PSoC4/BLE_eventHandler.c **** 
1934:Generated_Source\PSoC4/BLE_eventHandler.c ****     #if(CYBLE_GATT_ROLE_SERVER)
1935:Generated_Source\PSoC4/BLE_eventHandler.c ****         case CYBLE_EVT_GATTS_WRITE_REQ:
1936:Generated_Source\PSoC4/BLE_eventHandler.c ****             CyBle_WriteReqHandler((CYBLE_GATTS_WRITE_REQ_PARAM_T *)eventParam);
 1046              		.loc 1 1936 0
 1047 02b2 3B68     		ldr	r3, [r7]
 1048 02b4 1800     		movs	r0, r3
 1049 02b6 FFF7FEFF 		bl	CyBle_WriteReqHandler
1937:Generated_Source\PSoC4/BLE_eventHandler.c ****             break;
 1050              		.loc 1 1937 0
 1051 02ba 0BE0     		b	.L53
 1052              	.L47:
1938:Generated_Source\PSoC4/BLE_eventHandler.c **** 
1939:Generated_Source\PSoC4/BLE_eventHandler.c ****         case CYBLE_EVT_GATTS_WRITE_CMD_REQ:
1940:Generated_Source\PSoC4/BLE_eventHandler.c ****         #ifdef CYBLE_AIOS_SERVER
1941:Generated_Source\PSoC4/BLE_eventHandler.c ****             if((cyBle_eventHandlerFlag & CYBLE_CALLBACK) != 0u)
1942:Generated_Source\PSoC4/BLE_eventHandler.c ****             {
1943:Generated_Source\PSoC4/BLE_eventHandler.c ****                 (void)CyBle_AiossWriteEventHandler((CYBLE_GATTS_WRITE_REQ_PARAM_T *)eventParam);
1944:Generated_Source\PSoC4/BLE_eventHandler.c ****             }
1945:Generated_Source\PSoC4/BLE_eventHandler.c ****         #endif /* CYBLE_AIOS_SERVER */
1946:Generated_Source\PSoC4/BLE_eventHandler.c ****         #ifdef CYBLE_IAS_SERVER
1947:Generated_Source\PSoC4/BLE_eventHandler.c ****             if((cyBle_eventHandlerFlag & CYBLE_CALLBACK) != 0u)
1948:Generated_Source\PSoC4/BLE_eventHandler.c ****             {
1949:Generated_Source\PSoC4/BLE_eventHandler.c ****                 (void)CyBle_IassWriteCmdEventHandler((CYBLE_GATTS_WRITE_REQ_PARAM_T *)eventParam);
1950:Generated_Source\PSoC4/BLE_eventHandler.c ****             }
1951:Generated_Source\PSoC4/BLE_eventHandler.c ****         #endif /* CYBLE_IAS_SERVER */
1952:Generated_Source\PSoC4/BLE_eventHandler.c ****         #ifdef CYBLE_IPS_SERVER
1953:Generated_Source\PSoC4/BLE_eventHandler.c ****             if((cyBle_eventHandlerFlag & CYBLE_CALLBACK) != 0u)
1954:Generated_Source\PSoC4/BLE_eventHandler.c ****             {
1955:Generated_Source\PSoC4/BLE_eventHandler.c ****                 (void)CyBle_IpssWriteCmdEventHandler((CYBLE_GATTS_WRITE_REQ_PARAM_T *)eventParam);
1956:Generated_Source\PSoC4/BLE_eventHandler.c ****             }
1957:Generated_Source\PSoC4/BLE_eventHandler.c ****         #endif /* CYBLE_IPS_SERVER */
1958:Generated_Source\PSoC4/BLE_eventHandler.c ****         #ifdef CYBLE_HIDS_SERVER
ARM GAS  C:\Users\Intern\AppData\Local\Temp\cc8xw9iJ.s 			page 54


1959:Generated_Source\PSoC4/BLE_eventHandler.c ****             if((cyBle_eventHandlerFlag & CYBLE_CALLBACK) != 0u)
1960:Generated_Source\PSoC4/BLE_eventHandler.c ****             {
1961:Generated_Source\PSoC4/BLE_eventHandler.c ****                 (void)CyBle_HidssWriteEventHandler((CYBLE_GATTS_WRITE_REQ_PARAM_T *)eventParam);
1962:Generated_Source\PSoC4/BLE_eventHandler.c ****             }
1963:Generated_Source\PSoC4/BLE_eventHandler.c ****         #endif /* CYBLE_HIDS_SERVER */
1964:Generated_Source\PSoC4/BLE_eventHandler.c ****         #ifdef CYBLE_PASS_SERVER
1965:Generated_Source\PSoC4/BLE_eventHandler.c ****             if((cyBle_eventHandlerFlag & CYBLE_CALLBACK) != 0u)
1966:Generated_Source\PSoC4/BLE_eventHandler.c ****             {
1967:Generated_Source\PSoC4/BLE_eventHandler.c ****                 (void)CyBle_PasssWriteCmdEventHandler((CYBLE_GATTS_WRITE_REQ_PARAM_T *)eventParam);
1968:Generated_Source\PSoC4/BLE_eventHandler.c ****             }
1969:Generated_Source\PSoC4/BLE_eventHandler.c ****         #endif /* CYBLE_PASS_SERVER */
1970:Generated_Source\PSoC4/BLE_eventHandler.c ****         #ifdef CYBLE_RTUS_SERVER
1971:Generated_Source\PSoC4/BLE_eventHandler.c ****             if((cyBle_eventHandlerFlag & CYBLE_CALLBACK) != 0u)
1972:Generated_Source\PSoC4/BLE_eventHandler.c ****             {
1973:Generated_Source\PSoC4/BLE_eventHandler.c ****                 (void)CyBle_RtussWriteCmdEventHandler((CYBLE_GATTS_WRITE_REQ_PARAM_T *)eventParam);
1974:Generated_Source\PSoC4/BLE_eventHandler.c ****             }
1975:Generated_Source\PSoC4/BLE_eventHandler.c ****         #endif /* CYBLE_RTUS_SERVER */
1976:Generated_Source\PSoC4/BLE_eventHandler.c ****         #ifdef CYBLE_SCPS_SERVER
1977:Generated_Source\PSoC4/BLE_eventHandler.c ****             if((cyBle_eventHandlerFlag & CYBLE_CALLBACK) != 0u)
1978:Generated_Source\PSoC4/BLE_eventHandler.c ****             {
1979:Generated_Source\PSoC4/BLE_eventHandler.c ****                 (void)CyBle_ScpssWriteEventHandler((CYBLE_GATTS_WRITE_REQ_PARAM_T *)eventParam);
1980:Generated_Source\PSoC4/BLE_eventHandler.c ****             }
1981:Generated_Source\PSoC4/BLE_eventHandler.c ****         #endif /* CYBLE_SCPS_SERVER */
1982:Generated_Source\PSoC4/BLE_eventHandler.c ****             break;
1983:Generated_Source\PSoC4/BLE_eventHandler.c ****         
1984:Generated_Source\PSoC4/BLE_eventHandler.c ****         case CYBLE_EVT_GATTS_PREP_WRITE_REQ:
1985:Generated_Source\PSoC4/BLE_eventHandler.c ****         #ifdef CYBLE_BMS_SERVER
1986:Generated_Source\PSoC4/BLE_eventHandler.c ****             CyBle_BmssPrepareWriteRequestEventHandler((CYBLE_GATTS_PREP_WRITE_REQ_PARAM_T *)eventPa
1987:Generated_Source\PSoC4/BLE_eventHandler.c ****         #endif /* CYBLE_BMS_SERVER */
1988:Generated_Source\PSoC4/BLE_eventHandler.c ****         #ifdef CYBLE_BTS_SERVER
1989:Generated_Source\PSoC4/BLE_eventHandler.c ****             if((cyBle_eventHandlerFlag & CYBLE_CALLBACK) != 0u)
1990:Generated_Source\PSoC4/BLE_eventHandler.c ****             {
1991:Generated_Source\PSoC4/BLE_eventHandler.c ****                 CyBle_BtssPrepareWriteRequestEventHandler((CYBLE_GATTS_PREP_WRITE_REQ_PARAM_T *)eve
1992:Generated_Source\PSoC4/BLE_eventHandler.c ****             }
1993:Generated_Source\PSoC4/BLE_eventHandler.c ****         #endif /* CYBLE_BTS_SERVER */
1994:Generated_Source\PSoC4/BLE_eventHandler.c ****         #ifdef CYBLE_ESS_SERVER
1995:Generated_Source\PSoC4/BLE_eventHandler.c ****             if((cyBle_eventHandlerFlag & CYBLE_CALLBACK) != 0u)
1996:Generated_Source\PSoC4/BLE_eventHandler.c ****             {
1997:Generated_Source\PSoC4/BLE_eventHandler.c ****                 CyBle_EsssPrepareWriteRequestEventHandler((CYBLE_GATTS_PREP_WRITE_REQ_PARAM_T *)eve
1998:Generated_Source\PSoC4/BLE_eventHandler.c ****             }
1999:Generated_Source\PSoC4/BLE_eventHandler.c ****         #endif /* CYBLE_ESS_SERVER */
2000:Generated_Source\PSoC4/BLE_eventHandler.c ****         #ifdef CYBLE_HPS_SERVER
2001:Generated_Source\PSoC4/BLE_eventHandler.c ****             if((cyBle_eventHandlerFlag & CYBLE_CALLBACK) != 0u)
2002:Generated_Source\PSoC4/BLE_eventHandler.c ****             {
2003:Generated_Source\PSoC4/BLE_eventHandler.c ****                 CyBle_HpssPrepareWriteRequestEventHandler((CYBLE_GATTS_PREP_WRITE_REQ_PARAM_T *)eve
2004:Generated_Source\PSoC4/BLE_eventHandler.c ****             }
2005:Generated_Source\PSoC4/BLE_eventHandler.c ****         #endif /* CYBLE_HPS_SERVER */
2006:Generated_Source\PSoC4/BLE_eventHandler.c ****         #ifdef CYBLE_IPS_SERVER
2007:Generated_Source\PSoC4/BLE_eventHandler.c ****             if((cyBle_eventHandlerFlag & CYBLE_CALLBACK) != 0u)
2008:Generated_Source\PSoC4/BLE_eventHandler.c ****             {
2009:Generated_Source\PSoC4/BLE_eventHandler.c ****                 CyBle_IpssPrepareWriteRequestEventHandler((CYBLE_GATTS_PREP_WRITE_REQ_PARAM_T *)eve
2010:Generated_Source\PSoC4/BLE_eventHandler.c ****             }
2011:Generated_Source\PSoC4/BLE_eventHandler.c ****         #endif /* CYBLE_IPS_SERVER */
2012:Generated_Source\PSoC4/BLE_eventHandler.c ****         #ifdef CYBLE_UDS_SERVER
2013:Generated_Source\PSoC4/BLE_eventHandler.c ****             if((cyBle_eventHandlerFlag & CYBLE_CALLBACK) != 0u)
2014:Generated_Source\PSoC4/BLE_eventHandler.c ****             {
2015:Generated_Source\PSoC4/BLE_eventHandler.c ****                 CyBle_UdssPrepareWriteRequestEventHandler((CYBLE_GATTS_PREP_WRITE_REQ_PARAM_T *)eve
ARM GAS  C:\Users\Intern\AppData\Local\Temp\cc8xw9iJ.s 			page 55


2016:Generated_Source\PSoC4/BLE_eventHandler.c ****             }
2017:Generated_Source\PSoC4/BLE_eventHandler.c ****         #endif /* CYBLE_UDS_SERVER */
2018:Generated_Source\PSoC4/BLE_eventHandler.c ****             break;
2019:Generated_Source\PSoC4/BLE_eventHandler.c **** 
2020:Generated_Source\PSoC4/BLE_eventHandler.c ****         case CYBLE_EVT_GATTS_EXEC_WRITE_REQ:
2021:Generated_Source\PSoC4/BLE_eventHandler.c ****         #ifdef CYBLE_BMS_SERVER
2022:Generated_Source\PSoC4/BLE_eventHandler.c ****             CyBle_BmssExecuteWriteRequestEventHandler((CYBLE_GATTS_EXEC_WRITE_REQ_T *)eventParam);
2023:Generated_Source\PSoC4/BLE_eventHandler.c ****         #endif /* CYBLE_BMS_SERVER */
2024:Generated_Source\PSoC4/BLE_eventHandler.c ****         #ifdef CYBLE_BTS_SERVER
2025:Generated_Source\PSoC4/BLE_eventHandler.c ****             CyBle_BtssExecuteWriteRequestEventHandler((CYBLE_GATTS_EXEC_WRITE_REQ_T *)eventParam);
2026:Generated_Source\PSoC4/BLE_eventHandler.c ****         #endif /* CYBLE_BTS_SERVER */
2027:Generated_Source\PSoC4/BLE_eventHandler.c ****         #ifdef CYBLE_ESS_SERVER
2028:Generated_Source\PSoC4/BLE_eventHandler.c ****             CyBle_EsssExecuteWriteRequestEventHandler((CYBLE_GATTS_EXEC_WRITE_REQ_T *)eventParam);
2029:Generated_Source\PSoC4/BLE_eventHandler.c ****         #endif /* CYBLE_ESS_SERVER */
2030:Generated_Source\PSoC4/BLE_eventHandler.c ****         #ifdef CYBLE_HPS_SERVER
2031:Generated_Source\PSoC4/BLE_eventHandler.c ****             CyBle_HpssExecuteWriteRequestEventHandler((CYBLE_GATTS_EXEC_WRITE_REQ_T *)eventParam);
2032:Generated_Source\PSoC4/BLE_eventHandler.c ****         #endif /* CYBLE_HPS_SERVER */
2033:Generated_Source\PSoC4/BLE_eventHandler.c ****         #ifdef CYBLE_IPS_SERVER
2034:Generated_Source\PSoC4/BLE_eventHandler.c ****             CyBle_IpssExecuteWriteRequestEventHandler((CYBLE_GATTS_EXEC_WRITE_REQ_T *)eventParam);
2035:Generated_Source\PSoC4/BLE_eventHandler.c ****         #endif /* CYBLE_IPS_SERVER */
2036:Generated_Source\PSoC4/BLE_eventHandler.c **** 		#ifdef CYBLE_UDS_SERVER
2037:Generated_Source\PSoC4/BLE_eventHandler.c ****             CyBle_UdssExecuteWriteRequestEventHandler((CYBLE_GATTS_EXEC_WRITE_REQ_T *)eventParam);
2038:Generated_Source\PSoC4/BLE_eventHandler.c ****         #endif /* CYBLE_UDS_SERVER */
2039:Generated_Source\PSoC4/BLE_eventHandler.c ****             break;
2040:Generated_Source\PSoC4/BLE_eventHandler.c ****         
2041:Generated_Source\PSoC4/BLE_eventHandler.c ****         case CYBLE_EVT_GATTS_HANDLE_VALUE_CNF:
2042:Generated_Source\PSoC4/BLE_eventHandler.c ****             CyBle_ValueConfirmation((CYBLE_CONN_HANDLE_T *)eventParam);
 1053              		.loc 1 2042 0
 1054 02bc 3B68     		ldr	r3, [r7]
 1055 02be 1800     		movs	r0, r3
 1056 02c0 FFF7FEFF 		bl	CyBle_ValueConfirmation
2043:Generated_Source\PSoC4/BLE_eventHandler.c ****             break;
 1057              		.loc 1 2043 0
 1058 02c4 06E0     		b	.L53
 1059              	.L65:
2044:Generated_Source\PSoC4/BLE_eventHandler.c ****             
2045:Generated_Source\PSoC4/BLE_eventHandler.c ****         case CYBLE_EVT_GATTS_READ_CHAR_VAL_ACCESS_REQ:
2046:Generated_Source\PSoC4/BLE_eventHandler.c ****         #ifdef CYBLE_UDS_SERVER
2047:Generated_Source\PSoC4/BLE_eventHandler.c ****             CyBle_UdssReadRequestEventHandler((CYBLE_GATTS_CHAR_VAL_READ_REQ_T *)eventParam);
2048:Generated_Source\PSoC4/BLE_eventHandler.c ****         #endif /* CYBLE_UDS_SERVER */
2049:Generated_Source\PSoC4/BLE_eventHandler.c ****             break;
2050:Generated_Source\PSoC4/BLE_eventHandler.c ****             
2051:Generated_Source\PSoC4/BLE_eventHandler.c ****     #endif /* CYBLE_GATT_ROLE_SERVER */
2052:Generated_Source\PSoC4/BLE_eventHandler.c **** 
2053:Generated_Source\PSoC4/BLE_eventHandler.c ****     #if (CYBLE_GATT_ROLE_CLIENT)
2054:Generated_Source\PSoC4/BLE_eventHandler.c ****         
2055:Generated_Source\PSoC4/BLE_eventHandler.c ****         case CYBLE_EVT_GATTC_READ_BY_GROUP_TYPE_RSP:
2056:Generated_Source\PSoC4/BLE_eventHandler.c ****             CyBle_ReadByGroupEventHandler((CYBLE_GATTC_READ_BY_GRP_RSP_PARAM_T *)eventParam);
2057:Generated_Source\PSoC4/BLE_eventHandler.c ****             break;
2058:Generated_Source\PSoC4/BLE_eventHandler.c **** 
2059:Generated_Source\PSoC4/BLE_eventHandler.c ****         case CYBLE_EVT_GATTC_READ_BY_TYPE_RSP:
2060:Generated_Source\PSoC4/BLE_eventHandler.c ****             CyBle_ReadByTypeEventHandler((CYBLE_GATTC_READ_BY_TYPE_RSP_PARAM_T *)eventParam);
2061:Generated_Source\PSoC4/BLE_eventHandler.c ****             break;
2062:Generated_Source\PSoC4/BLE_eventHandler.c **** 
2063:Generated_Source\PSoC4/BLE_eventHandler.c ****         case CYBLE_EVT_GATTC_READ_BLOB_RSP:
2064:Generated_Source\PSoC4/BLE_eventHandler.c ****         #ifdef CYBLE_ESS_CLIENT
2065:Generated_Source\PSoC4/BLE_eventHandler.c ****             CyBle_EsscReadLongRespEventHandler((CYBLE_GATTC_READ_RSP_PARAM_T *)eventParam);
ARM GAS  C:\Users\Intern\AppData\Local\Temp\cc8xw9iJ.s 			page 56


2066:Generated_Source\PSoC4/BLE_eventHandler.c ****         #endif /* CYBLE_ESS_CLIENT */
2067:Generated_Source\PSoC4/BLE_eventHandler.c ****         #ifdef CYBLE_HPS_CLIENT
2068:Generated_Source\PSoC4/BLE_eventHandler.c ****             CyBle_HpscReadLongRespEventHandler((CYBLE_GATTC_READ_RSP_PARAM_T *)eventParam);
2069:Generated_Source\PSoC4/BLE_eventHandler.c ****         #endif /* CYBLE_HPS_CLIENT */
2070:Generated_Source\PSoC4/BLE_eventHandler.c **** 		#ifdef CYBLE_IPS_CLIENT
2071:Generated_Source\PSoC4/BLE_eventHandler.c ****             CyBle_IpscReadLongRespEventHandler((CYBLE_GATTC_READ_RSP_PARAM_T *)eventParam);
2072:Generated_Source\PSoC4/BLE_eventHandler.c ****         #endif /* CYBLE_IPS_CLIENT */
2073:Generated_Source\PSoC4/BLE_eventHandler.c ****         #ifdef CYBLE_UDS_CLIENT
2074:Generated_Source\PSoC4/BLE_eventHandler.c ****             if((cyBle_eventHandlerFlag & CYBLE_CALLBACK) != 0u)
2075:Generated_Source\PSoC4/BLE_eventHandler.c ****             {
2076:Generated_Source\PSoC4/BLE_eventHandler.c ****                 CyBle_UdscReadLongRespEventHandler((CYBLE_GATTC_READ_RSP_PARAM_T *)eventParam);
2077:Generated_Source\PSoC4/BLE_eventHandler.c ****             }
2078:Generated_Source\PSoC4/BLE_eventHandler.c ****         #endif /* CYBLE_UDS_CLIENT */
2079:Generated_Source\PSoC4/BLE_eventHandler.c ****             break;
2080:Generated_Source\PSoC4/BLE_eventHandler.c ****         
2081:Generated_Source\PSoC4/BLE_eventHandler.c ****         case CYBLE_EVT_GATTC_LONG_PROCEDURE_END:
2082:Generated_Source\PSoC4/BLE_eventHandler.c ****             CyBle_LongProcedureEndEventHandler();
2083:Generated_Source\PSoC4/BLE_eventHandler.c ****             break;
2084:Generated_Source\PSoC4/BLE_eventHandler.c ****         
2085:Generated_Source\PSoC4/BLE_eventHandler.c ****         case CYBLE_EVT_GATTC_FIND_INFO_RSP:
2086:Generated_Source\PSoC4/BLE_eventHandler.c ****             CyBle_FindInfoEventHandler((CYBLE_GATTC_FIND_INFO_RSP_PARAM_T *)eventParam);
2087:Generated_Source\PSoC4/BLE_eventHandler.c ****             break;
2088:Generated_Source\PSoC4/BLE_eventHandler.c **** 
2089:Generated_Source\PSoC4/BLE_eventHandler.c ****         case CYBLE_EVT_GATTC_ERROR_RSP:
2090:Generated_Source\PSoC4/BLE_eventHandler.c ****             CyBle_ErrorResponseEventHandler((CYBLE_GATTC_ERR_RSP_PARAM_T *)eventParam);
2091:Generated_Source\PSoC4/BLE_eventHandler.c ****             break;
2092:Generated_Source\PSoC4/BLE_eventHandler.c **** 
2093:Generated_Source\PSoC4/BLE_eventHandler.c ****         case CYBLE_EVT_GATTC_HANDLE_VALUE_NTF:
2094:Generated_Source\PSoC4/BLE_eventHandler.c ****             CyBle_NotificationEventHandler((CYBLE_GATTC_HANDLE_VALUE_NTF_PARAM_T *)eventParam);
2095:Generated_Source\PSoC4/BLE_eventHandler.c ****             break;
2096:Generated_Source\PSoC4/BLE_eventHandler.c **** 
2097:Generated_Source\PSoC4/BLE_eventHandler.c ****         case CYBLE_EVT_GATTC_HANDLE_VALUE_IND:
2098:Generated_Source\PSoC4/BLE_eventHandler.c ****             CyBle_GattcIndicationEventHandler((CYBLE_GATTC_HANDLE_VALUE_IND_PARAM_T *)eventParam);
2099:Generated_Source\PSoC4/BLE_eventHandler.c ****             CyBle_IndicationEventHandler((CYBLE_GATTC_HANDLE_VALUE_IND_PARAM_T *)eventParam);
2100:Generated_Source\PSoC4/BLE_eventHandler.c ****         
2101:Generated_Source\PSoC4/BLE_eventHandler.c ****             /* Respond with a Handle Value Confirmation when request handled */
2102:Generated_Source\PSoC4/BLE_eventHandler.c ****             if((cyBle_eventHandlerFlag & CYBLE_CALLBACK) == 0u)
2103:Generated_Source\PSoC4/BLE_eventHandler.c ****             {
2104:Generated_Source\PSoC4/BLE_eventHandler.c ****                 (void)CyBle_GattcConfirmation(((CYBLE_GATTC_HANDLE_VALUE_IND_PARAM_T *)eventParam)-
2105:Generated_Source\PSoC4/BLE_eventHandler.c ****             }
2106:Generated_Source\PSoC4/BLE_eventHandler.c ****             break;
2107:Generated_Source\PSoC4/BLE_eventHandler.c ****         
2108:Generated_Source\PSoC4/BLE_eventHandler.c ****         case CYBLE_EVT_GATTC_READ_RSP:
2109:Generated_Source\PSoC4/BLE_eventHandler.c ****             CyBle_ReadResponseEventHandler((CYBLE_GATTC_READ_RSP_PARAM_T *)eventParam);
2110:Generated_Source\PSoC4/BLE_eventHandler.c ****             break;
2111:Generated_Source\PSoC4/BLE_eventHandler.c ****         
2112:Generated_Source\PSoC4/BLE_eventHandler.c ****         case CYBLE_EVT_GATTC_READ_MULTI_RSP:
2113:Generated_Source\PSoC4/BLE_eventHandler.c ****             CyBle_ReadMultipleResponseEventHandler((CYBLE_GATTC_READ_RSP_PARAM_T *)eventParam);
2114:Generated_Source\PSoC4/BLE_eventHandler.c ****             break;
2115:Generated_Source\PSoC4/BLE_eventHandler.c ****             
2116:Generated_Source\PSoC4/BLE_eventHandler.c ****         case CYBLE_EVT_GATTC_WRITE_RSP:
2117:Generated_Source\PSoC4/BLE_eventHandler.c ****             CyBle_GattcWriteResponseEventHandler((CYBLE_CONN_HANDLE_T *)eventParam);
2118:Generated_Source\PSoC4/BLE_eventHandler.c ****             break;
2119:Generated_Source\PSoC4/BLE_eventHandler.c ****             
2120:Generated_Source\PSoC4/BLE_eventHandler.c ****         case CYBLE_EVT_GATTC_EXEC_WRITE_RSP:
2121:Generated_Source\PSoC4/BLE_eventHandler.c ****         #ifdef CYBLE_BMS_CLIENT
2122:Generated_Source\PSoC4/BLE_eventHandler.c ****             CyBle_BmscExecuteWriteResponseEventHandler((CYBLE_GATTC_EXEC_WRITE_RSP_T *)eventParam);
ARM GAS  C:\Users\Intern\AppData\Local\Temp\cc8xw9iJ.s 			page 57


2123:Generated_Source\PSoC4/BLE_eventHandler.c ****         #endif /* CYBLE_BMS_CLIENT */
2124:Generated_Source\PSoC4/BLE_eventHandler.c ****         #ifdef CYBLE_ESS_CLIENT
2125:Generated_Source\PSoC4/BLE_eventHandler.c ****             if((cyBle_eventHandlerFlag & CYBLE_CALLBACK) != 0u)
2126:Generated_Source\PSoC4/BLE_eventHandler.c ****             {
2127:Generated_Source\PSoC4/BLE_eventHandler.c ****                 CyBle_EsscExecuteWriteResponseEventHandler((CYBLE_GATTC_EXEC_WRITE_RSP_T *)eventPar
2128:Generated_Source\PSoC4/BLE_eventHandler.c ****             }
2129:Generated_Source\PSoC4/BLE_eventHandler.c ****         #endif /* CYBLE_ESS_CLIENT */
2130:Generated_Source\PSoC4/BLE_eventHandler.c ****         #ifdef CYBLE_HPS_CLIENT
2131:Generated_Source\PSoC4/BLE_eventHandler.c ****             if((cyBle_eventHandlerFlag & CYBLE_CALLBACK) != 0u)
2132:Generated_Source\PSoC4/BLE_eventHandler.c ****             {
2133:Generated_Source\PSoC4/BLE_eventHandler.c ****                 CyBle_HpscExecuteWriteResponseEventHandler((CYBLE_GATTC_EXEC_WRITE_RSP_T *)eventPar
2134:Generated_Source\PSoC4/BLE_eventHandler.c ****             }
2135:Generated_Source\PSoC4/BLE_eventHandler.c ****         #endif /* CYBLE_HPS_CLIENT */
2136:Generated_Source\PSoC4/BLE_eventHandler.c ****         #ifdef CYBLE_IPS_CLIENT
2137:Generated_Source\PSoC4/BLE_eventHandler.c ****             if((cyBle_eventHandlerFlag & CYBLE_CALLBACK) != 0u)
2138:Generated_Source\PSoC4/BLE_eventHandler.c ****             {
2139:Generated_Source\PSoC4/BLE_eventHandler.c ****                 CyBle_IpscExecuteWriteResponseEventHandler((CYBLE_GATTC_EXEC_WRITE_RSP_T *)eventPar
2140:Generated_Source\PSoC4/BLE_eventHandler.c ****             }
2141:Generated_Source\PSoC4/BLE_eventHandler.c ****         #endif /* CYBLE_IPS_CLIENT */
2142:Generated_Source\PSoC4/BLE_eventHandler.c ****         #ifdef CYBLE_UDS_CLIENT
2143:Generated_Source\PSoC4/BLE_eventHandler.c ****             if((cyBle_eventHandlerFlag & CYBLE_CALLBACK) != 0u)
2144:Generated_Source\PSoC4/BLE_eventHandler.c ****             {
2145:Generated_Source\PSoC4/BLE_eventHandler.c ****                 CyBle_UdscExecuteWriteResponseEventHandler((CYBLE_GATTC_EXEC_WRITE_RSP_T *)eventPar
2146:Generated_Source\PSoC4/BLE_eventHandler.c ****             }
2147:Generated_Source\PSoC4/BLE_eventHandler.c ****         #endif /* CYBLE_UDS_CLIENT */
2148:Generated_Source\PSoC4/BLE_eventHandler.c ****             break;
2149:Generated_Source\PSoC4/BLE_eventHandler.c ****             
2150:Generated_Source\PSoC4/BLE_eventHandler.c ****     #endif /* CYBLE_GATT_ROLE_CLIENT */
2151:Generated_Source\PSoC4/BLE_eventHandler.c **** 
2152:Generated_Source\PSoC4/BLE_eventHandler.c ****     #if((CYBLE_GAP_ROLE_PERIPHERAL || CYBLE_GAP_ROLE_CENTRAL) && (CYBLE_BONDING_REQUIREMENT == CYBL
2153:Generated_Source\PSoC4/BLE_eventHandler.c **** 
2154:Generated_Source\PSoC4/BLE_eventHandler.c ****         case CYBLE_EVT_PENDING_FLASH_WRITE:
2155:Generated_Source\PSoC4/BLE_eventHandler.c ****             cyBle_pendingFlashWrite |= CYBLE_PENDING_STACK_FLASH_WRITE_BIT;
2156:Generated_Source\PSoC4/BLE_eventHandler.c ****             break;
2157:Generated_Source\PSoC4/BLE_eventHandler.c ****         
2158:Generated_Source\PSoC4/BLE_eventHandler.c ****     #endif  /* (CYBLE_BONDING_REQUIREMENT == CYBLE_BONDING_YES) */
2159:Generated_Source\PSoC4/BLE_eventHandler.c ****     
2160:Generated_Source\PSoC4/BLE_eventHandler.c ****         default:
2161:Generated_Source\PSoC4/BLE_eventHandler.c ****             break;
 1060              		.loc 1 2161 0
 1061 02c6 C046     		nop
 1062 02c8 04E0     		b	.L53
 1063              	.L66:
1704:Generated_Source\PSoC4/BLE_eventHandler.c ****         /**********************************************************
 1064              		.loc 1 1704 0
 1065 02ca C046     		nop
 1066 02cc 02E0     		b	.L53
 1067              	.L67:
1742:Generated_Source\PSoC4/BLE_eventHandler.c ****         
 1068              		.loc 1 1742 0
 1069 02ce C046     		nop
 1070 02d0 00E0     		b	.L53
 1071              	.L68:
1833:Generated_Source\PSoC4/BLE_eventHandler.c ****         #endif /* CYBLE_GAP_ROLE_PERIPHERAL || CYBLE_GAP_ROLE_BROADCASTER */
 1072              		.loc 1 1833 0
 1073 02d2 C046     		nop
 1074              	.L53:
ARM GAS  C:\Users\Intern\AppData\Local\Temp\cc8xw9iJ.s 			page 58


2162:Generated_Source\PSoC4/BLE_eventHandler.c ****     }
2163:Generated_Source\PSoC4/BLE_eventHandler.c **** 
2164:Generated_Source\PSoC4/BLE_eventHandler.c ****     if(0u != (cyBle_eventHandlerFlag & (CYBLE_CALLBACK | CYBLE_ENABLE_ALL_EVENTS))) 
 1075              		.loc 1 2164 0
 1076 02d4 0C4B     		ldr	r3, .L70
 1077 02d6 1B78     		ldrb	r3, [r3]
 1078 02d8 DBB2     		uxtb	r3, r3
 1079 02da 1A00     		movs	r2, r3
 1080 02dc 1123     		movs	r3, #17
 1081 02de 1340     		ands	r3, r2
 1082 02e0 0ED0     		beq	.L69
2165:Generated_Source\PSoC4/BLE_eventHandler.c ****     {
2166:Generated_Source\PSoC4/BLE_eventHandler.c ****         cyBle_eventHandlerFlag &= (uint8)~CYBLE_CALLBACK;
 1083              		.loc 1 2166 0
 1084 02e2 094B     		ldr	r3, .L70
 1085 02e4 1B78     		ldrb	r3, [r3]
 1086 02e6 DBB2     		uxtb	r3, r3
 1087 02e8 0122     		movs	r2, #1
 1088 02ea 9343     		bics	r3, r2
 1089 02ec DAB2     		uxtb	r2, r3
 1090 02ee 064B     		ldr	r3, .L70
 1091 02f0 1A70     		strb	r2, [r3]
2167:Generated_Source\PSoC4/BLE_eventHandler.c ****         CyBle_ApplCallback((uint32)eventCode, eventParam);
 1092              		.loc 1 2167 0
 1093 02f2 0F4B     		ldr	r3, .L70+40
 1094 02f4 1B68     		ldr	r3, [r3]
 1095 02f6 FA1D     		adds	r2, r7, #7
 1096 02f8 1278     		ldrb	r2, [r2]
 1097 02fa 3968     		ldr	r1, [r7]
 1098 02fc 1000     		movs	r0, r2
 1099 02fe 9847     		blx	r3
 1100              	.L69:
2168:Generated_Source\PSoC4/BLE_eventHandler.c ****     }
2169:Generated_Source\PSoC4/BLE_eventHandler.c **** }
 1101              		.loc 1 2169 0
 1102 0300 C046     		nop
 1103 0302 BD46     		mov	sp, r7
 1104 0304 08B0     		add	sp, sp, #32
 1105              		@ sp needed
 1106 0306 80BD     		pop	{r7, pc}
 1107              	.L71:
 1108              		.align	2
 1109              	.L70:
 1110 0308 00000000 		.word	cyBle_eventHandlerFlag
 1111 030c 0C000000 		.word	.L30
 1112 0310 00000000 		.word	cyBle_sflashDeviceAddress
 1113 0314 00000000 		.word	cyBle_deviceAddress
 1114 0318 00000000 		.word	cyBle_state
 1115 031c 00000000 		.word	cyBle_busyStatus
 1116 0320 00000000 		.word	gPrepWriteReqMem.6830
 1117 0324 E00A0000 		.word	cyBle_stackMemoryRam+2784
 1118 0328 00000000 		.word	cyBle_authInfo
 1119 032c 00000000 		.word	cyBle_connHandle
 1120 0330 00000000 		.word	CyBle_ApplCallback
 1121 0334 00000000 		.word	cyBle_advertisingIntervalType
 1122              		.cfi_endproc
 1123              	.LFE10:
ARM GAS  C:\Users\Intern\AppData\Local\Temp\cc8xw9iJ.s 			page 59


 1124              		.size	CyBle_EventHandler, .-CyBle_EventHandler
 1125              		.bss
 1126              		.align	2
 1127              	gPrepWriteReqMem.6830:
 1128 0000 00000000 		.space	8
 1128      00000000 
 1129              		.text
 1130              	.Letext0:
 1131              		.file 2 "Generated_Source\\PSoC4\\cytypes.h"
 1132              		.file 3 "Generated_Source\\PSoC4\\BLE_Stack.h"
 1133              		.file 4 "Generated_Source\\PSoC4\\BLE_StackHostMain.h"
 1134              		.file 5 "Generated_Source\\PSoC4\\BLE_StackGap.h"
 1135              		.file 6 "Generated_Source\\PSoC4\\BLE_StackGatt.h"
 1136              		.file 7 "Generated_Source\\PSoC4\\BLE_StackGattServer.h"
 1137              		.file 8 "Generated_Source\\PSoC4\\BLE.h"
 1138              		.file 9 "Generated_Source\\PSoC4\\BLE_dis.h"
 1139              		.file 10 "Generated_Source\\PSoC4\\BLE_hts.h"
 1140              		.file 11 "Generated_Source\\PSoC4\\BLE_eventHandler.h"
 1141              		.section	.debug_info,"",%progbits
 1142              	.Ldebug_info0:
 1143 0000 170E0000 		.4byte	0xe17
 1144 0004 0400     		.2byte	0x4
 1145 0006 00000000 		.4byte	.Ldebug_abbrev0
 1146 000a 04       		.byte	0x4
 1147 000b 01       		.uleb128 0x1
 1148 000c 170F0000 		.4byte	.LASF347
 1149 0010 0C       		.byte	0xc
 1150 0011 E0230000 		.4byte	.LASF348
 1151 0015 A50F0000 		.4byte	.LASF349
 1152 0019 00000000 		.4byte	.Ldebug_ranges0+0
 1153 001d 00000000 		.4byte	0
 1154 0021 00000000 		.4byte	.Ldebug_line0
 1155 0025 02       		.uleb128 0x2
 1156 0026 01       		.byte	0x1
 1157 0027 06       		.byte	0x6
 1158 0028 23080000 		.4byte	.LASF0
 1159 002c 02       		.uleb128 0x2
 1160 002d 01       		.byte	0x1
 1161 002e 08       		.byte	0x8
 1162 002f 75090000 		.4byte	.LASF1
 1163 0033 02       		.uleb128 0x2
 1164 0034 02       		.byte	0x2
 1165 0035 05       		.byte	0x5
 1166 0036 2A1F0000 		.4byte	.LASF2
 1167 003a 02       		.uleb128 0x2
 1168 003b 02       		.byte	0x2
 1169 003c 07       		.byte	0x7
 1170 003d 90230000 		.4byte	.LASF3
 1171 0041 02       		.uleb128 0x2
 1172 0042 04       		.byte	0x4
 1173 0043 05       		.byte	0x5
 1174 0044 DD050000 		.4byte	.LASF4
 1175 0048 02       		.uleb128 0x2
 1176 0049 04       		.byte	0x4
 1177 004a 07       		.byte	0x7
 1178 004b F6100000 		.4byte	.LASF5
 1179 004f 02       		.uleb128 0x2
ARM GAS  C:\Users\Intern\AppData\Local\Temp\cc8xw9iJ.s 			page 60


 1180 0050 08       		.byte	0x8
 1181 0051 05       		.byte	0x5
 1182 0052 00140000 		.4byte	.LASF6
 1183 0056 02       		.uleb128 0x2
 1184 0057 08       		.byte	0x8
 1185 0058 07       		.byte	0x7
 1186 0059 961B0000 		.4byte	.LASF7
 1187 005d 03       		.uleb128 0x3
 1188 005e 04       		.byte	0x4
 1189 005f 05       		.byte	0x5
 1190 0060 696E7400 		.ascii	"int\000"
 1191 0064 02       		.uleb128 0x2
 1192 0065 04       		.byte	0x4
 1193 0066 07       		.byte	0x7
 1194 0067 DC160000 		.4byte	.LASF8
 1195 006b 04       		.uleb128 0x4
 1196 006c B11E0000 		.4byte	.LASF9
 1197 0070 02       		.byte	0x2
 1198 0071 D201     		.2byte	0x1d2
 1199 0073 2C000000 		.4byte	0x2c
 1200 0077 04       		.uleb128 0x4
 1201 0078 32250000 		.4byte	.LASF10
 1202 007c 02       		.byte	0x2
 1203 007d D301     		.2byte	0x1d3
 1204 007f 3A000000 		.4byte	0x3a
 1205 0083 04       		.uleb128 0x4
 1206 0084 61010000 		.4byte	.LASF11
 1207 0088 02       		.byte	0x2
 1208 0089 D401     		.2byte	0x1d4
 1209 008b 48000000 		.4byte	0x48
 1210 008f 02       		.uleb128 0x2
 1211 0090 04       		.byte	0x4
 1212 0091 04       		.byte	0x4
 1213 0092 26160000 		.4byte	.LASF12
 1214 0096 02       		.uleb128 0x2
 1215 0097 08       		.byte	0x8
 1216 0098 04       		.byte	0x4
 1217 0099 CB140000 		.4byte	.LASF13
 1218 009d 02       		.uleb128 0x2
 1219 009e 01       		.byte	0x1
 1220 009f 08       		.byte	0x8
 1221 00a0 A40A0000 		.4byte	.LASF14
 1222 00a4 05       		.uleb128 0x5
 1223 00a5 6B000000 		.4byte	0x6b
 1224 00a9 02       		.uleb128 0x2
 1225 00aa 08       		.byte	0x8
 1226 00ab 04       		.byte	0x4
 1227 00ac DE190000 		.4byte	.LASF15
 1228 00b0 02       		.uleb128 0x2
 1229 00b1 04       		.byte	0x4
 1230 00b2 07       		.byte	0x7
 1231 00b3 30000000 		.4byte	.LASF16
 1232 00b7 06       		.uleb128 0x6
 1233 00b8 04       		.byte	0x4
 1234 00b9 07       		.uleb128 0x7
 1235 00ba 04       		.byte	0x4
 1236 00bb BF000000 		.4byte	0xbf
ARM GAS  C:\Users\Intern\AppData\Local\Temp\cc8xw9iJ.s 			page 61


 1237 00bf 08       		.uleb128 0x8
 1238 00c0 CF000000 		.4byte	0xcf
 1239 00c4 09       		.uleb128 0x9
 1240 00c5 83000000 		.4byte	0x83
 1241 00c9 09       		.uleb128 0x9
 1242 00ca B7000000 		.4byte	0xb7
 1243 00ce 00       		.byte	0
 1244 00cf 0A       		.uleb128 0xa
 1245 00d0 01       		.byte	0x1
 1246 00d1 2C000000 		.4byte	0x2c
 1247 00d5 03       		.byte	0x3
 1248 00d6 4D01     		.2byte	0x14d
 1249 00d8 8D020000 		.4byte	0x28d
 1250 00dc 0B       		.uleb128 0xb
 1251 00dd 2C0B0000 		.4byte	.LASF17
 1252 00e1 00       		.byte	0
 1253 00e2 0B       		.uleb128 0xb
 1254 00e3 76060000 		.4byte	.LASF18
 1255 00e7 01       		.byte	0x1
 1256 00e8 0B       		.uleb128 0xb
 1257 00e9 CB1B0000 		.4byte	.LASF19
 1258 00ed 02       		.byte	0x2
 1259 00ee 0B       		.uleb128 0xb
 1260 00ef 64080000 		.4byte	.LASF20
 1261 00f3 03       		.byte	0x3
 1262 00f4 0B       		.uleb128 0xb
 1263 00f5 55240000 		.4byte	.LASF21
 1264 00f9 04       		.byte	0x4
 1265 00fa 0B       		.uleb128 0xb
 1266 00fb 3E220000 		.4byte	.LASF22
 1267 00ff 05       		.byte	0x5
 1268 0100 0B       		.uleb128 0xb
 1269 0101 271A0000 		.4byte	.LASF23
 1270 0105 06       		.byte	0x6
 1271 0106 0B       		.uleb128 0xb
 1272 0107 52200000 		.4byte	.LASF24
 1273 010b 20       		.byte	0x20
 1274 010c 0B       		.uleb128 0xb
 1275 010d F8030000 		.4byte	.LASF25
 1276 0111 21       		.byte	0x21
 1277 0112 0B       		.uleb128 0xb
 1278 0113 4C130000 		.4byte	.LASF26
 1279 0117 22       		.byte	0x22
 1280 0118 0B       		.uleb128 0xb
 1281 0119 C4180000 		.4byte	.LASF27
 1282 011d 23       		.byte	0x23
 1283 011e 0B       		.uleb128 0xb
 1284 011f 23100000 		.4byte	.LASF28
 1285 0123 24       		.byte	0x24
 1286 0124 0B       		.uleb128 0xb
 1287 0125 3F100000 		.4byte	.LASF29
 1288 0129 25       		.byte	0x25
 1289 012a 0B       		.uleb128 0xb
 1290 012b 891E0000 		.4byte	.LASF30
 1291 012f 26       		.byte	0x26
 1292 0130 0B       		.uleb128 0xb
 1293 0131 E3000000 		.4byte	.LASF31
ARM GAS  C:\Users\Intern\AppData\Local\Temp\cc8xw9iJ.s 			page 62


 1294 0135 27       		.byte	0x27
 1295 0136 0B       		.uleb128 0xb
 1296 0137 EF240000 		.4byte	.LASF32
 1297 013b 28       		.byte	0x28
 1298 013c 0B       		.uleb128 0xb
 1299 013d 6F1A0000 		.4byte	.LASF33
 1300 0141 29       		.byte	0x29
 1301 0142 0B       		.uleb128 0xb
 1302 0143 A3120000 		.4byte	.LASF34
 1303 0147 2A       		.byte	0x2a
 1304 0148 0B       		.uleb128 0xb
 1305 0149 39180000 		.4byte	.LASF35
 1306 014d 2B       		.byte	0x2b
 1307 014e 0B       		.uleb128 0xb
 1308 014f B3220000 		.4byte	.LASF36
 1309 0153 2C       		.byte	0x2c
 1310 0154 0B       		.uleb128 0xb
 1311 0155 5E000000 		.4byte	.LASF37
 1312 0159 2D       		.byte	0x2d
 1313 015a 0B       		.uleb128 0xb
 1314 015b C61E0000 		.4byte	.LASF38
 1315 015f 2E       		.byte	0x2e
 1316 0160 0B       		.uleb128 0xb
 1317 0161 C1040000 		.4byte	.LASF39
 1318 0165 2F       		.byte	0x2f
 1319 0166 0B       		.uleb128 0xb
 1320 0167 830A0000 		.4byte	.LASF40
 1321 016b 30       		.byte	0x30
 1322 016c 0B       		.uleb128 0xb
 1323 016d A8150000 		.4byte	.LASF41
 1324 0171 31       		.byte	0x31
 1325 0172 0B       		.uleb128 0xb
 1326 0173 7C0B0000 		.4byte	.LASF42
 1327 0177 32       		.byte	0x32
 1328 0178 0B       		.uleb128 0xb
 1329 0179 BD090000 		.4byte	.LASF43
 1330 017d 33       		.byte	0x33
 1331 017e 0B       		.uleb128 0xb
 1332 017f E4090000 		.4byte	.LASF44
 1333 0183 34       		.byte	0x34
 1334 0184 0B       		.uleb128 0xb
 1335 0185 FA200000 		.4byte	.LASF45
 1336 0189 35       		.byte	0x35
 1337 018a 0B       		.uleb128 0xb
 1338 018b 60040000 		.4byte	.LASF46
 1339 018f 36       		.byte	0x36
 1340 0190 0B       		.uleb128 0xb
 1341 0191 FB1A0000 		.4byte	.LASF47
 1342 0195 37       		.byte	0x37
 1343 0196 0B       		.uleb128 0xb
 1344 0197 CC1F0000 		.4byte	.LASF48
 1345 019b 40       		.byte	0x40
 1346 019c 0B       		.uleb128 0xb
 1347 019d 23010000 		.4byte	.LASF49
 1348 01a1 41       		.byte	0x41
 1349 01a2 0B       		.uleb128 0xb
 1350 01a3 6A240000 		.4byte	.LASF50
ARM GAS  C:\Users\Intern\AppData\Local\Temp\cc8xw9iJ.s 			page 63


 1351 01a7 42       		.byte	0x42
 1352 01a8 0B       		.uleb128 0xb
 1353 01a9 981A0000 		.4byte	.LASF51
 1354 01ad 43       		.byte	0x43
 1355 01ae 0B       		.uleb128 0xb
 1356 01af 83090000 		.4byte	.LASF52
 1357 01b3 44       		.byte	0x44
 1358 01b4 0B       		.uleb128 0xb
 1359 01b5 E5080000 		.4byte	.LASF53
 1360 01b9 45       		.byte	0x45
 1361 01ba 0B       		.uleb128 0xb
 1362 01bb DA1D0000 		.4byte	.LASF54
 1363 01bf 46       		.byte	0x46
 1364 01c0 0B       		.uleb128 0xb
 1365 01c1 BC1D0000 		.4byte	.LASF55
 1366 01c5 47       		.byte	0x47
 1367 01c6 0B       		.uleb128 0xb
 1368 01c7 5C0A0000 		.4byte	.LASF56
 1369 01cb 48       		.byte	0x48
 1370 01cc 0B       		.uleb128 0xb
 1371 01cd 39190000 		.4byte	.LASF57
 1372 01d1 49       		.byte	0x49
 1373 01d2 0B       		.uleb128 0xb
 1374 01d3 D30B0000 		.4byte	.LASF58
 1375 01d7 4A       		.byte	0x4a
 1376 01d8 0B       		.uleb128 0xb
 1377 01d9 D90A0000 		.4byte	.LASF59
 1378 01dd 4B       		.byte	0x4b
 1379 01de 0B       		.uleb128 0xb
 1380 01df 92180000 		.4byte	.LASF60
 1381 01e3 4C       		.byte	0x4c
 1382 01e4 0B       		.uleb128 0xb
 1383 01e5 4F1E0000 		.4byte	.LASF61
 1384 01e9 4D       		.byte	0x4d
 1385 01ea 0B       		.uleb128 0xb
 1386 01eb 9C050000 		.4byte	.LASF62
 1387 01ef 4E       		.byte	0x4e
 1388 01f0 0B       		.uleb128 0xb
 1389 01f1 E9160000 		.4byte	.LASF63
 1390 01f5 4F       		.byte	0x4f
 1391 01f6 0B       		.uleb128 0xb
 1392 01f7 33200000 		.4byte	.LASF64
 1393 01fb 50       		.byte	0x50
 1394 01fc 0B       		.uleb128 0xb
 1395 01fd 160C0000 		.4byte	.LASF65
 1396 0201 51       		.byte	0x51
 1397 0202 0B       		.uleb128 0xb
 1398 0203 D7030000 		.4byte	.LASF66
 1399 0207 52       		.byte	0x52
 1400 0208 0B       		.uleb128 0xb
 1401 0209 FC210000 		.4byte	.LASF67
 1402 020d 53       		.byte	0x53
 1403 020e 0B       		.uleb128 0xb
 1404 020f 11250000 		.4byte	.LASF68
 1405 0213 54       		.byte	0x54
 1406 0214 0B       		.uleb128 0xb
 1407 0215 71020000 		.4byte	.LASF69
ARM GAS  C:\Users\Intern\AppData\Local\Temp\cc8xw9iJ.s 			page 64


 1408 0219 55       		.byte	0x55
 1409 021a 0B       		.uleb128 0xb
 1410 021b BD0C0000 		.4byte	.LASF70
 1411 021f 56       		.byte	0x56
 1412 0220 0B       		.uleb128 0xb
 1413 0221 51160000 		.4byte	.LASF71
 1414 0225 57       		.byte	0x57
 1415 0226 0B       		.uleb128 0xb
 1416 0227 CC240000 		.4byte	.LASF72
 1417 022b 58       		.byte	0x58
 1418 022c 0B       		.uleb128 0xb
 1419 022d 21230000 		.4byte	.LASF73
 1420 0231 70       		.byte	0x70
 1421 0232 0B       		.uleb128 0xb
 1422 0233 B80E0000 		.4byte	.LASF74
 1423 0237 71       		.byte	0x71
 1424 0238 0B       		.uleb128 0xb
 1425 0239 8F070000 		.4byte	.LASF75
 1426 023d 72       		.byte	0x72
 1427 023e 0B       		.uleb128 0xb
 1428 023f 15200000 		.4byte	.LASF76
 1429 0243 73       		.byte	0x73
 1430 0244 0B       		.uleb128 0xb
 1431 0245 8C190000 		.4byte	.LASF77
 1432 0249 74       		.byte	0x74
 1433 024a 0B       		.uleb128 0xb
 1434 024b 2B130000 		.4byte	.LASF78
 1435 024f 75       		.byte	0x75
 1436 0250 0B       		.uleb128 0xb
 1437 0251 3B0A0000 		.4byte	.LASF79
 1438 0255 76       		.byte	0x76
 1439 0256 0B       		.uleb128 0xb
 1440 0257 3E1C0000 		.4byte	.LASF80
 1441 025b 77       		.byte	0x77
 1442 025c 0B       		.uleb128 0xb
 1443 025d 95020000 		.4byte	.LASF81
 1444 0261 78       		.byte	0x78
 1445 0262 0B       		.uleb128 0xb
 1446 0263 BA050000 		.4byte	.LASF82
 1447 0267 79       		.byte	0x79
 1448 0268 0B       		.uleb128 0xb
 1449 0269 A8240000 		.4byte	.LASF83
 1450 026d 7A       		.byte	0x7a
 1451 026e 0B       		.uleb128 0xb
 1452 026f 0A150000 		.4byte	.LASF84
 1453 0273 FA       		.byte	0xfa
 1454 0274 0B       		.uleb128 0xb
 1455 0275 CA210000 		.4byte	.LASF85
 1456 0279 FB       		.byte	0xfb
 1457 027a 0B       		.uleb128 0xb
 1458 027b 050F0000 		.4byte	.LASF86
 1459 027f FC       		.byte	0xfc
 1460 0280 0B       		.uleb128 0xb
 1461 0281 C6190000 		.4byte	.LASF87
 1462 0285 FD       		.byte	0xfd
 1463 0286 0B       		.uleb128 0xb
 1464 0287 2B180000 		.4byte	.LASF88
ARM GAS  C:\Users\Intern\AppData\Local\Temp\cc8xw9iJ.s 			page 65


 1465 028b FF       		.byte	0xff
 1466 028c 00       		.byte	0
 1467 028d 0A       		.uleb128 0xa
 1468 028e 02       		.byte	0x2
 1469 028f 3A000000 		.4byte	0x3a
 1470 0293 03       		.byte	0x3
 1471 0294 0204     		.2byte	0x402
 1472 0296 66030000 		.4byte	0x366
 1473 029a 0B       		.uleb128 0xb
 1474 029b 90080000 		.4byte	.LASF89
 1475 029f 00       		.byte	0
 1476 02a0 0B       		.uleb128 0xb
 1477 02a1 790D0000 		.4byte	.LASF90
 1478 02a5 01       		.byte	0x1
 1479 02a6 0B       		.uleb128 0xb
 1480 02a7 37240000 		.4byte	.LASF91
 1481 02ab 02       		.byte	0x2
 1482 02ac 0B       		.uleb128 0xb
 1483 02ad EF0D0000 		.4byte	.LASF92
 1484 02b1 03       		.byte	0x3
 1485 02b2 0B       		.uleb128 0xb
 1486 02b3 97100000 		.4byte	.LASF93
 1487 02b7 04       		.byte	0x4
 1488 02b8 0B       		.uleb128 0xb
 1489 02b9 AD140000 		.4byte	.LASF94
 1490 02bd 05       		.byte	0x5
 1491 02be 0B       		.uleb128 0xb
 1492 02bf 84210000 		.4byte	.LASF95
 1493 02c3 06       		.byte	0x6
 1494 02c4 0B       		.uleb128 0xb
 1495 02c5 B60B0000 		.4byte	.LASF96
 1496 02c9 07       		.byte	0x7
 1497 02ca 0B       		.uleb128 0xb
 1498 02cb F0150000 		.4byte	.LASF97
 1499 02cf 08       		.byte	0x8
 1500 02d0 0B       		.uleb128 0xb
 1501 02d1 B2200000 		.4byte	.LASF98
 1502 02d5 09       		.byte	0x9
 1503 02d6 0B       		.uleb128 0xb
 1504 02d7 39250000 		.4byte	.LASF99
 1505 02db 0A       		.byte	0xa
 1506 02dc 0B       		.uleb128 0xb
 1507 02dd 23040000 		.4byte	.LASF100
 1508 02e1 0B       		.byte	0xb
 1509 02e2 0B       		.uleb128 0xb
 1510 02e3 27220000 		.4byte	.LASF101
 1511 02e7 0C       		.byte	0xc
 1512 02e8 0B       		.uleb128 0xb
 1513 02e9 B5170000 		.4byte	.LASF102
 1514 02ed 0D       		.byte	0xd
 1515 02ee 0B       		.uleb128 0xb
 1516 02ef FE110000 		.4byte	.LASF103
 1517 02f3 0E       		.byte	0xe
 1518 02f4 0B       		.uleb128 0xb
 1519 02f5 88140000 		.4byte	.LASF104
 1520 02f9 0F       		.byte	0xf
 1521 02fa 0B       		.uleb128 0xb
ARM GAS  C:\Users\Intern\AppData\Local\Temp\cc8xw9iJ.s 			page 66


 1522 02fb 27020000 		.4byte	.LASF105
 1523 02ff 10       		.byte	0x10
 1524 0300 0B       		.uleb128 0xb
 1525 0301 CC150000 		.4byte	.LASF106
 1526 0305 11       		.byte	0x11
 1527 0306 0B       		.uleb128 0xb
 1528 0307 89060000 		.4byte	.LASF107
 1529 030b 12       		.byte	0x12
 1530 030c 0B       		.uleb128 0xb
 1531 030d FB070000 		.4byte	.LASF108
 1532 0311 13       		.byte	0x13
 1533 0312 0B       		.uleb128 0xb
 1534 0313 D2140000 		.4byte	.LASF109
 1535 0317 27       		.byte	0x27
 1536 0318 0B       		.uleb128 0xb
 1537 0319 2C160000 		.4byte	.LASF110
 1538 031d 28       		.byte	0x28
 1539 031e 0B       		.uleb128 0xb
 1540 031f 55020000 		.4byte	.LASF111
 1541 0323 29       		.byte	0x29
 1542 0324 0B       		.uleb128 0xb
 1543 0325 3C1F0000 		.4byte	.LASF112
 1544 0329 2A       		.byte	0x2a
 1545 032a 0B       		.uleb128 0xb
 1546 032b 3E110000 		.4byte	.LASF113
 1547 032f 2B       		.byte	0x2b
 1548 0330 0B       		.uleb128 0xb
 1549 0331 B31C0000 		.4byte	.LASF114
 1550 0335 2C       		.byte	0x2c
 1551 0336 0B       		.uleb128 0xb
 1552 0337 5D0D0000 		.4byte	.LASF115
 1553 033b FE       		.byte	0xfe
 1554 033c 0B       		.uleb128 0xb
 1555 033d A80E0000 		.4byte	.LASF116
 1556 0341 FF       		.byte	0xff
 1557 0342 0C       		.uleb128 0xc
 1558 0343 03190000 		.4byte	.LASF117
 1559 0347 0001     		.2byte	0x100
 1560 0349 0C       		.uleb128 0xc
 1561 034a EA180000 		.4byte	.LASF118
 1562 034e 0101     		.2byte	0x101
 1563 0350 0C       		.uleb128 0xc
 1564 0351 43070000 		.4byte	.LASF119
 1565 0355 0201     		.2byte	0x102
 1566 0357 0C       		.uleb128 0xc
 1567 0358 F81B0000 		.4byte	.LASF120
 1568 035c 0301     		.2byte	0x103
 1569 035e 0C       		.uleb128 0xc
 1570 035f 63100000 		.4byte	.LASF121
 1571 0363 0401     		.2byte	0x104
 1572 0365 00       		.byte	0
 1573 0366 04       		.uleb128 0x4
 1574 0367 E9210000 		.4byte	.LASF122
 1575 036b 03       		.byte	0x3
 1576 036c 7104     		.2byte	0x471
 1577 036e 8D020000 		.4byte	0x28d
 1578 0372 0A       		.uleb128 0xa
ARM GAS  C:\Users\Intern\AppData\Local\Temp\cc8xw9iJ.s 			page 67


 1579 0373 01       		.byte	0x1
 1580 0374 2C000000 		.4byte	0x2c
 1581 0378 03       		.byte	0x3
 1582 0379 AA04     		.2byte	0x4aa
 1583 037b B6030000 		.4byte	0x3b6
 1584 037f 0B       		.uleb128 0xb
 1585 0380 2F080000 		.4byte	.LASF123
 1586 0384 01       		.byte	0x1
 1587 0385 0B       		.uleb128 0xb
 1588 0386 67050000 		.4byte	.LASF124
 1589 038a 02       		.byte	0x2
 1590 038b 0B       		.uleb128 0xb
 1591 038c 0C1A0000 		.4byte	.LASF125
 1592 0390 03       		.byte	0x3
 1593 0391 0B       		.uleb128 0xb
 1594 0392 81040000 		.4byte	.LASF126
 1595 0396 04       		.byte	0x4
 1596 0397 0B       		.uleb128 0xb
 1597 0398 A90A0000 		.4byte	.LASF127
 1598 039c 05       		.byte	0x5
 1599 039d 0B       		.uleb128 0xb
 1600 039e 23110000 		.4byte	.LASF128
 1601 03a2 06       		.byte	0x6
 1602 03a3 0B       		.uleb128 0xb
 1603 03a4 9E210000 		.4byte	.LASF129
 1604 03a8 07       		.byte	0x7
 1605 03a9 0B       		.uleb128 0xb
 1606 03aa DF100000 		.4byte	.LASF130
 1607 03ae 08       		.byte	0x8
 1608 03af 0B       		.uleb128 0xb
 1609 03b0 51150000 		.4byte	.LASF131
 1610 03b4 09       		.byte	0x9
 1611 03b5 00       		.byte	0
 1612 03b6 04       		.uleb128 0x4
 1613 03b7 98130000 		.4byte	.LASF132
 1614 03bb 03       		.byte	0x3
 1615 03bc C104     		.2byte	0x4c1
 1616 03be 72030000 		.4byte	0x372
 1617 03c2 0A       		.uleb128 0xa
 1618 03c3 01       		.byte	0x1
 1619 03c4 2C000000 		.4byte	0x2c
 1620 03c8 03       		.byte	0x3
 1621 03c9 C504     		.2byte	0x4c5
 1622 03cb E2030000 		.4byte	0x3e2
 1623 03cf 0B       		.uleb128 0xb
 1624 03d0 B5210000 		.4byte	.LASF133
 1625 03d4 00       		.byte	0
 1626 03d5 0B       		.uleb128 0xb
 1627 03d6 67170000 		.4byte	.LASF134
 1628 03da 01       		.byte	0x1
 1629 03db 0B       		.uleb128 0xb
 1630 03dc 0C230000 		.4byte	.LASF135
 1631 03e0 02       		.byte	0x2
 1632 03e1 00       		.byte	0
 1633 03e2 04       		.uleb128 0x4
 1634 03e3 9F080000 		.4byte	.LASF136
 1635 03e7 03       		.byte	0x3
ARM GAS  C:\Users\Intern\AppData\Local\Temp\cc8xw9iJ.s 			page 68


 1636 03e8 CC04     		.2byte	0x4cc
 1637 03ea C2030000 		.4byte	0x3c2
 1638 03ee 0D       		.uleb128 0xd
 1639 03ef 02       		.byte	0x2
 1640 03f0 03       		.byte	0x3
 1641 03f1 CF04     		.2byte	0x4cf
 1642 03f3 12040000 		.4byte	0x412
 1643 03f7 0E       		.uleb128 0xe
 1644 03f8 7D010000 		.4byte	.LASF137
 1645 03fc 03       		.byte	0x3
 1646 03fd D204     		.2byte	0x4d2
 1647 03ff B6030000 		.4byte	0x3b6
 1648 0403 00       		.byte	0
 1649 0404 0E       		.uleb128 0xe
 1650 0405 85070000 		.4byte	.LASF138
 1651 0409 03       		.byte	0x3
 1652 040a D404     		.2byte	0x4d4
 1653 040c E2030000 		.4byte	0x3e2
 1654 0410 01       		.byte	0x1
 1655 0411 00       		.byte	0
 1656 0412 04       		.uleb128 0x4
 1657 0413 F4220000 		.4byte	.LASF139
 1658 0417 03       		.byte	0x3
 1659 0418 D504     		.2byte	0x4d5
 1660 041a EE030000 		.4byte	0x3ee
 1661 041e 0A       		.uleb128 0xa
 1662 041f 01       		.byte	0x1
 1663 0420 2C000000 		.4byte	0x2c
 1664 0424 03       		.byte	0x3
 1665 0425 FF04     		.2byte	0x4ff
 1666 0427 38040000 		.4byte	0x438
 1667 042b 0B       		.uleb128 0xb
 1668 042c 301B0000 		.4byte	.LASF140
 1669 0430 00       		.byte	0
 1670 0431 0B       		.uleb128 0xb
 1671 0432 71110000 		.4byte	.LASF141
 1672 0436 01       		.byte	0x1
 1673 0437 00       		.byte	0
 1674 0438 04       		.uleb128 0x4
 1675 0439 47230000 		.4byte	.LASF142
 1676 043d 03       		.byte	0x3
 1677 043e 0605     		.2byte	0x506
 1678 0440 1E040000 		.4byte	0x41e
 1679 0444 0D       		.uleb128 0xd
 1680 0445 08       		.byte	0x8
 1681 0446 03       		.byte	0x3
 1682 0447 0905     		.2byte	0x509
 1683 0449 75040000 		.4byte	0x475
 1684 044d 0E       		.uleb128 0xe
 1685 044e A7000000 		.4byte	.LASF143
 1686 0452 03       		.byte	0x3
 1687 0453 0C05     		.2byte	0x50c
 1688 0455 38040000 		.4byte	0x438
 1689 0459 00       		.byte	0
 1690 045a 0E       		.uleb128 0xe
 1691 045b 59100000 		.4byte	.LASF144
 1692 045f 03       		.byte	0x3
ARM GAS  C:\Users\Intern\AppData\Local\Temp\cc8xw9iJ.s 			page 69


 1693 0460 1105     		.2byte	0x511
 1694 0462 6B000000 		.4byte	0x6b
 1695 0466 01       		.byte	0x1
 1696 0467 0E       		.uleb128 0xe
 1697 0468 2E0A0000 		.4byte	.LASF145
 1698 046c 03       		.byte	0x3
 1699 046d 1905     		.2byte	0x519
 1700 046f B7000000 		.4byte	0xb7
 1701 0473 04       		.byte	0x4
 1702 0474 00       		.byte	0
 1703 0475 04       		.uleb128 0x4
 1704 0476 40140000 		.4byte	.LASF146
 1705 047a 03       		.byte	0x3
 1706 047b 1B05     		.2byte	0x51b
 1707 047d 44040000 		.4byte	0x444
 1708 0481 0D       		.uleb128 0xd
 1709 0482 07       		.byte	0x7
 1710 0483 03       		.byte	0x3
 1711 0484 3F05     		.2byte	0x53f
 1712 0486 A5040000 		.4byte	0x4a5
 1713 048a 0E       		.uleb128 0xe
 1714 048b 37210000 		.4byte	.LASF147
 1715 048f 03       		.byte	0x3
 1716 0490 4205     		.2byte	0x542
 1717 0492 A5040000 		.4byte	0x4a5
 1718 0496 00       		.byte	0
 1719 0497 0E       		.uleb128 0xe
 1720 0498 EF020000 		.4byte	.LASF148
 1721 049c 03       		.byte	0x3
 1722 049d 4405     		.2byte	0x544
 1723 049f 6B000000 		.4byte	0x6b
 1724 04a3 06       		.byte	0x6
 1725 04a4 00       		.byte	0
 1726 04a5 0F       		.uleb128 0xf
 1727 04a6 6B000000 		.4byte	0x6b
 1728 04aa B5040000 		.4byte	0x4b5
 1729 04ae 10       		.uleb128 0x10
 1730 04af B0000000 		.4byte	0xb0
 1731 04b3 05       		.byte	0x5
 1732 04b4 00       		.byte	0
 1733 04b5 04       		.uleb128 0x4
 1734 04b6 0A1D0000 		.4byte	.LASF149
 1735 04ba 03       		.byte	0x3
 1736 04bb 4505     		.2byte	0x545
 1737 04bd 81040000 		.4byte	0x481
 1738 04c1 07       		.uleb128 0x7
 1739 04c2 04       		.byte	0x4
 1740 04c3 6B000000 		.4byte	0x6b
 1741 04c7 11       		.uleb128 0x11
 1742 04c8 01       		.byte	0x1
 1743 04c9 2C000000 		.4byte	0x2c
 1744 04cd 04       		.byte	0x4
 1745 04ce 2F       		.byte	0x2f
 1746 04cf EC040000 		.4byte	0x4ec
 1747 04d3 0B       		.uleb128 0xb
 1748 04d4 371D0000 		.4byte	.LASF150
 1749 04d8 01       		.byte	0x1
ARM GAS  C:\Users\Intern\AppData\Local\Temp\cc8xw9iJ.s 			page 70


 1750 04d9 0B       		.uleb128 0xb
 1751 04da CB1C0000 		.4byte	.LASF151
 1752 04de 02       		.byte	0x2
 1753 04df 0B       		.uleb128 0xb
 1754 04e0 96240000 		.4byte	.LASF152
 1755 04e4 03       		.byte	0x3
 1756 04e5 0B       		.uleb128 0xb
 1757 04e6 AB1D0000 		.4byte	.LASF153
 1758 04ea 04       		.byte	0x4
 1759 04eb 00       		.byte	0
 1760 04ec 12       		.uleb128 0x12
 1761 04ed F4020000 		.4byte	.LASF154
 1762 04f1 04       		.byte	0x4
 1763 04f2 3C       		.byte	0x3c
 1764 04f3 C7040000 		.4byte	0x4c7
 1765 04f7 0A       		.uleb128 0xa
 1766 04f8 01       		.byte	0x1
 1767 04f9 2C000000 		.4byte	0x2c
 1768 04fd 05       		.byte	0x5
 1769 04fe 0801     		.2byte	0x108
 1770 0500 23050000 		.4byte	0x523
 1771 0504 0B       		.uleb128 0xb
 1772 0505 FC050000 		.4byte	.LASF155
 1773 0509 00       		.byte	0
 1774 050a 0B       		.uleb128 0xb
 1775 050b 12060000 		.4byte	.LASF156
 1776 050f 01       		.byte	0x1
 1777 0510 0B       		.uleb128 0xb
 1778 0511 28060000 		.4byte	.LASF157
 1779 0515 02       		.byte	0x2
 1780 0516 0B       		.uleb128 0xb
 1781 0517 3E060000 		.4byte	.LASF158
 1782 051b 03       		.byte	0x3
 1783 051c 0B       		.uleb128 0xb
 1784 051d 8D0C0000 		.4byte	.LASF159
 1785 0521 0F       		.byte	0xf
 1786 0522 00       		.byte	0
 1787 0523 0A       		.uleb128 0xa
 1788 0524 01       		.byte	0x1
 1789 0525 2C000000 		.4byte	0x2c
 1790 0529 05       		.byte	0x5
 1791 052a 2701     		.2byte	0x127
 1792 052c 4F050000 		.4byte	0x54f
 1793 0530 0B       		.uleb128 0xb
 1794 0531 43040000 		.4byte	.LASF160
 1795 0535 00       		.byte	0
 1796 0536 0B       		.uleb128 0xb
 1797 0537 95220000 		.4byte	.LASF161
 1798 053b 01       		.byte	0x1
 1799 053c 0B       		.uleb128 0xb
 1800 053d 0E0B0000 		.4byte	.LASF162
 1801 0541 02       		.byte	0x2
 1802 0542 0B       		.uleb128 0xb
 1803 0543 02010000 		.4byte	.LASF163
 1804 0547 03       		.byte	0x3
 1805 0548 0B       		.uleb128 0xb
 1806 0549 E61F0000 		.4byte	.LASF164
ARM GAS  C:\Users\Intern\AppData\Local\Temp\cc8xw9iJ.s 			page 71


 1807 054d 04       		.byte	0x4
 1808 054e 00       		.byte	0
 1809 054f 0A       		.uleb128 0xa
 1810 0550 01       		.byte	0x1
 1811 0551 2C000000 		.4byte	0x2c
 1812 0555 05       		.byte	0x5
 1813 0556 3D01     		.2byte	0x13d
 1814 0558 C9050000 		.4byte	0x5c9
 1815 055c 0B       		.uleb128 0xb
 1816 055d 551A0000 		.4byte	.LASF165
 1817 0561 00       		.byte	0
 1818 0562 0B       		.uleb128 0xb
 1819 0563 19050000 		.4byte	.LASF166
 1820 0567 01       		.byte	0x1
 1821 0568 0B       		.uleb128 0xb
 1822 0569 CF1A0000 		.4byte	.LASF167
 1823 056d 02       		.byte	0x2
 1824 056e 0B       		.uleb128 0xb
 1825 056f B2110000 		.4byte	.LASF168
 1826 0573 03       		.byte	0x3
 1827 0574 0B       		.uleb128 0xb
 1828 0575 16070000 		.4byte	.LASF169
 1829 0579 04       		.byte	0x4
 1830 057a 0B       		.uleb128 0xb
 1831 057b 801D0000 		.4byte	.LASF170
 1832 057f 05       		.byte	0x5
 1833 0580 0B       		.uleb128 0xb
 1834 0581 CA130000 		.4byte	.LASF171
 1835 0585 06       		.byte	0x6
 1836 0586 0B       		.uleb128 0xb
 1837 0587 87110000 		.4byte	.LASF172
 1838 058b 07       		.byte	0x7
 1839 058c 0B       		.uleb128 0xb
 1840 058d 6B030000 		.4byte	.LASF173
 1841 0591 08       		.byte	0x8
 1842 0592 0B       		.uleb128 0xb
 1843 0593 04130000 		.4byte	.LASF174
 1844 0597 09       		.byte	0x9
 1845 0598 0B       		.uleb128 0xb
 1846 0599 060A0000 		.4byte	.LASF175
 1847 059d 0A       		.byte	0xa
 1848 059e 0B       		.uleb128 0xb
 1849 059f 70130000 		.4byte	.LASF176
 1850 05a3 0B       		.byte	0xb
 1851 05a4 0B       		.uleb128 0xb
 1852 05a5 66220000 		.4byte	.LASF177
 1853 05a9 0C       		.byte	0xc
 1854 05aa 0B       		.uleb128 0xb
 1855 05ab BF0D0000 		.4byte	.LASF178
 1856 05af 0D       		.byte	0xd
 1857 05b0 0B       		.uleb128 0xb
 1858 05b1 0C090000 		.4byte	.LASF179
 1859 05b5 0E       		.byte	0xe
 1860 05b6 0B       		.uleb128 0xb
 1861 05b7 AF000000 		.4byte	.LASF180
 1862 05bb 0F       		.byte	0xf
 1863 05bc 0B       		.uleb128 0xb
ARM GAS  C:\Users\Intern\AppData\Local\Temp\cc8xw9iJ.s 			page 72


 1864 05bd 3F030000 		.4byte	.LASF181
 1865 05c1 15       		.byte	0x15
 1866 05c2 0B       		.uleb128 0xb
 1867 05c3 DE0E0000 		.4byte	.LASF182
 1868 05c7 18       		.byte	0x18
 1869 05c8 00       		.byte	0
 1870 05c9 04       		.uleb128 0x4
 1871 05ca 73180000 		.4byte	.LASF183
 1872 05ce 05       		.byte	0x5
 1873 05cf 7D01     		.2byte	0x17d
 1874 05d1 4F050000 		.4byte	0x54f
 1875 05d5 0D       		.uleb128 0xd
 1876 05d6 05       		.byte	0x5
 1877 05d7 05       		.byte	0x5
 1878 05d8 C601     		.2byte	0x1c6
 1879 05da 20060000 		.4byte	0x620
 1880 05de 0E       		.uleb128 0xe
 1881 05df 57140000 		.4byte	.LASF184
 1882 05e3 05       		.byte	0x5
 1883 05e4 D001     		.2byte	0x1d0
 1884 05e6 6B000000 		.4byte	0x6b
 1885 05ea 00       		.byte	0
 1886 05eb 0E       		.uleb128 0xe
 1887 05ec B6160000 		.4byte	.LASF185
 1888 05f0 05       		.byte	0x5
 1889 05f1 D601     		.2byte	0x1d6
 1890 05f3 6B000000 		.4byte	0x6b
 1891 05f7 01       		.byte	0x1
 1892 05f8 0E       		.uleb128 0xe
 1893 05f9 39000000 		.4byte	.LASF186
 1894 05fd 05       		.byte	0x5
 1895 05fe DD01     		.2byte	0x1dd
 1896 0600 6B000000 		.4byte	0x6b
 1897 0604 02       		.byte	0x2
 1898 0605 0E       		.uleb128 0xe
 1899 0606 341F0000 		.4byte	.LASF187
 1900 060a 05       		.byte	0x5
 1901 060b E101     		.2byte	0x1e1
 1902 060d C9050000 		.4byte	0x5c9
 1903 0611 03       		.byte	0x3
 1904 0612 0E       		.uleb128 0xe
 1905 0613 3D1E0000 		.4byte	.LASF188
 1906 0617 05       		.byte	0x5
 1907 0618 EB01     		.2byte	0x1eb
 1908 061a 6B000000 		.4byte	0x6b
 1909 061e 04       		.byte	0x4
 1910 061f 00       		.byte	0
 1911 0620 04       		.uleb128 0x4
 1912 0621 F80A0000 		.4byte	.LASF189
 1913 0625 05       		.byte	0x5
 1914 0626 ED01     		.2byte	0x1ed
 1915 0628 D5050000 		.4byte	0x5d5
 1916 062c 0D       		.uleb128 0xd
 1917 062d 08       		.byte	0x8
 1918 062e 05       		.byte	0x5
 1919 062f 7203     		.2byte	0x372
 1920 0631 6A060000 		.4byte	0x66a
ARM GAS  C:\Users\Intern\AppData\Local\Temp\cc8xw9iJ.s 			page 73


 1921 0635 0E       		.uleb128 0xe
 1922 0636 1C110000 		.4byte	.LASF190
 1923 063a 05       		.byte	0x5
 1924 063b 7803     		.2byte	0x378
 1925 063d 6B000000 		.4byte	0x6b
 1926 0641 00       		.byte	0
 1927 0642 0E       		.uleb128 0xe
 1928 0643 87230000 		.4byte	.LASF191
 1929 0647 05       		.byte	0x5
 1930 0648 7E03     		.2byte	0x37e
 1931 064a 77000000 		.4byte	0x77
 1932 064e 02       		.byte	0x2
 1933 064f 0E       		.uleb128 0xe
 1934 0650 5A220000 		.4byte	.LASF192
 1935 0654 05       		.byte	0x5
 1936 0655 8303     		.2byte	0x383
 1937 0657 77000000 		.4byte	0x77
 1938 065b 04       		.byte	0x4
 1939 065c 0E       		.uleb128 0xe
 1940 065d 88240000 		.4byte	.LASF193
 1941 0661 05       		.byte	0x5
 1942 0662 8903     		.2byte	0x389
 1943 0664 77000000 		.4byte	0x77
 1944 0668 06       		.byte	0x6
 1945 0669 00       		.byte	0
 1946 066a 04       		.uleb128 0x4
 1947 066b 4D1B0000 		.4byte	.LASF194
 1948 066f 05       		.byte	0x5
 1949 0670 8B03     		.2byte	0x38b
 1950 0672 2C060000 		.4byte	0x62c
 1951 0676 11       		.uleb128 0x11
 1952 0677 01       		.byte	0x1
 1953 0678 2C000000 		.4byte	0x2c
 1954 067c 06       		.byte	0x6
 1955 067d 49       		.byte	0x49
 1956 067e 31070000 		.4byte	0x731
 1957 0682 0B       		.uleb128 0xb
 1958 0683 480D0000 		.4byte	.LASF195
 1959 0687 01       		.byte	0x1
 1960 0688 0B       		.uleb128 0xb
 1961 0689 9D0B0000 		.4byte	.LASF196
 1962 068d 02       		.byte	0x2
 1963 068e 0B       		.uleb128 0xb
 1964 068f 83050000 		.4byte	.LASF197
 1965 0693 03       		.byte	0x3
 1966 0694 0B       		.uleb128 0xb
 1967 0695 4B080000 		.4byte	.LASF198
 1968 0699 04       		.byte	0x4
 1969 069a 0B       		.uleb128 0xb
 1970 069b B61A0000 		.4byte	.LASF199
 1971 069f 05       		.byte	0x5
 1972 06a0 0B       		.uleb128 0xb
 1973 06a1 EA190000 		.4byte	.LASF200
 1974 06a5 06       		.byte	0x6
 1975 06a6 0B       		.uleb128 0xb
 1976 06a7 54060000 		.4byte	.LASF201
 1977 06ab 07       		.byte	0x7
ARM GAS  C:\Users\Intern\AppData\Local\Temp\cc8xw9iJ.s 			page 74


 1978 06ac 0B       		.uleb128 0xb
 1979 06ad 70190000 		.4byte	.LASF202
 1980 06b1 08       		.byte	0x8
 1981 06b2 0B       		.uleb128 0xb
 1982 06b3 93030000 		.4byte	.LASF203
 1983 06b7 09       		.byte	0x9
 1984 06b8 0B       		.uleb128 0xb
 1985 06b9 08110000 		.4byte	.LASF204
 1986 06bd 0A       		.byte	0xa
 1987 06be 0B       		.uleb128 0xb
 1988 06bf 70210000 		.4byte	.LASF205
 1989 06c3 0B       		.byte	0xb
 1990 06c4 0B       		.uleb128 0xb
 1991 06c5 1E1D0000 		.4byte	.LASF206
 1992 06c9 0C       		.byte	0xc
 1993 06ca 0B       		.uleb128 0xb
 1994 06cb BD070000 		.4byte	.LASF207
 1995 06cf 0D       		.byte	0xd
 1996 06d0 0B       		.uleb128 0xb
 1997 06d1 1C190000 		.4byte	.LASF208
 1998 06d5 0E       		.byte	0xe
 1999 06d6 0B       		.uleb128 0xb
 2000 06d7 D2020000 		.4byte	.LASF209
 2001 06db 0F       		.byte	0xf
 2002 06dc 0B       		.uleb128 0xb
 2003 06dd 14240000 		.4byte	.LASF210
 2004 06e1 10       		.byte	0x10
 2005 06e2 0B       		.uleb128 0xb
 2006 06e3 7A100000 		.4byte	.LASF211
 2007 06e7 11       		.byte	0x11
 2008 06e8 0B       		.uleb128 0xb
 2009 06e9 151F0000 		.4byte	.LASF212
 2010 06ed 12       		.byte	0x12
 2011 06ee 0B       		.uleb128 0xb
 2012 06ef C40A0000 		.4byte	.LASF213
 2013 06f3 13       		.byte	0x13
 2014 06f4 0B       		.uleb128 0xb
 2015 06f5 4C010000 		.4byte	.LASF214
 2016 06f9 52       		.byte	0x52
 2017 06fa 0B       		.uleb128 0xb
 2018 06fb E4010000 		.4byte	.LASF215
 2019 06ff 16       		.byte	0x16
 2020 0700 0B       		.uleb128 0xb
 2021 0701 DA170000 		.4byte	.LASF216
 2022 0705 17       		.byte	0x17
 2023 0706 0B       		.uleb128 0xb
 2024 0707 D7220000 		.4byte	.LASF217
 2025 070b 18       		.byte	0x18
 2026 070c 0B       		.uleb128 0xb
 2027 070d 8B0E0000 		.4byte	.LASF218
 2028 0711 19       		.byte	0x19
 2029 0712 0B       		.uleb128 0xb
 2030 0713 E2110000 		.4byte	.LASF219
 2031 0717 1B       		.byte	0x1b
 2032 0718 0B       		.uleb128 0xb
 2033 0719 A1090000 		.4byte	.LASF220
 2034 071d 1D       		.byte	0x1d
ARM GAS  C:\Users\Intern\AppData\Local\Temp\cc8xw9iJ.s 			page 75


 2035 071e 0B       		.uleb128 0xb
 2036 071f 42000000 		.4byte	.LASF221
 2037 0723 1E       		.byte	0x1e
 2038 0724 0B       		.uleb128 0xb
 2039 0725 440E0000 		.4byte	.LASF222
 2040 0729 D2       		.byte	0xd2
 2041 072a 0B       		.uleb128 0xb
 2042 072b DD1B0000 		.4byte	.LASF223
 2043 072f FF       		.byte	0xff
 2044 0730 00       		.byte	0
 2045 0731 11       		.uleb128 0x11
 2046 0732 01       		.byte	0x1
 2047 0733 2C000000 		.4byte	0x2c
 2048 0737 06       		.byte	0x6
 2049 0738 A5       		.byte	0xa5
 2050 0739 28080000 		.4byte	0x828
 2051 073d 0B       		.uleb128 0xb
 2052 073e 5D1C0000 		.4byte	.LASF224
 2053 0742 00       		.byte	0
 2054 0743 0B       		.uleb128 0xb
 2055 0744 AD1B0000 		.4byte	.LASF225
 2056 0748 01       		.byte	0x1
 2057 0749 0B       		.uleb128 0xb
 2058 074a 8E010000 		.4byte	.LASF226
 2059 074e 02       		.byte	0x2
 2060 074f 0B       		.uleb128 0xb
 2061 0750 64230000 		.4byte	.LASF227
 2062 0754 03       		.byte	0x3
 2063 0755 0B       		.uleb128 0xb
 2064 0756 FB060000 		.4byte	.LASF228
 2065 075a 04       		.byte	0x4
 2066 075b 0B       		.uleb128 0xb
 2067 075c 08170000 		.4byte	.LASF229
 2068 0760 05       		.byte	0x5
 2069 0761 0B       		.uleb128 0xb
 2070 0762 901F0000 		.4byte	.LASF230
 2071 0766 06       		.byte	0x6
 2072 0767 0B       		.uleb128 0xb
 2073 0768 52190000 		.4byte	.LASF231
 2074 076c 07       		.byte	0x7
 2075 076d 0B       		.uleb128 0xb
 2076 076e 81160000 		.4byte	.LASF232
 2077 0772 08       		.byte	0x8
 2078 0773 0B       		.uleb128 0xb
 2079 0774 60140000 		.4byte	.LASF233
 2080 0778 09       		.byte	0x9
 2081 0779 0B       		.uleb128 0xb
 2082 077a 08180000 		.4byte	.LASF234
 2083 077e 0A       		.byte	0xa
 2084 077f 0B       		.uleb128 0xb
 2085 0780 6B0C0000 		.4byte	.LASF235
 2086 0784 0B       		.byte	0xb
 2087 0785 0B       		.uleb128 0xb
 2088 0786 28150000 		.4byte	.LASF236
 2089 078a 0C       		.byte	0xc
 2090 078b 0B       		.uleb128 0xb
 2091 078c D6070000 		.4byte	.LASF237
ARM GAS  C:\Users\Intern\AppData\Local\Temp\cc8xw9iJ.s 			page 76


 2092 0790 0D       		.byte	0xd
 2093 0791 0B       		.uleb128 0xb
 2094 0792 5E0B0000 		.4byte	.LASF238
 2095 0796 0E       		.byte	0xe
 2096 0797 0B       		.uleb128 0xb
 2097 0798 A3230000 		.4byte	.LASF239
 2098 079c 0F       		.byte	0xf
 2099 079d 0B       		.uleb128 0xb
 2100 079e 01020000 		.4byte	.LASF240
 2101 07a2 10       		.byte	0x10
 2102 07a3 0B       		.uleb128 0xb
 2103 07a4 B0010000 		.4byte	.LASF241
 2104 07a8 11       		.byte	0x11
 2105 07a9 0B       		.uleb128 0xb
 2106 07aa 0B030000 		.4byte	.LASF242
 2107 07ae 80       		.byte	0x80
 2108 07af 0B       		.uleb128 0xb
 2109 07b0 350C0000 		.4byte	.LASF243
 2110 07b4 80       		.byte	0x80
 2111 07b5 0B       		.uleb128 0xb
 2112 07b6 F50F0000 		.4byte	.LASF244
 2113 07ba 80       		.byte	0x80
 2114 07bb 0B       		.uleb128 0xb
 2115 07bc 591F0000 		.4byte	.LASF245
 2116 07c0 80       		.byte	0x80
 2117 07c1 0B       		.uleb128 0xb
 2118 07c2 DD1C0000 		.4byte	.LASF246
 2119 07c6 80       		.byte	0x80
 2120 07c7 0B       		.uleb128 0xb
 2121 07c8 7D170000 		.4byte	.LASF247
 2122 07cc 80       		.byte	0x80
 2123 07cd 0B       		.uleb128 0xb
 2124 07ce BA100000 		.4byte	.LASF248
 2125 07d2 80       		.byte	0x80
 2126 07d3 0B       		.uleb128 0xb
 2127 07d4 430B0000 		.4byte	.LASF249
 2128 07d8 80       		.byte	0x80
 2129 07d9 0B       		.uleb128 0xb
 2130 07da 600E0000 		.4byte	.LASF250
 2131 07de 81       		.byte	0x81
 2132 07df 0B       		.uleb128 0xb
 2133 07e0 FB1D0000 		.4byte	.LASF251
 2134 07e4 81       		.byte	0x81
 2135 07e5 0B       		.uleb128 0xb
 2136 07e6 00000000 		.4byte	.LASF252
 2137 07ea 81       		.byte	0x81
 2138 07eb 0B       		.uleb128 0xb
 2139 07ec D7060000 		.4byte	.LASF253
 2140 07f0 81       		.byte	0x81
 2141 07f1 0B       		.uleb128 0xb
 2142 07f2 F3040000 		.4byte	.LASF254
 2143 07f6 82       		.byte	0x82
 2144 07f7 0B       		.uleb128 0xb
 2145 07f8 3E210000 		.4byte	.LASF255
 2146 07fc A0       		.byte	0xa0
 2147 07fd 0B       		.uleb128 0xb
 2148 07fe 27120000 		.4byte	.LASF256
ARM GAS  C:\Users\Intern\AppData\Local\Temp\cc8xw9iJ.s 			page 77


 2149 0802 A0       		.byte	0xa0
 2150 0803 0B       		.uleb128 0xb
 2151 0804 43050000 		.4byte	.LASF257
 2152 0808 A1       		.byte	0xa1
 2153 0809 0B       		.uleb128 0xb
 2154 080a 8C200000 		.4byte	.LASF258
 2155 080e A2       		.byte	0xa2
 2156 080f 0B       		.uleb128 0xb
 2157 0810 DF0C0000 		.4byte	.LASF259
 2158 0814 A3       		.byte	0xa3
 2159 0815 0B       		.uleb128 0xb
 2160 0816 BB080000 		.4byte	.LASF260
 2161 081a FD       		.byte	0xfd
 2162 081b 0B       		.uleb128 0xb
 2163 081c 7B150000 		.4byte	.LASF261
 2164 0820 FE       		.byte	0xfe
 2165 0821 0B       		.uleb128 0xb
 2166 0822 AA190000 		.4byte	.LASF262
 2167 0826 FF       		.byte	0xff
 2168 0827 00       		.byte	0
 2169 0828 04       		.uleb128 0x4
 2170 0829 76200000 		.4byte	.LASF263
 2171 082d 06       		.byte	0x6
 2172 082e 5F01     		.2byte	0x15f
 2173 0830 31070000 		.4byte	0x731
 2174 0834 04       		.uleb128 0x4
 2175 0835 121C0000 		.4byte	.LASF264
 2176 0839 06       		.byte	0x6
 2177 083a 8901     		.2byte	0x189
 2178 083c 77000000 		.4byte	0x77
 2179 0840 0D       		.uleb128 0xd
 2180 0841 02       		.byte	0x2
 2181 0842 06       		.byte	0x6
 2182 0843 9301     		.2byte	0x193
 2183 0845 64080000 		.4byte	0x864
 2184 0849 0E       		.uleb128 0xe
 2185 084a EA040000 		.4byte	.LASF265
 2186 084e 06       		.byte	0x6
 2187 084f 9A01     		.2byte	0x19a
 2188 0851 6B000000 		.4byte	0x6b
 2189 0855 00       		.byte	0
 2190 0856 0E       		.uleb128 0xe
 2191 0857 31240000 		.4byte	.LASF266
 2192 085b 06       		.byte	0x6
 2193 085c A001     		.2byte	0x1a0
 2194 085e 6B000000 		.4byte	0x6b
 2195 0862 01       		.byte	0x1
 2196 0863 00       		.byte	0
 2197 0864 04       		.uleb128 0x4
 2198 0865 0F040000 		.4byte	.LASF267
 2199 0869 06       		.byte	0x6
 2200 086a A201     		.2byte	0x1a2
 2201 086c 40080000 		.4byte	0x840
 2202 0870 0D       		.uleb128 0xd
 2203 0871 08       		.byte	0x8
 2204 0872 06       		.byte	0x6
 2205 0873 BE01     		.2byte	0x1be
ARM GAS  C:\Users\Intern\AppData\Local\Temp\cc8xw9iJ.s 			page 78


 2206 0875 A1080000 		.4byte	0x8a1
 2207 0879 13       		.uleb128 0x13
 2208 087a 76616C00 		.ascii	"val\000"
 2209 087e 06       		.byte	0x6
 2210 087f C101     		.2byte	0x1c1
 2211 0881 C1040000 		.4byte	0x4c1
 2212 0885 00       		.byte	0
 2213 0886 13       		.uleb128 0x13
 2214 0887 6C656E00 		.ascii	"len\000"
 2215 088b 06       		.byte	0x6
 2216 088c C401     		.2byte	0x1c4
 2217 088e 77000000 		.4byte	0x77
 2218 0892 04       		.byte	0x4
 2219 0893 0E       		.uleb128 0xe
 2220 0894 0A240000 		.4byte	.LASF268
 2221 0898 06       		.byte	0x6
 2222 0899 CB01     		.2byte	0x1cb
 2223 089b 77000000 		.4byte	0x77
 2224 089f 06       		.byte	0x6
 2225 08a0 00       		.byte	0
 2226 08a1 04       		.uleb128 0x4
 2227 08a2 B8020000 		.4byte	.LASF269
 2228 08a6 06       		.byte	0x6
 2229 08a7 CD01     		.2byte	0x1cd
 2230 08a9 70080000 		.4byte	0x870
 2231 08ad 0D       		.uleb128 0xd
 2232 08ae 0C       		.byte	0xc
 2233 08af 06       		.byte	0x6
 2234 08b0 D001     		.2byte	0x1d0
 2235 08b2 D1080000 		.4byte	0x8d1
 2236 08b6 0E       		.uleb128 0xe
 2237 08b7 711C0000 		.4byte	.LASF270
 2238 08bb 06       		.byte	0x6
 2239 08bc D301     		.2byte	0x1d3
 2240 08be A1080000 		.4byte	0x8a1
 2241 08c2 00       		.byte	0
 2242 08c3 0E       		.uleb128 0xe
 2243 08c4 AB160000 		.4byte	.LASF271
 2244 08c8 06       		.byte	0x6
 2245 08c9 D601     		.2byte	0x1d6
 2246 08cb 34080000 		.4byte	0x834
 2247 08cf 08       		.byte	0x8
 2248 08d0 00       		.byte	0
 2249 08d1 04       		.uleb128 0x4
 2250 08d2 66070000 		.4byte	.LASF272
 2251 08d6 06       		.byte	0x6
 2252 08d7 D801     		.2byte	0x1d8
 2253 08d9 AD080000 		.4byte	0x8ad
 2254 08dd 0D       		.uleb128 0xd
 2255 08de 04       		.byte	0x4
 2256 08df 06       		.byte	0x6
 2257 08e0 E601     		.2byte	0x1e6
 2258 08e2 01090000 		.4byte	0x901
 2259 08e6 0E       		.uleb128 0xe
 2260 08e7 5B1D0000 		.4byte	.LASF273
 2261 08eb 06       		.byte	0x6
 2262 08ec E901     		.2byte	0x1e9
ARM GAS  C:\Users\Intern\AppData\Local\Temp\cc8xw9iJ.s 			page 79


 2263 08ee 64080000 		.4byte	0x864
 2264 08f2 00       		.byte	0
 2265 08f3 13       		.uleb128 0x13
 2266 08f4 6D747500 		.ascii	"mtu\000"
 2267 08f8 06       		.byte	0x6
 2268 08f9 EC01     		.2byte	0x1ec
 2269 08fb 77000000 		.4byte	0x77
 2270 08ff 02       		.byte	0x2
 2271 0900 00       		.byte	0
 2272 0901 04       		.uleb128 0x4
 2273 0902 33170000 		.4byte	.LASF274
 2274 0906 06       		.byte	0x6
 2275 0907 EE01     		.2byte	0x1ee
 2276 0909 DD080000 		.4byte	0x8dd
 2277 090d 0D       		.uleb128 0xd
 2278 090e 08       		.byte	0x8
 2279 090f 06       		.byte	0x6
 2280 0910 FC01     		.2byte	0x1fc
 2281 0912 3E090000 		.4byte	0x93e
 2282 0916 0E       		.uleb128 0xe
 2283 0917 8C1A0000 		.4byte	.LASF275
 2284 091b 06       		.byte	0x6
 2285 091c 0102     		.2byte	0x201
 2286 091e C1040000 		.4byte	0x4c1
 2287 0922 00       		.byte	0
 2288 0923 0E       		.uleb128 0xe
 2289 0924 8B1C0000 		.4byte	.LASF276
 2290 0928 06       		.byte	0x6
 2291 0929 0602     		.2byte	0x206
 2292 092b 77000000 		.4byte	0x77
 2293 092f 04       		.byte	0x4
 2294 0930 0E       		.uleb128 0xe
 2295 0931 140E0000 		.4byte	.LASF277
 2296 0935 06       		.byte	0x6
 2297 0936 0D02     		.2byte	0x20d
 2298 0938 77000000 		.4byte	0x77
 2299 093c 06       		.byte	0x6
 2300 093d 00       		.byte	0
 2301 093e 04       		.uleb128 0x4
 2302 093f 7E120000 		.4byte	.LASF278
 2303 0943 06       		.byte	0x6
 2304 0944 0F02     		.2byte	0x20f
 2305 0946 0D090000 		.4byte	0x90d
 2306 094a 14       		.uleb128 0x14
 2307 094b 04       		.byte	0x4
 2308 094c 07       		.byte	0x7
 2309 094d 3A       		.byte	0x3a
 2310 094e 77090000 		.4byte	0x977
 2311 0952 15       		.uleb128 0x15
 2312 0953 AB160000 		.4byte	.LASF271
 2313 0957 07       		.byte	0x7
 2314 0958 3D       		.byte	0x3d
 2315 0959 34080000 		.4byte	0x834
 2316 095d 00       		.byte	0
 2317 095e 15       		.uleb128 0x15
 2318 095f 7A160000 		.4byte	.LASF279
 2319 0963 07       		.byte	0x7
ARM GAS  C:\Users\Intern\AppData\Local\Temp\cc8xw9iJ.s 			page 80


 2320 0964 43       		.byte	0x43
 2321 0965 6B000000 		.4byte	0x6b
 2322 0969 02       		.byte	0x2
 2323 096a 15       		.uleb128 0x15
 2324 096b FC090000 		.4byte	.LASF280
 2325 096f 07       		.byte	0x7
 2326 0970 46       		.byte	0x46
 2327 0971 28080000 		.4byte	0x828
 2328 0975 03       		.byte	0x3
 2329 0976 00       		.byte	0
 2330 0977 12       		.uleb128 0x12
 2331 0978 5D090000 		.4byte	.LASF281
 2332 097c 07       		.byte	0x7
 2333 097d 48       		.byte	0x48
 2334 097e 4A090000 		.4byte	0x94a
 2335 0982 14       		.uleb128 0x14
 2336 0983 10       		.byte	0x10
 2337 0984 07       		.byte	0x7
 2338 0985 8A       		.byte	0x8a
 2339 0986 A3090000 		.4byte	0x9a3
 2340 098a 15       		.uleb128 0x15
 2341 098b 5B1D0000 		.4byte	.LASF273
 2342 098f 07       		.byte	0x7
 2343 0990 8D       		.byte	0x8d
 2344 0991 64080000 		.4byte	0x864
 2345 0995 00       		.byte	0
 2346 0996 15       		.uleb128 0x15
 2347 0997 4D1D0000 		.4byte	.LASF282
 2348 099b 07       		.byte	0x7
 2349 099c 90       		.byte	0x90
 2350 099d D1080000 		.4byte	0x8d1
 2351 09a1 04       		.byte	0x4
 2352 09a2 00       		.byte	0
 2353 09a3 12       		.uleb128 0x12
 2354 09a4 BE160000 		.4byte	.LASF283
 2355 09a8 07       		.byte	0x7
 2356 09a9 92       		.byte	0x92
 2357 09aa 82090000 		.4byte	0x982
 2358 09ae 04       		.uleb128 0x4
 2359 09af AF030000 		.4byte	.LASF284
 2360 09b3 08       		.byte	0x8
 2361 09b4 0302     		.2byte	0x203
 2362 09b6 B9000000 		.4byte	0xb9
 2363 09ba 11       		.uleb128 0x11
 2364 09bb 01       		.byte	0x1
 2365 09bc 2C000000 		.4byte	0x2c
 2366 09c0 09       		.byte	0x9
 2367 09c1 22       		.byte	0x22
 2368 09c2 030A0000 		.4byte	0xa03
 2369 09c6 0B       		.uleb128 0xb
 2370 09c7 7A1B0000 		.4byte	.LASF285
 2371 09cb 00       		.byte	0
 2372 09cc 0B       		.uleb128 0xb
 2373 09cd 010D0000 		.4byte	.LASF286
 2374 09d1 01       		.byte	0x1
 2375 09d2 0B       		.uleb128 0xb
 2376 09d3 4B120000 		.4byte	.LASF287
ARM GAS  C:\Users\Intern\AppData\Local\Temp\cc8xw9iJ.s 			page 81


 2377 09d7 02       		.byte	0x2
 2378 09d8 0B       		.uleb128 0xb
 2379 09d9 AC060000 		.4byte	.LASF288
 2380 09dd 03       		.byte	0x3
 2381 09de 0B       		.uleb128 0xb
 2382 09df C0030000 		.4byte	.LASF289
 2383 09e3 04       		.byte	0x4
 2384 09e4 0B       		.uleb128 0xb
 2385 09e5 A60C0000 		.4byte	.LASF290
 2386 09e9 05       		.byte	0x5
 2387 09ea 0B       		.uleb128 0xb
 2388 09eb 340D0000 		.4byte	.LASF291
 2389 09ef 06       		.byte	0x6
 2390 09f0 0B       		.uleb128 0xb
 2391 09f1 4F170000 		.4byte	.LASF292
 2392 09f5 07       		.byte	0x7
 2393 09f6 0B       		.uleb128 0xb
 2394 09f7 2F140000 		.4byte	.LASF293
 2395 09fb 08       		.byte	0x8
 2396 09fc 0B       		.uleb128 0xb
 2397 09fd 1B000000 		.4byte	.LASF294
 2398 0a01 09       		.byte	0x9
 2399 0a02 00       		.byte	0
 2400 0a03 11       		.uleb128 0x11
 2401 0a04 01       		.byte	0x1
 2402 0a05 2C000000 		.4byte	0x2c
 2403 0a09 0A       		.byte	0xa
 2404 0a0a 21       		.byte	0x21
 2405 0a0b 2E0A0000 		.4byte	0xa2e
 2406 0a0f 0B       		.uleb128 0xb
 2407 0a10 B51F0000 		.4byte	.LASF295
 2408 0a14 00       		.byte	0
 2409 0a15 0B       		.uleb128 0xb
 2410 0a16 771C0000 		.4byte	.LASF296
 2411 0a1a 01       		.byte	0x1
 2412 0a1b 0B       		.uleb128 0xb
 2413 0a1c E6050000 		.4byte	.LASF297
 2414 0a20 02       		.byte	0x2
 2415 0a21 0B       		.uleb128 0xb
 2416 0a22 63120000 		.4byte	.LASF298
 2417 0a26 03       		.byte	0x3
 2418 0a27 0B       		.uleb128 0xb
 2419 0a28 281E0000 		.4byte	.LASF299
 2420 0a2c 04       		.byte	0x4
 2421 0a2d 00       		.byte	0
 2422 0a2e 11       		.uleb128 0x11
 2423 0a2f 01       		.byte	0x1
 2424 0a30 2C000000 		.4byte	0x2c
 2425 0a34 0A       		.byte	0xa
 2426 0a35 2C       		.byte	0x2c
 2427 0a36 4D0A0000 		.4byte	0xa4d
 2428 0a3a 0B       		.uleb128 0xb
 2429 0a3b D5010000 		.4byte	.LASF300
 2430 0a3f 00       		.byte	0
 2431 0a40 0B       		.uleb128 0xb
 2432 0a41 3E010000 		.4byte	.LASF301
 2433 0a45 01       		.byte	0x1
ARM GAS  C:\Users\Intern\AppData\Local\Temp\cc8xw9iJ.s 			page 82


 2434 0a46 0B       		.uleb128 0xb
 2435 0a47 F4140000 		.4byte	.LASF302
 2436 0a4b 02       		.byte	0x2
 2437 0a4c 00       		.byte	0
 2438 0a4d 0A       		.uleb128 0xa
 2439 0a4e 01       		.byte	0x1
 2440 0a4f 2C000000 		.4byte	0x2c
 2441 0a53 0B       		.byte	0xb
 2442 0a54 5008     		.2byte	0x850
 2443 0a56 790A0000 		.4byte	0xa79
 2444 0a5a 0B       		.uleb128 0xb
 2445 0a5b 49090000 		.4byte	.LASF303
 2446 0a5f 00       		.byte	0
 2447 0a60 0B       		.uleb128 0xb
 2448 0a61 DD120000 		.4byte	.LASF304
 2449 0a65 01       		.byte	0x1
 2450 0a66 0B       		.uleb128 0xb
 2451 0a67 CA230000 		.4byte	.LASF305
 2452 0a6b 02       		.byte	0x2
 2453 0a6c 0B       		.uleb128 0xb
 2454 0a6d A9040000 		.4byte	.LASF306
 2455 0a71 03       		.byte	0x3
 2456 0a72 0B       		.uleb128 0xb
 2457 0a73 691E0000 		.4byte	.LASF307
 2458 0a77 04       		.byte	0x4
 2459 0a78 00       		.byte	0
 2460 0a79 04       		.uleb128 0x4
 2461 0a7a 07200000 		.4byte	.LASF308
 2462 0a7e 0B       		.byte	0xb
 2463 0a7f 5E08     		.2byte	0x85e
 2464 0a81 4D0A0000 		.4byte	0xa4d
 2465 0a85 0D       		.uleb128 0xd
 2466 0a86 0C       		.byte	0xc
 2467 0a87 0B       		.byte	0xb
 2468 0a88 9909     		.2byte	0x999
 2469 0a8a DD0A0000 		.4byte	0xadd
 2470 0a8e 0E       		.uleb128 0xe
 2471 0a8f 68010000 		.4byte	.LASF309
 2472 0a93 0B       		.byte	0xb
 2473 0a94 9C09     		.2byte	0x99c
 2474 0a96 34080000 		.4byte	0x834
 2475 0a9a 00       		.byte	0
 2476 0a9b 0E       		.uleb128 0xe
 2477 0a9c 66150000 		.4byte	.LASF310
 2478 0aa0 0B       		.byte	0xb
 2479 0aa1 9E09     		.2byte	0x99e
 2480 0aa3 34080000 		.4byte	0x834
 2481 0aa7 02       		.byte	0x2
 2482 0aa8 0E       		.uleb128 0xe
 2483 0aa9 401A0000 		.4byte	.LASF311
 2484 0aad 0B       		.byte	0xb
 2485 0aae A009     		.2byte	0x9a0
 2486 0ab0 34080000 		.4byte	0x834
 2487 0ab4 04       		.byte	0x4
 2488 0ab5 0E       		.uleb128 0xe
 2489 0ab6 AC180000 		.4byte	.LASF312
 2490 0aba 0B       		.byte	0xb
ARM GAS  C:\Users\Intern\AppData\Local\Temp\cc8xw9iJ.s 			page 83


 2491 0abb A309     		.2byte	0x9a3
 2492 0abd 34080000 		.4byte	0x834
 2493 0ac1 06       		.byte	0x6
 2494 0ac2 0E       		.uleb128 0xe
 2495 0ac3 17210000 		.4byte	.LASF313
 2496 0ac7 0B       		.byte	0xb
 2497 0ac8 A509     		.2byte	0x9a5
 2498 0aca 34080000 		.4byte	0x834
 2499 0ace 08       		.byte	0x8
 2500 0acf 0E       		.uleb128 0xe
 2501 0ad0 AB070000 		.4byte	.LASF314
 2502 0ad4 0B       		.byte	0xb
 2503 0ad5 A709     		.2byte	0x9a7
 2504 0ad7 34080000 		.4byte	0x834
 2505 0adb 0A       		.byte	0xa
 2506 0adc 00       		.byte	0
 2507 0add 04       		.uleb128 0x4
 2508 0ade FD1C0000 		.4byte	.LASF315
 2509 0ae2 0B       		.byte	0xb
 2510 0ae3 A809     		.2byte	0x9a8
 2511 0ae5 850A0000 		.4byte	0xa85
 2512 0ae9 16       		.uleb128 0x16
 2513 0aea 91000000 		.4byte	.LASF318
 2514 0aee 01       		.byte	0x1
 2515 0aef F9       		.byte	0xf9
 2516 0af0 00000000 		.4byte	.LFB2
 2517 0af4 C4000000 		.4byte	.LFE2-.LFB2
 2518 0af8 01       		.uleb128 0x1
 2519 0af9 9C       		.byte	0x9c
 2520 0afa 340B0000 		.4byte	0xb34
 2521 0afe 17       		.uleb128 0x17
 2522 0aff D8000000 		.4byte	.LASF320
 2523 0b03 01       		.byte	0x1
 2524 0b04 F9       		.byte	0xf9
 2525 0b05 340B0000 		.4byte	0xb34
 2526 0b09 02       		.uleb128 0x2
 2527 0b0a 91       		.byte	0x91
 2528 0b0b 64       		.sleb128 -28
 2529 0b0c 18       		.uleb128 0x18
 2530 0b0d 5C230000 		.4byte	.LASF316
 2531 0b11 01       		.byte	0x1
 2532 0b12 FB       		.byte	0xfb
 2533 0b13 28080000 		.4byte	0x828
 2534 0b17 02       		.uleb128 0x2
 2535 0b18 91       		.byte	0x91
 2536 0b19 6F       		.sleb128 -17
 2537 0b1a 19       		.uleb128 0x19
 2538 0b1b 80000000 		.4byte	.LBB2
 2539 0b1f 2C000000 		.4byte	.LBE2-.LBB2
 2540 0b23 1A       		.uleb128 0x1a
 2541 0b24 AB170000 		.4byte	.LASF317
 2542 0b28 01       		.byte	0x1
 2543 0b29 B501     		.2byte	0x1b5
 2544 0b2b 77090000 		.4byte	0x977
 2545 0b2f 02       		.uleb128 0x2
 2546 0b30 91       		.byte	0x91
 2547 0b31 68       		.sleb128 -24
ARM GAS  C:\Users\Intern\AppData\Local\Temp\cc8xw9iJ.s 			page 84


 2548 0b32 00       		.byte	0
 2549 0b33 00       		.byte	0
 2550 0b34 07       		.uleb128 0x7
 2551 0b35 04       		.byte	0x4
 2552 0b36 A3090000 		.4byte	0x9a3
 2553 0b3a 1B       		.uleb128 0x1b
 2554 0b3b 0E160000 		.4byte	.LASF319
 2555 0b3f 01       		.byte	0x1
 2556 0b40 D201     		.2byte	0x1d2
 2557 0b42 00000000 		.4byte	.LFB3
 2558 0b46 30000000 		.4byte	.LFE3-.LFB3
 2559 0b4a 01       		.uleb128 0x1
 2560 0b4b 9C       		.byte	0x9c
 2561 0b4c 600B0000 		.4byte	0xb60
 2562 0b50 1C       		.uleb128 0x1c
 2563 0b51 D8000000 		.4byte	.LASF320
 2564 0b55 01       		.byte	0x1
 2565 0b56 D201     		.2byte	0x1d2
 2566 0b58 600B0000 		.4byte	0xb60
 2567 0b5c 02       		.uleb128 0x2
 2568 0b5d 91       		.byte	0x91
 2569 0b5e 74       		.sleb128 -12
 2570 0b5f 00       		.byte	0
 2571 0b60 07       		.uleb128 0x7
 2572 0b61 04       		.byte	0x4
 2573 0b62 660B0000 		.4byte	0xb66
 2574 0b66 1D       		.uleb128 0x1d
 2575 0b67 64080000 		.4byte	0x864
 2576 0b6b 1E       		.uleb128 0x1e
 2577 0b6c 0E140000 		.4byte	.LASF322
 2578 0b70 01       		.byte	0x1
 2579 0b71 3805     		.2byte	0x538
 2580 0b73 00000000 		.4byte	.LFB4
 2581 0b77 1C000000 		.4byte	.LFE4-.LFB4
 2582 0b7b 01       		.uleb128 0x1
 2583 0b7c 9C       		.byte	0x9c
 2584 0b7d 1F       		.uleb128 0x1f
 2585 0b7e 661D0000 		.4byte	.LASF321
 2586 0b82 01       		.byte	0x1
 2587 0b83 7005     		.2byte	0x570
 2588 0b85 00000000 		.4byte	.LFB5
 2589 0b89 10000000 		.4byte	.LFE5-.LFB5
 2590 0b8d 01       		.uleb128 0x1
 2591 0b8e 9C       		.byte	0x9c
 2592 0b8f A30B0000 		.4byte	0xba3
 2593 0b93 1C       		.uleb128 0x1c
 2594 0b94 D8000000 		.4byte	.LASF320
 2595 0b98 01       		.byte	0x1
 2596 0b99 7005     		.2byte	0x570
 2597 0b9b A30B0000 		.4byte	0xba3
 2598 0b9f 02       		.uleb128 0x2
 2599 0ba0 91       		.byte	0x91
 2600 0ba1 74       		.sleb128 -12
 2601 0ba2 00       		.byte	0
 2602 0ba3 07       		.uleb128 0x7
 2603 0ba4 04       		.byte	0x4
 2604 0ba5 A90B0000 		.4byte	0xba9
ARM GAS  C:\Users\Intern\AppData\Local\Temp\cc8xw9iJ.s 			page 85


 2605 0ba9 1D       		.uleb128 0x1d
 2606 0baa EC040000 		.4byte	0x4ec
 2607 0bae 1E       		.uleb128 0x1e
 2608 0baf AE130000 		.4byte	.LASF323
 2609 0bb3 01       		.byte	0x1
 2610 0bb4 A805     		.2byte	0x5a8
 2611 0bb6 00000000 		.4byte	.LFB6
 2612 0bba 0A000000 		.4byte	.LFE6-.LFB6
 2613 0bbe 01       		.uleb128 0x1
 2614 0bbf 9C       		.byte	0x9c
 2615 0bc0 20       		.uleb128 0x20
 2616 0bc1 58180000 		.4byte	.LASF350
 2617 0bc5 01       		.byte	0x1
 2618 0bc6 D405     		.2byte	0x5d4
 2619 0bc8 6B000000 		.4byte	0x6b
 2620 0bcc 00000000 		.4byte	.LFB7
 2621 0bd0 60000000 		.4byte	.LFE7-.LFB7
 2622 0bd4 01       		.uleb128 0x1
 2623 0bd5 9C       		.byte	0x9c
 2624 0bd6 060C0000 		.4byte	0xc06
 2625 0bda 1C       		.uleb128 0x1c
 2626 0bdb F10B0000 		.4byte	.LASF324
 2627 0bdf 01       		.byte	0x1
 2628 0be0 D405     		.2byte	0x5d4
 2629 0be2 060C0000 		.4byte	0xc06
 2630 0be6 02       		.uleb128 0x2
 2631 0be7 91       		.byte	0x91
 2632 0be8 6C       		.sleb128 -20
 2633 0be9 21       		.uleb128 0x21
 2634 0bea 6900     		.ascii	"i\000"
 2635 0bec 01       		.byte	0x1
 2636 0bed D605     		.2byte	0x5d6
 2637 0bef 6B000000 		.4byte	0x6b
 2638 0bf3 02       		.uleb128 0x2
 2639 0bf4 91       		.byte	0x91
 2640 0bf5 77       		.sleb128 -9
 2641 0bf6 1A       		.uleb128 0x1a
 2642 0bf7 9C040000 		.4byte	.LASF325
 2643 0bfb 01       		.byte	0x1
 2644 0bfc D705     		.2byte	0x5d7
 2645 0bfe 6B000000 		.4byte	0x6b
 2646 0c02 02       		.uleb128 0x2
 2647 0c03 91       		.byte	0x91
 2648 0c04 76       		.sleb128 -10
 2649 0c05 00       		.byte	0
 2650 0c06 07       		.uleb128 0x7
 2651 0c07 04       		.byte	0x4
 2652 0c08 0C0C0000 		.4byte	0xc0c
 2653 0c0c 1D       		.uleb128 0x1d
 2654 0c0d B5040000 		.4byte	0x4b5
 2655 0c11 1F       		.uleb128 0x1f
 2656 0c12 EA1E0000 		.4byte	.LASF326
 2657 0c16 01       		.byte	0x1
 2658 0c17 F805     		.2byte	0x5f8
 2659 0c19 00000000 		.4byte	.LFB8
 2660 0c1d 14000000 		.4byte	.LFE8-.LFB8
 2661 0c21 01       		.uleb128 0x1
ARM GAS  C:\Users\Intern\AppData\Local\Temp\cc8xw9iJ.s 			page 86


 2662 0c22 9C       		.byte	0x9c
 2663 0c23 370C0000 		.4byte	0xc37
 2664 0c27 1C       		.uleb128 0x1c
 2665 0c28 67210000 		.4byte	.LASF327
 2666 0c2c 01       		.byte	0x1
 2667 0c2d F805     		.2byte	0x5f8
 2668 0c2f 77000000 		.4byte	0x77
 2669 0c33 02       		.uleb128 0x2
 2670 0c34 91       		.byte	0x91
 2671 0c35 76       		.sleb128 -10
 2672 0c36 00       		.byte	0
 2673 0c37 1F       		.uleb128 0x1f
 2674 0c38 970D0000 		.4byte	.LASF328
 2675 0c3c 01       		.byte	0x1
 2676 0c3d 1206     		.2byte	0x612
 2677 0c3f 00000000 		.4byte	.LFB9
 2678 0c43 10000000 		.4byte	.LFE9-.LFB9
 2679 0c47 01       		.uleb128 0x1
 2680 0c48 9C       		.byte	0x9c
 2681 0c49 5D0C0000 		.4byte	0xc5d
 2682 0c4d 1C       		.uleb128 0x1c
 2683 0c4e D8000000 		.4byte	.LASF320
 2684 0c52 01       		.byte	0x1
 2685 0c53 1206     		.2byte	0x612
 2686 0c55 5D0C0000 		.4byte	0xc5d
 2687 0c59 02       		.uleb128 0x2
 2688 0c5a 91       		.byte	0x91
 2689 0c5b 74       		.sleb128 -12
 2690 0c5c 00       		.byte	0
 2691 0c5d 07       		.uleb128 0x7
 2692 0c5e 04       		.byte	0x4
 2693 0c5f 630C0000 		.4byte	0xc63
 2694 0c63 1D       		.uleb128 0x1d
 2695 0c64 6A060000 		.4byte	0x66a
 2696 0c68 22       		.uleb128 0x22
 2697 0c69 7D080000 		.4byte	.LASF351
 2698 0c6d 01       		.byte	0x1
 2699 0c6e 2C06     		.2byte	0x62c
 2700 0c70 00000000 		.4byte	.LFB10
 2701 0c74 38030000 		.4byte	.LFE10-.LFB10
 2702 0c78 01       		.uleb128 0x1
 2703 0c79 9C       		.byte	0x9c
 2704 0c7a 460D0000 		.4byte	0xd46
 2705 0c7e 1C       		.uleb128 0x1c
 2706 0c7f 1D220000 		.4byte	.LASF329
 2707 0c83 01       		.byte	0x1
 2708 0c84 2C06     		.2byte	0x62c
 2709 0c86 6B000000 		.4byte	0x6b
 2710 0c8a 02       		.uleb128 0x2
 2711 0c8b 91       		.byte	0x91
 2712 0c8c 5F       		.sleb128 -33
 2713 0c8d 1C       		.uleb128 0x1c
 2714 0c8e D8000000 		.4byte	.LASF320
 2715 0c92 01       		.byte	0x1
 2716 0c93 2C06     		.2byte	0x62c
 2717 0c95 B7000000 		.4byte	0xb7
 2718 0c99 02       		.uleb128 0x2
ARM GAS  C:\Users\Intern\AppData\Local\Temp\cc8xw9iJ.s 			page 87


 2719 0c9a 91       		.byte	0x91
 2720 0c9b 58       		.sleb128 -40
 2721 0c9c 23       		.uleb128 0x23
 2722 0c9d 32000000 		.4byte	.LBB3
 2723 0ca1 3E000000 		.4byte	.LBE3-.LBB3
 2724 0ca5 B90C0000 		.4byte	0xcb9
 2725 0ca9 1A       		.uleb128 0x1a
 2726 0caa 2E1C0000 		.4byte	.LASF330
 2727 0cae 01       		.byte	0x1
 2728 0caf 3906     		.2byte	0x639
 2729 0cb1 12040000 		.4byte	0x412
 2730 0cb5 02       		.uleb128 0x2
 2731 0cb6 91       		.byte	0x91
 2732 0cb7 6C       		.sleb128 -20
 2733 0cb8 00       		.byte	0
 2734 0cb9 23       		.uleb128 0x23
 2735 0cba C4000000 		.4byte	.LBB4
 2736 0cbe 1A000000 		.4byte	.LBE4-.LBB4
 2737 0cc2 D60C0000 		.4byte	0xcd6
 2738 0cc6 1A       		.uleb128 0x1a
 2739 0cc7 821E0000 		.4byte	.LASF331
 2740 0ccb 01       		.byte	0x1
 2741 0ccc 7A06     		.2byte	0x67a
 2742 0cce 460D0000 		.4byte	0xd46
 2743 0cd2 02       		.uleb128 0x2
 2744 0cd3 91       		.byte	0x91
 2745 0cd4 68       		.sleb128 -24
 2746 0cd5 00       		.byte	0
 2747 0cd6 23       		.uleb128 0x23
 2748 0cd7 FA000000 		.4byte	.LBB5
 2749 0cdb 3E000000 		.4byte	.LBE5-.LBB5
 2750 0cdf 0F0D0000 		.4byte	0xd0f
 2751 0ce3 1A       		.uleb128 0x1a
 2752 0ce4 CB020000 		.4byte	.LASF332
 2753 0ce8 01       		.byte	0x1
 2754 0ce9 9206     		.2byte	0x692
 2755 0ceb 560D0000 		.4byte	0xd56
 2756 0cef 02       		.uleb128 0x2
 2757 0cf0 91       		.byte	0x91
 2758 0cf1 70       		.sleb128 -16
 2759 0cf2 19       		.uleb128 0x19
 2760 0cf3 10010000 		.4byte	.LBB6
 2761 0cf7 18000000 		.4byte	.LBE6-.LBB6
 2762 0cfb 1A       		.uleb128 0x1a
 2763 0cfc F7170000 		.4byte	.LASF333
 2764 0d00 01       		.byte	0x1
 2765 0d01 9906     		.2byte	0x699
 2766 0d03 3E090000 		.4byte	0x93e
 2767 0d07 05       		.uleb128 0x5
 2768 0d08 03       		.byte	0x3
 2769 0d09 00000000 		.4byte	gPrepWriteReqMem.6830
 2770 0d0d 00       		.byte	0
 2771 0d0e 00       		.byte	0
 2772 0d0f 23       		.uleb128 0x23
 2773 0d10 58010000 		.4byte	.LBB7
 2774 0d14 40000000 		.4byte	.LBE7-.LBB7
 2775 0d18 2C0D0000 		.4byte	0xd2c
ARM GAS  C:\Users\Intern\AppData\Local\Temp\cc8xw9iJ.s 			page 88


 2776 0d1c 1A       		.uleb128 0x1a
 2777 0d1d 87000000 		.4byte	.LASF334
 2778 0d21 01       		.byte	0x1
 2779 0d22 BB06     		.2byte	0x6bb
 2780 0d24 66030000 		.4byte	0x366
 2781 0d28 02       		.uleb128 0x2
 2782 0d29 91       		.byte	0x91
 2783 0d2a 66       		.sleb128 -26
 2784 0d2b 00       		.byte	0
 2785 0d2c 19       		.uleb128 0x19
 2786 0d2d 78020000 		.4byte	.LBB8
 2787 0d31 38000000 		.4byte	.LBE8-.LBB8
 2788 0d35 1A       		.uleb128 0x1a
 2789 0d36 F6120000 		.4byte	.LASF335
 2790 0d3a 01       		.byte	0x1
 2791 0d3b 7807     		.2byte	0x778
 2792 0d3d 77000000 		.4byte	0x77
 2793 0d41 02       		.uleb128 0x2
 2794 0d42 91       		.byte	0x91
 2795 0d43 76       		.sleb128 -10
 2796 0d44 00       		.byte	0
 2797 0d45 00       		.byte	0
 2798 0d46 0F       		.uleb128 0xf
 2799 0d47 6B000000 		.4byte	0x6b
 2800 0d4b 560D0000 		.4byte	0xd56
 2801 0d4f 10       		.uleb128 0x10
 2802 0d50 B0000000 		.4byte	0xb0
 2803 0d54 01       		.byte	0x1
 2804 0d55 00       		.byte	0
 2805 0d56 07       		.uleb128 0x7
 2806 0d57 04       		.byte	0x4
 2807 0d58 75040000 		.4byte	0x475
 2808 0d5c 24       		.uleb128 0x24
 2809 0d5d A01C0000 		.4byte	.LASF336
 2810 0d61 08       		.byte	0x8
 2811 0d62 9C02     		.2byte	0x29c
 2812 0d64 AE090000 		.4byte	0x9ae
 2813 0d68 0F       		.uleb128 0xf
 2814 0d69 6B000000 		.4byte	0x6b
 2815 0d6d 790D0000 		.4byte	0xd79
 2816 0d71 25       		.uleb128 0x25
 2817 0d72 B0000000 		.4byte	0xb0
 2818 0d76 170B     		.2byte	0xb17
 2819 0d78 00       		.byte	0
 2820 0d79 24       		.uleb128 0x24
 2821 0d7a C7200000 		.4byte	.LASF337
 2822 0d7e 08       		.byte	0x8
 2823 0d7f A102     		.2byte	0x2a1
 2824 0d81 680D0000 		.4byte	0xd68
 2825 0d85 26       		.uleb128 0x26
 2826 0d86 FF0B0000 		.4byte	.LASF338
 2827 0d8a 01       		.byte	0x1
 2828 0d8b 3D       		.byte	0x3d
 2829 0d8c A4000000 		.4byte	0xa4
 2830 0d90 05       		.uleb128 0x5
 2831 0d91 03       		.byte	0x3
 2832 0d92 00000000 		.4byte	cyBle_eventHandlerFlag
ARM GAS  C:\Users\Intern\AppData\Local\Temp\cc8xw9iJ.s 			page 89


 2833 0d96 24       		.uleb128 0x24
 2834 0d97 C3060000 		.4byte	.LASF339
 2835 0d9b 08       		.byte	0x8
 2836 0d9c A402     		.2byte	0x2a4
 2837 0d9e B5040000 		.4byte	0x4b5
 2838 0da2 24       		.uleb128 0x24
 2839 0da3 2A0E0000 		.4byte	.LASF340
 2840 0da7 08       		.byte	0x8
 2841 0da8 A502     		.2byte	0x2a5
 2842 0daa AE0D0000 		.4byte	0xdae
 2843 0dae 07       		.uleb128 0x7
 2844 0daf 04       		.byte	0x4
 2845 0db0 B5040000 		.4byte	0x4b5
 2846 0db4 26       		.uleb128 0x26
 2847 0db5 B71E0000 		.4byte	.LASF341
 2848 0db9 01       		.byte	0x1
 2849 0dba E1       		.byte	0xe1
 2850 0dbb 20060000 		.4byte	0x620
 2851 0dbf 05       		.uleb128 0x5
 2852 0dc0 03       		.byte	0x3
 2853 0dc1 00000000 		.4byte	cyBle_authInfo
 2854 0dc5 24       		.uleb128 0x24
 2855 0dc6 1C1E0000 		.4byte	.LASF342
 2856 0dca 0B       		.byte	0xb
 2857 0dcb A90A     		.2byte	0xaa9
 2858 0dcd 790A0000 		.4byte	0xa79
 2859 0dd1 26       		.uleb128 0x26
 2860 0dd2 230D0000 		.4byte	.LASF343
 2861 0dd6 01       		.byte	0x1
 2862 0dd7 3B       		.byte	0x3b
 2863 0dd8 64080000 		.4byte	0x864
 2864 0ddc 05       		.uleb128 0x5
 2865 0ddd 03       		.byte	0x3
 2866 0dde 00000000 		.4byte	cyBle_connHandle
 2867 0de2 26       		.uleb128 0x26
 2868 0de3 CC120000 		.4byte	.LASF344
 2869 0de7 01       		.byte	0x1
 2870 0de8 3E       		.byte	0x3e
 2871 0de9 A4000000 		.4byte	0xa4
 2872 0ded 05       		.uleb128 0x5
 2873 0dee 03       		.byte	0x3
 2874 0def 00000000 		.4byte	cyBle_busyStatus
 2875 0df3 26       		.uleb128 0x26
 2876 0df4 180D0000 		.4byte	.LASF345
 2877 0df8 01       		.byte	0x1
 2878 0df9 40       		.byte	0x40
 2879 0dfa 040E0000 		.4byte	0xe04
 2880 0dfe 05       		.uleb128 0x5
 2881 0dff 03       		.byte	0x3
 2882 0e00 00000000 		.4byte	cyBle_gaps
 2883 0e04 1D       		.uleb128 0x1d
 2884 0e05 DD0A0000 		.4byte	0xadd
 2885 0e09 26       		.uleb128 0x26
 2886 0e0a DC200000 		.4byte	.LASF346
 2887 0e0e 01       		.byte	0x1
 2888 0e0f 4C       		.byte	0x4c
 2889 0e10 6B000000 		.4byte	0x6b
ARM GAS  C:\Users\Intern\AppData\Local\Temp\cc8xw9iJ.s 			page 90


 2890 0e14 05       		.uleb128 0x5
 2891 0e15 03       		.byte	0x3
 2892 0e16 00000000 		.4byte	cyBle_advertisingIntervalType
 2893 0e1a 00       		.byte	0
 2894              		.section	.debug_abbrev,"",%progbits
 2895              	.Ldebug_abbrev0:
 2896 0000 01       		.uleb128 0x1
 2897 0001 11       		.uleb128 0x11
 2898 0002 01       		.byte	0x1
 2899 0003 25       		.uleb128 0x25
 2900 0004 0E       		.uleb128 0xe
 2901 0005 13       		.uleb128 0x13
 2902 0006 0B       		.uleb128 0xb
 2903 0007 03       		.uleb128 0x3
 2904 0008 0E       		.uleb128 0xe
 2905 0009 1B       		.uleb128 0x1b
 2906 000a 0E       		.uleb128 0xe
 2907 000b 55       		.uleb128 0x55
 2908 000c 17       		.uleb128 0x17
 2909 000d 11       		.uleb128 0x11
 2910 000e 01       		.uleb128 0x1
 2911 000f 10       		.uleb128 0x10
 2912 0010 17       		.uleb128 0x17
 2913 0011 00       		.byte	0
 2914 0012 00       		.byte	0
 2915 0013 02       		.uleb128 0x2
 2916 0014 24       		.uleb128 0x24
 2917 0015 00       		.byte	0
 2918 0016 0B       		.uleb128 0xb
 2919 0017 0B       		.uleb128 0xb
 2920 0018 3E       		.uleb128 0x3e
 2921 0019 0B       		.uleb128 0xb
 2922 001a 03       		.uleb128 0x3
 2923 001b 0E       		.uleb128 0xe
 2924 001c 00       		.byte	0
 2925 001d 00       		.byte	0
 2926 001e 03       		.uleb128 0x3
 2927 001f 24       		.uleb128 0x24
 2928 0020 00       		.byte	0
 2929 0021 0B       		.uleb128 0xb
 2930 0022 0B       		.uleb128 0xb
 2931 0023 3E       		.uleb128 0x3e
 2932 0024 0B       		.uleb128 0xb
 2933 0025 03       		.uleb128 0x3
 2934 0026 08       		.uleb128 0x8
 2935 0027 00       		.byte	0
 2936 0028 00       		.byte	0
 2937 0029 04       		.uleb128 0x4
 2938 002a 16       		.uleb128 0x16
 2939 002b 00       		.byte	0
 2940 002c 03       		.uleb128 0x3
 2941 002d 0E       		.uleb128 0xe
 2942 002e 3A       		.uleb128 0x3a
 2943 002f 0B       		.uleb128 0xb
 2944 0030 3B       		.uleb128 0x3b
 2945 0031 05       		.uleb128 0x5
 2946 0032 49       		.uleb128 0x49
ARM GAS  C:\Users\Intern\AppData\Local\Temp\cc8xw9iJ.s 			page 91


 2947 0033 13       		.uleb128 0x13
 2948 0034 00       		.byte	0
 2949 0035 00       		.byte	0
 2950 0036 05       		.uleb128 0x5
 2951 0037 35       		.uleb128 0x35
 2952 0038 00       		.byte	0
 2953 0039 49       		.uleb128 0x49
 2954 003a 13       		.uleb128 0x13
 2955 003b 00       		.byte	0
 2956 003c 00       		.byte	0
 2957 003d 06       		.uleb128 0x6
 2958 003e 0F       		.uleb128 0xf
 2959 003f 00       		.byte	0
 2960 0040 0B       		.uleb128 0xb
 2961 0041 0B       		.uleb128 0xb
 2962 0042 00       		.byte	0
 2963 0043 00       		.byte	0
 2964 0044 07       		.uleb128 0x7
 2965 0045 0F       		.uleb128 0xf
 2966 0046 00       		.byte	0
 2967 0047 0B       		.uleb128 0xb
 2968 0048 0B       		.uleb128 0xb
 2969 0049 49       		.uleb128 0x49
 2970 004a 13       		.uleb128 0x13
 2971 004b 00       		.byte	0
 2972 004c 00       		.byte	0
 2973 004d 08       		.uleb128 0x8
 2974 004e 15       		.uleb128 0x15
 2975 004f 01       		.byte	0x1
 2976 0050 27       		.uleb128 0x27
 2977 0051 19       		.uleb128 0x19
 2978 0052 01       		.uleb128 0x1
 2979 0053 13       		.uleb128 0x13
 2980 0054 00       		.byte	0
 2981 0055 00       		.byte	0
 2982 0056 09       		.uleb128 0x9
 2983 0057 05       		.uleb128 0x5
 2984 0058 00       		.byte	0
 2985 0059 49       		.uleb128 0x49
 2986 005a 13       		.uleb128 0x13
 2987 005b 00       		.byte	0
 2988 005c 00       		.byte	0
 2989 005d 0A       		.uleb128 0xa
 2990 005e 04       		.uleb128 0x4
 2991 005f 01       		.byte	0x1
 2992 0060 0B       		.uleb128 0xb
 2993 0061 0B       		.uleb128 0xb
 2994 0062 49       		.uleb128 0x49
 2995 0063 13       		.uleb128 0x13
 2996 0064 3A       		.uleb128 0x3a
 2997 0065 0B       		.uleb128 0xb
 2998 0066 3B       		.uleb128 0x3b
 2999 0067 05       		.uleb128 0x5
 3000 0068 01       		.uleb128 0x1
 3001 0069 13       		.uleb128 0x13
 3002 006a 00       		.byte	0
 3003 006b 00       		.byte	0
ARM GAS  C:\Users\Intern\AppData\Local\Temp\cc8xw9iJ.s 			page 92


 3004 006c 0B       		.uleb128 0xb
 3005 006d 28       		.uleb128 0x28
 3006 006e 00       		.byte	0
 3007 006f 03       		.uleb128 0x3
 3008 0070 0E       		.uleb128 0xe
 3009 0071 1C       		.uleb128 0x1c
 3010 0072 0B       		.uleb128 0xb
 3011 0073 00       		.byte	0
 3012 0074 00       		.byte	0
 3013 0075 0C       		.uleb128 0xc
 3014 0076 28       		.uleb128 0x28
 3015 0077 00       		.byte	0
 3016 0078 03       		.uleb128 0x3
 3017 0079 0E       		.uleb128 0xe
 3018 007a 1C       		.uleb128 0x1c
 3019 007b 05       		.uleb128 0x5
 3020 007c 00       		.byte	0
 3021 007d 00       		.byte	0
 3022 007e 0D       		.uleb128 0xd
 3023 007f 13       		.uleb128 0x13
 3024 0080 01       		.byte	0x1
 3025 0081 0B       		.uleb128 0xb
 3026 0082 0B       		.uleb128 0xb
 3027 0083 3A       		.uleb128 0x3a
 3028 0084 0B       		.uleb128 0xb
 3029 0085 3B       		.uleb128 0x3b
 3030 0086 05       		.uleb128 0x5
 3031 0087 01       		.uleb128 0x1
 3032 0088 13       		.uleb128 0x13
 3033 0089 00       		.byte	0
 3034 008a 00       		.byte	0
 3035 008b 0E       		.uleb128 0xe
 3036 008c 0D       		.uleb128 0xd
 3037 008d 00       		.byte	0
 3038 008e 03       		.uleb128 0x3
 3039 008f 0E       		.uleb128 0xe
 3040 0090 3A       		.uleb128 0x3a
 3041 0091 0B       		.uleb128 0xb
 3042 0092 3B       		.uleb128 0x3b
 3043 0093 05       		.uleb128 0x5
 3044 0094 49       		.uleb128 0x49
 3045 0095 13       		.uleb128 0x13
 3046 0096 38       		.uleb128 0x38
 3047 0097 0B       		.uleb128 0xb
 3048 0098 00       		.byte	0
 3049 0099 00       		.byte	0
 3050 009a 0F       		.uleb128 0xf
 3051 009b 01       		.uleb128 0x1
 3052 009c 01       		.byte	0x1
 3053 009d 49       		.uleb128 0x49
 3054 009e 13       		.uleb128 0x13
 3055 009f 01       		.uleb128 0x1
 3056 00a0 13       		.uleb128 0x13
 3057 00a1 00       		.byte	0
 3058 00a2 00       		.byte	0
 3059 00a3 10       		.uleb128 0x10
 3060 00a4 21       		.uleb128 0x21
ARM GAS  C:\Users\Intern\AppData\Local\Temp\cc8xw9iJ.s 			page 93


 3061 00a5 00       		.byte	0
 3062 00a6 49       		.uleb128 0x49
 3063 00a7 13       		.uleb128 0x13
 3064 00a8 2F       		.uleb128 0x2f
 3065 00a9 0B       		.uleb128 0xb
 3066 00aa 00       		.byte	0
 3067 00ab 00       		.byte	0
 3068 00ac 11       		.uleb128 0x11
 3069 00ad 04       		.uleb128 0x4
 3070 00ae 01       		.byte	0x1
 3071 00af 0B       		.uleb128 0xb
 3072 00b0 0B       		.uleb128 0xb
 3073 00b1 49       		.uleb128 0x49
 3074 00b2 13       		.uleb128 0x13
 3075 00b3 3A       		.uleb128 0x3a
 3076 00b4 0B       		.uleb128 0xb
 3077 00b5 3B       		.uleb128 0x3b
 3078 00b6 0B       		.uleb128 0xb
 3079 00b7 01       		.uleb128 0x1
 3080 00b8 13       		.uleb128 0x13
 3081 00b9 00       		.byte	0
 3082 00ba 00       		.byte	0
 3083 00bb 12       		.uleb128 0x12
 3084 00bc 16       		.uleb128 0x16
 3085 00bd 00       		.byte	0
 3086 00be 03       		.uleb128 0x3
 3087 00bf 0E       		.uleb128 0xe
 3088 00c0 3A       		.uleb128 0x3a
 3089 00c1 0B       		.uleb128 0xb
 3090 00c2 3B       		.uleb128 0x3b
 3091 00c3 0B       		.uleb128 0xb
 3092 00c4 49       		.uleb128 0x49
 3093 00c5 13       		.uleb128 0x13
 3094 00c6 00       		.byte	0
 3095 00c7 00       		.byte	0
 3096 00c8 13       		.uleb128 0x13
 3097 00c9 0D       		.uleb128 0xd
 3098 00ca 00       		.byte	0
 3099 00cb 03       		.uleb128 0x3
 3100 00cc 08       		.uleb128 0x8
 3101 00cd 3A       		.uleb128 0x3a
 3102 00ce 0B       		.uleb128 0xb
 3103 00cf 3B       		.uleb128 0x3b
 3104 00d0 05       		.uleb128 0x5
 3105 00d1 49       		.uleb128 0x49
 3106 00d2 13       		.uleb128 0x13
 3107 00d3 38       		.uleb128 0x38
 3108 00d4 0B       		.uleb128 0xb
 3109 00d5 00       		.byte	0
 3110 00d6 00       		.byte	0
 3111 00d7 14       		.uleb128 0x14
 3112 00d8 13       		.uleb128 0x13
 3113 00d9 01       		.byte	0x1
 3114 00da 0B       		.uleb128 0xb
 3115 00db 0B       		.uleb128 0xb
 3116 00dc 3A       		.uleb128 0x3a
 3117 00dd 0B       		.uleb128 0xb
ARM GAS  C:\Users\Intern\AppData\Local\Temp\cc8xw9iJ.s 			page 94


 3118 00de 3B       		.uleb128 0x3b
 3119 00df 0B       		.uleb128 0xb
 3120 00e0 01       		.uleb128 0x1
 3121 00e1 13       		.uleb128 0x13
 3122 00e2 00       		.byte	0
 3123 00e3 00       		.byte	0
 3124 00e4 15       		.uleb128 0x15
 3125 00e5 0D       		.uleb128 0xd
 3126 00e6 00       		.byte	0
 3127 00e7 03       		.uleb128 0x3
 3128 00e8 0E       		.uleb128 0xe
 3129 00e9 3A       		.uleb128 0x3a
 3130 00ea 0B       		.uleb128 0xb
 3131 00eb 3B       		.uleb128 0x3b
 3132 00ec 0B       		.uleb128 0xb
 3133 00ed 49       		.uleb128 0x49
 3134 00ee 13       		.uleb128 0x13
 3135 00ef 38       		.uleb128 0x38
 3136 00f0 0B       		.uleb128 0xb
 3137 00f1 00       		.byte	0
 3138 00f2 00       		.byte	0
 3139 00f3 16       		.uleb128 0x16
 3140 00f4 2E       		.uleb128 0x2e
 3141 00f5 01       		.byte	0x1
 3142 00f6 03       		.uleb128 0x3
 3143 00f7 0E       		.uleb128 0xe
 3144 00f8 3A       		.uleb128 0x3a
 3145 00f9 0B       		.uleb128 0xb
 3146 00fa 3B       		.uleb128 0x3b
 3147 00fb 0B       		.uleb128 0xb
 3148 00fc 27       		.uleb128 0x27
 3149 00fd 19       		.uleb128 0x19
 3150 00fe 11       		.uleb128 0x11
 3151 00ff 01       		.uleb128 0x1
 3152 0100 12       		.uleb128 0x12
 3153 0101 06       		.uleb128 0x6
 3154 0102 40       		.uleb128 0x40
 3155 0103 18       		.uleb128 0x18
 3156 0104 9642     		.uleb128 0x2116
 3157 0106 19       		.uleb128 0x19
 3158 0107 01       		.uleb128 0x1
 3159 0108 13       		.uleb128 0x13
 3160 0109 00       		.byte	0
 3161 010a 00       		.byte	0
 3162 010b 17       		.uleb128 0x17
 3163 010c 05       		.uleb128 0x5
 3164 010d 00       		.byte	0
 3165 010e 03       		.uleb128 0x3
 3166 010f 0E       		.uleb128 0xe
 3167 0110 3A       		.uleb128 0x3a
 3168 0111 0B       		.uleb128 0xb
 3169 0112 3B       		.uleb128 0x3b
 3170 0113 0B       		.uleb128 0xb
 3171 0114 49       		.uleb128 0x49
 3172 0115 13       		.uleb128 0x13
 3173 0116 02       		.uleb128 0x2
 3174 0117 18       		.uleb128 0x18
ARM GAS  C:\Users\Intern\AppData\Local\Temp\cc8xw9iJ.s 			page 95


 3175 0118 00       		.byte	0
 3176 0119 00       		.byte	0
 3177 011a 18       		.uleb128 0x18
 3178 011b 34       		.uleb128 0x34
 3179 011c 00       		.byte	0
 3180 011d 03       		.uleb128 0x3
 3181 011e 0E       		.uleb128 0xe
 3182 011f 3A       		.uleb128 0x3a
 3183 0120 0B       		.uleb128 0xb
 3184 0121 3B       		.uleb128 0x3b
 3185 0122 0B       		.uleb128 0xb
 3186 0123 49       		.uleb128 0x49
 3187 0124 13       		.uleb128 0x13
 3188 0125 02       		.uleb128 0x2
 3189 0126 18       		.uleb128 0x18
 3190 0127 00       		.byte	0
 3191 0128 00       		.byte	0
 3192 0129 19       		.uleb128 0x19
 3193 012a 0B       		.uleb128 0xb
 3194 012b 01       		.byte	0x1
 3195 012c 11       		.uleb128 0x11
 3196 012d 01       		.uleb128 0x1
 3197 012e 12       		.uleb128 0x12
 3198 012f 06       		.uleb128 0x6
 3199 0130 00       		.byte	0
 3200 0131 00       		.byte	0
 3201 0132 1A       		.uleb128 0x1a
 3202 0133 34       		.uleb128 0x34
 3203 0134 00       		.byte	0
 3204 0135 03       		.uleb128 0x3
 3205 0136 0E       		.uleb128 0xe
 3206 0137 3A       		.uleb128 0x3a
 3207 0138 0B       		.uleb128 0xb
 3208 0139 3B       		.uleb128 0x3b
 3209 013a 05       		.uleb128 0x5
 3210 013b 49       		.uleb128 0x49
 3211 013c 13       		.uleb128 0x13
 3212 013d 02       		.uleb128 0x2
 3213 013e 18       		.uleb128 0x18
 3214 013f 00       		.byte	0
 3215 0140 00       		.byte	0
 3216 0141 1B       		.uleb128 0x1b
 3217 0142 2E       		.uleb128 0x2e
 3218 0143 01       		.byte	0x1
 3219 0144 03       		.uleb128 0x3
 3220 0145 0E       		.uleb128 0xe
 3221 0146 3A       		.uleb128 0x3a
 3222 0147 0B       		.uleb128 0xb
 3223 0148 3B       		.uleb128 0x3b
 3224 0149 05       		.uleb128 0x5
 3225 014a 27       		.uleb128 0x27
 3226 014b 19       		.uleb128 0x19
 3227 014c 11       		.uleb128 0x11
 3228 014d 01       		.uleb128 0x1
 3229 014e 12       		.uleb128 0x12
 3230 014f 06       		.uleb128 0x6
 3231 0150 40       		.uleb128 0x40
ARM GAS  C:\Users\Intern\AppData\Local\Temp\cc8xw9iJ.s 			page 96


 3232 0151 18       		.uleb128 0x18
 3233 0152 9642     		.uleb128 0x2116
 3234 0154 19       		.uleb128 0x19
 3235 0155 01       		.uleb128 0x1
 3236 0156 13       		.uleb128 0x13
 3237 0157 00       		.byte	0
 3238 0158 00       		.byte	0
 3239 0159 1C       		.uleb128 0x1c
 3240 015a 05       		.uleb128 0x5
 3241 015b 00       		.byte	0
 3242 015c 03       		.uleb128 0x3
 3243 015d 0E       		.uleb128 0xe
 3244 015e 3A       		.uleb128 0x3a
 3245 015f 0B       		.uleb128 0xb
 3246 0160 3B       		.uleb128 0x3b
 3247 0161 05       		.uleb128 0x5
 3248 0162 49       		.uleb128 0x49
 3249 0163 13       		.uleb128 0x13
 3250 0164 02       		.uleb128 0x2
 3251 0165 18       		.uleb128 0x18
 3252 0166 00       		.byte	0
 3253 0167 00       		.byte	0
 3254 0168 1D       		.uleb128 0x1d
 3255 0169 26       		.uleb128 0x26
 3256 016a 00       		.byte	0
 3257 016b 49       		.uleb128 0x49
 3258 016c 13       		.uleb128 0x13
 3259 016d 00       		.byte	0
 3260 016e 00       		.byte	0
 3261 016f 1E       		.uleb128 0x1e
 3262 0170 2E       		.uleb128 0x2e
 3263 0171 00       		.byte	0
 3264 0172 03       		.uleb128 0x3
 3265 0173 0E       		.uleb128 0xe
 3266 0174 3A       		.uleb128 0x3a
 3267 0175 0B       		.uleb128 0xb
 3268 0176 3B       		.uleb128 0x3b
 3269 0177 05       		.uleb128 0x5
 3270 0178 27       		.uleb128 0x27
 3271 0179 19       		.uleb128 0x19
 3272 017a 11       		.uleb128 0x11
 3273 017b 01       		.uleb128 0x1
 3274 017c 12       		.uleb128 0x12
 3275 017d 06       		.uleb128 0x6
 3276 017e 40       		.uleb128 0x40
 3277 017f 18       		.uleb128 0x18
 3278 0180 9742     		.uleb128 0x2117
 3279 0182 19       		.uleb128 0x19
 3280 0183 00       		.byte	0
 3281 0184 00       		.byte	0
 3282 0185 1F       		.uleb128 0x1f
 3283 0186 2E       		.uleb128 0x2e
 3284 0187 01       		.byte	0x1
 3285 0188 03       		.uleb128 0x3
 3286 0189 0E       		.uleb128 0xe
 3287 018a 3A       		.uleb128 0x3a
 3288 018b 0B       		.uleb128 0xb
ARM GAS  C:\Users\Intern\AppData\Local\Temp\cc8xw9iJ.s 			page 97


 3289 018c 3B       		.uleb128 0x3b
 3290 018d 05       		.uleb128 0x5
 3291 018e 27       		.uleb128 0x27
 3292 018f 19       		.uleb128 0x19
 3293 0190 11       		.uleb128 0x11
 3294 0191 01       		.uleb128 0x1
 3295 0192 12       		.uleb128 0x12
 3296 0193 06       		.uleb128 0x6
 3297 0194 40       		.uleb128 0x40
 3298 0195 18       		.uleb128 0x18
 3299 0196 9742     		.uleb128 0x2117
 3300 0198 19       		.uleb128 0x19
 3301 0199 01       		.uleb128 0x1
 3302 019a 13       		.uleb128 0x13
 3303 019b 00       		.byte	0
 3304 019c 00       		.byte	0
 3305 019d 20       		.uleb128 0x20
 3306 019e 2E       		.uleb128 0x2e
 3307 019f 01       		.byte	0x1
 3308 01a0 3F       		.uleb128 0x3f
 3309 01a1 19       		.uleb128 0x19
 3310 01a2 03       		.uleb128 0x3
 3311 01a3 0E       		.uleb128 0xe
 3312 01a4 3A       		.uleb128 0x3a
 3313 01a5 0B       		.uleb128 0xb
 3314 01a6 3B       		.uleb128 0x3b
 3315 01a7 05       		.uleb128 0x5
 3316 01a8 27       		.uleb128 0x27
 3317 01a9 19       		.uleb128 0x19
 3318 01aa 49       		.uleb128 0x49
 3319 01ab 13       		.uleb128 0x13
 3320 01ac 11       		.uleb128 0x11
 3321 01ad 01       		.uleb128 0x1
 3322 01ae 12       		.uleb128 0x12
 3323 01af 06       		.uleb128 0x6
 3324 01b0 40       		.uleb128 0x40
 3325 01b1 18       		.uleb128 0x18
 3326 01b2 9742     		.uleb128 0x2117
 3327 01b4 19       		.uleb128 0x19
 3328 01b5 01       		.uleb128 0x1
 3329 01b6 13       		.uleb128 0x13
 3330 01b7 00       		.byte	0
 3331 01b8 00       		.byte	0
 3332 01b9 21       		.uleb128 0x21
 3333 01ba 34       		.uleb128 0x34
 3334 01bb 00       		.byte	0
 3335 01bc 03       		.uleb128 0x3
 3336 01bd 08       		.uleb128 0x8
 3337 01be 3A       		.uleb128 0x3a
 3338 01bf 0B       		.uleb128 0xb
 3339 01c0 3B       		.uleb128 0x3b
 3340 01c1 05       		.uleb128 0x5
 3341 01c2 49       		.uleb128 0x49
 3342 01c3 13       		.uleb128 0x13
 3343 01c4 02       		.uleb128 0x2
 3344 01c5 18       		.uleb128 0x18
 3345 01c6 00       		.byte	0
ARM GAS  C:\Users\Intern\AppData\Local\Temp\cc8xw9iJ.s 			page 98


 3346 01c7 00       		.byte	0
 3347 01c8 22       		.uleb128 0x22
 3348 01c9 2E       		.uleb128 0x2e
 3349 01ca 01       		.byte	0x1
 3350 01cb 3F       		.uleb128 0x3f
 3351 01cc 19       		.uleb128 0x19
 3352 01cd 03       		.uleb128 0x3
 3353 01ce 0E       		.uleb128 0xe
 3354 01cf 3A       		.uleb128 0x3a
 3355 01d0 0B       		.uleb128 0xb
 3356 01d1 3B       		.uleb128 0x3b
 3357 01d2 05       		.uleb128 0x5
 3358 01d3 27       		.uleb128 0x27
 3359 01d4 19       		.uleb128 0x19
 3360 01d5 11       		.uleb128 0x11
 3361 01d6 01       		.uleb128 0x1
 3362 01d7 12       		.uleb128 0x12
 3363 01d8 06       		.uleb128 0x6
 3364 01d9 40       		.uleb128 0x40
 3365 01da 18       		.uleb128 0x18
 3366 01db 9642     		.uleb128 0x2116
 3367 01dd 19       		.uleb128 0x19
 3368 01de 01       		.uleb128 0x1
 3369 01df 13       		.uleb128 0x13
 3370 01e0 00       		.byte	0
 3371 01e1 00       		.byte	0
 3372 01e2 23       		.uleb128 0x23
 3373 01e3 0B       		.uleb128 0xb
 3374 01e4 01       		.byte	0x1
 3375 01e5 11       		.uleb128 0x11
 3376 01e6 01       		.uleb128 0x1
 3377 01e7 12       		.uleb128 0x12
 3378 01e8 06       		.uleb128 0x6
 3379 01e9 01       		.uleb128 0x1
 3380 01ea 13       		.uleb128 0x13
 3381 01eb 00       		.byte	0
 3382 01ec 00       		.byte	0
 3383 01ed 24       		.uleb128 0x24
 3384 01ee 34       		.uleb128 0x34
 3385 01ef 00       		.byte	0
 3386 01f0 03       		.uleb128 0x3
 3387 01f1 0E       		.uleb128 0xe
 3388 01f2 3A       		.uleb128 0x3a
 3389 01f3 0B       		.uleb128 0xb
 3390 01f4 3B       		.uleb128 0x3b
 3391 01f5 05       		.uleb128 0x5
 3392 01f6 49       		.uleb128 0x49
 3393 01f7 13       		.uleb128 0x13
 3394 01f8 3F       		.uleb128 0x3f
 3395 01f9 19       		.uleb128 0x19
 3396 01fa 3C       		.uleb128 0x3c
 3397 01fb 19       		.uleb128 0x19
 3398 01fc 00       		.byte	0
 3399 01fd 00       		.byte	0
 3400 01fe 25       		.uleb128 0x25
 3401 01ff 21       		.uleb128 0x21
 3402 0200 00       		.byte	0
ARM GAS  C:\Users\Intern\AppData\Local\Temp\cc8xw9iJ.s 			page 99


 3403 0201 49       		.uleb128 0x49
 3404 0202 13       		.uleb128 0x13
 3405 0203 2F       		.uleb128 0x2f
 3406 0204 05       		.uleb128 0x5
 3407 0205 00       		.byte	0
 3408 0206 00       		.byte	0
 3409 0207 26       		.uleb128 0x26
 3410 0208 34       		.uleb128 0x34
 3411 0209 00       		.byte	0
 3412 020a 03       		.uleb128 0x3
 3413 020b 0E       		.uleb128 0xe
 3414 020c 3A       		.uleb128 0x3a
 3415 020d 0B       		.uleb128 0xb
 3416 020e 3B       		.uleb128 0x3b
 3417 020f 0B       		.uleb128 0xb
 3418 0210 49       		.uleb128 0x49
 3419 0211 13       		.uleb128 0x13
 3420 0212 3F       		.uleb128 0x3f
 3421 0213 19       		.uleb128 0x19
 3422 0214 02       		.uleb128 0x2
 3423 0215 18       		.uleb128 0x18
 3424 0216 00       		.byte	0
 3425 0217 00       		.byte	0
 3426 0218 00       		.byte	0
 3427              		.section	.debug_aranges,"",%progbits
 3428 0000 5C000000 		.4byte	0x5c
 3429 0004 0200     		.2byte	0x2
 3430 0006 00000000 		.4byte	.Ldebug_info0
 3431 000a 04       		.byte	0x4
 3432 000b 00       		.byte	0
 3433 000c 0000     		.2byte	0
 3434 000e 0000     		.2byte	0
 3435 0010 00000000 		.4byte	.LFB2
 3436 0014 C4000000 		.4byte	.LFE2-.LFB2
 3437 0018 00000000 		.4byte	.LFB3
 3438 001c 30000000 		.4byte	.LFE3-.LFB3
 3439 0020 00000000 		.4byte	.LFB4
 3440 0024 1C000000 		.4byte	.LFE4-.LFB4
 3441 0028 00000000 		.4byte	.LFB5
 3442 002c 10000000 		.4byte	.LFE5-.LFB5
 3443 0030 00000000 		.4byte	.LFB6
 3444 0034 0A000000 		.4byte	.LFE6-.LFB6
 3445 0038 00000000 		.4byte	.LFB7
 3446 003c 60000000 		.4byte	.LFE7-.LFB7
 3447 0040 00000000 		.4byte	.LFB8
 3448 0044 14000000 		.4byte	.LFE8-.LFB8
 3449 0048 00000000 		.4byte	.LFB9
 3450 004c 10000000 		.4byte	.LFE9-.LFB9
 3451 0050 00000000 		.4byte	.LFB10
 3452 0054 38030000 		.4byte	.LFE10-.LFB10
 3453 0058 00000000 		.4byte	0
 3454 005c 00000000 		.4byte	0
 3455              		.section	.debug_ranges,"",%progbits
 3456              	.Ldebug_ranges0:
 3457 0000 00000000 		.4byte	.LFB2
 3458 0004 C4000000 		.4byte	.LFE2
 3459 0008 00000000 		.4byte	.LFB3
ARM GAS  C:\Users\Intern\AppData\Local\Temp\cc8xw9iJ.s 			page 100


 3460 000c 30000000 		.4byte	.LFE3
 3461 0010 00000000 		.4byte	.LFB4
 3462 0014 1C000000 		.4byte	.LFE4
 3463 0018 00000000 		.4byte	.LFB5
 3464 001c 10000000 		.4byte	.LFE5
 3465 0020 00000000 		.4byte	.LFB6
 3466 0024 0A000000 		.4byte	.LFE6
 3467 0028 00000000 		.4byte	.LFB7
 3468 002c 60000000 		.4byte	.LFE7
 3469 0030 00000000 		.4byte	.LFB8
 3470 0034 14000000 		.4byte	.LFE8
 3471 0038 00000000 		.4byte	.LFB9
 3472 003c 10000000 		.4byte	.LFE9
 3473 0040 00000000 		.4byte	.LFB10
 3474 0044 38030000 		.4byte	.LFE10
 3475 0048 00000000 		.4byte	0
 3476 004c 00000000 		.4byte	0
 3477              		.section	.debug_line,"",%progbits
 3478              	.Ldebug_line0:
 3479 0000 61020000 		.section	.debug_str,"MS",%progbits,1
 3479      0200EA00 
 3479      00000201 
 3479      FB0E0D00 
 3479      01010101 
 3480              	.LASF252:
 3481 0000 4359424C 		.ascii	"CYBLE_GATT_ERR_INVALID_CRC\000"
 3481      455F4741 
 3481      54545F45 
 3481      52525F49 
 3481      4E56414C 
 3482              	.LASF294:
 3483 001b 4359424C 		.ascii	"CYBLE_DIS_CHAR_COUNT\000"
 3483      455F4449 
 3483      535F4348 
 3483      41525F43 
 3483      4F554E54 
 3484              	.LASF16:
 3485 0030 73697A65 		.ascii	"sizetype\000"
 3485      74797065 
 3485      00
 3486              	.LASF186:
 3487 0039 656B6579 		.ascii	"ekeySize\000"
 3487      53697A65 
 3487      00
 3488              	.LASF221:
 3489 0042 4359424C 		.ascii	"CYBLE_GATT_HANDLE_VALUE_CNF\000"
 3489      455F4741 
 3489      54545F48 
 3489      414E444C 
 3489      455F5641 
 3490              	.LASF37:
 3491 005e 4359424C 		.ascii	"CYBLE_EVT_GAP_NUMERIC_COMPARISON_REQUEST\000"
 3491      455F4556 
 3491      545F4741 
 3491      505F4E55 
 3491      4D455249 
 3492              	.LASF334:
ARM GAS  C:\Users\Intern\AppData\Local\Temp\cc8xw9iJ.s 			page 101


 3493 0087 61706952 		.ascii	"apiResult\000"
 3493      6573756C 
 3493      7400
 3494              	.LASF318:
 3495 0091 4379426C 		.ascii	"CyBle_WriteReqHandler\000"
 3495      655F5772 
 3495      69746552 
 3495      65714861 
 3495      6E646C65 
 3496              	.LASF143:
 3497 00a7 72657175 		.ascii	"request\000"
 3497      65737400 
 3498              	.LASF180:
 3499 00af 4359424C 		.ascii	"CYBLE_GAP_AUTH_ERROR_CODE_SPEC_MAX_VALUE\000"
 3499      455F4741 
 3499      505F4155 
 3499      54485F45 
 3499      52524F52 
 3500              	.LASF320:
 3501 00d8 6576656E 		.ascii	"eventParam\000"
 3501      74506172 
 3501      616D00
 3502              	.LASF31:
 3503 00e3 4359424C 		.ascii	"CYBLE_EVT_GAP_DEVICE_CONNECTED\000"
 3503      455F4556 
 3503      545F4741 
 3503      505F4445 
 3503      56494345 
 3504              	.LASF163:
 3505 0102 4359424C 		.ascii	"CYBLE_GAP_IOCAP_NOINPUT_NOOUTPUT\000"
 3505      455F4741 
 3505      505F494F 
 3505      4341505F 
 3505      4E4F494E 
 3506              	.LASF49:
 3507 0123 4359424C 		.ascii	"CYBLE_EVT_GATT_CONNECT_IND\000"
 3507      455F4556 
 3507      545F4741 
 3507      54545F43 
 3507      4F4E4E45 
 3508              	.LASF301:
 3509 013e 4359424C 		.ascii	"CYBLE_HTS_VRD\000"
 3509      455F4854 
 3509      535F5652 
 3509      4400
 3510              	.LASF214:
 3511 014c 4359424C 		.ascii	"CYBLE_GATT_WRITE_CMD\000"
 3511      455F4741 
 3511      54545F57 
 3511      52495445 
 3511      5F434D44 
 3512              	.LASF11:
 3513 0161 75696E74 		.ascii	"uint32\000"
 3513      333200
 3514              	.LASF309:
 3515 0168 67617053 		.ascii	"gapServiceCharHandle\000"
 3515      65727669 
ARM GAS  C:\Users\Intern\AppData\Local\Temp\cc8xw9iJ.s 			page 102


 3515      63654368 
 3515      61724861 
 3515      6E646C65 
 3516              	.LASF137:
 3517 017d 626C6550 		.ascii	"blePwrLevelInDbm\000"
 3517      77724C65 
 3517      76656C49 
 3517      6E44626D 
 3517      00
 3518              	.LASF226:
 3519 018e 4359424C 		.ascii	"CYBLE_GATT_ERR_READ_NOT_PERMITTED\000"
 3519      455F4741 
 3519      54545F45 
 3519      52525F52 
 3519      4541445F 
 3520              	.LASF241:
 3521 01b0 4359424C 		.ascii	"CYBLE_GATT_ERR_INSUFFICIENT_RESOURCE\000"
 3521      455F4741 
 3521      54545F45 
 3521      52525F49 
 3521      4E535546 
 3522              	.LASF300:
 3523 01d5 4359424C 		.ascii	"CYBLE_HTS_CCCD\000"
 3523      455F4854 
 3523      535F4343 
 3523      434400
 3524              	.LASF215:
 3525 01e4 4359424C 		.ascii	"CYBLE_GATT_PREPARE_WRITE_REQ\000"
 3525      455F4741 
 3525      54545F50 
 3525      52455041 
 3525      52455F57 
 3526              	.LASF240:
 3527 0201 4359424C 		.ascii	"CYBLE_GATT_ERR_UNSUPPORTED_GROUP_TYPE\000"
 3527      455F4741 
 3527      54545F45 
 3527      52525F55 
 3527      4E535550 
 3528              	.LASF105:
 3529 0227 4359424C 		.ascii	"CYBLE_ERROR_L2CAP_CONNECTION_ENTITY_NOT_FOUND\000"
 3529      455F4552 
 3529      524F525F 
 3529      4C324341 
 3529      505F434F 
 3530              	.LASF111:
 3531 0255 4359424C 		.ascii	"CYBLE_ERROR_MIC_AUTH_FAILED\000"
 3531      455F4552 
 3531      524F525F 
 3531      4D49435F 
 3531      41555448 
 3532              	.LASF69:
 3533 0271 4359424C 		.ascii	"CYBLE_EVT_GATTS_DATA_SIGNED_CMD_REQ\000"
 3533      455F4556 
 3533      545F4741 
 3533      5454535F 
 3533      44415441 
 3534              	.LASF81:
ARM GAS  C:\Users\Intern\AppData\Local\Temp\cc8xw9iJ.s 			page 103


 3535 0295 4359424C 		.ascii	"CYBLE_EVT_L2CAP_CBFC_RX_CREDIT_IND\000"
 3535      455F4556 
 3535      545F4C32 
 3535      4341505F 
 3535      43424643 
 3536              	.LASF269:
 3537 02b8 4359424C 		.ascii	"CYBLE_GATT_VALUE_T\000"
 3537      455F4741 
 3537      54545F56 
 3537      414C5545 
 3537      5F5400
 3538              	.LASF332:
 3539 02cb 6D656D52 		.ascii	"memReq\000"
 3539      657100
 3540              	.LASF209:
 3541 02d2 4359424C 		.ascii	"CYBLE_GATT_READ_MULTIPLE_RSP\000"
 3541      455F4741 
 3541      54545F52 
 3541      4541445F 
 3541      4D554C54 
 3542              	.LASF148:
 3543 02ef 74797065 		.ascii	"type\000"
 3543      00
 3544              	.LASF154:
 3545 02f4 4359424C 		.ascii	"CYBLE_TO_REASON_CODE_T\000"
 3545      455F544F 
 3545      5F524541 
 3545      534F4E5F 
 3545      434F4445 
 3546              	.LASF242:
 3547 030b 4359424C 		.ascii	"CYBLE_GATT_ERR_TRIGGER_CODITION_VALUE_NOT_SUPPORTED"
 3547      455F4741 
 3547      54545F45 
 3547      52525F54 
 3547      52494747 
 3548 033e 00       		.ascii	"\000"
 3549              	.LASF181:
 3550 033f 4359424C 		.ascii	"CYBLE_GAP_AUTH_ERROR_AUTHENTICATION_TIMEOUT\000"
 3550      455F4741 
 3550      505F4155 
 3550      54485F45 
 3550      52524F52 
 3551              	.LASF173:
 3552 036b 4359424C 		.ascii	"CYBLE_GAP_AUTH_ERROR_UNSPECIFIED_REASON\000"
 3552      455F4741 
 3552      505F4155 
 3552      54485F45 
 3552      52524F52 
 3553              	.LASF203:
 3554 0393 4359424C 		.ascii	"CYBLE_GATT_READ_BY_TYPE_RSP\000"
 3554      455F4741 
 3554      54545F52 
 3554      4541445F 
 3554      42595F54 
 3555              	.LASF284:
 3556 03af 4359424C 		.ascii	"CYBLE_CALLBACK_T\000"
 3556      455F4341 
ARM GAS  C:\Users\Intern\AppData\Local\Temp\cc8xw9iJ.s 			page 104


 3556      4C4C4241 
 3556      434B5F54 
 3556      00
 3557              	.LASF289:
 3558 03c0 4359424C 		.ascii	"CYBLE_DIS_FIRMWARE_REV\000"
 3558      455F4449 
 3558      535F4649 
 3558      524D5741 
 3558      52455F52 
 3559              	.LASF66:
 3560 03d7 4359424C 		.ascii	"CYBLE_EVT_GATTC_HANDLE_VALUE_NTF\000"
 3560      455F4556 
 3560      545F4741 
 3560      5454435F 
 3560      48414E44 
 3561              	.LASF25:
 3562 03f8 4359424C 		.ascii	"CYBLE_EVT_GAP_AUTH_REQ\000"
 3562      455F4556 
 3562      545F4741 
 3562      505F4155 
 3562      54485F52 
 3563              	.LASF267:
 3564 040f 4359424C 		.ascii	"CYBLE_CONN_HANDLE_T\000"
 3564      455F434F 
 3564      4E4E5F48 
 3564      414E444C 
 3564      455F5400 
 3565              	.LASF100:
 3566 0423 4359424C 		.ascii	"CYBLE_ERROR_BT_ON_NOT_COMPLETED\000"
 3566      455F4552 
 3566      524F525F 
 3566      42545F4F 
 3566      4E5F4E4F 
 3567              	.LASF160:
 3568 0443 4359424C 		.ascii	"CYBLE_GAP_IOCAP_DISPLAY_ONLY\000"
 3568      455F4741 
 3568      505F494F 
 3568      4341505F 
 3568      44495350 
 3569              	.LASF46:
 3570 0460 4359424C 		.ascii	"CYBLE_EVT_GAP_AUTH_REQ_REPLY_ERR\000"
 3570      455F4556 
 3570      545F4741 
 3570      505F4155 
 3570      54485F52 
 3571              	.LASF126:
 3572 0481 4359424C 		.ascii	"CYBLE_LL_PWR_LVL_NEG_3_DBM\000"
 3572      455F4C4C 
 3572      5F505752 
 3572      5F4C564C 
 3572      5F4E4547 
 3573              	.LASF325:
 3574 049c 61646472 		.ascii	"addressValid\000"
 3574      65737356 
 3574      616C6964 
 3574      00
 3575              	.LASF306:
ARM GAS  C:\Users\Intern\AppData\Local\Temp\cc8xw9iJ.s 			page 105


 3576 04a9 4359424C 		.ascii	"CYBLE_STATE_ADVERTISING\000"
 3576      455F5354 
 3576      4154455F 
 3576      41445645 
 3576      52544953 
 3577              	.LASF39:
 3578 04c1 4359424C 		.ascii	"CYBLE_EVT_GAP_OOB_GENERATED_NOTIFICATION\000"
 3578      455F4556 
 3578      545F4741 
 3578      505F4F4F 
 3578      425F4745 
 3579              	.LASF265:
 3580 04ea 62644861 		.ascii	"bdHandle\000"
 3580      6E646C65 
 3580      00
 3581              	.LASF254:
 3582 04f3 4359424C 		.ascii	"CYBLE_GATTS_ERR_NETWORK_NOT_AVAILABLE\000"
 3582      455F4741 
 3582      5454535F 
 3582      4552525F 
 3582      4E455457 
 3583              	.LASF166:
 3584 0519 4359424C 		.ascii	"CYBLE_GAP_AUTH_ERROR_PASSKEY_ENTRY_FAILED\000"
 3584      455F4741 
 3584      505F4155 
 3584      54485F45 
 3584      52524F52 
 3585              	.LASF257:
 3586 0543 4359424C 		.ascii	"CYBLE_GATT_ERR_ANCS_INVALID_COMMAND\000"
 3586      455F4741 
 3586      54545F45 
 3586      52525F41 
 3586      4E43535F 
 3587              	.LASF124:
 3588 0567 4359424C 		.ascii	"CYBLE_LL_PWR_LVL_NEG_12_DBM\000"
 3588      455F4C4C 
 3588      5F505752 
 3588      5F4C564C 
 3588      5F4E4547 
 3589              	.LASF197:
 3590 0583 4359424C 		.ascii	"CYBLE_GATT_XCHNG_MTU_RSP\000"
 3590      455F4741 
 3590      54545F58 
 3590      43484E47 
 3590      5F4D5455 
 3591              	.LASF62:
 3592 059c 4359424C 		.ascii	"CYBLE_EVT_GATTS_WRITE_CMD_REQ\000"
 3592      455F4556 
 3592      545F4741 
 3592      5454535F 
 3592      57524954 
 3593              	.LASF82:
 3594 05ba 4359424C 		.ascii	"CYBLE_EVT_L2CAP_CBFC_TX_CREDIT_IND\000"
 3594      455F4556 
 3594      545F4C32 
 3594      4341505F 
 3594      43424643 
ARM GAS  C:\Users\Intern\AppData\Local\Temp\cc8xw9iJ.s 			page 106


 3595              	.LASF4:
 3596 05dd 6C6F6E67 		.ascii	"long int\000"
 3596      20696E74 
 3596      00
 3597              	.LASF297:
 3598 05e6 4359424C 		.ascii	"CYBLE_HTS_INTERM_TEMP\000"
 3598      455F4854 
 3598      535F494E 
 3598      5445524D 
 3598      5F54454D 
 3599              	.LASF155:
 3600 05fc 4359424C 		.ascii	"CYBLE_GAP_SEC_LEVEL_1\000"
 3600      455F4741 
 3600      505F5345 
 3600      435F4C45 
 3600      56454C5F 
 3601              	.LASF156:
 3602 0612 4359424C 		.ascii	"CYBLE_GAP_SEC_LEVEL_2\000"
 3602      455F4741 
 3602      505F5345 
 3602      435F4C45 
 3602      56454C5F 
 3603              	.LASF157:
 3604 0628 4359424C 		.ascii	"CYBLE_GAP_SEC_LEVEL_3\000"
 3604      455F4741 
 3604      505F5345 
 3604      435F4C45 
 3604      56454C5F 
 3605              	.LASF158:
 3606 063e 4359424C 		.ascii	"CYBLE_GAP_SEC_LEVEL_4\000"
 3606      455F4741 
 3606      505F5345 
 3606      435F4C45 
 3606      56454C5F 
 3607              	.LASF201:
 3608 0654 4359424C 		.ascii	"CYBLE_GATT_FIND_BY_TYPE_VALUE_RSP\000"
 3608      455F4741 
 3608      54545F46 
 3608      494E445F 
 3608      42595F54 
 3609              	.LASF18:
 3610 0676 4359424C 		.ascii	"CYBLE_EVT_STACK_ON\000"
 3610      455F4556 
 3610      545F5354 
 3610      41434B5F 
 3610      4F4E00
 3611              	.LASF107:
 3612 0689 4359424C 		.ascii	"CYBLE_ERROR_L2CAP_PSM_NOT_IN_RANGE\000"
 3612      455F4552 
 3612      524F525F 
 3612      4C324341 
 3612      505F5053 
 3613              	.LASF288:
 3614 06ac 4359424C 		.ascii	"CYBLE_DIS_HARDWARE_REV\000"
 3614      455F4449 
 3614      535F4841 
 3614      52445741 
ARM GAS  C:\Users\Intern\AppData\Local\Temp\cc8xw9iJ.s 			page 107


 3614      52455F52 
 3615              	.LASF339:
 3616 06c3 6379426C 		.ascii	"cyBle_deviceAddress\000"
 3616      655F6465 
 3616      76696365 
 3616      41646472 
 3616      65737300 
 3617              	.LASF253:
 3618 06d7 4359424C 		.ascii	"CYBLE_GATTS_ERR_HPS_INVALID_REQUEST\000"
 3618      455F4741 
 3618      5454535F 
 3618      4552525F 
 3618      4850535F 
 3619              	.LASF228:
 3620 06fb 4359424C 		.ascii	"CYBLE_GATT_ERR_INVALID_PDU\000"
 3620      455F4741 
 3620      54545F45 
 3620      52525F49 
 3620      4E56414C 
 3621              	.LASF169:
 3622 0716 4359424C 		.ascii	"CYBLE_GAP_AUTH_ERROR_CONFIRM_VALUE_NOT_MATCH\000"
 3622      455F4741 
 3622      505F4155 
 3622      54485F45 
 3622      52524F52 
 3623              	.LASF119:
 3624 0743 4359424C 		.ascii	"CYBLE_ERROR_CHAR_IS_NOT_DISCOVERED\000"
 3624      455F4552 
 3624      524F525F 
 3624      43484152 
 3624      5F49535F 
 3625              	.LASF272:
 3626 0766 4359424C 		.ascii	"CYBLE_GATT_HANDLE_VALUE_PAIR_T\000"
 3626      455F4741 
 3626      54545F48 
 3626      414E444C 
 3626      455F5641 
 3627              	.LASF138:
 3628 0785 626C6553 		.ascii	"bleSsChId\000"
 3628      73436849 
 3628      6400
 3629              	.LASF75:
 3630 078f 4359424C 		.ascii	"CYBLE_EVT_L2CAP_COMMAND_REJ\000"
 3630      455F4556 
 3630      545F4C32 
 3630      4341505F 
 3630      434F4D4D 
 3631              	.LASF314:
 3632 07ab 7270614F 		.ascii	"rpaOnlyCharHandle\000"
 3632      6E6C7943 
 3632      68617248 
 3632      616E646C 
 3632      6500
 3633              	.LASF207:
 3634 07bd 4359424C 		.ascii	"CYBLE_GATT_READ_BLOB_RSP\000"
 3634      455F4741 
 3634      54545F52 
ARM GAS  C:\Users\Intern\AppData\Local\Temp\cc8xw9iJ.s 			page 108


 3634      4541445F 
 3634      424C4F42 
 3635              	.LASF237:
 3636 07d6 4359424C 		.ascii	"CYBLE_GATT_ERR_INVALID_ATTRIBUTE_LEN\000"
 3636      455F4741 
 3636      54545F45 
 3636      52525F49 
 3636      4E56414C 
 3637              	.LASF108:
 3638 07fb 4359424C 		.ascii	"CYBLE_ERROR_GATT_DB_INVALID_ATTR_HANDLE\000"
 3638      455F4552 
 3638      524F525F 
 3638      47415454 
 3638      5F44425F 
 3639              	.LASF0:
 3640 0823 7369676E 		.ascii	"signed char\000"
 3640      65642063 
 3640      68617200 
 3641              	.LASF123:
 3642 082f 4359424C 		.ascii	"CYBLE_LL_PWR_LVL_NEG_18_DBM\000"
 3642      455F4C4C 
 3642      5F505752 
 3642      5F4C564C 
 3642      5F4E4547 
 3643              	.LASF198:
 3644 084b 4359424C 		.ascii	"CYBLE_GATT_FIND_INFO_REQ\000"
 3644      455F4741 
 3644      54545F46 
 3644      494E445F 
 3644      494E464F 
 3645              	.LASF20:
 3646 0864 4359424C 		.ascii	"CYBLE_EVT_HARDWARE_ERROR\000"
 3646      455F4556 
 3646      545F4841 
 3646      52445741 
 3646      52455F45 
 3647              	.LASF351:
 3648 087d 4379426C 		.ascii	"CyBle_EventHandler\000"
 3648      655F4576 
 3648      656E7448 
 3648      616E646C 
 3648      657200
 3649              	.LASF89:
 3650 0890 4359424C 		.ascii	"CYBLE_ERROR_OK\000"
 3650      455F4552 
 3650      524F525F 
 3650      4F4B00
 3651              	.LASF136:
 3652 089f 4359424C 		.ascii	"CYBLE_BLESS_PHY_CH_GRP_ID_T\000"
 3652      455F424C 
 3652      4553535F 
 3652      5048595F 
 3652      43485F47 
 3653              	.LASF260:
 3654 08bb 4359424C 		.ascii	"CYBLE_GATT_ERR_CCCD_IMPROPERLY_CONFIGURED\000"
 3654      455F4741 
 3654      54545F45 
ARM GAS  C:\Users\Intern\AppData\Local\Temp\cc8xw9iJ.s 			page 109


 3654      52525F43 
 3654      4343445F 
 3655              	.LASF53:
 3656 08e5 4359424C 		.ascii	"CYBLE_EVT_GATTC_READ_BY_GROUP_TYPE_RSP\000"
 3656      455F4556 
 3656      545F4741 
 3656      5454435F 
 3656      52454144 
 3657              	.LASF179:
 3658 090c 4359424C 		.ascii	"CYBLE_GAP_AUTH_ERROR_CROSS_TRANSPORT_KEY_GEN_DER_NO"
 3658      455F4741 
 3658      505F4155 
 3658      54485F45 
 3658      52524F52 
 3659 093f 545F414C 		.ascii	"T_ALLOWED\000"
 3659      4C4F5745 
 3659      4400
 3660              	.LASF303:
 3661 0949 4359424C 		.ascii	"CYBLE_STATE_STOPPED\000"
 3661      455F5354 
 3661      4154455F 
 3661      53544F50 
 3661      50454400 
 3662              	.LASF281:
 3663 095d 4359424C 		.ascii	"CYBLE_GATTS_ERR_PARAM_T\000"
 3663      455F4741 
 3663      5454535F 
 3663      4552525F 
 3663      50415241 
 3664              	.LASF1:
 3665 0975 756E7369 		.ascii	"unsigned char\000"
 3665      676E6564 
 3665      20636861 
 3665      7200
 3666              	.LASF52:
 3667 0983 4359424C 		.ascii	"CYBLE_EVT_GATTC_XCHNG_MTU_RSP\000"
 3667      455F4556 
 3667      545F4741 
 3667      5454435F 
 3667      5843484E 
 3668              	.LASF220:
 3669 09a1 4359424C 		.ascii	"CYBLE_GATT_HANDLE_VALUE_IND\000"
 3669      455F4741 
 3669      54545F48 
 3669      414E444C 
 3669      455F5641 
 3670              	.LASF43:
 3671 09bd 4359424C 		.ascii	"CYBLE_EVT_GAP_SMP_NEGOTIATED_AUTH_INFO\000"
 3671      455F4556 
 3671      545F4741 
 3671      505F534D 
 3671      505F4E45 
 3672              	.LASF44:
 3673 09e4 4359424C 		.ascii	"CYBLE_EVT_GAP_CONN_ESTB\000"
 3673      455F4556 
 3673      545F4741 
 3673      505F434F 
ARM GAS  C:\Users\Intern\AppData\Local\Temp\cc8xw9iJ.s 			page 110


 3673      4E4E5F45 
 3674              	.LASF280:
 3675 09fc 6572726F 		.ascii	"errorCode\000"
 3675      72436F64 
 3675      6500
 3676              	.LASF175:
 3677 0a06 4359424C 		.ascii	"CYBLE_GAP_AUTH_ERROR_INVALID_PARAMETERS\000"
 3677      455F4741 
 3677      505F4155 
 3677      54485F45 
 3677      52524F52 
 3678              	.LASF145:
 3679 0a2e 636F6E66 		.ascii	"configMemory\000"
 3679      69674D65 
 3679      6D6F7279 
 3679      00
 3680              	.LASF79:
 3681 0a3b 4359424C 		.ascii	"CYBLE_EVT_L2CAP_CBFC_DISCONN_CNF\000"
 3681      455F4556 
 3681      545F4C32 
 3681      4341505F 
 3681      43424643 
 3682              	.LASF56:
 3683 0a5c 4359424C 		.ascii	"CYBLE_EVT_GATTC_FIND_BY_TYPE_VALUE_RSP\000"
 3683      455F4556 
 3683      545F4741 
 3683      5454435F 
 3683      46494E44 
 3684              	.LASF40:
 3685 0a83 4359424C 		.ascii	"CYBLE_EVT_GAP_DATA_LENGTH_CHANGE\000"
 3685      455F4556 
 3685      545F4741 
 3685      505F4441 
 3685      54415F4C 
 3686              	.LASF14:
 3687 0aa4 63686172 		.ascii	"char\000"
 3687      00
 3688              	.LASF127:
 3689 0aa9 4359424C 		.ascii	"CYBLE_LL_PWR_LVL_NEG_2_DBM\000"
 3689      455F4C4C 
 3689      5F505752 
 3689      5F4C564C 
 3689      5F4E4547 
 3690              	.LASF213:
 3691 0ac4 4359424C 		.ascii	"CYBLE_GATT_WRITE_RSP\000"
 3691      455F4741 
 3691      54545F57 
 3691      52495445 
 3691      5F525350 
 3692              	.LASF59:
 3693 0ad9 4359424C 		.ascii	"CYBLE_EVT_GATTC_READ_MULTI_RSP\000"
 3693      455F4556 
 3693      545F4741 
 3693      5454435F 
 3693      52454144 
 3694              	.LASF189:
 3695 0af8 4359424C 		.ascii	"CYBLE_GAP_AUTH_INFO_T\000"
ARM GAS  C:\Users\Intern\AppData\Local\Temp\cc8xw9iJ.s 			page 111


 3695      455F4741 
 3695      505F4155 
 3695      54485F49 
 3695      4E464F5F 
 3696              	.LASF162:
 3697 0b0e 4359424C 		.ascii	"CYBLE_GAP_IOCAP_KEYBOARD_ONLY\000"
 3697      455F4741 
 3697      505F494F 
 3697      4341505F 
 3697      4B455942 
 3698              	.LASF17:
 3699 0b2c 4359424C 		.ascii	"CYBLE_EVT_HOST_INVALID\000"
 3699      455F4556 
 3699      545F484F 
 3699      53545F49 
 3699      4E56414C 
 3700              	.LASF249:
 3701 0b43 4359424C 		.ascii	"CYBLE_GATT_ERR_MISSING_CRC\000"
 3701      455F4741 
 3701      54545F45 
 3701      52525F4D 
 3701      49535349 
 3702              	.LASF238:
 3703 0b5e 4359424C 		.ascii	"CYBLE_GATT_ERR_UNLIKELY_ERROR\000"
 3703      455F4741 
 3703      54545F45 
 3703      52525F55 
 3703      4E4C494B 
 3704              	.LASF42:
 3705 0b7c 4359424C 		.ascii	"CYBLE_EVT_GAPC_DIRECT_ADV_REPORT\000"
 3705      455F4556 
 3705      545F4741 
 3705      50435F44 
 3705      49524543 
 3706              	.LASF196:
 3707 0b9d 4359424C 		.ascii	"CYBLE_GATT_XCNHG_MTU_REQ\000"
 3707      455F4741 
 3707      54545F58 
 3707      434E4847 
 3707      5F4D5455 
 3708              	.LASF96:
 3709 0bb6 4359424C 		.ascii	"CYBLE_ERROR_NO_DEVICE_ENTITY\000"
 3709      455F4552 
 3709      524F525F 
 3709      4E4F5F44 
 3709      45564943 
 3710              	.LASF58:
 3711 0bd3 4359424C 		.ascii	"CYBLE_EVT_GATTC_READ_BLOB_RSP\000"
 3711      455F4556 
 3711      545F4741 
 3711      5454435F 
 3711      52454144 
 3712              	.LASF324:
 3713 0bf1 64657669 		.ascii	"deviceAddress\000"
 3713      63654164 
 3713      64726573 
 3713      7300
ARM GAS  C:\Users\Intern\AppData\Local\Temp\cc8xw9iJ.s 			page 112


 3714              	.LASF338:
 3715 0bff 6379426C 		.ascii	"cyBle_eventHandlerFlag\000"
 3715      655F6576 
 3715      656E7448 
 3715      616E646C 
 3715      6572466C 
 3716              	.LASF65:
 3717 0c16 4359424C 		.ascii	"CYBLE_EVT_GATTC_EXEC_WRITE_RSP\000"
 3717      455F4556 
 3717      545F4741 
 3717      5454435F 
 3717      45584543 
 3718              	.LASF243:
 3719 0c35 4359424C 		.ascii	"CYBLE_GATT_ERR_HEART_RATE_CONTROL_POINT_NOT_SUPPORT"
 3719      455F4741 
 3719      54545F45 
 3719      52525F48 
 3719      45415254 
 3720 0c68 454400   		.ascii	"ED\000"
 3721              	.LASF235:
 3722 0c6b 4359424C 		.ascii	"CYBLE_GATT_ERR_ATTRIBUTE_NOT_LONG\000"
 3722      455F4741 
 3722      54545F45 
 3722      52525F41 
 3722      54545249 
 3723              	.LASF159:
 3724 0c8d 4359424C 		.ascii	"CYBLE_GAP_SEC_LEVEL_MASK\000"
 3724      455F4741 
 3724      505F5345 
 3724      435F4C45 
 3724      56454C5F 
 3725              	.LASF290:
 3726 0ca6 4359424C 		.ascii	"CYBLE_DIS_SOFTWARE_REV\000"
 3726      455F4449 
 3726      535F534F 
 3726      46545741 
 3726      52455F52 
 3727              	.LASF70:
 3728 0cbd 4359424C 		.ascii	"CYBLE_EVT_GATTC_STOP_CMD_COMPLETE\000"
 3728      455F4556 
 3728      545F4741 
 3728      5454435F 
 3728      53544F50 
 3729              	.LASF259:
 3730 0cdf 4359424C 		.ascii	"CYBLE_GATT_ERR_ANCS_ACTION_FAILED\000"
 3730      455F4741 
 3730      54545F45 
 3730      52525F41 
 3730      4E43535F 
 3731              	.LASF286:
 3732 0d01 4359424C 		.ascii	"CYBLE_DIS_MODEL_NUMBER\000"
 3732      455F4449 
 3732      535F4D4F 
 3732      44454C5F 
 3732      4E554D42 
 3733              	.LASF345:
 3734 0d18 6379426C 		.ascii	"cyBle_gaps\000"
ARM GAS  C:\Users\Intern\AppData\Local\Temp\cc8xw9iJ.s 			page 113


 3734      655F6761 
 3734      707300
 3735              	.LASF343:
 3736 0d23 6379426C 		.ascii	"cyBle_connHandle\000"
 3736      655F636F 
 3736      6E6E4861 
 3736      6E646C65 
 3736      00
 3737              	.LASF291:
 3738 0d34 4359424C 		.ascii	"CYBLE_DIS_SYSTEM_ID\000"
 3738      455F4449 
 3738      535F5359 
 3738      5354454D 
 3738      5F494400 
 3739              	.LASF195:
 3740 0d48 4359424C 		.ascii	"CYBLE_GATT_ERROR_RSP\000"
 3740      455F4741 
 3740      54545F45 
 3740      52524F52 
 3740      5F525350 
 3741              	.LASF115:
 3742 0d5d 4359424C 		.ascii	"CYBLE_ERROR_CONTROLLER_BUSY\000"
 3742      455F4552 
 3742      524F525F 
 3742      434F4E54 
 3742      524F4C4C 
 3743              	.LASF90:
 3744 0d79 4359424C 		.ascii	"CYBLE_ERROR_INVALID_PARAMETER\000"
 3744      455F4552 
 3744      524F525F 
 3744      494E5641 
 3744      4C49445F 
 3745              	.LASF328:
 3746 0d97 4379426C 		.ascii	"CyBle_GapConnUpdateCompleteEventHandler\000"
 3746      655F4761 
 3746      70436F6E 
 3746      6E557064 
 3746      61746543 
 3747              	.LASF178:
 3748 0dbf 4359424C 		.ascii	"CYBLE_GAP_AUTH_ERROR_BR_EDR_PAIRING_IN_PROGRESS\000"
 3748      455F4741 
 3748      505F4155 
 3748      54485F45 
 3748      52524F52 
 3749              	.LASF92:
 3750 0def 4359424C 		.ascii	"CYBLE_ERROR_MEMORY_ALLOCATION_FAILED\000"
 3750      455F4552 
 3750      524F525F 
 3750      4D454D4F 
 3750      52595F41 
 3751              	.LASF277:
 3752 0e14 70726570 		.ascii	"prepareWriteQueueSize\000"
 3752      61726557 
 3752      72697465 
 3752      51756575 
 3752      6553697A 
 3753              	.LASF340:
ARM GAS  C:\Users\Intern\AppData\Local\Temp\cc8xw9iJ.s 			page 114


 3754 0e2a 6379426C 		.ascii	"cyBle_sflashDeviceAddress\000"
 3754      655F7366 
 3754      6C617368 
 3754      44657669 
 3754      63654164 
 3755              	.LASF222:
 3756 0e44 4359424C 		.ascii	"CYBLE_GATT_SIGNED_WRITE_CMD\000"
 3756      455F4741 
 3756      54545F53 
 3756      49474E45 
 3756      445F5752 
 3757              	.LASF250:
 3758 0e60 4359424C 		.ascii	"CYBLE_GATTS_ERR_CCCD_IMPROPERLY_CONFIGURED\000"
 3758      455F4741 
 3758      5454535F 
 3758      4552525F 
 3758      43434344 
 3759              	.LASF218:
 3760 0e8b 4359424C 		.ascii	"CYBLE_GATT_EXECUTE_WRITE_RSP\000"
 3760      455F4741 
 3760      54545F45 
 3760      58454355 
 3760      54455F57 
 3761              	.LASF116:
 3762 0ea8 4359424C 		.ascii	"CYBLE_ERROR_MAX\000"
 3762      455F4552 
 3762      524F525F 
 3762      4D415800 
 3763              	.LASF74:
 3764 0eb8 4359424C 		.ascii	"CYBLE_EVT_L2CAP_CONN_PARAM_UPDATE_RSP\000"
 3764      455F4556 
 3764      545F4C32 
 3764      4341505F 
 3764      434F4E4E 
 3765              	.LASF182:
 3766 0ede 4359424C 		.ascii	"CYBLE_GAP_AUTH_ERROR_LINK_DISCONNECTED\000"
 3766      455F4741 
 3766      505F4155 
 3766      54485F45 
 3766      52524F52 
 3767              	.LASF86:
 3768 0f05 4359424C 		.ascii	"CYBLE_EVT_HCI_PKT\000"
 3768      455F4556 
 3768      545F4843 
 3768      495F504B 
 3768      5400
 3769              	.LASF347:
 3770 0f17 474E5520 		.ascii	"GNU C11 5.4.1 20160609 (release) [ARM/embedded-5-br"
 3770      43313120 
 3770      352E342E 
 3770      31203230 
 3770      31363036 
 3771 0f4a 616E6368 		.ascii	"anch revision 237715] -mcpu=cortex-m0 -mthumb -g -O"
 3771      20726576 
 3771      6973696F 
 3771      6E203233 
 3771      37373135 
ARM GAS  C:\Users\Intern\AppData\Local\Temp\cc8xw9iJ.s 			page 115


 3772 0f7d 30202D66 		.ascii	"0 -ffunction-sections -ffat-lto-objects\000"
 3772      66756E63 
 3772      74696F6E 
 3772      2D736563 
 3772      74696F6E 
 3773              	.LASF349:
 3774 0fa5 433A5C55 		.ascii	"C:\\Users\\Intern\\Documents\\GitHub\\UV-Sticker\\P"
 3774      73657273 
 3774      5C496E74 
 3774      65726E5C 
 3774      446F6375 
 3775 0fd2 736F635C 		.ascii	"soc\\UV-Project\\BLE_Temp_Test.cydsn\000"
 3775      55562D50 
 3775      726F6A65 
 3775      63745C42 
 3775      4C455F54 
 3776              	.LASF244:
 3777 0ff5 4359424C 		.ascii	"CYBLE_GATT_ERR_USER_DATA_ACCESS_NOT_PERMITTED\000"
 3777      455F4741 
 3777      54545F45 
 3777      52525F55 
 3777      5345525F 
 3778              	.LASF28:
 3779 1023 4359424C 		.ascii	"CYBLE_EVT_GAP_AUTH_COMPLETE\000"
 3779      455F4556 
 3779      545F4741 
 3779      505F4155 
 3779      54485F43 
 3780              	.LASF29:
 3781 103f 4359424C 		.ascii	"CYBLE_EVT_GAP_AUTH_FAILED\000"
 3781      455F4556 
 3781      545F4741 
 3781      505F4155 
 3781      54485F46 
 3782              	.LASF144:
 3783 1059 616C6C6F 		.ascii	"allocFree\000"
 3783      63467265 
 3783      6500
 3784              	.LASF121:
 3785 1063 4359424C 		.ascii	"CYBLE_ERROR_STACK_BUSY\000"
 3785      455F4552 
 3785      524F525F 
 3785      53544143 
 3785      4B5F4255 
 3786              	.LASF211:
 3787 107a 4359424C 		.ascii	"CYBLE_GATT_READ_BY_GROUP_RSP\000"
 3787      455F4741 
 3787      54545F52 
 3787      4541445F 
 3787      42595F47 
 3788              	.LASF93:
 3789 1097 4359424C 		.ascii	"CYBLE_ERROR_INSUFFICIENT_RESOURCES\000"
 3789      455F4552 
 3789      524F525F 
 3789      494E5355 
 3789      46464943 
 3790              	.LASF248:
ARM GAS  C:\Users\Intern\AppData\Local\Temp\cc8xw9iJ.s 			page 116


 3791 10ba 4359424C 		.ascii	"CYBLE_GATT_ERR_OP_CODE_NOT_SUPPORTED\000"
 3791      455F4741 
 3791      54545F45 
 3791      52525F4F 
 3791      505F434F 
 3792              	.LASF130:
 3793 10df 4359424C 		.ascii	"CYBLE_LL_PWR_LVL_3_DBM\000"
 3793      455F4C4C 
 3793      5F505752 
 3793      5F4C564C 
 3793      5F335F44 
 3794              	.LASF5:
 3795 10f6 6C6F6E67 		.ascii	"long unsigned int\000"
 3795      20756E73 
 3795      69676E65 
 3795      6420696E 
 3795      7400
 3796              	.LASF204:
 3797 1108 4359424C 		.ascii	"CYBLE_GATT_READ_REQ\000"
 3797      455F4741 
 3797      54545F52 
 3797      4541445F 
 3797      52455100 
 3798              	.LASF190:
 3799 111c 73746174 		.ascii	"status\000"
 3799      757300
 3800              	.LASF128:
 3801 1123 4359424C 		.ascii	"CYBLE_LL_PWR_LVL_NEG_1_DBM\000"
 3801      455F4C4C 
 3801      5F505752 
 3801      5F4C564C 
 3801      5F4E4547 
 3802              	.LASF113:
 3803 113e 4359424C 		.ascii	"CYBLE_ERROR_UNSUPPORTED_FEATURE_OR_PARAMETER_VALUE\000"
 3803      455F4552 
 3803      524F525F 
 3803      554E5355 
 3803      50504F52 
 3804              	.LASF141:
 3805 1171 4359424C 		.ascii	"CYBLE_INVALID_REQUEST\000"
 3805      455F494E 
 3805      56414C49 
 3805      445F5245 
 3805      51554553 
 3806              	.LASF172:
 3807 1187 4359424C 		.ascii	"CYBLE_GAP_AUTH_ERROR_COMMAND_NOT_SUPPORTED\000"
 3807      455F4741 
 3807      505F4155 
 3807      54485F45 
 3807      52524F52 
 3808              	.LASF168:
 3809 11b2 4359424C 		.ascii	"CYBLE_GAP_AUTH_ERROR_AUTHENTICATION_REQ_NOT_MET\000"
 3809      455F4741 
 3809      505F4155 
 3809      54485F45 
 3809      52524F52 
 3810              	.LASF219:
ARM GAS  C:\Users\Intern\AppData\Local\Temp\cc8xw9iJ.s 			page 117


 3811 11e2 4359424C 		.ascii	"CYBLE_GATT_HANDLE_VALUE_NTF\000"
 3811      455F4741 
 3811      54545F48 
 3811      414E444C 
 3811      455F5641 
 3812              	.LASF103:
 3813 11fe 4359424C 		.ascii	"CYBLE_ERROR_L2CAP_PSM_ALREADY_REGISTERED\000"
 3813      455F4552 
 3813      524F525F 
 3813      4C324341 
 3813      505F5053 
 3814              	.LASF256:
 3815 1227 4359424C 		.ascii	"CYBLE_GATT_ERR_ANCS_UNKNOWN_COMMAND\000"
 3815      455F4741 
 3815      54545F45 
 3815      52525F41 
 3815      4E43535F 
 3816              	.LASF287:
 3817 124b 4359424C 		.ascii	"CYBLE_DIS_SERIAL_NUMBER\000"
 3817      455F4449 
 3817      535F5345 
 3817      5249414C 
 3817      5F4E554D 
 3818              	.LASF298:
 3819 1263 4359424C 		.ascii	"CYBLE_HTS_MEASURE_INTERVAL\000"
 3819      455F4854 
 3819      535F4D45 
 3819      41535552 
 3819      455F494E 
 3820              	.LASF278:
 3821 127e 4359424C 		.ascii	"CYBLE_PREPARE_WRITE_REQUEST_MEMORY_T\000"
 3821      455F5052 
 3821      45504152 
 3821      455F5752 
 3821      4954455F 
 3822              	.LASF34:
 3823 12a3 4359424C 		.ascii	"CYBLE_EVT_GAP_CONNECTION_UPDATE_COMPLETE\000"
 3823      455F4556 
 3823      545F4741 
 3823      505F434F 
 3823      4E4E4543 
 3824              	.LASF344:
 3825 12cc 6379426C 		.ascii	"cyBle_busyStatus\000"
 3825      655F6275 
 3825      73795374 
 3825      61747573 
 3825      00
 3826              	.LASF304:
 3827 12dd 4359424C 		.ascii	"CYBLE_STATE_INITIALIZING\000"
 3827      455F5354 
 3827      4154455F 
 3827      494E4954 
 3827      49414C49 
 3828              	.LASF335:
 3829 12f6 6379426C 		.ascii	"cyBle_mtuSize\000"
 3829      655F6D74 
 3829      7553697A 
ARM GAS  C:\Users\Intern\AppData\Local\Temp\cc8xw9iJ.s 			page 118


 3829      6500
 3830              	.LASF174:
 3831 1304 4359424C 		.ascii	"CYBLE_GAP_AUTH_ERROR_REPEATED_ATTEMPTS\000"
 3831      455F4741 
 3831      505F4155 
 3831      54485F45 
 3831      52524F52 
 3832              	.LASF78:
 3833 132b 4359424C 		.ascii	"CYBLE_EVT_L2CAP_CBFC_DISCONN_IND\000"
 3833      455F4556 
 3833      545F4C32 
 3833      4341505F 
 3833      43424643 
 3834              	.LASF26:
 3835 134c 4359424C 		.ascii	"CYBLE_EVT_GAP_PASSKEY_ENTRY_REQUEST\000"
 3835      455F4556 
 3835      545F4741 
 3835      505F5041 
 3835      53534B45 
 3836              	.LASF176:
 3837 1370 4359424C 		.ascii	"CYBLE_GAP_AUTH_ERROR_DHKEY_CHECK_FAILED\000"
 3837      455F4741 
 3837      505F4155 
 3837      54485F45 
 3837      52524F52 
 3838              	.LASF132:
 3839 1398 4359424C 		.ascii	"CYBLE_BLESS_PWR_LVL_T\000"
 3839      455F424C 
 3839      4553535F 
 3839      5057525F 
 3839      4C564C5F 
 3840              	.LASF323:
 3841 13ae 4379426C 		.ascii	"CyBle_GattConnectReqHandler\000"
 3841      655F4761 
 3841      7474436F 
 3841      6E6E6563 
 3841      74526571 
 3842              	.LASF171:
 3843 13ca 4359424C 		.ascii	"CYBLE_GAP_AUTH_ERROR_INSUFFICIENT_ENCRYPTION_KEY_SI"
 3843      455F4741 
 3843      505F4155 
 3843      54485F45 
 3843      52524F52 
 3844 13fd 5A4500   		.ascii	"ZE\000"
 3845              	.LASF6:
 3846 1400 6C6F6E67 		.ascii	"long long int\000"
 3846      206C6F6E 
 3846      6720696E 
 3846      7400
 3847              	.LASF322:
 3848 140e 4379426C 		.ascii	"CyBle_GattDisconnectEventHandler\000"
 3848      655F4761 
 3848      74744469 
 3848      73636F6E 
 3848      6E656374 
 3849              	.LASF293:
 3850 142f 4359424C 		.ascii	"CYBLE_DIS_PNP_ID\000"
ARM GAS  C:\Users\Intern\AppData\Local\Temp\cc8xw9iJ.s 			page 119


 3850      455F4449 
 3850      535F504E 
 3850      505F4944 
 3850      00
 3851              	.LASF146:
 3852 1440 4359424C 		.ascii	"CYBLE_MEMORY_REQUEST_T\000"
 3852      455F4D45 
 3852      4D4F5259 
 3852      5F524551 
 3852      55455354 
 3853              	.LASF184:
 3854 1457 73656375 		.ascii	"security\000"
 3854      72697479 
 3854      00
 3855              	.LASF233:
 3856 1460 4359424C 		.ascii	"CYBLE_GATT_ERR_PREPARE_WRITE_QUEUE_FULL\000"
 3856      455F4741 
 3856      54545F45 
 3856      52525F50 
 3856      52455041 
 3857              	.LASF104:
 3858 1488 4359424C 		.ascii	"CYBLE_ERROR_L2CAP_PSM_NOT_REGISTERED\000"
 3858      455F4552 
 3858      524F525F 
 3858      4C324341 
 3858      505F5053 
 3859              	.LASF94:
 3860 14ad 4359424C 		.ascii	"CYBLE_ERROR_OOB_NOT_AVAILABLE\000"
 3860      455F4552 
 3860      524F525F 
 3860      4F4F425F 
 3860      4E4F545F 
 3861              	.LASF13:
 3862 14cb 646F7562 		.ascii	"double\000"
 3862      6C6500
 3863              	.LASF109:
 3864 14d2 4359424C 		.ascii	"CYBLE_ERROR_DEVICE_ALREADY_EXISTS\000"
 3864      455F4552 
 3864      524F525F 
 3864      44455649 
 3864      43455F41 
 3865              	.LASF302:
 3866 14f4 4359424C 		.ascii	"CYBLE_HTS_DESCR_COUNT\000"
 3866      455F4854 
 3866      535F4445 
 3866      5343525F 
 3866      434F554E 
 3867              	.LASF84:
 3868 150a 4359424C 		.ascii	"CYBLE_EVT_PENDING_FLASH_WRITE\000"
 3868      455F4556 
 3868      545F5045 
 3868      4E44494E 
 3868      475F464C 
 3869              	.LASF236:
 3870 1528 4359424C 		.ascii	"CYBLE_GATT_ERR_INSUFFICIENT_ENC_KEY_SIZE\000"
 3870      455F4741 
 3870      54545F45 
ARM GAS  C:\Users\Intern\AppData\Local\Temp\cc8xw9iJ.s 			page 120


 3870      52525F49 
 3870      4E535546 
 3871              	.LASF131:
 3872 1551 4359424C 		.ascii	"CYBLE_LL_PWR_LVL_MAX\000"
 3872      455F4C4C 
 3872      5F505752 
 3872      5F4C564C 
 3872      5F4D4158 
 3873              	.LASF310:
 3874 1566 64657669 		.ascii	"deviceNameCharHandle\000"
 3874      63654E61 
 3874      6D654368 
 3874      61724861 
 3874      6E646C65 
 3875              	.LASF261:
 3876 157b 4359424C 		.ascii	"CYBLE_GATT_ERR_PROCEDURE_ALREADY_IN_PROGRESS\000"
 3876      455F4741 
 3876      54545F45 
 3876      52525F50 
 3876      524F4345 
 3877              	.LASF41:
 3878 15a8 4359424C 		.ascii	"CYBLE_EVT_GAP_ENHANCE_CONN_COMPLETE\000"
 3878      455F4556 
 3878      545F4741 
 3878      505F454E 
 3878      48414E43 
 3879              	.LASF106:
 3880 15cc 4359424C 		.ascii	"CYBLE_ERROR_L2CAP_CHANNEL_NOT_FOUND\000"
 3880      455F4552 
 3880      524F525F 
 3880      4C324341 
 3880      505F4348 
 3881              	.LASF97:
 3882 15f0 4359424C 		.ascii	"CYBLE_ERROR_REPEATED_ATTEMPTS\000"
 3882      455F4552 
 3882      524F525F 
 3882      52455045 
 3882      41544544 
 3883              	.LASF319:
 3884 160e 4379426C 		.ascii	"CyBle_ValueConfirmation\000"
 3884      655F5661 
 3884      6C756543 
 3884      6F6E6669 
 3884      726D6174 
 3885              	.LASF12:
 3886 1626 666C6F61 		.ascii	"float\000"
 3886      7400
 3887              	.LASF110:
 3888 162c 4359424C 		.ascii	"CYBLE_ERROR_FLASH_WRITE_NOT_PERMITED\000"
 3888      455F4552 
 3888      524F525F 
 3888      464C4153 
 3888      485F5752 
 3889              	.LASF71:
 3890 1651 4359424C 		.ascii	"CYBLE_EVT_GATTS_READ_CHAR_VAL_ACCESS_REQ\000"
 3890      455F4556 
 3890      545F4741 
ARM GAS  C:\Users\Intern\AppData\Local\Temp\cc8xw9iJ.s 			page 121


 3890      5454535F 
 3890      52454144 
 3891              	.LASF279:
 3892 167a 6F70636F 		.ascii	"opcode\000"
 3892      646500
 3893              	.LASF232:
 3894 1681 4359424C 		.ascii	"CYBLE_GATT_ERR_INSUFFICIENT_AUTHORIZATION\000"
 3894      455F4741 
 3894      54545F45 
 3894      52525F49 
 3894      4E535546 
 3895              	.LASF271:
 3896 16ab 61747472 		.ascii	"attrHandle\000"
 3896      48616E64 
 3896      6C6500
 3897              	.LASF185:
 3898 16b6 626F6E64 		.ascii	"bonding\000"
 3898      696E6700 
 3899              	.LASF283:
 3900 16be 4359424C 		.ascii	"CYBLE_GATTS_WRITE_REQ_PARAM_T\000"
 3900      455F4741 
 3900      5454535F 
 3900      57524954 
 3900      455F5245 
 3901              	.LASF8:
 3902 16dc 756E7369 		.ascii	"unsigned int\000"
 3902      676E6564 
 3902      20696E74 
 3902      00
 3903              	.LASF63:
 3904 16e9 4359424C 		.ascii	"CYBLE_EVT_GATTS_PREP_WRITE_REQ\000"
 3904      455F4556 
 3904      545F4741 
 3904      5454535F 
 3904      50524550 
 3905              	.LASF229:
 3906 1708 4359424C 		.ascii	"CYBLE_GATT_ERR_INSUFFICIENT_AUTHENTICATION\000"
 3906      455F4741 
 3906      54545F45 
 3906      52525F49 
 3906      4E535546 
 3907              	.LASF274:
 3908 1733 4359424C 		.ascii	"CYBLE_GATT_XCHG_MTU_PARAM_T\000"
 3908      455F4741 
 3908      54545F58 
 3908      4348475F 
 3908      4D54555F 
 3909              	.LASF292:
 3910 174f 4359424C 		.ascii	"CYBLE_DIS_REG_CERT_DATA\000"
 3910      455F4449 
 3910      535F5245 
 3910      475F4345 
 3910      52545F44 
 3911              	.LASF134:
 3912 1767 4359424C 		.ascii	"CYBLE_LL_CONN_CH_TYPE\000"
 3912      455F4C4C 
 3912      5F434F4E 
ARM GAS  C:\Users\Intern\AppData\Local\Temp\cc8xw9iJ.s 			page 122


 3912      4E5F4348 
 3912      5F545950 
 3913              	.LASF247:
 3914 177d 4359424C 		.ascii	"CYBLE_GATTS_ERR_PROCEDURE_ALREADY_IN_PROGRESS\000"
 3914      455F4741 
 3914      5454535F 
 3914      4552525F 
 3914      50524F43 
 3915              	.LASF317:
 3916 17ab 6572725F 		.ascii	"err_param\000"
 3916      70617261 
 3916      6D00
 3917              	.LASF102:
 3918 17b5 4359424C 		.ascii	"CYBLE_ERROR_L2CAP_PSM_WRONG_ENCODING\000"
 3918      455F4552 
 3918      524F525F 
 3918      4C324341 
 3918      505F5053 
 3919              	.LASF216:
 3920 17da 4359424C 		.ascii	"CYBLE_GATT_PREPARE_WRITE_RSP\000"
 3920      455F4741 
 3920      54545F50 
 3920      52455041 
 3920      52455F57 
 3921              	.LASF333:
 3922 17f7 67507265 		.ascii	"gPrepWriteReqMem\000"
 3922      70577269 
 3922      74655265 
 3922      714D656D 
 3922      00
 3923              	.LASF234:
 3924 1808 4359424C 		.ascii	"CYBLE_GATT_ERR_ATTRIBUTE_NOT_FOUND\000"
 3924      455F4741 
 3924      54545F45 
 3924      52525F41 
 3924      54545249 
 3925              	.LASF88:
 3926 182b 4359424C 		.ascii	"CYBLE_EVT_MAX\000"
 3926      455F4556 
 3926      545F4D41 
 3926      5800
 3927              	.LASF35:
 3928 1839 4359424C 		.ascii	"CYBLE_EVT_GAPC_SCAN_START_STOP\000"
 3928      455F4556 
 3928      545F4741 
 3928      50435F53 
 3928      43414E5F 
 3929              	.LASF350:
 3930 1858 4379426C 		.ascii	"CyBle_IsDeviceAddressValid\000"
 3930      655F4973 
 3930      44657669 
 3930      63654164 
 3930      64726573 
 3931              	.LASF183:
 3932 1873 4359424C 		.ascii	"CYBLE_GAP_AUTH_FAILED_REASON_T\000"
 3932      455F4741 
 3932      505F4155 
ARM GAS  C:\Users\Intern\AppData\Local\Temp\cc8xw9iJ.s 			page 123


 3932      54485F46 
 3932      41494C45 
 3933              	.LASF60:
 3934 1892 4359424C 		.ascii	"CYBLE_EVT_GATTS_WRITE_REQ\000"
 3934      455F4556 
 3934      545F4741 
 3934      5454535F 
 3934      57524954 
 3935              	.LASF312:
 3936 18ac 70726566 		.ascii	"prefConnParamCharHandle\000"
 3936      436F6E6E 
 3936      50617261 
 3936      6D436861 
 3936      7248616E 
 3937              	.LASF27:
 3938 18c4 4359424C 		.ascii	"CYBLE_EVT_GAP_PASSKEY_DISPLAY_REQUEST\000"
 3938      455F4556 
 3938      545F4741 
 3938      505F5041 
 3938      53534B45 
 3939              	.LASF118:
 3940 18ea 4359424C 		.ascii	"CYBLE_ERROR_IND_DISABLED\000"
 3940      455F4552 
 3940      524F525F 
 3940      494E445F 
 3940      44495341 
 3941              	.LASF117:
 3942 1903 4359424C 		.ascii	"CYBLE_ERROR_NTF_DISABLED\000"
 3942      455F4552 
 3942      524F525F 
 3942      4E54465F 
 3942      44495341 
 3943              	.LASF208:
 3944 191c 4359424C 		.ascii	"CYBLE_GATT_READ_MULTIPLE_REQ\000"
 3944      455F4741 
 3944      54545F52 
 3944      4541445F 
 3944      4D554C54 
 3945              	.LASF57:
 3946 1939 4359424C 		.ascii	"CYBLE_EVT_GATTC_READ_RSP\000"
 3946      455F4556 
 3946      545F4741 
 3946      5454435F 
 3946      52454144 
 3947              	.LASF231:
 3948 1952 4359424C 		.ascii	"CYBLE_GATT_ERR_INVALID_OFFSET\000"
 3948      455F4741 
 3948      54545F45 
 3948      52525F49 
 3948      4E56414C 
 3949              	.LASF202:
 3950 1970 4359424C 		.ascii	"CYBLE_GATT_READ_BY_TYPE_REQ\000"
 3950      455F4741 
 3950      54545F52 
 3950      4541445F 
 3950      42595F54 
 3951              	.LASF77:
ARM GAS  C:\Users\Intern\AppData\Local\Temp\cc8xw9iJ.s 			page 124


 3952 198c 4359424C 		.ascii	"CYBLE_EVT_L2CAP_CBFC_CONN_CNF\000"
 3952      455F4556 
 3952      545F4C32 
 3952      4341505F 
 3952      43424643 
 3953              	.LASF262:
 3954 19aa 4359424C 		.ascii	"CYBLE_GATT_ERR_OUT_OF_RANGE\000"
 3954      455F4741 
 3954      54545F45 
 3954      52525F4F 
 3954      55545F4F 
 3955              	.LASF87:
 3956 19c6 4359424C 		.ascii	"CYBLE_EVT_FLASH_CORRUPT\000"
 3956      455F4556 
 3956      545F464C 
 3956      4153485F 
 3956      434F5252 
 3957              	.LASF15:
 3958 19de 6C6F6E67 		.ascii	"long double\000"
 3958      20646F75 
 3958      626C6500 
 3959              	.LASF200:
 3960 19ea 4359424C 		.ascii	"CYBLE_GATT_FIND_BY_TYPE_VALUE_REQ\000"
 3960      455F4741 
 3960      54545F46 
 3960      494E445F 
 3960      42595F54 
 3961              	.LASF125:
 3962 1a0c 4359424C 		.ascii	"CYBLE_LL_PWR_LVL_NEG_6_DBM\000"
 3962      455F4C4C 
 3962      5F505752 
 3962      5F4C564C 
 3962      5F4E4547 
 3963              	.LASF23:
 3964 1a27 4359424C 		.ascii	"CYBLE_EVT_MEMORY_REQUEST\000"
 3964      455F4556 
 3964      545F4D45 
 3964      4D4F5259 
 3964      5F524551 
 3965              	.LASF311:
 3966 1a40 61707065 		.ascii	"appearanceCharHandle\000"
 3966      6172616E 
 3966      63654368 
 3966      61724861 
 3966      6E646C65 
 3967              	.LASF165:
 3968 1a55 4359424C 		.ascii	"CYBLE_GAP_AUTH_ERROR_NONE\000"
 3968      455F4741 
 3968      505F4155 
 3968      54485F45 
 3968      52524F52 
 3969              	.LASF33:
 3970 1a6f 4359424C 		.ascii	"CYBLE_EVT_GAP_ENCRYPT_CHANGE\000"
 3970      455F4556 
 3970      545F4741 
 3970      505F454E 
 3970      43525950 
ARM GAS  C:\Users\Intern\AppData\Local\Temp\cc8xw9iJ.s 			page 125


 3971              	.LASF275:
 3972 1a8c 71756575 		.ascii	"queueBuffer\000"
 3972      65427566 
 3972      66657200 
 3973              	.LASF51:
 3974 1a98 4359424C 		.ascii	"CYBLE_EVT_GATTS_XCNHG_MTU_REQ\000"
 3974      455F4556 
 3974      545F4741 
 3974      5454535F 
 3974      58434E48 
 3975              	.LASF199:
 3976 1ab6 4359424C 		.ascii	"CYBLE_GATT_FIND_INFO_RSP\000"
 3976      455F4741 
 3976      54545F46 
 3976      494E445F 
 3976      494E464F 
 3977              	.LASF167:
 3978 1acf 4359424C 		.ascii	"CYBLE_GAP_AUTH_ERROR_OOB_DATA_NOT_AVAILABLE\000"
 3978      455F4741 
 3978      505F4155 
 3978      54485F45 
 3978      52524F52 
 3979              	.LASF47:
 3980 1afb 4359424C 		.ascii	"CYBLE_EVT_GAP_SMP_LOC_P256_KEYS_GEN_AND_SET_COMPLET"
 3980      455F4556 
 3980      545F4741 
 3980      505F534D 
 3980      505F4C4F 
 3981 1b2e 4500     		.ascii	"E\000"
 3982              	.LASF140:
 3983 1b30 4359424C 		.ascii	"CYBLE_PREPARED_WRITE_REQUEST\000"
 3983      455F5052 
 3983      45504152 
 3983      45445F57 
 3983      52495445 
 3984              	.LASF194:
 3985 1b4d 4359424C 		.ascii	"CYBLE_GAP_CONN_PARAM_UPDATED_IN_CONTROLLER_T\000"
 3985      455F4741 
 3985      505F434F 
 3985      4E4E5F50 
 3985      4152414D 
 3986              	.LASF285:
 3987 1b7a 4359424C 		.ascii	"CYBLE_DIS_MANUFACTURER_NAME\000"
 3987      455F4449 
 3987      535F4D41 
 3987      4E554641 
 3987      43545552 
 3988              	.LASF7:
 3989 1b96 6C6F6E67 		.ascii	"long long unsigned int\000"
 3989      206C6F6E 
 3989      6720756E 
 3989      7369676E 
 3989      65642069 
 3990              	.LASF225:
 3991 1bad 4359424C 		.ascii	"CYBLE_GATT_ERR_INVALID_HANDLE\000"
 3991      455F4741 
 3991      54545F45 
ARM GAS  C:\Users\Intern\AppData\Local\Temp\cc8xw9iJ.s 			page 126


 3991      52525F49 
 3991      4E56414C 
 3992              	.LASF19:
 3993 1bcb 4359424C 		.ascii	"CYBLE_EVT_TIMEOUT\000"
 3993      455F4556 
 3993      545F5449 
 3993      4D454F55 
 3993      5400
 3994              	.LASF223:
 3995 1bdd 4359424C 		.ascii	"CYBLE_GATT_UNKNOWN_PDU_IND\000"
 3995      455F4741 
 3995      54545F55 
 3995      4E4B4E4F 
 3995      574E5F50 
 3996              	.LASF120:
 3997 1bf8 4359424C 		.ascii	"CYBLE_ERROR_INVALID_STATE\000"
 3997      455F4552 
 3997      524F525F 
 3997      494E5641 
 3997      4C49445F 
 3998              	.LASF264:
 3999 1c12 4359424C 		.ascii	"CYBLE_GATT_DB_ATTR_HANDLE_T\000"
 3999      455F4741 
 3999      54545F44 
 3999      425F4154 
 3999      54525F48 
 4000              	.LASF330:
 4001 1c2e 626C6553 		.ascii	"bleSsPowerLevel\000"
 4001      73506F77 
 4001      65724C65 
 4001      76656C00 
 4002              	.LASF80:
 4003 1c3e 4359424C 		.ascii	"CYBLE_EVT_L2CAP_CBFC_DATA_READ\000"
 4003      455F4556 
 4003      545F4C32 
 4003      4341505F 
 4003      43424643 
 4004              	.LASF224:
 4005 1c5d 4359424C 		.ascii	"CYBLE_GATT_ERR_NONE\000"
 4005      455F4741 
 4005      54545F45 
 4005      52525F4E 
 4005      4F4E4500 
 4006              	.LASF270:
 4007 1c71 76616C75 		.ascii	"value\000"
 4007      6500
 4008              	.LASF296:
 4009 1c77 4359424C 		.ascii	"CYBLE_HTS_TEMP_TYPE\000"
 4009      455F4854 
 4009      535F5445 
 4009      4D505F54 
 4009      59504500 
 4010              	.LASF276:
 4011 1c8b 746F7461 		.ascii	"totalAttrValueLength\000"
 4011      6C417474 
 4011      7256616C 
 4011      75654C65 
ARM GAS  C:\Users\Intern\AppData\Local\Temp\cc8xw9iJ.s 			page 127


 4011      6E677468 
 4012              	.LASF336:
 4013 1ca0 4379426C 		.ascii	"CyBle_ApplCallback\000"
 4013      655F4170 
 4013      706C4361 
 4013      6C6C6261 
 4013      636B00
 4014              	.LASF114:
 4015 1cb3 4359424C 		.ascii	"CYBLE_ERROR_FLASH_WRITE\000"
 4015      455F4552 
 4015      524F525F 
 4015      464C4153 
 4015      485F5752 
 4016              	.LASF151:
 4017 1ccb 4359424C 		.ascii	"CYBLE_GAP_SCAN_TO\000"
 4017      455F4741 
 4017      505F5343 
 4017      414E5F54 
 4017      4F00
 4018              	.LASF246:
 4019 1cdd 4359424C 		.ascii	"CYBLE_GATT_ERR_HTS_OUT_OF_RANGE\000"
 4019      455F4741 
 4019      54545F45 
 4019      52525F48 
 4019      54535F4F 
 4020              	.LASF315:
 4021 1cfd 4359424C 		.ascii	"CYBLE_GAPS_T\000"
 4021      455F4741 
 4021      50535F54 
 4021      00
 4022              	.LASF149:
 4023 1d0a 4359424C 		.ascii	"CYBLE_GAP_BD_ADDR_T\000"
 4023      455F4741 
 4023      505F4244 
 4023      5F414444 
 4023      525F5400 
 4024              	.LASF206:
 4025 1d1e 4359424C 		.ascii	"CYBLE_GATT_READ_BLOB_REQ\000"
 4025      455F4741 
 4025      54545F52 
 4025      4541445F 
 4025      424C4F42 
 4026              	.LASF150:
 4027 1d37 4359424C 		.ascii	"CYBLE_GAP_ADV_MODE_TO\000"
 4027      455F4741 
 4027      505F4144 
 4027      565F4D4F 
 4027      44455F54 
 4028              	.LASF282:
 4029 1d4d 68616E64 		.ascii	"handleValPair\000"
 4029      6C655661 
 4029      6C506169 
 4029      7200
 4030              	.LASF273:
 4031 1d5b 636F6E6E 		.ascii	"connHandle\000"
 4031      48616E64 
 4031      6C6500
ARM GAS  C:\Users\Intern\AppData\Local\Temp\cc8xw9iJ.s 			page 128


 4032              	.LASF321:
 4033 1d66 4379426C 		.ascii	"CyBle_TimeOutEventHandler\000"
 4033      655F5469 
 4033      6D654F75 
 4033      74457665 
 4033      6E744861 
 4034              	.LASF170:
 4035 1d80 4359424C 		.ascii	"CYBLE_GAP_AUTH_ERROR_PAIRING_NOT_SUPPORTED\000"
 4035      455F4741 
 4035      505F4155 
 4035      54485F45 
 4035      52524F52 
 4036              	.LASF153:
 4037 1dab 4359424C 		.ascii	"CYBLE_GENERIC_TO\000"
 4037      455F4745 
 4037      4E455249 
 4037      435F544F 
 4037      00
 4038              	.LASF55:
 4039 1dbc 4359424C 		.ascii	"CYBLE_EVT_GATTC_FIND_INFO_RSP\000"
 4039      455F4556 
 4039      545F4741 
 4039      5454435F 
 4039      46494E44 
 4040              	.LASF54:
 4041 1dda 4359424C 		.ascii	"CYBLE_EVT_GATTC_READ_BY_TYPE_RSP\000"
 4041      455F4556 
 4041      545F4741 
 4041      5454435F 
 4041      52454144 
 4042              	.LASF251:
 4043 1dfb 4359424C 		.ascii	"CYBLE_GATTS_ERR_OPERATION_FAILED\000"
 4043      455F4741 
 4043      5454535F 
 4043      4552525F 
 4043      4F504552 
 4044              	.LASF342:
 4045 1e1c 6379426C 		.ascii	"cyBle_state\000"
 4045      655F7374 
 4045      61746500 
 4046              	.LASF299:
 4047 1e28 4359424C 		.ascii	"CYBLE_HTS_CHAR_COUNT\000"
 4047      455F4854 
 4047      535F4348 
 4047      41525F43 
 4047      4F554E54 
 4048              	.LASF188:
 4049 1e3d 70616972 		.ascii	"pairingProperties\000"
 4049      696E6750 
 4049      726F7065 
 4049      72746965 
 4049      7300
 4050              	.LASF61:
 4051 1e4f 4359424C 		.ascii	"CYBLE_EVT_GATTC_WRITE_RSP\000"
 4051      455F4556 
 4051      545F4741 
 4051      5454435F 
ARM GAS  C:\Users\Intern\AppData\Local\Temp\cc8xw9iJ.s 			page 129


 4051      57524954 
 4052              	.LASF307:
 4053 1e69 4359424C 		.ascii	"CYBLE_STATE_DISCONNECTED\000"
 4053      455F5354 
 4053      4154455F 
 4053      44495343 
 4053      4F4E4E45 
 4054              	.LASF331:
 4055 1e82 6C654D61 		.ascii	"leMask\000"
 4055      736B00
 4056              	.LASF30:
 4057 1e89 4359424C 		.ascii	"CYBLE_EVT_GAPP_ADVERTISEMENT_START_STOP\000"
 4057      455F4556 
 4057      545F4741 
 4057      50505F41 
 4057      44564552 
 4058              	.LASF9:
 4059 1eb1 75696E74 		.ascii	"uint8\000"
 4059      3800
 4060              	.LASF341:
 4061 1eb7 6379426C 		.ascii	"cyBle_authInfo\000"
 4061      655F6175 
 4061      7468496E 
 4061      666F00
 4062              	.LASF38:
 4063 1ec6 4359424C 		.ascii	"CYBLE_EVT_GAP_KEYPRESS_NOTIFICATION\000"
 4063      455F4556 
 4063      545F4741 
 4063      505F4B45 
 4063      59505245 
 4064              	.LASF326:
 4065 1eea 4379426C 		.ascii	"CyBle_L2Cap_ConnParamUpdateRspEventHandler\000"
 4065      655F4C32 
 4065      4361705F 
 4065      436F6E6E 
 4065      50617261 
 4066              	.LASF212:
 4067 1f15 4359424C 		.ascii	"CYBLE_GATT_WRITE_REQ\000"
 4067      455F4741 
 4067      54545F57 
 4067      52495445 
 4067      5F524551 
 4068              	.LASF2:
 4069 1f2a 73686F72 		.ascii	"short int\000"
 4069      7420696E 
 4069      7400
 4070              	.LASF187:
 4071 1f34 61757468 		.ascii	"authErr\000"
 4071      45727200 
 4072              	.LASF112:
 4073 1f3c 4359424C 		.ascii	"CYBLE_ERROR_HARDWARE_FAILURE\000"
 4073      455F4552 
 4073      524F525F 
 4073      48415244 
 4073      57415245 
 4074              	.LASF245:
 4075 1f59 4359424C 		.ascii	"CYBLE_GATT_ERR_CPS_INAPPROPRIATE_CONNECTION_PARAMET"
ARM GAS  C:\Users\Intern\AppData\Local\Temp\cc8xw9iJ.s 			page 130


 4075      455F4741 
 4075      54545F45 
 4075      52525F43 
 4075      50535F49 
 4076 1f8c 45525300 		.ascii	"ERS\000"
 4077              	.LASF230:
 4078 1f90 4359424C 		.ascii	"CYBLE_GATT_ERR_REQUEST_NOT_SUPPORTED\000"
 4078      455F4741 
 4078      54545F45 
 4078      52525F52 
 4078      45515545 
 4079              	.LASF295:
 4080 1fb5 4359424C 		.ascii	"CYBLE_HTS_TEMP_MEASURE\000"
 4080      455F4854 
 4080      535F5445 
 4080      4D505F4D 
 4080      45415355 
 4081              	.LASF48:
 4082 1fcc 4359424C 		.ascii	"CYBLE_EVT_GATTC_ERROR_RSP\000"
 4082      455F4556 
 4082      545F4741 
 4082      5454435F 
 4082      4552524F 
 4083              	.LASF164:
 4084 1fe6 4359424C 		.ascii	"CYBLE_GAP_IOCAP_KEYBOARD_DISPLAY\000"
 4084      455F4741 
 4084      505F494F 
 4084      4341505F 
 4084      4B455942 
 4085              	.LASF308:
 4086 2007 4359424C 		.ascii	"CYBLE_STATE_T\000"
 4086      455F5354 
 4086      4154455F 
 4086      5400
 4087              	.LASF76:
 4088 2015 4359424C 		.ascii	"CYBLE_EVT_L2CAP_CBFC_CONN_IND\000"
 4088      455F4556 
 4088      545F4C32 
 4088      4341505F 
 4088      43424643 
 4089              	.LASF64:
 4090 2033 4359424C 		.ascii	"CYBLE_EVT_GATTS_EXEC_WRITE_REQ\000"
 4090      455F4556 
 4090      545F4741 
 4090      5454535F 
 4090      45584543 
 4091              	.LASF24:
 4092 2052 4359424C 		.ascii	"CYBLE_EVT_GAPC_SCAN_PROGRESS_RESULT\000"
 4092      455F4556 
 4092      545F4741 
 4092      50435F53 
 4092      43414E5F 
 4093              	.LASF263:
 4094 2076 4359424C 		.ascii	"CYBLE_GATT_ERR_CODE_T\000"
 4094      455F4741 
 4094      54545F45 
 4094      52525F43 
ARM GAS  C:\Users\Intern\AppData\Local\Temp\cc8xw9iJ.s 			page 131


 4094      4F44455F 
 4095              	.LASF258:
 4096 208c 4359424C 		.ascii	"CYBLE_GATT_ERR_ANCS_INVALID_PARAMETER\000"
 4096      455F4741 
 4096      54545F45 
 4096      52525F41 
 4096      4E43535F 
 4097              	.LASF98:
 4098 20b2 4359424C 		.ascii	"CYBLE_ERROR_GAP_ROLE\000"
 4098      455F4552 
 4098      524F525F 
 4098      4741505F 
 4098      524F4C45 
 4099              	.LASF337:
 4100 20c7 6379426C 		.ascii	"cyBle_stackMemoryRam\000"
 4100      655F7374 
 4100      61636B4D 
 4100      656D6F72 
 4100      7952616D 
 4101              	.LASF346:
 4102 20dc 6379426C 		.ascii	"cyBle_advertisingIntervalType\000"
 4102      655F6164 
 4102      76657274 
 4102      6973696E 
 4102      67496E74 
 4103              	.LASF45:
 4104 20fa 4359424C 		.ascii	"CYBLE_EVT_GAP_SCAN_REQ_RECVD\000"
 4104      455F4556 
 4104      545F4741 
 4104      505F5343 
 4104      414E5F52 
 4105              	.LASF313:
 4106 2117 63656E74 		.ascii	"centralAddrResolutionCharHandle\000"
 4106      72616C41 
 4106      64647252 
 4106      65736F6C 
 4106      7574696F 
 4107              	.LASF147:
 4108 2137 62644164 		.ascii	"bdAddr\000"
 4108      647200
 4109              	.LASF255:
 4110 213e 4359424C 		.ascii	"CYBLE_GATT_ERR_ANS_COMMAND_NOT_SUPPORTED\000"
 4110      455F4741 
 4110      54545F45 
 4110      52525F41 
 4110      4E535F43 
 4111              	.LASF327:
 4112 2167 72657370 		.ascii	"response\000"
 4112      6F6E7365 
 4112      00
 4113              	.LASF205:
 4114 2170 4359424C 		.ascii	"CYBLE_GATT_READ_RSP\000"
 4114      455F4741 
 4114      54545F52 
 4114      4541445F 
 4114      52535000 
 4115              	.LASF95:
ARM GAS  C:\Users\Intern\AppData\Local\Temp\cc8xw9iJ.s 			page 132


 4116 2184 4359424C 		.ascii	"CYBLE_ERROR_NO_CONNECTION\000"
 4116      455F4552 
 4116      524F525F 
 4116      4E4F5F43 
 4116      4F4E4E45 
 4117              	.LASF129:
 4118 219e 4359424C 		.ascii	"CYBLE_LL_PWR_LVL_0_DBM\000"
 4118      455F4C4C 
 4118      5F505752 
 4118      5F4C564C 
 4118      5F305F44 
 4119              	.LASF133:
 4120 21b5 4359424C 		.ascii	"CYBLE_LL_ADV_CH_TYPE\000"
 4120      455F4C4C 
 4120      5F414456 
 4120      5F43485F 
 4120      54595045 
 4121              	.LASF85:
 4122 21ca 4359424C 		.ascii	"CYBLE_EVT_LE_PING_AUTH_TIMEOUT\000"
 4122      455F4556 
 4122      545F4C45 
 4122      5F50494E 
 4122      475F4155 
 4123              	.LASF122:
 4124 21e9 4359424C 		.ascii	"CYBLE_API_RESULT_T\000"
 4124      455F4150 
 4124      495F5245 
 4124      53554C54 
 4124      5F5400
 4125              	.LASF67:
 4126 21fc 4359424C 		.ascii	"CYBLE_EVT_GATTC_HANDLE_VALUE_IND\000"
 4126      455F4556 
 4126      545F4741 
 4126      5454435F 
 4126      48414E44 
 4127              	.LASF329:
 4128 221d 6576656E 		.ascii	"eventCode\000"
 4128      74436F64 
 4128      6500
 4129              	.LASF101:
 4130 2227 4359424C 		.ascii	"CYBLE_ERROR_SEC_FAILED\000"
 4130      455F4552 
 4130      524F525F 
 4130      5345435F 
 4130      4641494C 
 4131              	.LASF22:
 4132 223e 4359424C 		.ascii	"CYBLE_EVT_STACK_BUSY_STATUS\000"
 4132      455F4556 
 4132      545F5354 
 4132      41434B5F 
 4132      42555359 
 4133              	.LASF192:
 4134 225a 636F6E6E 		.ascii	"connLatency\000"
 4134      4C617465 
 4134      6E637900 
 4135              	.LASF177:
 4136 2266 4359424C 		.ascii	"CYBLE_GAP_AUTH_ERROR_NUMERIC_COMPARISON_FAILED\000"
ARM GAS  C:\Users\Intern\AppData\Local\Temp\cc8xw9iJ.s 			page 133


 4136      455F4741 
 4136      505F4155 
 4136      54485F45 
 4136      52524F52 
 4137              	.LASF161:
 4138 2295 4359424C 		.ascii	"CYBLE_GAP_IOCAP_DISPLAY_YESNO\000"
 4138      455F4741 
 4138      505F494F 
 4138      4341505F 
 4138      44495350 
 4139              	.LASF36:
 4140 22b3 4359424C 		.ascii	"CYBLE_EVT_GAP_KEYINFO_EXCHNGE_CMPLT\000"
 4140      455F4556 
 4140      545F4741 
 4140      505F4B45 
 4140      59494E46 
 4141              	.LASF217:
 4142 22d7 4359424C 		.ascii	"CYBLE_GATT_EXECUTE_WRITE_REQ\000"
 4142      455F4741 
 4142      54545F45 
 4142      58454355 
 4142      54455F57 
 4143              	.LASF139:
 4144 22f4 4359424C 		.ascii	"CYBLE_BLESS_PWR_IN_DB_T\000"
 4144      455F424C 
 4144      4553535F 
 4144      5057525F 
 4144      494E5F44 
 4145              	.LASF135:
 4146 230c 4359424C 		.ascii	"CYBLE_LL_MAX_CH_TYPE\000"
 4146      455F4C4C 
 4146      5F4D4158 
 4146      5F43485F 
 4146      54595045 
 4147              	.LASF73:
 4148 2321 4359424C 		.ascii	"CYBLE_EVT_L2CAP_CONN_PARAM_UPDATE_REQ\000"
 4148      455F4556 
 4148      545F4C32 
 4148      4341505F 
 4148      434F4E4E 
 4149              	.LASF142:
 4150 2347 4359424C 		.ascii	"CYBLE_PROTOCOL_REQ_T\000"
 4150      455F5052 
 4150      4F544F43 
 4150      4F4C5F52 
 4150      45515F54 
 4151              	.LASF316:
 4152 235c 67617474 		.ascii	"gattErr\000"
 4152      45727200 
 4153              	.LASF227:
 4154 2364 4359424C 		.ascii	"CYBLE_GATT_ERR_WRITE_NOT_PERMITTED\000"
 4154      455F4741 
 4154      54545F45 
 4154      52525F57 
 4154      52495445 
 4155              	.LASF191:
 4156 2387 636F6E6E 		.ascii	"connIntv\000"
ARM GAS  C:\Users\Intern\AppData\Local\Temp\cc8xw9iJ.s 			page 134


 4156      496E7476 
 4156      00
 4157              	.LASF3:
 4158 2390 73686F72 		.ascii	"short unsigned int\000"
 4158      7420756E 
 4158      7369676E 
 4158      65642069 
 4158      6E7400
 4159              	.LASF239:
 4160 23a3 4359424C 		.ascii	"CYBLE_GATT_ERR_INSUFFICIENT_ENCRYPTION\000"
 4160      455F4741 
 4160      54545F45 
 4160      52525F49 
 4160      4E535546 
 4161              	.LASF305:
 4162 23ca 4359424C 		.ascii	"CYBLE_STATE_CONNECTED\000"
 4162      455F5354 
 4162      4154455F 
 4162      434F4E4E 
 4162      45435445 
 4163              	.LASF348:
 4164 23e0 47656E65 		.ascii	"Generated_Source\\PSoC4\\BLE_eventHandler.c\000"
 4164      72617465 
 4164      645F536F 
 4164      75726365 
 4164      5C50536F 
 4165              	.LASF268:
 4166 240a 61637475 		.ascii	"actualLen\000"
 4166      616C4C65 
 4166      6E00
 4167              	.LASF210:
 4168 2414 4359424C 		.ascii	"CYBLE_GATT_READ_BY_GROUP_REQ\000"
 4168      455F4741 
 4168      54545F52 
 4168      4541445F 
 4168      42595F47 
 4169              	.LASF266:
 4170 2431 61747449 		.ascii	"attId\000"
 4170      6400
 4171              	.LASF91:
 4172 2437 4359424C 		.ascii	"CYBLE_ERROR_INVALID_OPERATION\000"
 4172      455F4552 
 4172      524F525F 
 4172      494E5641 
 4172      4C49445F 
 4173              	.LASF21:
 4174 2455 4359424C 		.ascii	"CYBLE_EVT_HCI_STATUS\000"
 4174      455F4556 
 4174      545F4843 
 4174      495F5354 
 4174      41545553 
 4175              	.LASF50:
 4176 246a 4359424C 		.ascii	"CYBLE_EVT_GATT_DISCONNECT_IND\000"
 4176      455F4556 
 4176      545F4741 
 4176      54545F44 
 4176      4953434F 
ARM GAS  C:\Users\Intern\AppData\Local\Temp\cc8xw9iJ.s 			page 135


 4177              	.LASF193:
 4178 2488 73757065 		.ascii	"supervisionTO\000"
 4178      72766973 
 4178      696F6E54 
 4178      4F00
 4179              	.LASF152:
 4180 2496 4359424C 		.ascii	"CYBLE_GATT_RSP_TO\000"
 4180      455F4741 
 4180      54545F52 
 4180      53505F54 
 4180      4F00
 4181              	.LASF83:
 4182 24a8 4359424C 		.ascii	"CYBLE_EVT_L2CAP_CBFC_DATA_WRITE_IND\000"
 4182      455F4556 
 4182      545F4C32 
 4182      4341505F 
 4182      43424643 
 4183              	.LASF72:
 4184 24cc 4359424C 		.ascii	"CYBLE_EVT_GATTC_LONG_PROCEDURE_END\000"
 4184      455F4556 
 4184      545F4741 
 4184      5454435F 
 4184      4C4F4E47 
 4185              	.LASF32:
 4186 24ef 4359424C 		.ascii	"CYBLE_EVT_GAP_DEVICE_DISCONNECTED\000"
 4186      455F4556 
 4186      545F4741 
 4186      505F4445 
 4186      56494345 
 4187              	.LASF68:
 4188 2511 4359424C 		.ascii	"CYBLE_EVT_GATTS_HANDLE_VALUE_CNF\000"
 4188      455F4556 
 4188      545F4741 
 4188      5454535F 
 4188      48414E44 
 4189              	.LASF10:
 4190 2532 75696E74 		.ascii	"uint16\000"
 4190      313600
 4191              	.LASF99:
 4192 2539 4359424C 		.ascii	"CYBLE_ERROR_TX_POWER_READ\000"
 4192      455F4552 
 4192      524F525F 
 4192      54585F50 
 4192      4F574552 
 4193              		.ident	"GCC: (GNU Tools for ARM Embedded Processors) 5.4.1 20160609 (release) [ARM/embedded-5-bran
