ARM GAS  C:\Users\Intern\AppData\Local\Temp\ccMUVljh.s 			page 1


   1              		.syntax unified
   2              		.cpu cortex-m0
   3              		.fpu softvfp
   4              		.eabi_attribute 20, 1
   5              		.eabi_attribute 21, 1
   6              		.eabi_attribute 23, 3
   7              		.eabi_attribute 24, 1
   8              		.eabi_attribute 25, 1
   9              		.eabi_attribute 26, 1
  10              		.eabi_attribute 30, 6
  11              		.eabi_attribute 34, 0
  12              		.eabi_attribute 18, 4
  13              		.thumb
  14              		.syntax unified
  15              		.file	"bas.c"
  16              		.text
  17              	.Ltext0:
  18              		.cfi_sections	.debug_frame
  19              		.global	batterySimulationNotify
  20              		.bss
  21              		.align	1
  22              		.type	batterySimulationNotify, %object
  23              		.size	batterySimulationNotify, 2
  24              	batterySimulationNotify:
  25 0000 0000     		.space	2
  26              		.global	batteryMeasureNotify
  27              		.align	1
  28              		.type	batteryMeasureNotify, %object
  29              		.size	batteryMeasureNotify, 2
  30              	batteryMeasureNotify:
  31 0002 0000     		.space	2
  32              		.section	.text.BasCallBack,"ax",%progbits
  33              		.align	2
  34              		.global	BasCallBack
  35              		.code	16
  36              		.thumb_func
  37              		.type	BasCallBack, %function
  38              	BasCallBack:
  39              	.LFB36:
  40              		.file 1 "bas.c"
   1:bas.c         **** /*******************************************************************************
   2:bas.c         **** * File Name: bas.c
   3:bas.c         **** *
   4:bas.c         **** * Version: 1.0
   5:bas.c         **** *
   6:bas.c         **** * Description:
   7:bas.c         **** *  This file contains BAS callback handler function.
   8:bas.c         **** *
   9:bas.c         **** * Hardware Dependency:
  10:bas.c         **** *  CY8CKIT-042 BLE
  11:bas.c         **** * 
  12:bas.c         **** ********************************************************************************
  13:bas.c         **** * Copyright 2016, Cypress Semiconductor Corporation.  All rights reserved.
  14:bas.c         **** * You may use this file only in accordance with the license, terms, conditions,
  15:bas.c         **** * disclaimers, and limitations in the end user license agreement accompanying
  16:bas.c         **** * the software package with which this file was provided.
  17:bas.c         **** *******************************************************************************/
ARM GAS  C:\Users\Intern\AppData\Local\Temp\ccMUVljh.s 			page 2


  18:bas.c         **** 
  19:bas.c         **** #include "common.h"
  20:bas.c         **** #include "bas.h"
  21:bas.c         **** 
  22:bas.c         **** uint16 batterySimulationNotify = 0u;
  23:bas.c         **** uint16 batteryMeasureNotify = 0u;
  24:bas.c         **** 
  25:bas.c         **** 
  26:bas.c         **** /*******************************************************************************
  27:bas.c         **** * Function Name: BasCallBack()
  28:bas.c         **** ********************************************************************************
  29:bas.c         **** *
  30:bas.c         **** * Summary:
  31:bas.c         **** *   This is an event callback function to receive service specific events from 
  32:bas.c         **** *   Battery Service.
  33:bas.c         **** *
  34:bas.c         **** * Parameters:
  35:bas.c         **** *  event - the event code
  36:bas.c         **** *  *eventParam - the event parameters
  37:bas.c         **** *
  38:bas.c         **** * Return:
  39:bas.c         **** *  None.
  40:bas.c         **** *
  41:bas.c         **** ********************************************************************************/
  42:bas.c         **** void BasCallBack(uint32 event, void *eventParam)
  43:bas.c         **** {
  41              		.loc 1 43 0
  42              		.cfi_startproc
  43              		@ args = 0, pretend = 0, frame = 16
  44              		@ frame_needed = 1, uses_anonymous_args = 0
  45 0000 80B5     		push	{r7, lr}
  46              		.cfi_def_cfa_offset 8
  47              		.cfi_offset 7, -8
  48              		.cfi_offset 14, -4
  49 0002 84B0     		sub	sp, sp, #16
  50              		.cfi_def_cfa_offset 24
  51 0004 00AF     		add	r7, sp, #0
  52              		.cfi_def_cfa_register 7
  53 0006 7860     		str	r0, [r7, #4]
  54 0008 3960     		str	r1, [r7]
  44:bas.c         ****     uint8 locServiceIndex;
  45:bas.c         ****     
  46:bas.c         ****     locServiceIndex = ((CYBLE_BAS_CHAR_VALUE_T *)eventParam)->serviceIndex;
  55              		.loc 1 46 0
  56 000a 0F23     		movs	r3, #15
  57 000c FB18     		adds	r3, r7, r3
  58 000e 3A68     		ldr	r2, [r7]
  59 0010 9278     		ldrb	r2, [r2, #2]
  60 0012 1A70     		strb	r2, [r3]
  47:bas.c         **** //    DBG_PRINTF("BAS event: %lx, ", event);
  48:bas.c         ****     
  49:bas.c         ****     switch(event)
  61              		.loc 1 49 0
  62 0014 7B68     		ldr	r3, [r7, #4]
  63 0016 313B     		subs	r3, r3, #49
  64 0018 FF3B     		subs	r3, r3, #255
  65 001a 052B     		cmp	r3, #5
ARM GAS  C:\Users\Intern\AppData\Local\Temp\ccMUVljh.s 			page 3


  66 001c 26D8     		bhi	.L15
  67 001e 9A00     		lsls	r2, r3, #2
  68 0020 184B     		ldr	r3, .L19
  69 0022 D318     		adds	r3, r2, r3
  70 0024 1B68     		ldr	r3, [r3]
  71 0026 9F46     		mov	pc, r3
  72              		.section	.rodata
  73              		.align	2
  74              	.L4:
  75 0000 28000000 		.word	.L3
  76 0004 4A000000 		.word	.L5
  77 0008 70000000 		.word	.L16
  78 000c 70000000 		.word	.L16
  79 0010 70000000 		.word	.L16
  80 0014 70000000 		.word	.L16
  81              		.section	.text.BasCallBack
  82              	.L3:
  50:bas.c         ****     {
  51:bas.c         ****         case CYBLE_EVT_BASS_NOTIFICATION_ENABLED:
  52:bas.c         **** //            DBG_PRINTF("CYBLE_EVT_BASS_NOTIFICATION_ENABLED: %x \r\n", locServiceIndex);
  53:bas.c         ****             if(BAS_SERVICE_SIMULATE == locServiceIndex)
  83              		.loc 1 53 0
  84 0028 0F23     		movs	r3, #15
  85 002a FB18     		adds	r3, r7, r3
  86 002c 1B78     		ldrb	r3, [r3]
  87 002e 002B     		cmp	r3, #0
  88 0030 02D1     		bne	.L10
  54:bas.c         ****             {
  55:bas.c         ****                 batterySimulationNotify = ENABLED;
  89              		.loc 1 55 0
  90 0032 154B     		ldr	r3, .L19+4
  91 0034 0122     		movs	r2, #1
  92 0036 1A80     		strh	r2, [r3]
  93              	.L10:
  56:bas.c         ****             }
  57:bas.c         ****             if(BAS_SERVICE_MEASURE == locServiceIndex)
  94              		.loc 1 57 0
  95 0038 0F23     		movs	r3, #15
  96 003a FB18     		adds	r3, r7, r3
  97 003c 1B78     		ldrb	r3, [r3]
  98 003e 002B     		cmp	r3, #0
  99 0040 18D1     		bne	.L17
  58:bas.c         ****             {
  59:bas.c         ****                 batteryMeasureNotify = ENABLED;
 100              		.loc 1 59 0
 101 0042 124B     		ldr	r3, .L19+8
 102 0044 0122     		movs	r2, #1
 103 0046 1A80     		strh	r2, [r3]
  60:bas.c         ****             }
  61:bas.c         ****             break;
 104              		.loc 1 61 0
 105 0048 14E0     		b	.L17
 106              	.L5:
  62:bas.c         ****                 
  63:bas.c         ****         case CYBLE_EVT_BASS_NOTIFICATION_DISABLED:
  64:bas.c         **** //            DBG_PRINTF("CYBLE_EVT_BASS_NOTIFICATION_DISABLED: %x \r\n", locServiceIndex);
  65:bas.c         ****             if(BAS_SERVICE_SIMULATE == locServiceIndex)
ARM GAS  C:\Users\Intern\AppData\Local\Temp\ccMUVljh.s 			page 4


 107              		.loc 1 65 0
 108 004a 0F23     		movs	r3, #15
 109 004c FB18     		adds	r3, r7, r3
 110 004e 1B78     		ldrb	r3, [r3]
 111 0050 002B     		cmp	r3, #0
 112 0052 02D1     		bne	.L13
  66:bas.c         ****             {
  67:bas.c         ****                 batterySimulationNotify = DISABLED;
 113              		.loc 1 67 0
 114 0054 0C4B     		ldr	r3, .L19+4
 115 0056 0022     		movs	r2, #0
 116 0058 1A80     		strh	r2, [r3]
 117              	.L13:
  68:bas.c         ****             }
  69:bas.c         ****             if(BAS_SERVICE_MEASURE == locServiceIndex)
 118              		.loc 1 69 0
 119 005a 0F23     		movs	r3, #15
 120 005c FB18     		adds	r3, r7, r3
 121 005e 1B78     		ldrb	r3, [r3]
 122 0060 002B     		cmp	r3, #0
 123 0062 09D1     		bne	.L18
  70:bas.c         ****             {
  71:bas.c         ****                 batteryMeasureNotify = DISABLED;
 124              		.loc 1 71 0
 125 0064 094B     		ldr	r3, .L19+8
 126 0066 0022     		movs	r2, #0
 127 0068 1A80     		strh	r2, [r3]
  72:bas.c         ****             }
  73:bas.c         ****             break;
 128              		.loc 1 73 0
 129 006a 05E0     		b	.L18
 130              	.L15:
  74:bas.c         ****         case CYBLE_EVT_BASC_NOTIFICATION:
  75:bas.c         ****             break;
  76:bas.c         ****         case CYBLE_EVT_BASC_READ_CHAR_RESPONSE:
  77:bas.c         ****             break;
  78:bas.c         ****         case CYBLE_EVT_BASC_READ_DESCR_RESPONSE:
  79:bas.c         ****             break;
  80:bas.c         ****         case CYBLE_EVT_BASC_WRITE_DESCR_RESPONSE:
  81:bas.c         ****             break;
  82:bas.c         **** 		default:
  83:bas.c         **** //            DBG_PRINTF("Not supported event\r\n");
  84:bas.c         **** 			break;
 131              		.loc 1 84 0
 132 006c C046     		nop
 133 006e 04E0     		b	.L12
 134              	.L16:
  81:bas.c         **** 		default:
 135              		.loc 1 81 0
 136 0070 C046     		nop
 137 0072 02E0     		b	.L12
 138              	.L17:
  61:bas.c         ****                 
 139              		.loc 1 61 0
 140 0074 C046     		nop
 141 0076 00E0     		b	.L12
 142              	.L18:
ARM GAS  C:\Users\Intern\AppData\Local\Temp\ccMUVljh.s 			page 5


  73:bas.c         ****         case CYBLE_EVT_BASC_NOTIFICATION:
 143              		.loc 1 73 0
 144 0078 C046     		nop
 145              	.L12:
  85:bas.c         ****     }
  86:bas.c         **** }
 146              		.loc 1 86 0
 147 007a C046     		nop
 148 007c BD46     		mov	sp, r7
 149 007e 04B0     		add	sp, sp, #16
 150              		@ sp needed
 151 0080 80BD     		pop	{r7, pc}
 152              	.L20:
 153 0082 C046     		.align	2
 154              	.L19:
 155 0084 00000000 		.word	.L4
 156 0088 00000000 		.word	batterySimulationNotify
 157 008c 00000000 		.word	batteryMeasureNotify
 158              		.cfi_endproc
 159              	.LFE36:
 160              		.size	BasCallBack, .-BasCallBack
 161              		.global	__aeabi_idiv
 162              		.section	.text.MeasureBattery,"ax",%progbits
 163              		.align	2
 164              		.global	MeasureBattery
 165              		.code	16
 166              		.thumb_func
 167              		.type	MeasureBattery, %function
 168              	MeasureBattery:
 169              	.LFB37:
  87:bas.c         **** 
  88:bas.c         **** 
  89:bas.c         **** /*******************************************************************************
  90:bas.c         **** * Function Name: MeasureBattery()
  91:bas.c         **** ********************************************************************************
  92:bas.c         **** *
  93:bas.c         **** * Summary:
  94:bas.c         **** *   This function measures the battery voltage and sends it to the client.
  95:bas.c         **** *
  96:bas.c         **** *******************************************************************************/
  97:bas.c         **** void MeasureBattery(void)
  98:bas.c         **** {
 170              		.loc 1 98 0
 171              		.cfi_startproc
 172              		@ args = 0, pretend = 0, frame = 24
 173              		@ frame_needed = 1, uses_anonymous_args = 0
 174 0000 90B5     		push	{r4, r7, lr}
 175              		.cfi_def_cfa_offset 12
 176              		.cfi_offset 4, -12
 177              		.cfi_offset 7, -8
 178              		.cfi_offset 14, -4
 179 0002 89B0     		sub	sp, sp, #36
 180              		.cfi_def_cfa_offset 48
 181 0004 02AF     		add	r7, sp, #8
 182              		.cfi_def_cfa 7, 40
  99:bas.c         **** 	int16 adcResult;
 100:bas.c         ****     int32 mvolts;
ARM GAS  C:\Users\Intern\AppData\Local\Temp\ccMUVljh.s 			page 6


 101:bas.c         **** 	uint32 sarControlReg;
 102:bas.c         ****     uint8 batteryLevel;
 103:bas.c         ****     CYBLE_API_RESULT_T apiResult;
 104:bas.c         ****     
 105:bas.c         ****     static uint32 batteryTimer = BATTERY_TIMEOUT;
 106:bas.c         ****     
 107:bas.c         ****     if(--batteryTimer == 0u) 
 183              		.loc 1 107 0
 184 0006 5E4B     		ldr	r3, .L32
 185 0008 1B68     		ldr	r3, [r3]
 186 000a 5A1E     		subs	r2, r3, #1
 187 000c 5C4B     		ldr	r3, .L32
 188 000e 1A60     		str	r2, [r3]
 189 0010 5B4B     		ldr	r3, .L32
 190 0012 1B68     		ldr	r3, [r3]
 191 0014 002B     		cmp	r3, #0
 192 0016 00D0     		beq	.LCB137
 193 0018 AEE0     		b	.L31	@long jump
 194              	.LCB137:
 108:bas.c         ****     {
 109:bas.c         ****         batteryTimer = BATTERY_TIMEOUT;
 195              		.loc 1 109 0
 196 001a 594B     		ldr	r3, .L32
 197 001c 0322     		movs	r2, #3
 198 001e 1A60     		str	r2, [r3]
 110:bas.c         ****         
 111:bas.c         ****     	/* Set the reference to 1.024V and enable reference bypass */
 112:bas.c         ****     	sarControlReg = ADC_SAR_CTRL_REG & ~ADC_VREF_MASK;
 199              		.loc 1 112 0
 200 0020 584B     		ldr	r3, .L32+4
 201 0022 1B68     		ldr	r3, [r3]
 202 0024 F022     		movs	r2, #240
 203 0026 9343     		bics	r3, r2
 204 0028 3B61     		str	r3, [r7, #16]
 113:bas.c         ****     	ADC_SAR_CTRL_REG = sarControlReg | ADC_VREF_INTERNAL1024BYPASSED;
 205              		.loc 1 113 0
 206 002a 564B     		ldr	r3, .L32+4
 207 002c 3A69     		ldr	r2, [r7, #16]
 208 002e C021     		movs	r1, #192
 209 0030 0A43     		orrs	r2, r1
 210 0032 1A60     		str	r2, [r3]
 114:bas.c         ****     	
 115:bas.c         ****     	/* 25 ms delay for reference capacitor to charge */
 116:bas.c         ****     	CyDelay(25u);             
 211              		.loc 1 116 0
 212 0034 1920     		movs	r0, #25
 213 0036 FFF7FEFF 		bl	CyDelay
 117:bas.c         ****     	
 118:bas.c         ****     	/* Set the reference to VDD and disable reference bypass */
 119:bas.c         ****     	sarControlReg = ADC_SAR_CTRL_REG & ~ADC_VREF_MASK;
 214              		.loc 1 119 0
 215 003a 524B     		ldr	r3, .L32+4
 216 003c 1B68     		ldr	r3, [r3]
 217 003e F022     		movs	r2, #240
 218 0040 9343     		bics	r3, r2
 219 0042 3B61     		str	r3, [r7, #16]
 120:bas.c         ****     	ADC_SAR_CTRL_REG = sarControlReg | ADC_VREF_VDDA;
ARM GAS  C:\Users\Intern\AppData\Local\Temp\ccMUVljh.s 			page 7


 220              		.loc 1 120 0
 221 0044 4F4B     		ldr	r3, .L32+4
 222 0046 3A69     		ldr	r2, [r7, #16]
 223 0048 7021     		movs	r1, #112
 224 004a 0A43     		orrs	r2, r1
 225 004c 1A60     		str	r2, [r3]
 121:bas.c         **** 
 122:bas.c         ****     	/* Perform a measurement. Store this value in Vref. */
 123:bas.c         ****     	CyDelay(1u);
 226              		.loc 1 123 0
 227 004e 0120     		movs	r0, #1
 228 0050 FFF7FEFF 		bl	CyDelay
 124:bas.c         ****     	ADC_StartConvert();
 229              		.loc 1 124 0
 230 0054 FFF7FEFF 		bl	ADC_StartConvert
 125:bas.c         ****     	ADC_IsEndConversion(ADC_WAIT_FOR_RESULT);
 231              		.loc 1 125 0
 232 0058 0220     		movs	r0, #2
 233 005a FFF7FEFF 		bl	ADC_IsEndConversion
 126:bas.c         **** 
 127:bas.c         ****     	/* Set the reference to 1.024V and enable reference bypass */
 128:bas.c         ****     	sarControlReg = ADC_SAR_CTRL_REG & ~ADC_VREF_MASK;
 234              		.loc 1 128 0
 235 005e 494B     		ldr	r3, .L32+4
 236 0060 1B68     		ldr	r3, [r3]
 237 0062 F022     		movs	r2, #240
 238 0064 9343     		bics	r3, r2
 239 0066 3B61     		str	r3, [r7, #16]
 129:bas.c         ****     	ADC_SAR_CTRL_REG = sarControlReg | ADC_VREF_INTERNAL1024BYPASSED;
 240              		.loc 1 129 0
 241 0068 464B     		ldr	r3, .L32+4
 242 006a 3A69     		ldr	r2, [r7, #16]
 243 006c C021     		movs	r1, #192
 244 006e 0A43     		orrs	r2, r1
 245 0070 1A60     		str	r2, [r3]
 130:bas.c         ****         
 131:bas.c         ****         adcResult = ADC_GetResult16(ADC_TEMPERATURE_CHANNEL);
 246              		.loc 1 131 0
 247 0072 0E23     		movs	r3, #14
 248 0074 FC18     		adds	r4, r7, r3
 249 0076 0020     		movs	r0, #0
 250 0078 FFF7FEFF 		bl	ADC_GetResult16
 251 007c 0300     		movs	r3, r0
 252 007e 2380     		strh	r3, [r4]
 132:bas.c         ****     	/* Calculate input voltage by using ratio of ADC counts from reference
 133:bas.c         ****     	*  and ADC Full Scale counts. 
 134:bas.c         ****         */
 135:bas.c         ****     	mvolts = (1024 * 2048) / adcResult;
 253              		.loc 1 135 0
 254 0080 0E23     		movs	r3, #14
 255 0082 FB18     		adds	r3, r7, r3
 256 0084 0022     		movs	r2, #0
 257 0086 9B5E     		ldrsh	r3, [r3, r2]
 258 0088 1900     		movs	r1, r3
 259 008a 8023     		movs	r3, #128
 260 008c 9803     		lsls	r0, r3, #14
 261 008e FFF7FEFF 		bl	__aeabi_idiv
ARM GAS  C:\Users\Intern\AppData\Local\Temp\ccMUVljh.s 			page 8


 262 0092 0300     		movs	r3, r0
 263 0094 BB60     		str	r3, [r7, #8]
 136:bas.c         ****         
 137:bas.c         ****         /* Convert battery level voltage to percentage using linear approximation
 138:bas.c         ****         *  divided to two sections according to typical performance of 
 139:bas.c         ****         *  CR2033 battery specification:
 140:bas.c         ****         *  3V - 100%
 141:bas.c         ****         *  2.8V - 29%
 142:bas.c         ****         *  2.0V - 0%
 143:bas.c         ****         */
 144:bas.c         ****         if(mvolts < MEASURE_BATTERY_MIN)
 264              		.loc 1 144 0
 265 0096 BB68     		ldr	r3, [r7, #8]
 266 0098 3B4A     		ldr	r2, .L32+8
 267 009a 9342     		cmp	r3, r2
 268 009c 03DC     		bgt	.L23
 145:bas.c         ****         {
 146:bas.c         ****             batteryLevel = 0;
 269              		.loc 1 146 0
 270 009e FB1D     		adds	r3, r7, #7
 271 00a0 0022     		movs	r2, #0
 272 00a2 1A70     		strb	r2, [r3]
 273 00a4 2FE0     		b	.L24
 274              	.L23:
 147:bas.c         ****         }
 148:bas.c         ****         else if(mvolts < MEASURE_BATTERY_MID)
 275              		.loc 1 148 0
 276 00a6 BB68     		ldr	r3, [r7, #8]
 277 00a8 384A     		ldr	r2, .L32+12
 278 00aa 9342     		cmp	r3, r2
 279 00ac 11DC     		bgt	.L25
 149:bas.c         ****         {
 150:bas.c         ****             batteryLevel = (mvolts - MEASURE_BATTERY_MIN) * MEASURE_BATTERY_MID_PERCENT / 
 280              		.loc 1 150 0
 281 00ae BB68     		ldr	r3, [r7, #8]
 282 00b0 374A     		ldr	r2, .L32+16
 283 00b2 9A18     		adds	r2, r3, r2
 284 00b4 1300     		movs	r3, r2
 285 00b6 DB00     		lsls	r3, r3, #3
 286 00b8 9B1A     		subs	r3, r3, r2
 287 00ba 9B00     		lsls	r3, r3, #2
 288 00bc 9A18     		adds	r2, r3, r2
 289 00be C823     		movs	r3, #200
 290 00c0 9900     		lsls	r1, r3, #2
 291 00c2 1000     		movs	r0, r2
 292 00c4 FFF7FEFF 		bl	__aeabi_idiv
 293 00c8 0300     		movs	r3, r0
 294 00ca DAB2     		uxtb	r2, r3
 295 00cc FB1D     		adds	r3, r7, #7
 296 00ce 1A70     		strb	r2, [r3]
 297 00d0 19E0     		b	.L24
 298              	.L25:
 151:bas.c         ****                            (MEASURE_BATTERY_MID - MEASURE_BATTERY_MIN); 
 152:bas.c         ****         }
 153:bas.c         ****         else if(mvolts < MEASURE_BATTERY_MAX)
 299              		.loc 1 153 0
 300 00d2 BB68     		ldr	r3, [r7, #8]
ARM GAS  C:\Users\Intern\AppData\Local\Temp\ccMUVljh.s 			page 9


 301 00d4 2F4A     		ldr	r2, .L32+20
 302 00d6 9342     		cmp	r3, r2
 303 00d8 12DC     		bgt	.L26
 154:bas.c         ****         {
 155:bas.c         ****             batteryLevel = MEASURE_BATTERY_MID_PERCENT +
 156:bas.c         ****                            (mvolts - MEASURE_BATTERY_MID) * (100 - MEASURE_BATTERY_MID_PERCENT) / 
 304              		.loc 1 156 0
 305 00da BB68     		ldr	r3, [r7, #8]
 306 00dc 2E4A     		ldr	r2, .L32+24
 307 00de 9A18     		adds	r2, r3, r2
 308 00e0 1300     		movs	r3, r2
 309 00e2 DB00     		lsls	r3, r3, #3
 310 00e4 9B18     		adds	r3, r3, r2
 311 00e6 DB00     		lsls	r3, r3, #3
 312 00e8 9B1A     		subs	r3, r3, r2
 313 00ea C821     		movs	r1, #200
 314 00ec 1800     		movs	r0, r3
 315 00ee FFF7FEFF 		bl	__aeabi_idiv
 316 00f2 0300     		movs	r3, r0
 155:bas.c         ****                            (mvolts - MEASURE_BATTERY_MID) * (100 - MEASURE_BATTERY_MID_PERCENT) / 
 317              		.loc 1 155 0
 318 00f4 DBB2     		uxtb	r3, r3
 319 00f6 1D33     		adds	r3, r3, #29
 320 00f8 DAB2     		uxtb	r2, r3
 321 00fa FB1D     		adds	r3, r7, #7
 322 00fc 1A70     		strb	r2, [r3]
 323 00fe 02E0     		b	.L24
 324              	.L26:
 157:bas.c         ****                            (MEASURE_BATTERY_MAX - MEASURE_BATTERY_MID); 
 158:bas.c         ****         }
 159:bas.c         ****         else
 160:bas.c         ****         {
 161:bas.c         ****             batteryLevel = CYBLE_BAS_MAX_BATTERY_LEVEL_VALUE;
 325              		.loc 1 161 0
 326 0100 FB1D     		adds	r3, r7, #7
 327 0102 6422     		movs	r2, #100
 328 0104 1A70     		strb	r2, [r3]
 329              	.L24:
 162:bas.c         ****         }
 163:bas.c         ****         
 164:bas.c         ****         if(batteryLevel < LOW_BATTERY_LIMIT)
 330              		.loc 1 164 0
 331 0106 FB1D     		adds	r3, r7, #7
 332 0108 1B78     		ldrb	r3, [r3]
 333 010a 092B     		cmp	r3, #9
 334 010c 03D8     		bhi	.L27
 165:bas.c         ****         {
 166:bas.c         ****             LowPower_LED_Write(LED_ON);
 335              		.loc 1 166 0
 336 010e 0020     		movs	r0, #0
 337 0110 FFF7FEFF 		bl	LowPower_LED_Write
 338 0114 02E0     		b	.L28
 339              	.L27:
 167:bas.c         ****         }
 168:bas.c         ****         else
 169:bas.c         ****         {
 170:bas.c         ****             LowPower_LED_Write(LED_OFF);
ARM GAS  C:\Users\Intern\AppData\Local\Temp\ccMUVljh.s 			page 10


 340              		.loc 1 170 0
 341 0116 0120     		movs	r0, #1
 342 0118 FFF7FEFF 		bl	LowPower_LED_Write
 343              	.L28:
 171:bas.c         ****         }
 172:bas.c         **** 
 173:bas.c         ****         if(batteryMeasureNotify == ENABLED)
 344              		.loc 1 173 0
 345 011c 1F4B     		ldr	r3, .L32+28
 346 011e 1B88     		ldrh	r3, [r3]
 347 0120 012B     		cmp	r3, #1
 348 0122 17D1     		bne	.L29
 174:bas.c         ****         {
 175:bas.c         ****             /* Update Battery Level characteristic value and send Notification */
 176:bas.c         ****             apiResult = CyBle_BassSendNotification(cyBle_connHandle, BAS_SERVICE_MEASURE, CYBLE_BAS
 349              		.loc 1 176 0
 350 0124 1623     		movs	r3, #22
 351 0126 FC18     		adds	r4, r7, r3
 352 0128 1D4B     		ldr	r3, .L32+32
 353 012a FA1D     		adds	r2, r7, #7
 354 012c 0092     		str	r2, [sp]
 355 012e 1A78     		ldrb	r2, [r3]
 356 0130 5B78     		ldrb	r3, [r3, #1]
 357 0132 1B02     		lsls	r3, r3, #8
 358 0134 1343     		orrs	r3, r2
 359 0136 0020     		movs	r0, #0
 360 0138 1B04     		lsls	r3, r3, #16
 361 013a 1B0C     		lsrs	r3, r3, #16
 362 013c 020C     		lsrs	r2, r0, #16
 363 013e 1204     		lsls	r2, r2, #16
 364 0140 1343     		orrs	r3, r2
 365 0142 1800     		movs	r0, r3
 366 0144 0123     		movs	r3, #1
 367 0146 0022     		movs	r2, #0
 368 0148 0021     		movs	r1, #0
 369 014a FFF7FEFF 		bl	CyBle_BassSendNotification
 370 014e 0300     		movs	r3, r0
 371 0150 2380     		strh	r3, [r4]
 372 0152 09E0     		b	.L30
 373              	.L29:
 177:bas.c         ****                 sizeof(batteryLevel), &batteryLevel);
 178:bas.c         ****         }
 179:bas.c         ****         else
 180:bas.c         ****         {
 181:bas.c         ****             /* Update Battery Level characteristic value */
 182:bas.c         ****             apiResult = CyBle_BassSetCharacteristicValue(BAS_SERVICE_MEASURE, CYBLE_BAS_BATTERY_LEV
 374              		.loc 1 182 0
 375 0154 1623     		movs	r3, #22
 376 0156 FC18     		adds	r4, r7, r3
 377 0158 FB1D     		adds	r3, r7, #7
 378 015a 0122     		movs	r2, #1
 379 015c 0021     		movs	r1, #0
 380 015e 0020     		movs	r0, #0
 381 0160 FFF7FEFF 		bl	CyBle_BassSetCharacteristicValue
 382 0164 0300     		movs	r3, r0
 383 0166 2380     		strh	r3, [r4]
 384              	.L30:
ARM GAS  C:\Users\Intern\AppData\Local\Temp\ccMUVljh.s 			page 11


 183:bas.c         ****                 sizeof(batteryLevel), &batteryLevel);
 184:bas.c         ****         }
 185:bas.c         ****         if(apiResult != CYBLE_ERROR_OK)
 385              		.loc 1 185 0
 386 0168 1623     		movs	r3, #22
 387 016a FB18     		adds	r3, r7, r3
 388 016c 1B88     		ldrh	r3, [r3]
 389 016e 002B     		cmp	r3, #0
 390 0170 02D0     		beq	.L31
 186:bas.c         ****         {
 187:bas.c         **** //            DBG_PRINTF("API Error: %x \r\n", apiResult);
 188:bas.c         ****             batteryMeasureNotify = DISABLED;
 391              		.loc 1 188 0
 392 0172 0A4B     		ldr	r3, .L32+28
 393 0174 0022     		movs	r2, #0
 394 0176 1A80     		strh	r2, [r3]
 395              	.L31:
 189:bas.c         ****         }
 190:bas.c         ****         else
 191:bas.c         ****         {
 192:bas.c         **** //            DBG_PRINTF("MeasureBatteryLevelUpdate: %d \r\n",batteryLevel);
 193:bas.c         ****         }
 194:bas.c         ****     }
 195:bas.c         **** }
 396              		.loc 1 195 0
 397 0178 C046     		nop
 398 017a BD46     		mov	sp, r7
 399 017c 07B0     		add	sp, sp, #28
 400              		@ sp needed
 401 017e 90BD     		pop	{r4, r7, pc}
 402              	.L33:
 403              		.align	2
 404              	.L32:
 405 0180 00000000 		.word	batteryTimer.8605
 406 0184 00003A40 		.word	1077542912
 407 0188 CF070000 		.word	1999
 408 018c EF0A0000 		.word	2799
 409 0190 30F8FFFF 		.word	-2000
 410 0194 B70B0000 		.word	2999
 411 0198 10F5FFFF 		.word	-2800
 412 019c 00000000 		.word	batteryMeasureNotify
 413 01a0 00000000 		.word	cyBle_connHandle
 414              		.cfi_endproc
 415              	.LFE37:
 416              		.size	MeasureBattery, .-MeasureBattery
 417              		.section	.text.SimulateBattery,"ax",%progbits
 418              		.align	2
 419              		.global	SimulateBattery
 420              		.code	16
 421              		.thumb_func
 422              		.type	SimulateBattery, %function
 423              	SimulateBattery:
 424              	.LFB38:
 196:bas.c         **** 
 197:bas.c         **** 
 198:bas.c         **** /*******************************************************************************
 199:bas.c         **** * Function Name: SimulateBattery()
ARM GAS  C:\Users\Intern\AppData\Local\Temp\ccMUVljh.s 			page 12


 200:bas.c         **** ********************************************************************************
 201:bas.c         **** *
 202:bas.c         **** * Summary:
 203:bas.c         **** *   The custom function to simulate Battery Voltage.
 204:bas.c         **** *
 205:bas.c         **** *******************************************************************************/
 206:bas.c         **** void SimulateBattery(void)
 207:bas.c         **** {
 425              		.loc 1 207 0
 426              		.cfi_startproc
 427              		@ args = 0, pretend = 0, frame = 8
 428              		@ frame_needed = 1, uses_anonymous_args = 0
 429 0000 90B5     		push	{r4, r7, lr}
 430              		.cfi_def_cfa_offset 12
 431              		.cfi_offset 4, -12
 432              		.cfi_offset 7, -8
 433              		.cfi_offset 14, -4
 434 0002 85B0     		sub	sp, sp, #20
 435              		.cfi_def_cfa_offset 32
 436 0004 02AF     		add	r7, sp, #8
 437              		.cfi_def_cfa 7, 24
 208:bas.c         ****     static uint32 batteryTimer = BATTERY_TIMEOUT;
 209:bas.c         ****     static uint8 batteryLevel = SIM_BATTERY_MIN;
 210:bas.c         ****     CYBLE_API_RESULT_T apiResult;
 211:bas.c         ****     
 212:bas.c         ****     if((CyBle_GattGetBusyStatus() == CYBLE_STACK_STATE_FREE) && (--batteryTimer == 0u))
 438              		.loc 1 212 0
 439 0006 2C4B     		ldr	r3, .L42
 440 0008 1B78     		ldrb	r3, [r3]
 441 000a DBB2     		uxtb	r3, r3
 442 000c 002B     		cmp	r3, #0
 443 000e 4ED1     		bne	.L41
 444              		.loc 1 212 0 is_stmt 0 discriminator 1
 445 0010 2A4B     		ldr	r3, .L42+4
 446 0012 1B68     		ldr	r3, [r3]
 447 0014 5A1E     		subs	r2, r3, #1
 448 0016 294B     		ldr	r3, .L42+4
 449 0018 1A60     		str	r2, [r3]
 450 001a 284B     		ldr	r3, .L42+4
 451 001c 1B68     		ldr	r3, [r3]
 452 001e 002B     		cmp	r3, #0
 453 0020 45D1     		bne	.L41
 213:bas.c         ****     {
 214:bas.c         ****         batteryTimer = BATTERY_TIMEOUT;
 454              		.loc 1 214 0 is_stmt 1
 455 0022 264B     		ldr	r3, .L42+4
 456 0024 0322     		movs	r2, #3
 457 0026 1A60     		str	r2, [r3]
 215:bas.c         ****         
 216:bas.c         ****         /* Battery Level simulation */
 217:bas.c         ****         batteryLevel += SIM_BATTERY_INCREMENT;
 458              		.loc 1 217 0
 459 0028 254B     		ldr	r3, .L42+8
 460 002a 1B78     		ldrb	r3, [r3]
 461 002c 0133     		adds	r3, r3, #1
 462 002e DAB2     		uxtb	r2, r3
 463 0030 234B     		ldr	r3, .L42+8
ARM GAS  C:\Users\Intern\AppData\Local\Temp\ccMUVljh.s 			page 13


 464 0032 1A70     		strb	r2, [r3]
 218:bas.c         ****         if(batteryLevel > SIM_BATTERY_MAX)
 465              		.loc 1 218 0
 466 0034 224B     		ldr	r3, .L42+8
 467 0036 1B78     		ldrb	r3, [r3]
 468 0038 142B     		cmp	r3, #20
 469 003a 02D9     		bls	.L36
 219:bas.c         ****         {
 220:bas.c         ****             batteryLevel = SIM_BATTERY_MIN; 
 470              		.loc 1 220 0
 471 003c 204B     		ldr	r3, .L42+8
 472 003e 0222     		movs	r2, #2
 473 0040 1A70     		strb	r2, [r3]
 474              	.L36:
 221:bas.c         ****         }
 222:bas.c         ****         if(batteryLevel < LOW_BATTERY_LIMIT)
 475              		.loc 1 222 0
 476 0042 1F4B     		ldr	r3, .L42+8
 477 0044 1B78     		ldrb	r3, [r3]
 478 0046 092B     		cmp	r3, #9
 479 0048 03D8     		bhi	.L37
 223:bas.c         ****         {
 224:bas.c         ****             LowPower_LED_Write(LED_ON);
 480              		.loc 1 224 0
 481 004a 0020     		movs	r0, #0
 482 004c FFF7FEFF 		bl	LowPower_LED_Write
 483 0050 02E0     		b	.L38
 484              	.L37:
 225:bas.c         ****         }
 226:bas.c         ****         else
 227:bas.c         ****         {
 228:bas.c         ****             LowPower_LED_Write(LED_OFF);
 485              		.loc 1 228 0
 486 0052 0120     		movs	r0, #1
 487 0054 FFF7FEFF 		bl	LowPower_LED_Write
 488              	.L38:
 229:bas.c         ****         }
 230:bas.c         **** 
 231:bas.c         ****         if(batterySimulationNotify == ENABLED)
 489              		.loc 1 231 0
 490 0058 1A4B     		ldr	r3, .L42+12
 491 005a 1B88     		ldrh	r3, [r3]
 492 005c 012B     		cmp	r3, #1
 493 005e 16D1     		bne	.L39
 232:bas.c         ****         {
 233:bas.c         ****             /* Update Battery Level characteristic value and send Notification */
 234:bas.c         ****              apiResult = CyBle_BassSendNotification(cyBle_connHandle, BAS_SERVICE_SIMULATE, 
 494              		.loc 1 234 0
 495 0060 BC1D     		adds	r4, r7, #6
 496 0062 194B     		ldr	r3, .L42+16
 497 0064 164A     		ldr	r2, .L42+8
 498 0066 0092     		str	r2, [sp]
 499 0068 1A78     		ldrb	r2, [r3]
 500 006a 5B78     		ldrb	r3, [r3, #1]
 501 006c 1B02     		lsls	r3, r3, #8
 502 006e 1343     		orrs	r3, r2
 503 0070 0020     		movs	r0, #0
ARM GAS  C:\Users\Intern\AppData\Local\Temp\ccMUVljh.s 			page 14


 504 0072 1B04     		lsls	r3, r3, #16
 505 0074 1B0C     		lsrs	r3, r3, #16
 506 0076 020C     		lsrs	r2, r0, #16
 507 0078 1204     		lsls	r2, r2, #16
 508 007a 1343     		orrs	r3, r2
 509 007c 1800     		movs	r0, r3
 510 007e 0123     		movs	r3, #1
 511 0080 0022     		movs	r2, #0
 512 0082 0021     		movs	r1, #0
 513 0084 FFF7FEFF 		bl	CyBle_BassSendNotification
 514 0088 0300     		movs	r3, r0
 515 008a 2380     		strh	r3, [r4]
 516 008c 08E0     		b	.L40
 517              	.L39:
 235:bas.c         ****                 CYBLE_BAS_BATTERY_LEVEL, sizeof(batteryLevel), &batteryLevel);
 236:bas.c         ****         }
 237:bas.c         ****         else
 238:bas.c         ****         {
 239:bas.c         ****             /* Update Battery Level characteristic value */
 240:bas.c         ****              apiResult = CyBle_BassSetCharacteristicValue(BAS_SERVICE_SIMULATE, 
 518              		.loc 1 240 0
 519 008e BC1D     		adds	r4, r7, #6
 520 0090 0B4B     		ldr	r3, .L42+8
 521 0092 0122     		movs	r2, #1
 522 0094 0021     		movs	r1, #0
 523 0096 0020     		movs	r0, #0
 524 0098 FFF7FEFF 		bl	CyBle_BassSetCharacteristicValue
 525 009c 0300     		movs	r3, r0
 526 009e 2380     		strh	r3, [r4]
 527              	.L40:
 241:bas.c         ****                 CYBLE_BAS_BATTERY_LEVEL, sizeof(batteryLevel), &batteryLevel);
 242:bas.c         ****         }
 243:bas.c         ****         if(apiResult != CYBLE_ERROR_OK)
 528              		.loc 1 243 0
 529 00a0 BB1D     		adds	r3, r7, #6
 530 00a2 1B88     		ldrh	r3, [r3]
 531 00a4 002B     		cmp	r3, #0
 532 00a6 02D0     		beq	.L41
 244:bas.c         ****         {
 245:bas.c         **** //            DBG_PRINTF("API Error: %x \r\n", apiResult);
 246:bas.c         ****             batterySimulationNotify = DISABLED;
 533              		.loc 1 246 0
 534 00a8 064B     		ldr	r3, .L42+12
 535 00aa 0022     		movs	r2, #0
 536 00ac 1A80     		strh	r2, [r3]
 537              	.L41:
 247:bas.c         ****         }
 248:bas.c         ****         else
 249:bas.c         ****         {
 250:bas.c         **** //            DBG_PRINTF("SimulBatteryLevelUpdate: %d \r\n",batteryLevel);
 251:bas.c         ****         }
 252:bas.c         ****     }
 253:bas.c         **** }
 538              		.loc 1 253 0
 539 00ae C046     		nop
 540 00b0 BD46     		mov	sp, r7
 541 00b2 03B0     		add	sp, sp, #12
ARM GAS  C:\Users\Intern\AppData\Local\Temp\ccMUVljh.s 			page 15


 542              		@ sp needed
 543 00b4 90BD     		pop	{r4, r7, pc}
 544              	.L43:
 545 00b6 C046     		.align	2
 546              	.L42:
 547 00b8 00000000 		.word	cyBle_busyStatus
 548 00bc 04000000 		.word	batteryTimer.8609
 549 00c0 08000000 		.word	batteryLevel.8610
 550 00c4 00000000 		.word	batterySimulationNotify
 551 00c8 00000000 		.word	cyBle_connHandle
 552              		.cfi_endproc
 553              	.LFE38:
 554              		.size	SimulateBattery, .-SimulateBattery
 555              		.data
 556              		.align	2
 557              		.type	batteryTimer.8605, %object
 558              		.size	batteryTimer.8605, 4
 559              	batteryTimer.8605:
 560 0000 03000000 		.word	3
 561              		.align	2
 562              		.type	batteryTimer.8609, %object
 563              		.size	batteryTimer.8609, 4
 564              	batteryTimer.8609:
 565 0004 03000000 		.word	3
 566              		.type	batteryLevel.8610, %object
 567              		.size	batteryLevel.8610, 1
 568              	batteryLevel.8610:
 569 0008 02       		.byte	2
 570              		.text
 571              	.Letext0:
 572              		.file 2 "Generated_Source\\PSoC4/cytypes.h"
 573              		.file 3 "Generated_Source\\PSoC4/BLE_Stack.h"
 574              		.file 4 "Generated_Source\\PSoC4/BLE_StackGatt.h"
 575              		.file 5 "Generated_Source\\PSoC4/BLE_bas.h"
 576              		.file 6 "Generated_Source\\PSoC4/BLE_dis.h"
 577              		.file 7 "Generated_Source\\PSoC4/BLE_hts.h"
 578              		.file 8 "Generated_Source\\PSoC4/BLE_eventHandler.h"