ARM GAS  C:\Users\Intern\AppData\Local\Temp\ccKvQnxT.s 			page 1


   1              		.syntax unified
   2              		.cpu cortex-m0
   3              		.fpu softvfp
   4              		.eabi_attribute 20, 1
   5              		.eabi_attribute 21, 1
   6              		.eabi_attribute 23, 3
   7              		.eabi_attribute 24, 1
   8              		.eabi_attribute 25, 1
   9              		.eabi_attribute 26, 1
  10              		.eabi_attribute 30, 6
  11              		.eabi_attribute 34, 0
  12              		.eabi_attribute 18, 4
  13              		.thumb
  14              		.syntax unified
  15              		.file	"hts.c"
  16              		.text
  17              	.Ltext0:
  18              		.cfi_sections	.debug_frame
  19              		.global	temperatureMeasure
  20              		.bss
  21              		.align	1
  22              		.type	temperatureMeasure, %object
  23              		.size	temperatureMeasure, 2
  24              	temperatureMeasure:
  25 0000 0000     		.space	2
  26              		.global	temperatureTimer
  27              		.data
  28              		.align	2
  29              		.type	temperatureTimer, %object
  30              		.size	temperatureTimer, 4
  31              	temperatureTimer:
  32 0000 01000000 		.word	1
  33              		.global	initialMeasurementInterval
  34              		.align	1
  35              		.type	initialMeasurementInterval, %object
  36              		.size	initialMeasurementInterval, 2
  37              	initialMeasurementInterval:
  38 0004 0100     		.short	1
  39              		.global	measure
  40              		.type	measure, %object
  41              		.size	measure, 1
  42              	measure:
  43 0006 01       		.byte	1
  44              		.global	counter
  45 0007 00       		.align	2
  46              		.type	counter, %object
  47              		.size	counter, 4
  48              	counter:
  49 0008 0000803F 		.word	1065353216
  50              		.global	temp_data
  51              		.bss
  52 0002 0000     		.align	2
  53              		.type	temp_data, %object
  54              		.size	temp_data, 5
  55              	temp_data:
  56 0004 00000000 		.space	5
  56      00
ARM GAS  C:\Users\Intern\AppData\Local\Temp\ccKvQnxT.s 			page 2


  57              		.section	.text.HtsCallBack,"ax",%progbits
  58              		.align	2
  59              		.global	HtsCallBack
  60              		.code	16
  61              		.thumb_func
  62              		.type	HtsCallBack, %function
  63              	HtsCallBack:
  64              	.LFB36:
  65              		.file 1 "hts.c"
   1:hts.c         **** /*******************************************************************************
   2:hts.c         **** * File Name: hts.c
   3:hts.c         **** *
   4:hts.c         **** * Version: 1.0
   5:hts.c         **** *
   6:hts.c         **** * Description:
   7:hts.c         **** *  This file contains HTS callback handler function.
   8:hts.c         **** *
   9:hts.c         **** * Hardware Dependency:
  10:hts.c         **** *  CY8CKIT-042 BLE
  11:hts.c         **** * 
  12:hts.c         **** ********************************************************************************
  13:hts.c         **** * Copyright 2016, Cypress Semiconductor Corporation.  All rights reserved.
  14:hts.c         **** * You may use this file only in accordance with the license, terms, conditions,
  15:hts.c         **** * disclaimers, and limitations in the end user license agreement accompanying
  16:hts.c         **** * the software package with which this file was provided.
  17:hts.c         **** *******************************************************************************/
  18:hts.c         **** 
  19:hts.c         **** #include "common.h"
  20:hts.c         **** #include "hts.h"
  21:hts.c         **** #include "tmp116.h"
  22:hts.c         **** 
  23:hts.c         **** uint16 temperatureMeasure = 0u;
  24:hts.c         **** uint32 temperatureTimer = 1u;
  25:hts.c         **** 
  26:hts.c         **** //Sets the Period of Data Transfer
  27:hts.c         **** uint16 initialMeasurementInterval = 1;
  28:hts.c         **** uint8 measure = ENABLED; 
  29:hts.c         **** float counter = 1;
  30:hts.c         **** /* Byte order: 
  31:hts.c         **** *   Flags
  32:hts.c         **** *   Temperature in float format (MSB 8 bits - exponent, LSB 24 bits - mantissa) 
  33:hts.c         **** */
  34:hts.c         **** uint8 temp_data[HTS_TEMP_DATA_MIN_SIZE] = {0u, 0u, 0u, 0u, 0u};
  35:hts.c         **** 
  36:hts.c         **** 
  37:hts.c         **** /*******************************************************************************
  38:hts.c         **** * Function Name: HtsCallBack()
  39:hts.c         **** ********************************************************************************
  40:hts.c         **** *
  41:hts.c         **** * Summary:
  42:hts.c         **** *   This is an event callback function to receive service specific events from 
  43:hts.c         **** *   Health Thermometer Service.
  44:hts.c         **** *
  45:hts.c         **** * Parameters:
  46:hts.c         **** *  event - the event code
  47:hts.c         **** *  *eventParam - the event parameters
  48:hts.c         **** *
ARM GAS  C:\Users\Intern\AppData\Local\Temp\ccKvQnxT.s 			page 3


  49:hts.c         **** * Return:
  50:hts.c         **** *  None.
  51:hts.c         **** *
  52:hts.c         **** *******************************************************************************/
  53:hts.c         **** void HtsCallBack(uint32 event, void *eventParam)
  54:hts.c         **** {
  66              		.loc 1 54 0
  67              		.cfi_startproc
  68              		@ args = 0, pretend = 0, frame = 16
  69              		@ frame_needed = 1, uses_anonymous_args = 0
  70 0000 90B5     		push	{r4, r7, lr}
  71              		.cfi_def_cfa_offset 12
  72              		.cfi_offset 4, -12
  73              		.cfi_offset 7, -8
  74              		.cfi_offset 14, -4
  75 0002 85B0     		sub	sp, sp, #20
  76              		.cfi_def_cfa_offset 32
  77 0004 00AF     		add	r7, sp, #0
  78              		.cfi_def_cfa_register 7
  79 0006 7860     		str	r0, [r7, #4]
  80 0008 3960     		str	r1, [r7]
  55:hts.c         ****     uint8 locCharIndex;
  56:hts.c         ****     locCharIndex = ((CYBLE_HTS_CHAR_VALUE_T *)eventParam)->charIndex;
  81              		.loc 1 56 0
  82 000a 0F23     		movs	r3, #15
  83 000c FB18     		adds	r3, r7, r3
  84 000e 3A68     		ldr	r2, [r7]
  85 0010 9278     		ldrb	r2, [r2, #2]
  86 0012 1A70     		strb	r2, [r3]
  57:hts.c         **** //    DBG_PRINTF("HTS event: %lx, ", event);
  58:hts.c         **** 
  59:hts.c         ****     switch(event)
  87              		.loc 1 59 0
  88 0014 7B68     		ldr	r3, [r7, #4]
  89 0016 B13B     		subs	r3, r3, #177
  90 0018 FF3B     		subs	r3, r3, #255
  91 001a 0B2B     		cmp	r3, #11
  92 001c 43D8     		bhi	.L20
  93 001e 9A00     		lsls	r2, r3, #2
  94 0020 274B     		ldr	r3, .L25
  95 0022 D318     		adds	r3, r2, r3
  96 0024 1B68     		ldr	r3, [r3]
  97 0026 9F46     		mov	pc, r3
  98              		.section	.rodata
  99              		.align	2
 100              	.L4:
 101 0000 AA000000 		.word	.L21
 102 0004 AA000000 		.word	.L21
 103 0008 28000000 		.word	.L6
 104 000c 46000000 		.word	.L7
 105 0010 AA000000 		.word	.L21
 106 0014 58000000 		.word	.L9
 107 0018 AA000000 		.word	.L21
 108 001c AA000000 		.word	.L21
 109 0020 AA000000 		.word	.L21
 110 0024 AA000000 		.word	.L21
 111 0028 AA000000 		.word	.L21
ARM GAS  C:\Users\Intern\AppData\Local\Temp\ccKvQnxT.s 			page 4


 112 002c AA000000 		.word	.L21
 113              		.section	.text.HtsCallBack
 114              	.L6:
  60:hts.c         ****     {
  61:hts.c         ****         case CYBLE_EVT_HTSS_NOTIFICATION_ENABLED:
  62:hts.c         ****             break;
  63:hts.c         ****         case CYBLE_EVT_HTSS_NOTIFICATION_DISABLED:
  64:hts.c         ****             break;
  65:hts.c         ****         case CYBLE_EVT_HTSS_INDICATION_ENABLED:
  66:hts.c         **** //            DBG_PRINTF("CYBLE_EVT_HTSS_INDICATION_ENABLED: char: %x\r\n", locCharIndex);
  67:hts.c         ****             if(locCharIndex == CYBLE_HTS_TEMP_MEASURE)
 115              		.loc 1 67 0
 116 0028 0F23     		movs	r3, #15
 117 002a FB18     		adds	r3, r7, r3
 118 002c 1B78     		ldrb	r3, [r3]
 119 002e 002B     		cmp	r3, #0
 120 0030 3DD1     		bne	.L22
  68:hts.c         ****             {
  69:hts.c         ****                 temperatureMeasure = ENABLED;
 121              		.loc 1 69 0
 122 0032 244B     		ldr	r3, .L25+4
 123 0034 0122     		movs	r2, #1
 124 0036 1A80     		strh	r2, [r3]
  70:hts.c         ****                 measure = ENABLED;
 125              		.loc 1 70 0
 126 0038 234B     		ldr	r3, .L25+8
 127 003a 0122     		movs	r2, #1
 128 003c 1A70     		strb	r2, [r3]
  71:hts.c         ****                 temp_data[0] = 0u;
 129              		.loc 1 71 0
 130 003e 234B     		ldr	r3, .L25+12
 131 0040 0022     		movs	r2, #0
 132 0042 1A70     		strb	r2, [r3]
  72:hts.c         ****             }
  73:hts.c         ****             break;
 133              		.loc 1 73 0
 134 0044 33E0     		b	.L22
 135              	.L7:
  74:hts.c         ****         case CYBLE_EVT_HTSS_INDICATION_DISABLED:
  75:hts.c         **** //            DBG_PRINTF("CYBLE_EVT_HTSS_INDICATION_DISABLED: char: %x\r\n", locCharIndex);
  76:hts.c         ****             if(locCharIndex == CYBLE_HTS_TEMP_MEASURE)
 136              		.loc 1 76 0
 137 0046 0F23     		movs	r3, #15
 138 0048 FB18     		adds	r3, r7, r3
 139 004a 1B78     		ldrb	r3, [r3]
 140 004c 002B     		cmp	r3, #0
 141 004e 30D1     		bne	.L23
  77:hts.c         ****             {
  78:hts.c         ****                 temperatureMeasure = DISABLED;
 142              		.loc 1 78 0
 143 0050 1C4B     		ldr	r3, .L25+4
 144 0052 0022     		movs	r2, #0
 145 0054 1A80     		strh	r2, [r3]
  79:hts.c         ****             }
  80:hts.c         ****             break;
 146              		.loc 1 80 0
 147 0056 2CE0     		b	.L23
ARM GAS  C:\Users\Intern\AppData\Local\Temp\ccKvQnxT.s 			page 5


 148              	.L9:
  81:hts.c         ****         case CYBLE_EVT_HTSS_INDICATION_CONFIRMED:
  82:hts.c         **** //            DBG_PRINTF("CYBLE_EVT_HTSS_INDICATION_CONFIRMED\r\n");
  83:hts.c         ****             break;
  84:hts.c         ****         case CYBLE_EVT_HTSS_CHAR_WRITE:
  85:hts.c         **** //            DBG_PRINTF("CYBLE_EVT_HTSS_CHAR_WRITE: %x ", locCharIndex);
  86:hts.c         ****             ShowValue(((CYBLE_HTS_CHAR_VALUE_T *)eventParam)->value);
 149              		.loc 1 86 0
 150 0058 3B68     		ldr	r3, [r7]
 151 005a 5B68     		ldr	r3, [r3, #4]
 152 005c 1800     		movs	r0, r3
 153 005e FFF7FEFF 		bl	ShowValue
  87:hts.c         ****             if(locCharIndex == CYBLE_HTS_MEASURE_INTERVAL)
 154              		.loc 1 87 0
 155 0062 0F23     		movs	r3, #15
 156 0064 FB18     		adds	r3, r7, r3
 157 0066 1B78     		ldrb	r3, [r3]
 158 0068 032B     		cmp	r3, #3
 159 006a 24D1     		bne	.L24
 160              	.LBB2:
  88:hts.c         ****             {
  89:hts.c         ****                 uint16 interval;
  90:hts.c         ****                 interval = CyBle_Get16ByPtr(((CYBLE_HTS_CHAR_VALUE_T *)eventParam)->value->val);
 161              		.loc 1 90 0
 162 006c 3B68     		ldr	r3, [r7]
 163 006e 5B68     		ldr	r3, [r3, #4]
 164 0070 1B68     		ldr	r3, [r3]
 165 0072 0C22     		movs	r2, #12
 166 0074 BC18     		adds	r4, r7, r2
 167 0076 1800     		movs	r0, r3
 168 0078 FFF7FEFF 		bl	CyBle_Get16ByPtr
 169 007c 0300     		movs	r3, r0
 170 007e 2380     		strh	r3, [r4]
  91:hts.c         ****                 
  92:hts.c         ****                 /* Store new interval value */
  93:hts.c         ****                 initialMeasurementInterval = interval;
 171              		.loc 1 93 0
 172 0080 134B     		ldr	r3, .L25+16
 173 0082 0C22     		movs	r2, #12
 174 0084 BA18     		adds	r2, r7, r2
 175 0086 1288     		ldrh	r2, [r2]
 176 0088 1A80     		strh	r2, [r3]
  94:hts.c         ****                 if(interval != 0u)
 177              		.loc 1 94 0
 178 008a 0C23     		movs	r3, #12
 179 008c FB18     		adds	r3, r7, r3
 180 008e 1B88     		ldrh	r3, [r3]
 181 0090 002B     		cmp	r3, #0
 182 0092 10D0     		beq	.L24
  95:hts.c         ****                 {
  96:hts.c         ****                     /* Reset the measurement interval and start the measurement process. */
  97:hts.c         ****                     temperatureTimer = 1u;
 183              		.loc 1 97 0
 184 0094 0F4B     		ldr	r3, .L25+20
 185 0096 0122     		movs	r2, #1
 186 0098 1A60     		str	r2, [r3]
  98:hts.c         ****                     mainTimer++;
ARM GAS  C:\Users\Intern\AppData\Local\Temp\ccKvQnxT.s 			page 6


 187              		.loc 1 98 0
 188 009a 0F4B     		ldr	r3, .L25+24
 189 009c 1B68     		ldr	r3, [r3]
 190 009e 5A1C     		adds	r2, r3, #1
 191 00a0 0D4B     		ldr	r3, .L25+24
 192 00a2 1A60     		str	r2, [r3]
 193              	.LBE2:
  99:hts.c         ****                 }
 100:hts.c         ****             }
 101:hts.c         ****             break;
 194              		.loc 1 101 0
 195 00a4 07E0     		b	.L24
 196              	.L20:
 102:hts.c         ****         case CYBLE_EVT_HTSC_NOTIFICATION:
 103:hts.c         ****             break;
 104:hts.c         ****         case CYBLE_EVT_HTSC_INDICATION:
 105:hts.c         ****             break;
 106:hts.c         ****         case CYBLE_EVT_HTSC_READ_CHAR_RESPONSE:
 107:hts.c         ****             break;
 108:hts.c         ****         case CYBLE_EVT_HTSC_WRITE_CHAR_RESPONSE:
 109:hts.c         ****             break;
 110:hts.c         ****         case CYBLE_EVT_HTSC_READ_DESCR_RESPONSE:
 111:hts.c         ****             break;
 112:hts.c         ****         case CYBLE_EVT_HTSC_WRITE_DESCR_RESPONSE:
 113:hts.c         ****             break;
 114:hts.c         **** 		default:
 115:hts.c         **** //            DBG_PRINTF("Not supported event\r\n");
 116:hts.c         **** 			break;
 197              		.loc 1 116 0
 198 00a6 C046     		nop
 199 00a8 06E0     		b	.L16
 200              	.L21:
 113:hts.c         **** 		default:
 201              		.loc 1 113 0
 202 00aa C046     		nop
 203 00ac 04E0     		b	.L16
 204              	.L22:
  73:hts.c         ****         case CYBLE_EVT_HTSS_INDICATION_DISABLED:
 205              		.loc 1 73 0
 206 00ae C046     		nop
 207 00b0 02E0     		b	.L16
 208              	.L23:
  80:hts.c         ****         case CYBLE_EVT_HTSS_INDICATION_CONFIRMED:
 209              		.loc 1 80 0
 210 00b2 C046     		nop
 211 00b4 00E0     		b	.L16
 212              	.L24:
 101:hts.c         ****         case CYBLE_EVT_HTSC_NOTIFICATION:
 213              		.loc 1 101 0
 214 00b6 C046     		nop
 215              	.L16:
 117:hts.c         ****     }
 118:hts.c         **** }
 216              		.loc 1 118 0
 217 00b8 C046     		nop
 218 00ba BD46     		mov	sp, r7
 219 00bc 05B0     		add	sp, sp, #20
ARM GAS  C:\Users\Intern\AppData\Local\Temp\ccKvQnxT.s 			page 7


 220              		@ sp needed
 221 00be 90BD     		pop	{r4, r7, pc}
 222              	.L26:
 223              		.align	2
 224              	.L25:
 225 00c0 00000000 		.word	.L4
 226 00c4 00000000 		.word	temperatureMeasure
 227 00c8 00000000 		.word	measure
 228 00cc 00000000 		.word	temp_data
 229 00d0 00000000 		.word	initialMeasurementInterval
 230 00d4 00000000 		.word	temperatureTimer
 231 00d8 00000000 		.word	mainTimer
 232              		.cfi_endproc
 233              	.LFE36:
 234              		.size	HtsCallBack, .-HtsCallBack
 235              		.section	.text.MeasureTemperature,"ax",%progbits
 236              		.align	2
 237              		.global	MeasureTemperature
 238              		.code	16
 239              		.thumb_func
 240              		.type	MeasureTemperature, %function
 241              	MeasureTemperature:
 242              	.LFB37:
 119:hts.c         **** 
 120:hts.c         **** 
 121:hts.c         **** /*******************************************************************************
 122:hts.c         **** * Function Name: MeasureTemperature()
 123:hts.c         **** ********************************************************************************
 124:hts.c         **** *
 125:hts.c         **** * Summary:
 126:hts.c         **** *   This function measures the die temperature and sends it to the client.
 127:hts.c         **** *
 128:hts.c         **** *******************************************************************************/
 129:hts.c         **** void MeasureTemperature(void)
 130:hts.c         **** {
 243              		.loc 1 130 0
 244              		.cfi_startproc
 245              		@ args = 0, pretend = 0, frame = 8
 246              		@ frame_needed = 1, uses_anonymous_args = 0
 247 0000 90B5     		push	{r4, r7, lr}
 248              		.cfi_def_cfa_offset 12
 249              		.cfi_offset 4, -12
 250              		.cfi_offset 7, -8
 251              		.cfi_offset 14, -4
 252 0002 83B0     		sub	sp, sp, #12
 253              		.cfi_def_cfa_offset 24
 254 0004 00AF     		add	r7, sp, #0
 255              		.cfi_def_cfa_register 7
 131:hts.c         **** 	int32 ADCCountsCorrected;
 132:hts.c         ****     int32 temperatureValue;
 133:hts.c         ****     static int32 temperatureCelsius;
 134:hts.c         ****     CYBLE_API_RESULT_T apiResult;
 135:hts.c         ****     
 136:hts.c         ****     /* Do not measure temperature when 0 interval is set */
 137:hts.c         ****     if((initialMeasurementInterval != 0u) && (--temperatureTimer == 0u)) 
 256              		.loc 1 137 0
 257 0006 2B4B     		ldr	r3, .L30
ARM GAS  C:\Users\Intern\AppData\Local\Temp\ccKvQnxT.s 			page 8


 258 0008 1B88     		ldrh	r3, [r3]
 259 000a 002B     		cmp	r3, #0
 260 000c 4DD0     		beq	.L29
 261              		.loc 1 137 0 is_stmt 0 discriminator 1
 262 000e 2A4B     		ldr	r3, .L30+4
 263 0010 1B68     		ldr	r3, [r3]
 264 0012 5A1E     		subs	r2, r3, #1
 265 0014 284B     		ldr	r3, .L30+4
 266 0016 1A60     		str	r2, [r3]
 267 0018 274B     		ldr	r3, .L30+4
 268 001a 1B68     		ldr	r3, [r3]
 269 001c 002B     		cmp	r3, #0
 270 001e 44D1     		bne	.L29
 271              	.LBB3:
 138:hts.c         ****     {
 139:hts.c         ****         temperatureTimer = initialMeasurementInterval;
 272              		.loc 1 139 0 is_stmt 1
 273 0020 244B     		ldr	r3, .L30
 274 0022 1B88     		ldrh	r3, [r3]
 275 0024 1A00     		movs	r2, r3
 276 0026 244B     		ldr	r3, .L30+4
 277 0028 1A60     		str	r2, [r3]
 140:hts.c         ****         
 141:hts.c         **** 
 142:hts.c         ****             measure = 0u;
 278              		.loc 1 142 0
 279 002a 244B     		ldr	r3, .L30+8
 280 002c 0022     		movs	r2, #0
 281 002e 1A70     		strb	r2, [r3]
 143:hts.c         **** 
 144:hts.c         ****             ADC_StartConvert();
 282              		.loc 1 144 0
 283 0030 FFF7FEFF 		bl	ADC_StartConvert
 145:hts.c         ****             ADC_IsEndConversion(ADC_WAIT_FOR_RESULT);
 284              		.loc 1 145 0
 285 0034 0220     		movs	r0, #2
 286 0036 FFF7FEFF 		bl	ADC_IsEndConversion
 146:hts.c         ****             ADC_StopConvert();   
 287              		.loc 1 146 0
 288 003a FFF7FEFF 		bl	ADC_StopConvert
 147:hts.c         **** 
 148:hts.c         ****             /* Read conversion result and adjust data from ADC with respect to Vref value. */
 149:hts.c         **** //        	ADCCountsCorrected = ADC_DEFAULT_VREF_MV_VALUE * ADC_GetResult16(ADC_TEMPERATURE_CHANNEL
 150:hts.c         **** //            /* Convert the ADC output to degrees Celsius. */
 151:hts.c         **** //            temperatureCelsius = (int32) ADCCountsCorrected;
 152:hts.c         ****             
 153:hts.c         **** //        	uint16 strain = ADC_GetResult16(0);
 154:hts.c         ****             /* Convert the ADC output to degrees Celsius. */
 155:hts.c         **** //            temperatureCelsius = (int32) ADCCountsCorrected;
 156:hts.c         ****         
 157:hts.c         **** //        temperatureValue = temperatureCelsius;
 158:hts.c         **** //        float temp = 33.4;
 159:hts.c         **** //        counter = counter + 1;
 160:hts.c         **** //        temp = temp + counter;
 161:hts.c         **** //        float temp_tmp116 = tmp116_get_uint16();
 162:hts.c         ****         uint16 uint_tmp116 = tmp116_get_uint16();
 289              		.loc 1 162 0
ARM GAS  C:\Users\Intern\AppData\Local\Temp\ccKvQnxT.s 			page 9


 290 003e BC1D     		adds	r4, r7, #6
 291 0040 FFF7FEFF 		bl	tmp116_get_uint16
 292 0044 0300     		movs	r3, r0
 293 0046 2380     		strh	r3, [r4]
 163:hts.c         **** 
 164:hts.c         ****         
 165:hts.c         **** //        float temp_tmp116 = 100;
 166:hts.c         ****         /* Convert int32 to the IEEE-11073 FLOAT-Type.
 167:hts.c         ****         *  It is defined as a 32-bit value with a 24-bit mantissa and an 8-bit exponent.
 168:hts.c         ****         *  For the integer temperature, 24-bit value has been used with mantissa equal to 0 */
 169:hts.c         **** //        temperatureValue = temperatureValue & 0x00FFFFFF;
 170:hts.c         ****         //temperatureValue = temp & 0x00FFFFFF;
 171:hts.c         **** 
 172:hts.c         ****         /* Copy temperature to array */
 173:hts.c         **** //        Set32ByPtr(temp_data + 1u, (uint32)temperatureValue);
 174:hts.c         **** //        Set32ByPtr(temp_data + 1u, (uint32)temp_tmp116);
 175:hts.c         ****         temp_data[0] = (uint8) 0;
 294              		.loc 1 175 0
 295 0048 1D4B     		ldr	r3, .L30+12
 296 004a 0022     		movs	r2, #0
 297 004c 1A70     		strb	r2, [r3]
 176:hts.c         ****         temp_data[1] = (uint8) uint_tmp116 & 0xff;
 298              		.loc 1 176 0
 299 004e BB1D     		adds	r3, r7, #6
 300 0050 1B88     		ldrh	r3, [r3]
 301 0052 DAB2     		uxtb	r2, r3
 302 0054 1A4B     		ldr	r3, .L30+12
 303 0056 5A70     		strb	r2, [r3, #1]
 177:hts.c         ****         temp_data[2] = (uint8) (uint_tmp116 >> 8u) & 0xff;
 304              		.loc 1 177 0
 305 0058 BB1D     		adds	r3, r7, #6
 306 005a 1B88     		ldrh	r3, [r3]
 307 005c 1B0A     		lsrs	r3, r3, #8
 308 005e 9BB2     		uxth	r3, r3
 309 0060 DAB2     		uxtb	r2, r3
 310 0062 174B     		ldr	r3, .L30+12
 311 0064 9A70     		strb	r2, [r3, #2]
 178:hts.c         **** //        temp_data[1] = (uint8) strain & 0xff;
 179:hts.c         **** //        temp_data[2] = (uint8) (strain >> 8u) & 0xff;
 180:hts.c         ****         temp_data[3] = (uint8) 0;
 312              		.loc 1 180 0
 313 0066 164B     		ldr	r3, .L30+12
 314 0068 0022     		movs	r2, #0
 315 006a DA70     		strb	r2, [r3, #3]
 181:hts.c         ****         temp_data[4] = (uint8) 0;
 316              		.loc 1 181 0
 317 006c 144B     		ldr	r3, .L30+12
 318 006e 0022     		movs	r2, #0
 319 0070 1A71     		strb	r2, [r3, #4]
 182:hts.c         ****         /* Send temperature to client */
 183:hts.c         ****         apiResult = CyBle_HtssSendIndication(cyBle_connHandle, CYBLE_HTS_TEMP_MEASURE, sizeof(temp_
 320              		.loc 1 183 0
 321 0072 3C1D     		adds	r4, r7, #4
 322 0074 1249     		ldr	r1, .L30+12
 323 0076 134B     		ldr	r3, .L30+16
 324 0078 1A78     		ldrb	r2, [r3]
 325 007a 5B78     		ldrb	r3, [r3, #1]
ARM GAS  C:\Users\Intern\AppData\Local\Temp\ccKvQnxT.s 			page 10


 326 007c 1B02     		lsls	r3, r3, #8
 327 007e 1343     		orrs	r3, r2
 328 0080 0020     		movs	r0, #0
 329 0082 1B04     		lsls	r3, r3, #16
 330 0084 1B0C     		lsrs	r3, r3, #16
 331 0086 020C     		lsrs	r2, r0, #16
 332 0088 1204     		lsls	r2, r2, #16
 333 008a 1343     		orrs	r3, r2
 334 008c 1800     		movs	r0, r3
 335 008e 0B00     		movs	r3, r1
 336 0090 0522     		movs	r2, #5
 337 0092 0021     		movs	r1, #0
 338 0094 FFF7FEFF 		bl	CyBle_HtssSendIndication
 339 0098 0300     		movs	r3, r0
 340 009a 2380     		strh	r3, [r4]
 184:hts.c         ****         if(apiResult != CYBLE_ERROR_OK)
 341              		.loc 1 184 0
 342 009c 3B1D     		adds	r3, r7, #4
 343 009e 1B88     		ldrh	r3, [r3]
 344 00a0 002B     		cmp	r3, #0
 345 00a2 02D0     		beq	.L29
 185:hts.c         ****         {
 186:hts.c         **** //            DBG_PRINTF("CyBle_HtssSendIndication API Error: %x \r\n", apiResult);
 187:hts.c         ****             temperatureMeasure = DISABLED;
 346              		.loc 1 187 0
 347 00a4 084B     		ldr	r3, .L30+20
 348 00a6 0022     		movs	r2, #0
 349 00a8 1A80     		strh	r2, [r3]
 350              	.L29:
 351              	.LBE3:
 188:hts.c         ****         }
 189:hts.c         ****         else
 190:hts.c         ****         {
 191:hts.c         **** //            DBG_PRINTF("MeasureTemperature: %d %c  ", (int16)temperatureValue,
 192:hts.c         **** //            (((temp_data[0] & CYBLE_HTS_MEAS_FLAG_TEMP_UNITS_BIT) != 0u) ? 'F' : 'C'));
 193:hts.c         ****         }
 194:hts.c         ****         
 195:hts.c         ****         /* Toggle the temperature unit flag on each temperature update */
 196:hts.c         ****         //temp_data[0] ^= CYBLE_HTS_MEAS_FLAG_TEMP_UNITS_BIT;
 197:hts.c         ****     }
 198:hts.c         **** }
 352              		.loc 1 198 0
 353 00aa C046     		nop
 354 00ac BD46     		mov	sp, r7
 355 00ae 03B0     		add	sp, sp, #12
 356              		@ sp needed
 357 00b0 90BD     		pop	{r4, r7, pc}
 358              	.L31:
 359 00b2 C046     		.align	2
 360              	.L30:
 361 00b4 00000000 		.word	initialMeasurementInterval
 362 00b8 00000000 		.word	temperatureTimer
 363 00bc 00000000 		.word	measure
 364 00c0 00000000 		.word	temp_data
 365 00c4 00000000 		.word	cyBle_connHandle
 366 00c8 00000000 		.word	temperatureMeasure
 367              		.cfi_endproc
ARM GAS  C:\Users\Intern\AppData\Local\Temp\ccKvQnxT.s 			page 11


 368              	.LFE37:
 369              		.size	MeasureTemperature, .-MeasureTemperature
 370              		.bss
 371 0009 000000   		.align	2
 372              	temperatureCelsius.8624:
 373 000c 00000000 		.space	4
 374              		.text
 375              	.Letext0:
 376              		.file 2 "Generated_Source\\PSoC4/cytypes.h"
 377              		.file 3 "Generated_Source\\PSoC4/BLE_Stack.h"
 378              		.file 4 "Generated_Source\\PSoC4/BLE_StackGatt.h"
 379              		.file 5 "Generated_Source\\PSoC4/BLE_dis.h"
 380              		.file 6 "Generated_Source\\PSoC4/BLE_hts.h"
 381              		.file 7 "Generated_Source\\PSoC4/BLE_eventHandler.h"
 382              		.file 8 "common.h"