ARM GAS  C:\Users\Intern\AppData\Local\Temp\ccfN8aOk.s 			page 1


   1              		.syntax unified
   2              		.cpu cortex-m0
   3              		.fpu softvfp
   4              		.eabi_attribute 20, 1
   5              		.eabi_attribute 21, 1
   6              		.eabi_attribute 23, 3
   7              		.eabi_attribute 24, 1
   8              		.eabi_attribute 25, 1
   9              		.eabi_attribute 26, 1
  10              		.eabi_attribute 30, 6
  11              		.eabi_attribute 34, 0
  12              		.eabi_attribute 18, 4
  13              		.thumb
  14              		.syntax unified
  15              		.file	"tmp116.c"
  16              		.text
  17              	.Ltext0:
  18              		.cfi_sections	.debug_frame
  19              		.global	__aeabi_ui2f
  20              		.global	__aeabi_fmul
  21              		.global	__aeabi_fdiv
  22              		.section	.text.tmp116_get_celsius,"ax",%progbits
  23              		.align	2
  24              		.global	tmp116_get_celsius
  25              		.code	16
  26              		.thumb_func
  27              		.type	tmp116_get_celsius, %function
  28              	tmp116_get_celsius:
  29              	.LFB36:
  30              		.file 1 "tmp116.c"
   1:tmp116.c      **** #include "tmp116.h"
   2:tmp116.c      **** //#include "system.h"
   3:tmp116.c      **** #include "common.h"
   4:tmp116.c      **** 
   5:tmp116.c      **** float tmp116_get_celsius(void)
   6:tmp116.c      **** {
  31              		.loc 1 6 0
  32              		.cfi_startproc
  33              		@ args = 0, pretend = 0, frame = 40
  34              		@ frame_needed = 1, uses_anonymous_args = 0
  35 0000 80B5     		push	{r7, lr}
  36              		.cfi_def_cfa_offset 8
  37              		.cfi_offset 7, -8
  38              		.cfi_offset 14, -4
  39 0002 8AB0     		sub	sp, sp, #40
  40              		.cfi_def_cfa_offset 48
  41 0004 00AF     		add	r7, sp, #0
  42              		.cfi_def_cfa_register 7
   7:tmp116.c      ****     float reg_cels_conv = 7812.5; //1 Register unit = 0.0078125 Celcius
  43              		.loc 1 7 0
  44 0006 214B     		ldr	r3, .L5
  45 0008 7B62     		str	r3, [r7, #36]
   8:tmp116.c      ****     uint32 tmp116_gnd_add = 0x48; //Slave Address for TMP116, ADD0 = GND
  46              		.loc 1 8 0
  47 000a 4823     		movs	r3, #72
  48 000c 3B62     		str	r3, [r7, #32]
   9:tmp116.c      ****     uint8 i2c_reg_counts[2];
ARM GAS  C:\Users\Intern\AppData\Local\Temp\ccfN8aOk.s 			page 2


  10:tmp116.c      ****     uint32 i2c_byte_count = 2; //Number of bytes of buffer to read
  49              		.loc 1 10 0
  50 000e 0223     		movs	r3, #2
  51 0010 FB61     		str	r3, [r7, #28]
  11:tmp116.c      ****     uint32 i2c_mode = I2C_TMP116_I2C_MODE_COMPLETE_XFER; //Transfer Mode Possibilities
  52              		.loc 1 11 0
  53 0012 0023     		movs	r3, #0
  54 0014 BB61     		str	r3, [r7, #24]
  55              	.L2:
  12:tmp116.c      ****     uint32 i2c_error;
  13:tmp116.c      **** 
  14:tmp116.c      ****     do
  15:tmp116.c      ****     {
  16:tmp116.c      ****         i2c_error = I2C_TMP116_I2CMasterReadBuf(tmp116_gnd_add, i2c_reg_counts, i2c_byte_count, i2c
  56              		.loc 1 16 0 discriminator 1
  57 0016 BB69     		ldr	r3, [r7, #24]
  58 0018 FA69     		ldr	r2, [r7, #28]
  59 001a 391D     		adds	r1, r7, #4
  60 001c 386A     		ldr	r0, [r7, #32]
  61 001e FFF7FEFF 		bl	I2C_TMP116_I2CMasterReadBuf
  62 0022 0300     		movs	r3, r0
  63 0024 7B61     		str	r3, [r7, #20]
  17:tmp116.c      ****     }
  18:tmp116.c      ****     while(i2c_error != I2C_TMP116_I2C_MSTR_NO_ERROR);
  64              		.loc 1 18 0 discriminator 1
  65 0026 7B69     		ldr	r3, [r7, #20]
  66 0028 002B     		cmp	r3, #0
  67 002a F4D1     		bne	.L2
  19:tmp116.c      **** //    
  20:tmp116.c      ****     /* Wait for the data transfer to complete */
  21:tmp116.c      ****     while(I2C_TMP116_I2CMasterStatus() & I2C_TMP116_I2C_MSTAT_XFER_INP);    
  68              		.loc 1 21 0
  69 002c C046     		nop
  70              	.L3:
  71              		.loc 1 21 0 is_stmt 0 discriminator 1
  72 002e FFF7FEFF 		bl	I2C_TMP116_I2CMasterStatus
  73 0032 0200     		movs	r2, r0
  74 0034 0423     		movs	r3, #4
  75 0036 1340     		ands	r3, r2
  76 0038 F9D1     		bne	.L3
  22:tmp116.c      ****         
  23:tmp116.c      ****        
  24:tmp116.c      ****     /* Clear Read Complete Status bit */
  25:tmp116.c      ****     I2C_TMP116_I2CMasterClearStatus();
  77              		.loc 1 25 0 is_stmt 1
  78 003a FFF7FEFF 		bl	I2C_TMP116_I2CMasterClearStatus
  26:tmp116.c      ****     I2C_TMP116_I2CMasterClearReadBuf();
  79              		.loc 1 26 0
  80 003e FFF7FEFF 		bl	I2C_TMP116_I2CMasterClearReadBuf
  27:tmp116.c      ****     
  28:tmp116.c      **** //    UART_UartPutChar(i2c_reg_counts[1]);
  29:tmp116.c      **** //    UART_UartPutChar(i2c_reg_counts[0]);
  30:tmp116.c      ****     
  31:tmp116.c      ****     uint16 i2c_counts =  (i2c_reg_counts[0] << 8) | i2c_reg_counts[1];
  81              		.loc 1 31 0
  82 0042 3B1D     		adds	r3, r7, #4
  83 0044 1B78     		ldrb	r3, [r3]
ARM GAS  C:\Users\Intern\AppData\Local\Temp\ccfN8aOk.s 			page 3


  84 0046 1B02     		lsls	r3, r3, #8
  85 0048 1AB2     		sxth	r2, r3
  86 004a 3B1D     		adds	r3, r7, #4
  87 004c 5B78     		ldrb	r3, [r3, #1]
  88 004e 1BB2     		sxth	r3, r3
  89 0050 1343     		orrs	r3, r2
  90 0052 1AB2     		sxth	r2, r3
  91 0054 1223     		movs	r3, #18
  92 0056 FB18     		adds	r3, r7, r3
  93 0058 1A80     		strh	r2, [r3]
  32:tmp116.c      ****     float celsius_counts = (float) i2c_counts;
  94              		.loc 1 32 0
  95 005a 1223     		movs	r3, #18
  96 005c FB18     		adds	r3, r7, r3
  97 005e 1B88     		ldrh	r3, [r3]
  98 0060 1800     		movs	r0, r3
  99 0062 FFF7FEFF 		bl	__aeabi_ui2f
 100 0066 031C     		adds	r3, r0, #0
 101 0068 FB60     		str	r3, [r7, #12]
  33:tmp116.c      ****     float tmp116_celsius = reg_cels_conv*celsius_counts/1000000;
 102              		.loc 1 33 0
 103 006a F968     		ldr	r1, [r7, #12]
 104 006c 786A     		ldr	r0, [r7, #36]
 105 006e FFF7FEFF 		bl	__aeabi_fmul
 106 0072 031C     		adds	r3, r0, #0
 107 0074 0649     		ldr	r1, .L5+4
 108 0076 181C     		adds	r0, r3, #0
 109 0078 FFF7FEFF 		bl	__aeabi_fdiv
 110 007c 031C     		adds	r3, r0, #0
 111 007e BB60     		str	r3, [r7, #8]
  34:tmp116.c      ****     return tmp116_celsius;
 112              		.loc 1 34 0
 113 0080 BB68     		ldr	r3, [r7, #8]
  35:tmp116.c      **** }
 114              		.loc 1 35 0
 115 0082 181C     		adds	r0, r3, #0
 116 0084 BD46     		mov	sp, r7
 117 0086 0AB0     		add	sp, sp, #40
 118              		@ sp needed
 119 0088 80BD     		pop	{r7, pc}
 120              	.L6:
 121 008a C046     		.align	2
 122              	.L5:
 123 008c 0024F445 		.word	1173627904
 124 0090 00247449 		.word	1232348160
 125              		.cfi_endproc
 126              	.LFE36:
 127              		.size	tmp116_get_celsius, .-tmp116_get_celsius
 128              		.section	.text.tmp116_get_uint16,"ax",%progbits
 129              		.align	2
 130              		.global	tmp116_get_uint16
 131              		.code	16
 132              		.thumb_func
 133              		.type	tmp116_get_uint16, %function
 134              	tmp116_get_uint16:
 135              	.LFB37:
  36:tmp116.c      **** uint16 tmp116_get_uint16(void)
ARM GAS  C:\Users\Intern\AppData\Local\Temp\ccfN8aOk.s 			page 4


  37:tmp116.c      **** {
 136              		.loc 1 37 0
 137              		.cfi_startproc
 138              		@ args = 0, pretend = 0, frame = 40
 139              		@ frame_needed = 1, uses_anonymous_args = 0
 140 0000 80B5     		push	{r7, lr}
 141              		.cfi_def_cfa_offset 8
 142              		.cfi_offset 7, -8
 143              		.cfi_offset 14, -4
 144 0002 8AB0     		sub	sp, sp, #40
 145              		.cfi_def_cfa_offset 48
 146 0004 00AF     		add	r7, sp, #0
 147              		.cfi_def_cfa_register 7
  38:tmp116.c      ****     float reg_cels_conv = 7812.5; //1 Register unit = 0.0078125 Celcius
 148              		.loc 1 38 0
 149 0006 224B     		ldr	r3, .L11
 150 0008 7B62     		str	r3, [r7, #36]
  39:tmp116.c      ****     uint32 tmp116_gnd_add = 0x48; //Slave Address for TMP116, ADD0 = GND
 151              		.loc 1 39 0
 152 000a 4823     		movs	r3, #72
 153 000c 3B62     		str	r3, [r7, #32]
  40:tmp116.c      ****     uint8 i2c_reg_counts[2];
  41:tmp116.c      ****     uint32 i2c_byte_count = 2; //Number of bytes of buffer to read
 154              		.loc 1 41 0
 155 000e 0223     		movs	r3, #2
 156 0010 FB61     		str	r3, [r7, #28]
  42:tmp116.c      ****     uint32 i2c_mode = I2C_TMP116_I2C_MODE_COMPLETE_XFER; //Transfer Mode Possibilities
 157              		.loc 1 42 0
 158 0012 0023     		movs	r3, #0
 159 0014 BB61     		str	r3, [r7, #24]
 160              	.L8:
  43:tmp116.c      ****     uint32 i2c_error;
  44:tmp116.c      ****     
  45:tmp116.c      ****     do
  46:tmp116.c      ****     {
  47:tmp116.c      ****         i2c_error = I2C_TMP116_I2CMasterReadBuf(tmp116_gnd_add, i2c_reg_counts, i2c_byte_count, i2c
 161              		.loc 1 47 0 discriminator 1
 162 0016 BB69     		ldr	r3, [r7, #24]
 163 0018 FA69     		ldr	r2, [r7, #28]
 164 001a 391D     		adds	r1, r7, #4
 165 001c 386A     		ldr	r0, [r7, #32]
 166 001e FFF7FEFF 		bl	I2C_TMP116_I2CMasterReadBuf
 167 0022 0300     		movs	r3, r0
 168 0024 7B61     		str	r3, [r7, #20]
  48:tmp116.c      ****     }
  49:tmp116.c      ****     while(i2c_error != I2C_TMP116_I2C_MSTR_NO_ERROR);
 169              		.loc 1 49 0 discriminator 1
 170 0026 7B69     		ldr	r3, [r7, #20]
 171 0028 002B     		cmp	r3, #0
 172 002a F4D1     		bne	.L8
  50:tmp116.c      **** //    
  51:tmp116.c      ****     /* Wait for the data transfer to complete */
  52:tmp116.c      ****     while(I2C_TMP116_I2CMasterStatus() & I2C_TMP116_I2C_MSTAT_XFER_INP);    
 173              		.loc 1 52 0
 174 002c C046     		nop
 175              	.L9:
 176              		.loc 1 52 0 is_stmt 0 discriminator 1
ARM GAS  C:\Users\Intern\AppData\Local\Temp\ccfN8aOk.s 			page 5


 177 002e FFF7FEFF 		bl	I2C_TMP116_I2CMasterStatus
 178 0032 0200     		movs	r2, r0
 179 0034 0423     		movs	r3, #4
 180 0036 1340     		ands	r3, r2
 181 0038 F9D1     		bne	.L9
  53:tmp116.c      ****         
  54:tmp116.c      ****        
  55:tmp116.c      ****     /* Clear Read Complete Status bit */
  56:tmp116.c      ****     I2C_TMP116_I2CMasterClearStatus();
 182              		.loc 1 56 0 is_stmt 1
 183 003a FFF7FEFF 		bl	I2C_TMP116_I2CMasterClearStatus
  57:tmp116.c      ****     I2C_TMP116_I2CMasterClearReadBuf();
 184              		.loc 1 57 0
 185 003e FFF7FEFF 		bl	I2C_TMP116_I2CMasterClearReadBuf
  58:tmp116.c      ****     
  59:tmp116.c      **** //    UART_UartPutChar(i2c_reg_counts[1]);
  60:tmp116.c      **** //    UART_UartPutChar(i2c_reg_counts[0]);
  61:tmp116.c      ****     
  62:tmp116.c      ****     uint16 i2c_counts =  (i2c_reg_counts[0] << 8) | i2c_reg_counts[1];
 186              		.loc 1 62 0
 187 0042 3B1D     		adds	r3, r7, #4
 188 0044 1B78     		ldrb	r3, [r3]
 189 0046 1B02     		lsls	r3, r3, #8
 190 0048 1AB2     		sxth	r2, r3
 191 004a 3B1D     		adds	r3, r7, #4
 192 004c 5B78     		ldrb	r3, [r3, #1]
 193 004e 1BB2     		sxth	r3, r3
 194 0050 1343     		orrs	r3, r2
 195 0052 1AB2     		sxth	r2, r3
 196 0054 1223     		movs	r3, #18
 197 0056 FB18     		adds	r3, r7, r3
 198 0058 1A80     		strh	r2, [r3]
  63:tmp116.c      ****     float celsius_counts = (float) i2c_counts;
 199              		.loc 1 63 0
 200 005a 1223     		movs	r3, #18
 201 005c FB18     		adds	r3, r7, r3
 202 005e 1B88     		ldrh	r3, [r3]
 203 0060 1800     		movs	r0, r3
 204 0062 FFF7FEFF 		bl	__aeabi_ui2f
 205 0066 031C     		adds	r3, r0, #0
 206 0068 FB60     		str	r3, [r7, #12]
  64:tmp116.c      ****     float tmp116_celsius = reg_cels_conv*celsius_counts/1000000;
 207              		.loc 1 64 0
 208 006a F968     		ldr	r1, [r7, #12]
 209 006c 786A     		ldr	r0, [r7, #36]
 210 006e FFF7FEFF 		bl	__aeabi_fmul
 211 0072 031C     		adds	r3, r0, #0
 212 0074 0749     		ldr	r1, .L11+4
 213 0076 181C     		adds	r0, r3, #0
 214 0078 FFF7FEFF 		bl	__aeabi_fdiv
 215 007c 031C     		adds	r3, r0, #0
 216 007e BB60     		str	r3, [r7, #8]
  65:tmp116.c      ****     return i2c_counts;
 217              		.loc 1 65 0
 218 0080 1223     		movs	r3, #18
 219 0082 FB18     		adds	r3, r7, r3
 220 0084 1B88     		ldrh	r3, [r3]
ARM GAS  C:\Users\Intern\AppData\Local\Temp\ccfN8aOk.s 			page 6


  66:tmp116.c      **** }
 221              		.loc 1 66 0
 222 0086 1800     		movs	r0, r3
 223 0088 BD46     		mov	sp, r7
 224 008a 0AB0     		add	sp, sp, #40
 225              		@ sp needed
 226 008c 80BD     		pop	{r7, pc}
 227              	.L12:
 228 008e C046     		.align	2
 229              	.L11:
 230 0090 0024F445 		.word	1173627904
 231 0094 00247449 		.word	1232348160
 232              		.cfi_endproc
 233              	.LFE37:
 234              		.size	tmp116_get_uint16, .-tmp116_get_uint16
 235              		.global	__aeabi_f2d
 236              		.section	.rodata
 237              		.align	2
 238              	.LC0:
 239 0000 252E3366 		.ascii	"%.3f\000"
 239      00
 240              		.section	.text.tmp116_string_celsius,"ax",%progbits
 241              		.align	2
 242              		.global	tmp116_string_celsius
 243              		.code	16
 244              		.thumb_func
 245              		.type	tmp116_string_celsius, %function
 246              	tmp116_string_celsius:
 247              	.LFB38:
  67:tmp116.c      **** 
  68:tmp116.c      **** unsigned int tmp116_string_celsius(char *tmp116_temperature)
  69:tmp116.c      **** {
 248              		.loc 1 69 0
 249              		.cfi_startproc
 250              		@ args = 0, pretend = 0, frame = 16
 251              		@ frame_needed = 1, uses_anonymous_args = 0
 252 0000 90B5     		push	{r4, r7, lr}
 253              		.cfi_def_cfa_offset 12
 254              		.cfi_offset 4, -12
 255              		.cfi_offset 7, -8
 256              		.cfi_offset 14, -4
 257 0002 85B0     		sub	sp, sp, #20
 258              		.cfi_def_cfa_offset 32
 259 0004 00AF     		add	r7, sp, #0
 260              		.cfi_def_cfa_register 7
 261 0006 7860     		str	r0, [r7, #4]
  70:tmp116.c      ****     float int_temp = tmp116_get_celsius();
 262              		.loc 1 70 0
 263 0008 FFF7FEFF 		bl	tmp116_get_celsius
 264 000c 031C     		adds	r3, r0, #0
 265 000e FB60     		str	r3, [r7, #12]
  71:tmp116.c      ****     sprintf(tmp116_temperature, "%.3f", int_temp);
 266              		.loc 1 71 0
 267 0010 F868     		ldr	r0, [r7, #12]
 268 0012 FFF7FEFF 		bl	__aeabi_f2d
 269 0016 0300     		movs	r3, r0
 270 0018 0C00     		movs	r4, r1
ARM GAS  C:\Users\Intern\AppData\Local\Temp\ccfN8aOk.s 			page 7


 271 001a 0A49     		ldr	r1, .L15
 272 001c 7868     		ldr	r0, [r7, #4]
 273 001e 1A00     		movs	r2, r3
 274 0020 2300     		movs	r3, r4
 275 0022 FFF7FEFF 		bl	sprintf
  72:tmp116.c      ****     
  73:tmp116.c      ****     tmp116_temperature[5] = '\n';
 276              		.loc 1 73 0
 277 0026 7B68     		ldr	r3, [r7, #4]
 278 0028 0533     		adds	r3, r3, #5
 279 002a 0A22     		movs	r2, #10
 280 002c 1A70     		strb	r2, [r3]
  74:tmp116.c      ****     
  75:tmp116.c      ****     unsigned int temp_l = strlen(tmp116_temperature);
 281              		.loc 1 75 0
 282 002e 7B68     		ldr	r3, [r7, #4]
 283 0030 1800     		movs	r0, r3
 284 0032 FFF7FEFF 		bl	strlen
 285 0036 0300     		movs	r3, r0
 286 0038 BB60     		str	r3, [r7, #8]
  76:tmp116.c      ****     return temp_l;
 287              		.loc 1 76 0
 288 003a BB68     		ldr	r3, [r7, #8]
  77:tmp116.c      **** }
 289              		.loc 1 77 0
 290 003c 1800     		movs	r0, r3
 291 003e BD46     		mov	sp, r7
 292 0040 05B0     		add	sp, sp, #20
 293              		@ sp needed
 294 0042 90BD     		pop	{r4, r7, pc}
 295              	.L16:
 296              		.align	2
 297              	.L15:
 298 0044 00000000 		.word	.LC0
 299              		.cfi_endproc
 300              	.LFE38:
 301              		.size	tmp116_string_celsius, .-tmp116_string_celsius
 302              		.section	.text.tmp116_uart,"ax",%progbits
 303              		.align	2
 304              		.global	tmp116_uart
 305              		.code	16
 306              		.thumb_func
 307              		.type	tmp116_uart, %function
 308              	tmp116_uart:
 309              	.LFB39:
  78:tmp116.c      **** 
  79:tmp116.c      **** void tmp116_uart(void)
  80:tmp116.c      **** {
 310              		.loc 1 80 0
 311              		.cfi_startproc
 312              		@ args = 0, pretend = 0, frame = 16
 313              		@ frame_needed = 1, uses_anonymous_args = 0
 314 0000 80B5     		push	{r7, lr}
 315              		.cfi_def_cfa_offset 8
 316              		.cfi_offset 7, -8
 317              		.cfi_offset 14, -4
 318 0002 84B0     		sub	sp, sp, #16
ARM GAS  C:\Users\Intern\AppData\Local\Temp\ccfN8aOk.s 			page 8


 319              		.cfi_def_cfa_offset 24
 320 0004 00AF     		add	r7, sp, #0
 321              		.cfi_def_cfa_register 7
  81:tmp116.c      ****     char tmp116_temperature[6];
  82:tmp116.c      ****     unsigned int temp_tmp116_l = tmp116_string_celsius(tmp116_temperature);
 322              		.loc 1 82 0
 323 0006 3B00     		movs	r3, r7
 324 0008 1800     		movs	r0, r3
 325 000a FFF7FEFF 		bl	tmp116_string_celsius
 326 000e 0300     		movs	r3, r0
 327 0010 BB60     		str	r3, [r7, #8]
 328              	.LBB2:
  83:tmp116.c      ****     for(unsigned int i = 0; i<temp_tmp116_l; i++)
 329              		.loc 1 83 0
 330 0012 0023     		movs	r3, #0
 331 0014 FB60     		str	r3, [r7, #12]
 332 0016 09E0     		b	.L18
 333              	.L19:
  84:tmp116.c      ****     {
  85:tmp116.c      ****         UART_UartPutChar(tmp116_temperature[i]);           
 334              		.loc 1 85 0 discriminator 3
 335 0018 3A00     		movs	r2, r7
 336 001a FB68     		ldr	r3, [r7, #12]
 337 001c D318     		adds	r3, r2, r3
 338 001e 1B78     		ldrb	r3, [r3]
 339 0020 1800     		movs	r0, r3
 340 0022 FFF7FEFF 		bl	UART_SpiUartWriteTxData
  83:tmp116.c      ****     for(unsigned int i = 0; i<temp_tmp116_l; i++)
 341              		.loc 1 83 0 discriminator 3
 342 0026 FB68     		ldr	r3, [r7, #12]
 343 0028 0133     		adds	r3, r3, #1
 344 002a FB60     		str	r3, [r7, #12]
 345              	.L18:
  83:tmp116.c      ****     for(unsigned int i = 0; i<temp_tmp116_l; i++)
 346              		.loc 1 83 0 is_stmt 0 discriminator 1
 347 002c FA68     		ldr	r2, [r7, #12]
 348 002e BB68     		ldr	r3, [r7, #8]
 349 0030 9A42     		cmp	r2, r3
 350 0032 F1D3     		bcc	.L19
 351              	.LBE2:
  86:tmp116.c      ****     }
  87:tmp116.c      **** }...
 352              		.loc 1 87 0 is_stmt 1
 353 0034 C046     		nop
 354 0036 BD46     		mov	sp, r7
 355 0038 04B0     		add	sp, sp, #16
 356              		@ sp needed
 357 003a 80BD     		pop	{r7, pc}
 358              		.cfi_endproc
 359              	.LFE39:
 360              		.size	tmp116_uart, .-tmp116_uart
 361              		.text
 362              	.Letext0:
 363              		.file 2 "Generated_Source\\PSoC4/cytypes.h"