ARM GAS  C:\Users\Intern\AppData\Local\Temp\ccHxiR04.s 			page 1


   1              		.syntax unified
   2              		.cpu cortex-m0
   3              		.fpu softvfp
   4              		.eabi_attribute 20, 1
   5              		.eabi_attribute 21, 1
   6              		.eabi_attribute 23, 3
   7              		.eabi_attribute 24, 1
   8              		.eabi_attribute 25, 1
   9              		.eabi_attribute 26, 1
  10              		.eabi_attribute 30, 1
  11              		.eabi_attribute 34, 0
  12              		.eabi_attribute 18, 4
  13              		.thumb
  14              		.syntax unified
  15              		.file	"cyfitter_cfg.c"
  16              		.text
  17              	.Ltext0:
  18              		.cfi_sections	.debug_frame
  19              		.section	.text.cfg_write_bytes32,"ax",%progbits
  20              		.align	2
  21              		.code	16
  22              		.thumb_func
  23              		.type	cfg_write_bytes32, %function
  24              	cfg_write_bytes32:
  25              	.LFB5:
  26              		.file 1 "Generated_Source\\PSoC4\\cyfitter_cfg.c"
   1:Generated_Source\PSoC4/cyfitter_cfg.c **** 
   2:Generated_Source\PSoC4/cyfitter_cfg.c **** /*******************************************************************************
   3:Generated_Source\PSoC4/cyfitter_cfg.c **** * File Name: cyfitter_cfg.c
   4:Generated_Source\PSoC4/cyfitter_cfg.c **** * 
   5:Generated_Source\PSoC4/cyfitter_cfg.c **** * PSoC Creator  4.1 Update 1
   6:Generated_Source\PSoC4/cyfitter_cfg.c **** *
   7:Generated_Source\PSoC4/cyfitter_cfg.c **** * Description:
   8:Generated_Source\PSoC4/cyfitter_cfg.c **** * This file contains device initialization code.
   9:Generated_Source\PSoC4/cyfitter_cfg.c **** * Except for the user defined sections in CyClockStartupError(), this file should not be modified.
  10:Generated_Source\PSoC4/cyfitter_cfg.c **** * This file is automatically generated by PSoC Creator.
  11:Generated_Source\PSoC4/cyfitter_cfg.c **** *
  12:Generated_Source\PSoC4/cyfitter_cfg.c **** ********************************************************************************
  13:Generated_Source\PSoC4/cyfitter_cfg.c **** * Copyright (c) 2007-2017 Cypress Semiconductor.  All rights reserved.
  14:Generated_Source\PSoC4/cyfitter_cfg.c **** * You may use this file only in accordance with the license, terms, conditions, 
  15:Generated_Source\PSoC4/cyfitter_cfg.c **** * disclaimers, and limitations in the end user license agreement accompanying 
  16:Generated_Source\PSoC4/cyfitter_cfg.c **** * the software package with which this file was provided.
  17:Generated_Source\PSoC4/cyfitter_cfg.c **** ********************************************************************************/
  18:Generated_Source\PSoC4/cyfitter_cfg.c **** 
  19:Generated_Source\PSoC4/cyfitter_cfg.c **** #include <string.h>
  20:Generated_Source\PSoC4/cyfitter_cfg.c **** #include "cytypes.h"
  21:Generated_Source\PSoC4/cyfitter_cfg.c **** #include "cydevice_trm.h"
  22:Generated_Source\PSoC4/cyfitter_cfg.c **** #include "cyfitter.h"
  23:Generated_Source\PSoC4/cyfitter_cfg.c **** #include "CyLib.h"
  24:Generated_Source\PSoC4/cyfitter_cfg.c **** #include "CyLFClk.h"
  25:Generated_Source\PSoC4/cyfitter_cfg.c **** #include "cyfitter_cfg.h"
  26:Generated_Source\PSoC4/cyfitter_cfg.c **** #include "cyapicallbacks.h"
  27:Generated_Source\PSoC4/cyfitter_cfg.c **** 
  28:Generated_Source\PSoC4/cyfitter_cfg.c **** 
  29:Generated_Source\PSoC4/cyfitter_cfg.c **** #if defined(__GNUC__) || defined(__ARMCC_VERSION)
  30:Generated_Source\PSoC4/cyfitter_cfg.c ****     #define CYPACKED 
  31:Generated_Source\PSoC4/cyfitter_cfg.c ****     #define CYPACKED_ATTR __attribute__ ((packed))
ARM GAS  C:\Users\Intern\AppData\Local\Temp\ccHxiR04.s 			page 2


  32:Generated_Source\PSoC4/cyfitter_cfg.c ****     #define CYALIGNED __attribute__ ((aligned))
  33:Generated_Source\PSoC4/cyfitter_cfg.c ****     #define CY_CFG_UNUSED __attribute__ ((unused))
  34:Generated_Source\PSoC4/cyfitter_cfg.c ****     #ifndef CY_CFG_SECTION
  35:Generated_Source\PSoC4/cyfitter_cfg.c ****         #define CY_CFG_SECTION __attribute__ ((section(".psocinit")))
  36:Generated_Source\PSoC4/cyfitter_cfg.c ****     #endif
  37:Generated_Source\PSoC4/cyfitter_cfg.c ****     
  38:Generated_Source\PSoC4/cyfitter_cfg.c ****     #if defined(__ARMCC_VERSION)
  39:Generated_Source\PSoC4/cyfitter_cfg.c ****         #define CY_CFG_MEMORY_BARRIER() __memory_changed()
  40:Generated_Source\PSoC4/cyfitter_cfg.c ****     #else
  41:Generated_Source\PSoC4/cyfitter_cfg.c ****         #define CY_CFG_MEMORY_BARRIER() __sync_synchronize()
  42:Generated_Source\PSoC4/cyfitter_cfg.c ****     #endif
  43:Generated_Source\PSoC4/cyfitter_cfg.c ****     
  44:Generated_Source\PSoC4/cyfitter_cfg.c **** #elif defined(__ICCARM__)
  45:Generated_Source\PSoC4/cyfitter_cfg.c ****     #include <intrinsics.h>
  46:Generated_Source\PSoC4/cyfitter_cfg.c **** 
  47:Generated_Source\PSoC4/cyfitter_cfg.c ****     #define CYPACKED __packed
  48:Generated_Source\PSoC4/cyfitter_cfg.c ****     #define CYPACKED_ATTR 
  49:Generated_Source\PSoC4/cyfitter_cfg.c ****     #define CYALIGNED _Pragma("data_alignment=4")
  50:Generated_Source\PSoC4/cyfitter_cfg.c ****     #define CY_CFG_UNUSED _Pragma("diag_suppress=Pe177")
  51:Generated_Source\PSoC4/cyfitter_cfg.c ****     #define CY_CFG_SECTION _Pragma("location=\".psocinit\"")
  52:Generated_Source\PSoC4/cyfitter_cfg.c ****     
  53:Generated_Source\PSoC4/cyfitter_cfg.c ****     #define CY_CFG_MEMORY_BARRIER() __DMB()
  54:Generated_Source\PSoC4/cyfitter_cfg.c ****     
  55:Generated_Source\PSoC4/cyfitter_cfg.c **** #else
  56:Generated_Source\PSoC4/cyfitter_cfg.c ****     #error Unsupported toolchain
  57:Generated_Source\PSoC4/cyfitter_cfg.c **** #endif
  58:Generated_Source\PSoC4/cyfitter_cfg.c **** 
  59:Generated_Source\PSoC4/cyfitter_cfg.c **** #ifndef CYCODE
  60:Generated_Source\PSoC4/cyfitter_cfg.c ****     #define CYCODE
  61:Generated_Source\PSoC4/cyfitter_cfg.c **** #endif
  62:Generated_Source\PSoC4/cyfitter_cfg.c **** #ifndef CYDATA
  63:Generated_Source\PSoC4/cyfitter_cfg.c ****     #define CYDATA
  64:Generated_Source\PSoC4/cyfitter_cfg.c **** #endif
  65:Generated_Source\PSoC4/cyfitter_cfg.c **** #ifndef CYFAR
  66:Generated_Source\PSoC4/cyfitter_cfg.c ****     #define CYFAR
  67:Generated_Source\PSoC4/cyfitter_cfg.c **** #endif
  68:Generated_Source\PSoC4/cyfitter_cfg.c **** #ifndef CYXDATA
  69:Generated_Source\PSoC4/cyfitter_cfg.c ****     #define CYXDATA
  70:Generated_Source\PSoC4/cyfitter_cfg.c **** #endif
  71:Generated_Source\PSoC4/cyfitter_cfg.c **** 
  72:Generated_Source\PSoC4/cyfitter_cfg.c **** 
  73:Generated_Source\PSoC4/cyfitter_cfg.c **** CY_CFG_UNUSED
  74:Generated_Source\PSoC4/cyfitter_cfg.c **** static void CYMEMZERO(void *s, size_t n);
  75:Generated_Source\PSoC4/cyfitter_cfg.c **** CY_CFG_UNUSED
  76:Generated_Source\PSoC4/cyfitter_cfg.c **** static void CYMEMZERO(void *s, size_t n)
  77:Generated_Source\PSoC4/cyfitter_cfg.c **** {
  78:Generated_Source\PSoC4/cyfitter_cfg.c **** 	(void)memset(s, 0, n);
  79:Generated_Source\PSoC4/cyfitter_cfg.c **** }
  80:Generated_Source\PSoC4/cyfitter_cfg.c **** CY_CFG_UNUSED
  81:Generated_Source\PSoC4/cyfitter_cfg.c **** static void CYCONFIGCPY(void *dest, const void *src, size_t n);
  82:Generated_Source\PSoC4/cyfitter_cfg.c **** CY_CFG_UNUSED
  83:Generated_Source\PSoC4/cyfitter_cfg.c **** static void CYCONFIGCPY(void *dest, const void *src, size_t n)
  84:Generated_Source\PSoC4/cyfitter_cfg.c **** {
  85:Generated_Source\PSoC4/cyfitter_cfg.c **** 	(void)memcpy(dest, src, n);
  86:Generated_Source\PSoC4/cyfitter_cfg.c **** }
  87:Generated_Source\PSoC4/cyfitter_cfg.c **** CY_CFG_UNUSED
  88:Generated_Source\PSoC4/cyfitter_cfg.c **** static void CYCONFIGCPYCODE(void *dest, const void *src, size_t n);
ARM GAS  C:\Users\Intern\AppData\Local\Temp\ccHxiR04.s 			page 3


  89:Generated_Source\PSoC4/cyfitter_cfg.c **** CY_CFG_UNUSED
  90:Generated_Source\PSoC4/cyfitter_cfg.c **** static void CYCONFIGCPYCODE(void *dest, const void *src, size_t n)
  91:Generated_Source\PSoC4/cyfitter_cfg.c **** {
  92:Generated_Source\PSoC4/cyfitter_cfg.c **** 	(void)memcpy(dest, src, n);
  93:Generated_Source\PSoC4/cyfitter_cfg.c **** }
  94:Generated_Source\PSoC4/cyfitter_cfg.c **** 
  95:Generated_Source\PSoC4/cyfitter_cfg.c **** 
  96:Generated_Source\PSoC4/cyfitter_cfg.c **** 
  97:Generated_Source\PSoC4/cyfitter_cfg.c **** 
  98:Generated_Source\PSoC4/cyfitter_cfg.c **** /* Clock startup error codes                                                   */
  99:Generated_Source\PSoC4/cyfitter_cfg.c **** #define CYCLOCKSTART_NO_ERROR    0u
 100:Generated_Source\PSoC4/cyfitter_cfg.c **** #define CYCLOCKSTART_XTAL_ERROR  1u
 101:Generated_Source\PSoC4/cyfitter_cfg.c **** #define CYCLOCKSTART_32KHZ_ERROR 2u
 102:Generated_Source\PSoC4/cyfitter_cfg.c **** #define CYCLOCKSTART_PLL_ERROR   3u
 103:Generated_Source\PSoC4/cyfitter_cfg.c **** #define CYCLOCKSTART_FLL_ERROR   4u
 104:Generated_Source\PSoC4/cyfitter_cfg.c **** 
 105:Generated_Source\PSoC4/cyfitter_cfg.c **** 
 106:Generated_Source\PSoC4/cyfitter_cfg.c **** #ifdef CY_NEED_CYCLOCKSTARTUPERROR
 107:Generated_Source\PSoC4/cyfitter_cfg.c **** /*******************************************************************************
 108:Generated_Source\PSoC4/cyfitter_cfg.c **** * Function Name: CyClockStartupError
 109:Generated_Source\PSoC4/cyfitter_cfg.c **** ********************************************************************************
 110:Generated_Source\PSoC4/cyfitter_cfg.c **** * Summary:
 111:Generated_Source\PSoC4/cyfitter_cfg.c **** *  If an error is encountered during clock configuration (crystal startup error,
 112:Generated_Source\PSoC4/cyfitter_cfg.c **** *  PLL lock error, etc.), the system will end up here.  Unless reimplemented by
 113:Generated_Source\PSoC4/cyfitter_cfg.c **** *  the customer, this function will stop in an infinite loop.
 114:Generated_Source\PSoC4/cyfitter_cfg.c **** *
 115:Generated_Source\PSoC4/cyfitter_cfg.c **** * Parameters:
 116:Generated_Source\PSoC4/cyfitter_cfg.c **** *   void
 117:Generated_Source\PSoC4/cyfitter_cfg.c **** *
 118:Generated_Source\PSoC4/cyfitter_cfg.c **** * Return:
 119:Generated_Source\PSoC4/cyfitter_cfg.c **** *   void
 120:Generated_Source\PSoC4/cyfitter_cfg.c **** *
 121:Generated_Source\PSoC4/cyfitter_cfg.c **** *******************************************************************************/
 122:Generated_Source\PSoC4/cyfitter_cfg.c **** CY_CFG_UNUSED
 123:Generated_Source\PSoC4/cyfitter_cfg.c **** static void CyClockStartupError(uint8 errorCode);
 124:Generated_Source\PSoC4/cyfitter_cfg.c **** CY_CFG_UNUSED
 125:Generated_Source\PSoC4/cyfitter_cfg.c **** static void CyClockStartupError(uint8 errorCode)
 126:Generated_Source\PSoC4/cyfitter_cfg.c **** {
 127:Generated_Source\PSoC4/cyfitter_cfg.c ****     /* To remove the compiler warning if errorCode not used. */
 128:Generated_Source\PSoC4/cyfitter_cfg.c **** #if defined(CY_PSOC3) && (CY_PSOC3)
 129:Generated_Source\PSoC4/cyfitter_cfg.c ****     errorCode = errorCode;
 130:Generated_Source\PSoC4/cyfitter_cfg.c **** #else
 131:Generated_Source\PSoC4/cyfitter_cfg.c ****     (void)errorCode;
 132:Generated_Source\PSoC4/cyfitter_cfg.c **** #endif /* CY_PSOC3 */
 133:Generated_Source\PSoC4/cyfitter_cfg.c **** 
 134:Generated_Source\PSoC4/cyfitter_cfg.c ****     /* If we have a clock startup error (bad MHz crystal, PLL lock, etc.),  */
 135:Generated_Source\PSoC4/cyfitter_cfg.c ****     /* we will end up here to allow the customer to implement something to  */
 136:Generated_Source\PSoC4/cyfitter_cfg.c ****     /* deal with the clock condition.                                       */
 137:Generated_Source\PSoC4/cyfitter_cfg.c **** 
 138:Generated_Source\PSoC4/cyfitter_cfg.c **** #ifdef CY_CFG_CLOCK_STARTUP_ERROR_CALLBACK
 139:Generated_Source\PSoC4/cyfitter_cfg.c ****     CY_CFG_Clock_Startup_ErrorCallback();
 140:Generated_Source\PSoC4/cyfitter_cfg.c **** #else
 141:Generated_Source\PSoC4/cyfitter_cfg.c ****     /*  If not using CY_CFG_CLOCK_STARTUP_ERROR_CALLBACK, place your clock startup code here. */
 142:Generated_Source\PSoC4/cyfitter_cfg.c ****     /* `#START CyClockStartupError` */
 143:Generated_Source\PSoC4/cyfitter_cfg.c **** 
 144:Generated_Source\PSoC4/cyfitter_cfg.c **** 
 145:Generated_Source\PSoC4/cyfitter_cfg.c **** 
ARM GAS  C:\Users\Intern\AppData\Local\Temp\ccHxiR04.s 			page 4


 146:Generated_Source\PSoC4/cyfitter_cfg.c ****     /* `#END` */
 147:Generated_Source\PSoC4/cyfitter_cfg.c **** 
 148:Generated_Source\PSoC4/cyfitter_cfg.c ****     while(1) {}
 149:Generated_Source\PSoC4/cyfitter_cfg.c **** #endif /* CY_CFG_CLOCK_STARTUP_ERROR_CALLBACK */
 150:Generated_Source\PSoC4/cyfitter_cfg.c **** }
 151:Generated_Source\PSoC4/cyfitter_cfg.c **** #endif
 152:Generated_Source\PSoC4/cyfitter_cfg.c **** 
 153:Generated_Source\PSoC4/cyfitter_cfg.c **** #define CY_CFG_BASE_ADDR_COUNT 5u
 154:Generated_Source\PSoC4/cyfitter_cfg.c **** CYPACKED typedef struct
 155:Generated_Source\PSoC4/cyfitter_cfg.c **** {
 156:Generated_Source\PSoC4/cyfitter_cfg.c **** 	uint8 offset;
 157:Generated_Source\PSoC4/cyfitter_cfg.c **** 	uint8 value;
 158:Generated_Source\PSoC4/cyfitter_cfg.c **** } CYPACKED_ATTR cy_cfg_addrvalue_t;
 159:Generated_Source\PSoC4/cyfitter_cfg.c **** 
 160:Generated_Source\PSoC4/cyfitter_cfg.c **** 
 161:Generated_Source\PSoC4/cyfitter_cfg.c **** 
 162:Generated_Source\PSoC4/cyfitter_cfg.c **** /*******************************************************************************
 163:Generated_Source\PSoC4/cyfitter_cfg.c **** * Function Name: cfg_write_bytes32
 164:Generated_Source\PSoC4/cyfitter_cfg.c **** ********************************************************************************
 165:Generated_Source\PSoC4/cyfitter_cfg.c **** * Summary:
 166:Generated_Source\PSoC4/cyfitter_cfg.c **** *  This function is used for setting up the chip configuration areas that
 167:Generated_Source\PSoC4/cyfitter_cfg.c **** *  contain relatively sparse data.
 168:Generated_Source\PSoC4/cyfitter_cfg.c **** *
 169:Generated_Source\PSoC4/cyfitter_cfg.c **** * Parameters:
 170:Generated_Source\PSoC4/cyfitter_cfg.c **** *   void
 171:Generated_Source\PSoC4/cyfitter_cfg.c **** *
 172:Generated_Source\PSoC4/cyfitter_cfg.c **** * Return:
 173:Generated_Source\PSoC4/cyfitter_cfg.c **** *   void
 174:Generated_Source\PSoC4/cyfitter_cfg.c **** *
 175:Generated_Source\PSoC4/cyfitter_cfg.c **** *******************************************************************************/
 176:Generated_Source\PSoC4/cyfitter_cfg.c **** static void cfg_write_bytes32(const uint32 addr_table[], const cy_cfg_addrvalue_t data_table[]);
 177:Generated_Source\PSoC4/cyfitter_cfg.c **** static void cfg_write_bytes32(const uint32 addr_table[], const cy_cfg_addrvalue_t data_table[])
 178:Generated_Source\PSoC4/cyfitter_cfg.c **** {
  27              		.loc 1 178 0
  28              		.cfi_startproc
  29              		@ args = 0, pretend = 0, frame = 0
  30              		@ frame_needed = 0, uses_anonymous_args = 0
  31              	.LVL0:
  32 0000 F0B5     		push	{r4, r5, r6, r7, lr}
  33              		.cfi_def_cfa_offset 20
  34              		.cfi_offset 4, -20
  35              		.cfi_offset 5, -16
  36              		.cfi_offset 6, -12
  37              		.cfi_offset 7, -8
  38              		.cfi_offset 14, -4
  39              	.LVL1:
 179:Generated_Source\PSoC4/cyfitter_cfg.c **** 	/* For 32-bit little-endian architectures */
 180:Generated_Source\PSoC4/cyfitter_cfg.c **** 	uint32 i, j = 0u;
  40              		.loc 1 180 0
  41 0002 0025     		movs	r5, #0
 181:Generated_Source\PSoC4/cyfitter_cfg.c **** 	for (i = 0u; i < CY_CFG_BASE_ADDR_COUNT; i++)
  42              		.loc 1 181 0
  43 0004 0027     		movs	r7, #0
  44 0006 11E0     		b	.L2
  45              	.LVL2:
  46              	.L5:
  47              	.LBB2:
ARM GAS  C:\Users\Intern\AppData\Local\Temp\ccHxiR04.s 			page 5


 182:Generated_Source\PSoC4/cyfitter_cfg.c **** 	{
 183:Generated_Source\PSoC4/cyfitter_cfg.c **** 		uint32 baseAddr = addr_table[i];
  48              		.loc 1 183 0
  49 0008 BB00     		lsls	r3, r7, #2
  50 000a C658     		ldr	r6, [r0, r3]
  51              	.LVL3:
 184:Generated_Source\PSoC4/cyfitter_cfg.c **** 		uint8 count = (uint8)baseAddr;
  52              		.loc 1 184 0
  53 000c F3B2     		uxtb	r3, r6
  54              	.LVL4:
 185:Generated_Source\PSoC4/cyfitter_cfg.c **** 		baseAddr &= 0xFFFFFF00u;
  55              		.loc 1 185 0
  56 000e FF22     		movs	r2, #255
  57 0010 9643     		bics	r6, r2
  58              	.LVL5:
 186:Generated_Source\PSoC4/cyfitter_cfg.c **** 		while (count != 0u)
  59              		.loc 1 186 0
  60 0012 08E0     		b	.L3
  61              	.L4:
 187:Generated_Source\PSoC4/cyfitter_cfg.c **** 		{
 188:Generated_Source\PSoC4/cyfitter_cfg.c **** 			CY_SET_REG8((void *)(baseAddr + data_table[j].offset), data_table[j].value);
  62              		.loc 1 188 0
  63 0014 6A00     		lsls	r2, r5, #1
  64 0016 8A18     		adds	r2, r1, r2
  65 0018 1478     		ldrb	r4, [r2]
  66 001a A419     		adds	r4, r4, r6
  67 001c 5278     		ldrb	r2, [r2, #1]
  68 001e 2270     		strb	r2, [r4]
 189:Generated_Source\PSoC4/cyfitter_cfg.c **** 			j++;
  69              		.loc 1 189 0
  70 0020 0135     		adds	r5, r5, #1
  71              	.LVL6:
 190:Generated_Source\PSoC4/cyfitter_cfg.c **** 			count--;
  72              		.loc 1 190 0
  73 0022 013B     		subs	r3, r3, #1
  74              	.LVL7:
  75 0024 DBB2     		uxtb	r3, r3
  76              	.LVL8:
  77              	.L3:
 186:Generated_Source\PSoC4/cyfitter_cfg.c **** 		{
  78              		.loc 1 186 0
  79 0026 002B     		cmp	r3, #0
  80 0028 F4D1     		bne	.L4
  81              	.LBE2:
 181:Generated_Source\PSoC4/cyfitter_cfg.c **** 	{
  82              		.loc 1 181 0 discriminator 2
  83 002a 0137     		adds	r7, r7, #1
  84              	.LVL9:
  85              	.L2:
 181:Generated_Source\PSoC4/cyfitter_cfg.c **** 	{
  86              		.loc 1 181 0 is_stmt 0 discriminator 1
  87 002c 042F     		cmp	r7, #4
  88 002e EBD9     		bls	.L5
 191:Generated_Source\PSoC4/cyfitter_cfg.c **** 		}
 192:Generated_Source\PSoC4/cyfitter_cfg.c **** 	}
 193:Generated_Source\PSoC4/cyfitter_cfg.c **** }
  89              		.loc 1 193 0 is_stmt 1
ARM GAS  C:\Users\Intern\AppData\Local\Temp\ccHxiR04.s 			page 6


  90              		@ sp needed
  91              	.LVL10:
  92              	.LVL11:
  93 0030 F0BD     		pop	{r4, r5, r6, r7, pc}
  94              		.cfi_endproc
  95              	.LFE5:
  96              		.size	cfg_write_bytes32, .-cfg_write_bytes32
  97 0032 C046     		.section	.text.CYMEMZERO,"ax",%progbits
  98              		.align	2
  99              		.code	16
 100              		.thumb_func
 101              		.type	CYMEMZERO, %function
 102              	CYMEMZERO:
 103              	.LFB2:
  77:Generated_Source\PSoC4/cyfitter_cfg.c **** 	(void)memset(s, 0, n);
 104              		.loc 1 77 0
 105              		.cfi_startproc
 106              		@ args = 0, pretend = 0, frame = 0
 107              		@ frame_needed = 0, uses_anonymous_args = 0
 108              	.LVL12:
 109 0000 10B5     		push	{r4, lr}
 110              		.cfi_def_cfa_offset 8
 111              		.cfi_offset 4, -8
 112              		.cfi_offset 14, -4
 113 0002 0A00     		movs	r2, r1
  78:Generated_Source\PSoC4/cyfitter_cfg.c **** }
 114              		.loc 1 78 0
 115 0004 0021     		movs	r1, #0
 116              	.LVL13:
 117 0006 FFF7FEFF 		bl	memset
 118              	.LVL14:
  79:Generated_Source\PSoC4/cyfitter_cfg.c **** CY_CFG_UNUSED
 119              		.loc 1 79 0
 120              		@ sp needed
 121 000a 10BD     		pop	{r4, pc}
 122              		.cfi_endproc
 123              	.LFE2:
 124              		.size	CYMEMZERO, .-CYMEMZERO
 125              		.section	.psocinit,"ax",%progbits
 126              		.align	2
 127              		.code	16
 128              		.thumb_func
 129              		.type	ClockSetup, %function
 130              	ClockSetup:
 131              	.LFB6:
 194:Generated_Source\PSoC4/cyfitter_cfg.c **** 
 195:Generated_Source\PSoC4/cyfitter_cfg.c **** 
 196:Generated_Source\PSoC4/cyfitter_cfg.c **** /*******************************************************************************
 197:Generated_Source\PSoC4/cyfitter_cfg.c **** * Function Name: ClockSetup
 198:Generated_Source\PSoC4/cyfitter_cfg.c **** ********************************************************************************
 199:Generated_Source\PSoC4/cyfitter_cfg.c **** *
 200:Generated_Source\PSoC4/cyfitter_cfg.c **** * Summary:
 201:Generated_Source\PSoC4/cyfitter_cfg.c **** *   Performs the initialization of all of the clocks in the device based on the
 202:Generated_Source\PSoC4/cyfitter_cfg.c **** *   settings in the Clock tab of the DWR.  This includes enabling the requested
 203:Generated_Source\PSoC4/cyfitter_cfg.c **** *   clocks and setting the necessary dividers to produce the desired frequency. 
 204:Generated_Source\PSoC4/cyfitter_cfg.c **** *
 205:Generated_Source\PSoC4/cyfitter_cfg.c **** * Parameters:
ARM GAS  C:\Users\Intern\AppData\Local\Temp\ccHxiR04.s 			page 7


 206:Generated_Source\PSoC4/cyfitter_cfg.c **** *   void
 207:Generated_Source\PSoC4/cyfitter_cfg.c **** *
 208:Generated_Source\PSoC4/cyfitter_cfg.c **** * Return:
 209:Generated_Source\PSoC4/cyfitter_cfg.c **** *   void
 210:Generated_Source\PSoC4/cyfitter_cfg.c **** *
 211:Generated_Source\PSoC4/cyfitter_cfg.c **** *******************************************************************************/
 212:Generated_Source\PSoC4/cyfitter_cfg.c **** static void ClockSetup(void);
 213:Generated_Source\PSoC4/cyfitter_cfg.c **** CY_CFG_SECTION
 214:Generated_Source\PSoC4/cyfitter_cfg.c **** static void ClockSetup(void)
 215:Generated_Source\PSoC4/cyfitter_cfg.c **** {
 132              		.loc 1 215 0
 133              		.cfi_startproc
 134              		@ args = 0, pretend = 0, frame = 0
 135              		@ frame_needed = 0, uses_anonymous_args = 0
 136 0000 70B5     		push	{r4, r5, r6, lr}
 137              		.cfi_def_cfa_offset 16
 138              		.cfi_offset 4, -16
 139              		.cfi_offset 5, -12
 140              		.cfi_offset 6, -8
 141              		.cfi_offset 14, -4
 216:Generated_Source\PSoC4/cyfitter_cfg.c **** 
 217:Generated_Source\PSoC4/cyfitter_cfg.c **** 	/* Set Flash Cycles based on max possible frequency in case a glitch occurs during ClockSetup(). *
 218:Generated_Source\PSoC4/cyfitter_cfg.c **** 	CY_SET_REG32((void CYXDATA *)(CYREG_CPUSS_FLASH_CTL), (0x0012u));
 142              		.loc 1 218 0
 143 0002 1222     		movs	r2, #18
 144 0004 2B4B     		ldr	r3, .L8
 145 0006 1A60     		str	r2, [r3]
 219:Generated_Source\PSoC4/cyfitter_cfg.c **** 
 220:Generated_Source\PSoC4/cyfitter_cfg.c **** 	/* Start the WCO */
 221:Generated_Source\PSoC4/cyfitter_cfg.c **** 	CySysClkWcoStart();
 146              		.loc 1 221 0
 147 0008 FFF7FEFF 		bl	CySysClkWcoStart
 148              	.LVL15:
 222:Generated_Source\PSoC4/cyfitter_cfg.c **** 	CyDelayCycles(12000000u); /* WCO may take up to 500ms to start */
 149              		.loc 1 222 0
 150 000c 2A48     		ldr	r0, .L8+4
 151 000e FFF7FEFF 		bl	CyDelayCycles
 152              	.LVL16:
 223:Generated_Source\PSoC4/cyfitter_cfg.c **** 	(void)CySysClkWcoSetPowerMode(CY_SYS_CLK_WCO_LPM);    /* Switch to the low power mode */
 153              		.loc 1 223 0
 154 0012 0120     		movs	r0, #1
 155 0014 FFF7FEFF 		bl	CySysClkWcoSetPowerMode
 156              	.LVL17:
 224:Generated_Source\PSoC4/cyfitter_cfg.c **** 
 225:Generated_Source\PSoC4/cyfitter_cfg.c **** 	/* Setup and trim IMO based on desired frequency. */
 226:Generated_Source\PSoC4/cyfitter_cfg.c **** 	CySysClkWriteImoFreq(48u);
 157              		.loc 1 226 0
 158 0018 3020     		movs	r0, #48
 159 001a FFF7FEFF 		bl	CySysClkWriteImoFreq
 160              	.LVL18:
 227:Generated_Source\PSoC4/cyfitter_cfg.c **** 	/* CYDEV_CLK_ILO_CONFIG Starting address: CYDEV_CLK_ILO_CONFIG */
 228:Generated_Source\PSoC4/cyfitter_cfg.c **** 	CY_SET_REG32((void *)(CYREG_CLK_ILO_CONFIG), 0x80000006u);
 161              		.loc 1 228 0
 162 001e 274A     		ldr	r2, .L8+8
 163 0020 274B     		ldr	r3, .L8+12
 164 0022 1A60     		str	r2, [r3]
 229:Generated_Source\PSoC4/cyfitter_cfg.c **** 
ARM GAS  C:\Users\Intern\AppData\Local\Temp\ccHxiR04.s 			page 8


 230:Generated_Source\PSoC4/cyfitter_cfg.c **** 	/* CYDEV_WDT_CONFIG Starting address: CYDEV_WDT_CONFIG */
 231:Generated_Source\PSoC4/cyfitter_cfg.c **** 	CY_SET_REG32((void *)(CYREG_WDT_CONFIG), 0x40000000u);
 165              		.loc 1 231 0
 166 0024 274C     		ldr	r4, .L8+16
 167 0026 8025     		movs	r5, #128
 168 0028 ED05     		lsls	r5, r5, #23
 169 002a 2560     		str	r5, [r4]
 232:Generated_Source\PSoC4/cyfitter_cfg.c **** 
 233:Generated_Source\PSoC4/cyfitter_cfg.c **** 
 234:Generated_Source\PSoC4/cyfitter_cfg.c **** 	/* Enable fast start mode for XO */
 235:Generated_Source\PSoC4/cyfitter_cfg.c **** 	CY_SET_REG32((void*)CYREG_BLE_BLERD_BB_XO, CY_GET_REG32((void*)CYREG_BLE_BLERD_BB_XO) | (uint32)0x
 170              		.loc 1 235 0
 171 002c 264A     		ldr	r2, .L8+20
 172 002e 1168     		ldr	r1, [r2]
 173 0030 0223     		movs	r3, #2
 174 0032 0B43     		orrs	r3, r1
 175 0034 1360     		str	r3, [r2]
 236:Generated_Source\PSoC4/cyfitter_cfg.c **** 	CY_SET_REG32((void *)(CYREG_BLE_BLERD_BB_XO_CAPTRIM), 0x00003E2Du);
 176              		.loc 1 236 0
 177 0036 254A     		ldr	r2, .L8+24
 178 0038 254B     		ldr	r3, .L8+28
 179 003a 1A60     		str	r2, [r3]
 237:Generated_Source\PSoC4/cyfitter_cfg.c **** 	/*Set XTAL(ECO) divider*/
 238:Generated_Source\PSoC4/cyfitter_cfg.c **** 	CY_SET_REG32((void *)(CYREG_BLE_BLESS_XTAL_CLK_DIV_CONFIG), 0x00000000u);
 180              		.loc 1 238 0
 181 003c 0022     		movs	r2, #0
 182 003e 254B     		ldr	r3, .L8+32
 183 0040 1A60     		str	r2, [r3]
 239:Generated_Source\PSoC4/cyfitter_cfg.c **** 	/* Disable Crystal Stable Interrupt before enabling ECO */
 240:Generated_Source\PSoC4/cyfitter_cfg.c **** 	CY_SET_REG32((void*)CYREG_BLE_BLESS_LL_DSM_CTRL, CY_GET_REG32((void*)CYREG_BLE_BLESS_LL_DSM_CTRL) 
 184              		.loc 1 240 0
 185 0042 254A     		ldr	r2, .L8+36
 186 0044 1368     		ldr	r3, [r2]
 187 0046 0821     		movs	r1, #8
 188 0048 8B43     		bics	r3, r1
 189 004a 1360     		str	r3, [r2]
 241:Generated_Source\PSoC4/cyfitter_cfg.c **** 	/* Start the ECO and do not check status since it is not needed for HFCLK */
 242:Generated_Source\PSoC4/cyfitter_cfg.c **** 	(void)CySysClkEcoStart(2000u);
 190              		.loc 1 242 0
 191 004c FA20     		movs	r0, #250
 192 004e C000     		lsls	r0, r0, #3
 193 0050 FFF7FEFF 		bl	CySysClkEcoStart
 194              	.LVL19:
 243:Generated_Source\PSoC4/cyfitter_cfg.c **** 	CyDelayUs(1500u); /* Wait to stabilize */
 195              		.loc 1 243 0
 196 0054 2148     		ldr	r0, .L8+40
 197 0056 FFF7FEFF 		bl	CyDelayUs
 198              	.LVL20:
 244:Generated_Source\PSoC4/cyfitter_cfg.c **** 
 245:Generated_Source\PSoC4/cyfitter_cfg.c **** 	/* Setup phase aligned clocks */
 246:Generated_Source\PSoC4/cyfitter_cfg.c **** 	CY_SET_REG32((void *)CYREG_PERI_DIV_16_CTL1, 0x00002700u);
 199              		.loc 1 246 0
 200 005a 9C22     		movs	r2, #156
 201 005c 9201     		lsls	r2, r2, #6
 202 005e 204B     		ldr	r3, .L8+44
 203 0060 1A60     		str	r2, [r3]
 247:Generated_Source\PSoC4/cyfitter_cfg.c **** 	CY_SET_REG32((void *)CYREG_PERI_DIV_CMD, 0x8000FF41u);
ARM GAS  C:\Users\Intern\AppData\Local\Temp\ccHxiR04.s 			page 9


 204              		.loc 1 247 0
 205 0062 204B     		ldr	r3, .L8+48
 206 0064 204A     		ldr	r2, .L8+52
 207 0066 1A60     		str	r2, [r3]
 248:Generated_Source\PSoC4/cyfitter_cfg.c **** 	CY_SET_REG32((void *)CYREG_PERI_DIV_16_CTL0, 0x00001D00u);
 208              		.loc 1 248 0
 209 0068 E821     		movs	r1, #232
 210 006a 4901     		lsls	r1, r1, #5
 211 006c 1F4A     		ldr	r2, .L8+56
 212 006e 1160     		str	r1, [r2]
 249:Generated_Source\PSoC4/cyfitter_cfg.c **** 	CY_SET_REG32((void *)CYREG_PERI_DIV_CMD, 0x8000FF40u);
 213              		.loc 1 249 0
 214 0070 1F4A     		ldr	r2, .L8+60
 215 0072 1A60     		str	r2, [r3]
 250:Generated_Source\PSoC4/cyfitter_cfg.c **** 	CY_SET_REG32((void *)CYREG_PERI_DIV_16_CTL2, 0x00003300u);
 216              		.loc 1 250 0
 217 0074 CC21     		movs	r1, #204
 218 0076 8901     		lsls	r1, r1, #6
 219 0078 1E4A     		ldr	r2, .L8+64
 220 007a 1160     		str	r1, [r2]
 251:Generated_Source\PSoC4/cyfitter_cfg.c **** 	CY_SET_REG32((void *)CYREG_PERI_DIV_CMD, 0x8000FF42u);
 221              		.loc 1 251 0
 222 007c 1E4A     		ldr	r2, .L8+68
 223 007e 1A60     		str	r2, [r3]
 252:Generated_Source\PSoC4/cyfitter_cfg.c **** 
 253:Generated_Source\PSoC4/cyfitter_cfg.c **** 	/* CYDEV_CLK_IMO_CONFIG Starting address: CYDEV_CLK_IMO_CONFIG */
 254:Generated_Source\PSoC4/cyfitter_cfg.c **** 	CY_SET_REG32((void *)(CYREG_CLK_IMO_CONFIG), 0x82000000u);
 224              		.loc 1 254 0
 225 0080 8222     		movs	r2, #130
 226 0082 1206     		lsls	r2, r2, #24
 227 0084 1D4B     		ldr	r3, .L8+72
 228 0086 1A60     		str	r2, [r3]
 255:Generated_Source\PSoC4/cyfitter_cfg.c **** 
 256:Generated_Source\PSoC4/cyfitter_cfg.c **** 	/* CYDEV_CLK_SELECT Starting address: CYDEV_CLK_SELECT */
 257:Generated_Source\PSoC4/cyfitter_cfg.c **** 	CY_SET_REG32((void *)(CYREG_CLK_SELECT), 0x00040000u);
 229              		.loc 1 257 0
 230 0088 8022     		movs	r2, #128
 231 008a D202     		lsls	r2, r2, #11
 232 008c 1C4B     		ldr	r3, .L8+76
 233 008e 1A60     		str	r2, [r3]
 258:Generated_Source\PSoC4/cyfitter_cfg.c **** 
 259:Generated_Source\PSoC4/cyfitter_cfg.c **** 	/* CYDEV_PERI_PCLK_CTL6 Starting address: CYDEV_PERI_PCLK_CTL6 */
 260:Generated_Source\PSoC4/cyfitter_cfg.c **** 	CY_SET_REG32((void *)(CYREG_PERI_PCLK_CTL6), 0x00000041u);
 234              		.loc 1 260 0
 235 0090 4122     		movs	r2, #65
 236 0092 1C4B     		ldr	r3, .L8+80
 237 0094 1A60     		str	r2, [r3]
 261:Generated_Source\PSoC4/cyfitter_cfg.c **** 
 262:Generated_Source\PSoC4/cyfitter_cfg.c **** 	/* CYDEV_PERI_PCLK_CTL2 Starting address: CYDEV_PERI_PCLK_CTL2 */
 263:Generated_Source\PSoC4/cyfitter_cfg.c **** 	CY_SET_REG32((void *)(CYREG_PERI_PCLK_CTL2), 0x00000040u);
 238              		.loc 1 263 0
 239 0096 013A     		subs	r2, r2, #1
 240 0098 1B4B     		ldr	r3, .L8+84
 241 009a 1A60     		str	r2, [r3]
 264:Generated_Source\PSoC4/cyfitter_cfg.c **** 
 265:Generated_Source\PSoC4/cyfitter_cfg.c **** 	/* CYDEV_PERI_PCLK_CTL1 Starting address: CYDEV_PERI_PCLK_CTL1 */
 266:Generated_Source\PSoC4/cyfitter_cfg.c **** 	CY_SET_REG32((void *)(CYREG_PERI_PCLK_CTL1), 0x00000042u);
ARM GAS  C:\Users\Intern\AppData\Local\Temp\ccHxiR04.s 			page 10


 242              		.loc 1 266 0
 243 009c 0232     		adds	r2, r2, #2
 244 009e 1B4B     		ldr	r3, .L8+88
 245 00a0 1A60     		str	r2, [r3]
 267:Generated_Source\PSoC4/cyfitter_cfg.c **** 
 268:Generated_Source\PSoC4/cyfitter_cfg.c **** 	(void)CyIntSetVector(8u, &CySysWdtIsr);
 246              		.loc 1 268 0
 247 00a2 1B49     		ldr	r1, .L8+92
 248 00a4 0820     		movs	r0, #8
 249 00a6 FFF7FEFF 		bl	CyIntSetVector
 250              	.LVL21:
 269:Generated_Source\PSoC4/cyfitter_cfg.c **** 	CyIntEnable(8u);
 251              		.loc 1 269 0
 252 00aa 0820     		movs	r0, #8
 253 00ac FFF7FEFF 		bl	CyIntEnable
 254              	.LVL22:
 270:Generated_Source\PSoC4/cyfitter_cfg.c **** 	CY_SET_REG32((void *)(CYREG_WDT_CONFIG), 0x40000000u);
 255              		.loc 1 270 0
 256 00b0 2560     		str	r5, [r4]
 271:Generated_Source\PSoC4/cyfitter_cfg.c **** }
 257              		.loc 1 271 0
 258              		@ sp needed
 259 00b2 70BD     		pop	{r4, r5, r6, pc}
 260              	.L9:
 261              		.align	2
 262              	.L8:
 263 00b4 30001040 		.word	1074790448
 264 00b8 001BB700 		.word	12000000
 265 00bc 06000080 		.word	-2147483642
 266 00c0 04010B40 		.word	1074462980
 267 00c4 0C020B40 		.word	1074463244
 268 00c8 78002E40 		.word	1076756600
 269 00cc 2D3E0000 		.word	15917
 270 00d0 7C002E40 		.word	1076756604
 271 00d4 64F02E40 		.word	1076818020
 272 00d8 6CF02E40 		.word	1076818028
 273 00dc DC050000 		.word	1500
 274 00e0 04030140 		.word	1073808132
 275 00e4 00000140 		.word	1073807360
 276 00e8 41FF0080 		.word	-2147418303
 277 00ec 00030140 		.word	1073808128
 278 00f0 40FF0080 		.word	-2147418304
 279 00f4 08030140 		.word	1073808136
 280 00f8 42FF0080 		.word	-2147418302
 281 00fc 08010B40 		.word	1074462984
 282 0100 00010B40 		.word	1074462976
 283 0104 18010140 		.word	1073807640
 284 0108 08010140 		.word	1073807624
 285 010c 04010140 		.word	1073807620
 286 0110 00000000 		.word	CySysWdtIsr
 287              		.cfi_endproc
 288              	.LFE6:
 289              		.size	ClockSetup, .-ClockSetup
 290              		.section	.text.SetAnalogRoutingPumps,"ax",%progbits
 291              		.align	2
 292              		.global	SetAnalogRoutingPumps
 293              		.code	16
ARM GAS  C:\Users\Intern\AppData\Local\Temp\ccHxiR04.s 			page 11


 294              		.thumb_func
 295              		.type	SetAnalogRoutingPumps, %function
 296              	SetAnalogRoutingPumps:
 297              	.LFB8:
 272:Generated_Source\PSoC4/cyfitter_cfg.c **** 
 273:Generated_Source\PSoC4/cyfitter_cfg.c **** 
 274:Generated_Source\PSoC4/cyfitter_cfg.c **** /* Analog API Functions */
 275:Generated_Source\PSoC4/cyfitter_cfg.c **** 
 276:Generated_Source\PSoC4/cyfitter_cfg.c **** 
 277:Generated_Source\PSoC4/cyfitter_cfg.c **** /*******************************************************************************
 278:Generated_Source\PSoC4/cyfitter_cfg.c **** * Function Name: AnalogSetDefault
 279:Generated_Source\PSoC4/cyfitter_cfg.c **** ********************************************************************************
 280:Generated_Source\PSoC4/cyfitter_cfg.c **** *
 281:Generated_Source\PSoC4/cyfitter_cfg.c **** * Summary:
 282:Generated_Source\PSoC4/cyfitter_cfg.c **** *  Sets up the analog portions of the chip to default values based on chip
 283:Generated_Source\PSoC4/cyfitter_cfg.c **** *  configuration options from the project.
 284:Generated_Source\PSoC4/cyfitter_cfg.c **** *
 285:Generated_Source\PSoC4/cyfitter_cfg.c **** * Parameters:
 286:Generated_Source\PSoC4/cyfitter_cfg.c **** *  void
 287:Generated_Source\PSoC4/cyfitter_cfg.c **** *
 288:Generated_Source\PSoC4/cyfitter_cfg.c **** * Return:
 289:Generated_Source\PSoC4/cyfitter_cfg.c **** *  void
 290:Generated_Source\PSoC4/cyfitter_cfg.c **** *
 291:Generated_Source\PSoC4/cyfitter_cfg.c **** *******************************************************************************/
 292:Generated_Source\PSoC4/cyfitter_cfg.c **** static void AnalogSetDefault(void);
 293:Generated_Source\PSoC4/cyfitter_cfg.c **** static void AnalogSetDefault(void)
 294:Generated_Source\PSoC4/cyfitter_cfg.c **** {
 295:Generated_Source\PSoC4/cyfitter_cfg.c **** 	CY_SET_XTND_REG32((void CYFAR *)CYREG_HSIOM_AMUX_SPLIT_CTL2, 0x00000030u);
 296:Generated_Source\PSoC4/cyfitter_cfg.c **** 	CY_SET_XTND_REG32((void CYFAR *)CYREG_CTBM0_CTB_CTRL, 0x80000000u);
 297:Generated_Source\PSoC4/cyfitter_cfg.c **** 	CY_SET_XTND_REG32((void CYFAR *)CYREG_CTBM0_DFT_CTRL, 0x00000003u);
 298:Generated_Source\PSoC4/cyfitter_cfg.c **** 	CY_SET_XTND_REG32((void CYFAR *)CYREG_CTBM0_OA0_SW, 0x00240104u);
 299:Generated_Source\PSoC4/cyfitter_cfg.c **** 	CY_SET_XTND_REG32((void CYFAR *)CYREG_CTBM0_OA1_SW, 0x00240102u);
 300:Generated_Source\PSoC4/cyfitter_cfg.c **** 	CY_SET_XTND_REG32((void CYFAR *)CYREG_CTBM0_CTB_SW_HW_CTRL, 0x0000000Cu);
 301:Generated_Source\PSoC4/cyfitter_cfg.c **** 	CY_SET_XTND_REG32((void CYFAR *)CYREG_CTBM1_DFT_CTRL, 0x00000003u);
 302:Generated_Source\PSoC4/cyfitter_cfg.c **** 	CY_SET_XTND_REG32((void CYFAR *)CYREG_SAR_CTRL, 0x80000000u);
 303:Generated_Source\PSoC4/cyfitter_cfg.c **** 	CY_SET_XTND_REG32((void CYFAR *)CYREG_SAR_MUX_SWITCH0, 0x0048003Fu);
 304:Generated_Source\PSoC4/cyfitter_cfg.c **** 	CY_SET_XTND_REG32((void CYFAR *)CYREG_SAR_MUX_SWITCH_HW_CTRL, 0x0048003Fu);
 305:Generated_Source\PSoC4/cyfitter_cfg.c **** 	CY_SET_XTND_REG32((void CYFAR *)CYREG_PASS_DSAB_DSAB_CTRL, 0x00000000u);
 306:Generated_Source\PSoC4/cyfitter_cfg.c **** 	SetAnalogRoutingPumps(1);
 307:Generated_Source\PSoC4/cyfitter_cfg.c **** }
 308:Generated_Source\PSoC4/cyfitter_cfg.c **** 
 309:Generated_Source\PSoC4/cyfitter_cfg.c **** 
 310:Generated_Source\PSoC4/cyfitter_cfg.c **** /*******************************************************************************
 311:Generated_Source\PSoC4/cyfitter_cfg.c **** * Function Name: SetAnalogRoutingPumps
 312:Generated_Source\PSoC4/cyfitter_cfg.c **** ********************************************************************************
 313:Generated_Source\PSoC4/cyfitter_cfg.c **** *
 314:Generated_Source\PSoC4/cyfitter_cfg.c **** * Summary:
 315:Generated_Source\PSoC4/cyfitter_cfg.c **** * Enables or disables the analog pumps feeding analog routing switches.
 316:Generated_Source\PSoC4/cyfitter_cfg.c **** * Intended to be called at startup, based on the Vdda system configuration;
 317:Generated_Source\PSoC4/cyfitter_cfg.c **** * may be called during operation when the user informs us that the Vdda voltage crossed the pump th
 318:Generated_Source\PSoC4/cyfitter_cfg.c **** *
 319:Generated_Source\PSoC4/cyfitter_cfg.c **** * Parameters:
 320:Generated_Source\PSoC4/cyfitter_cfg.c **** *  enabled - 1 to enable the pumps, 0 to disable the pumps
 321:Generated_Source\PSoC4/cyfitter_cfg.c **** *
 322:Generated_Source\PSoC4/cyfitter_cfg.c **** * Return:
 323:Generated_Source\PSoC4/cyfitter_cfg.c **** *  void
 324:Generated_Source\PSoC4/cyfitter_cfg.c **** *
ARM GAS  C:\Users\Intern\AppData\Local\Temp\ccHxiR04.s 			page 12


 325:Generated_Source\PSoC4/cyfitter_cfg.c **** *******************************************************************************/
 326:Generated_Source\PSoC4/cyfitter_cfg.c **** void SetAnalogRoutingPumps(uint8 enabled)
 327:Generated_Source\PSoC4/cyfitter_cfg.c **** {
 298              		.loc 1 327 0
 299              		.cfi_startproc
 300              		@ args = 0, pretend = 0, frame = 0
 301              		@ frame_needed = 0, uses_anonymous_args = 0
 302              		@ link register save eliminated.
 303              	.LVL23:
 328:Generated_Source\PSoC4/cyfitter_cfg.c **** 	uint32 regValue = CY_GET_XTND_REG32((void *)(CYREG_SAR_PUMP_CTRL));
 304              		.loc 1 328 0
 305 0000 064B     		ldr	r3, .L13
 306 0002 1B68     		ldr	r3, [r3]
 307              	.LVL24:
 329:Generated_Source\PSoC4/cyfitter_cfg.c **** 	if (enabled != 0u)
 308              		.loc 1 329 0
 309 0004 0028     		cmp	r0, #0
 310 0006 03D0     		beq	.L11
 330:Generated_Source\PSoC4/cyfitter_cfg.c **** 	{
 331:Generated_Source\PSoC4/cyfitter_cfg.c **** 		regValue |= 0x80000000u;
 311              		.loc 1 331 0
 312 0008 8022     		movs	r2, #128
 313 000a 1206     		lsls	r2, r2, #24
 314 000c 1343     		orrs	r3, r2
 315              	.LVL25:
 316 000e 01E0     		b	.L12
 317              	.L11:
 332:Generated_Source\PSoC4/cyfitter_cfg.c **** 	}
 333:Generated_Source\PSoC4/cyfitter_cfg.c **** 	else
 334:Generated_Source\PSoC4/cyfitter_cfg.c **** 	{
 335:Generated_Source\PSoC4/cyfitter_cfg.c **** 		regValue &= ~0x80000000u;
 318              		.loc 1 335 0
 319 0010 5B00     		lsls	r3, r3, #1
 320              	.LVL26:
 321 0012 5B08     		lsrs	r3, r3, #1
 322              	.LVL27:
 323              	.L12:
 336:Generated_Source\PSoC4/cyfitter_cfg.c **** 	}
 337:Generated_Source\PSoC4/cyfitter_cfg.c **** 	CY_SET_XTND_REG32((void *)(CYREG_SAR_PUMP_CTRL), regValue);
 324              		.loc 1 337 0
 325 0014 014A     		ldr	r2, .L13
 326 0016 1360     		str	r3, [r2]
 338:Generated_Source\PSoC4/cyfitter_cfg.c **** }
 327              		.loc 1 338 0
 328              		@ sp needed
 329 0018 7047     		bx	lr
 330              	.L14:
 331 001a C046     		.align	2
 332              	.L13:
 333 001c 80033A40 		.word	1077543808
 334              		.cfi_endproc
 335              	.LFE8:
 336              		.size	SetAnalogRoutingPumps, .-SetAnalogRoutingPumps
 337              		.section	.text.AnalogSetDefault,"ax",%progbits
 338              		.align	2
 339              		.code	16
 340              		.thumb_func
ARM GAS  C:\Users\Intern\AppData\Local\Temp\ccHxiR04.s 			page 13


 341              		.type	AnalogSetDefault, %function
 342              	AnalogSetDefault:
 343              	.LFB7:
 294:Generated_Source\PSoC4/cyfitter_cfg.c **** 	CY_SET_XTND_REG32((void CYFAR *)CYREG_HSIOM_AMUX_SPLIT_CTL2, 0x00000030u);
 344              		.loc 1 294 0
 345              		.cfi_startproc
 346              		@ args = 0, pretend = 0, frame = 0
 347              		@ frame_needed = 0, uses_anonymous_args = 0
 348 0000 10B5     		push	{r4, lr}
 349              		.cfi_def_cfa_offset 8
 350              		.cfi_offset 4, -8
 351              		.cfi_offset 14, -4
 295:Generated_Source\PSoC4/cyfitter_cfg.c **** 	CY_SET_XTND_REG32((void CYFAR *)CYREG_CTBM0_CTB_CTRL, 0x80000000u);
 352              		.loc 1 295 0
 353 0002 3022     		movs	r2, #48
 354 0004 104B     		ldr	r3, .L16
 355 0006 1A60     		str	r2, [r3]
 296:Generated_Source\PSoC4/cyfitter_cfg.c **** 	CY_SET_XTND_REG32((void CYFAR *)CYREG_CTBM0_DFT_CTRL, 0x00000003u);
 356              		.loc 1 296 0
 357 0008 8023     		movs	r3, #128
 358 000a 1B06     		lsls	r3, r3, #24
 359 000c 0F4A     		ldr	r2, .L16+4
 360 000e 1360     		str	r3, [r2]
 297:Generated_Source\PSoC4/cyfitter_cfg.c **** 	CY_SET_XTND_REG32((void CYFAR *)CYREG_CTBM0_OA0_SW, 0x00240104u);
 361              		.loc 1 297 0
 362 0010 0322     		movs	r2, #3
 363 0012 0F49     		ldr	r1, .L16+8
 364 0014 0A60     		str	r2, [r1]
 298:Generated_Source\PSoC4/cyfitter_cfg.c **** 	CY_SET_XTND_REG32((void CYFAR *)CYREG_CTBM0_OA1_SW, 0x00240102u);
 365              		.loc 1 298 0
 366 0016 0F48     		ldr	r0, .L16+12
 367 0018 0F49     		ldr	r1, .L16+16
 368 001a 0860     		str	r0, [r1]
 299:Generated_Source\PSoC4/cyfitter_cfg.c **** 	CY_SET_XTND_REG32((void CYFAR *)CYREG_CTBM0_CTB_SW_HW_CTRL, 0x0000000Cu);
 369              		.loc 1 299 0
 370 001c 0F48     		ldr	r0, .L16+20
 371 001e 1049     		ldr	r1, .L16+24
 372 0020 0860     		str	r0, [r1]
 300:Generated_Source\PSoC4/cyfitter_cfg.c **** 	CY_SET_XTND_REG32((void CYFAR *)CYREG_CTBM1_DFT_CTRL, 0x00000003u);
 373              		.loc 1 300 0
 374 0022 0C20     		movs	r0, #12
 375 0024 0F49     		ldr	r1, .L16+28
 376 0026 0860     		str	r0, [r1]
 301:Generated_Source\PSoC4/cyfitter_cfg.c **** 	CY_SET_XTND_REG32((void CYFAR *)CYREG_SAR_CTRL, 0x80000000u);
 377              		.loc 1 301 0
 378 0028 0F49     		ldr	r1, .L16+32
 379 002a 0A60     		str	r2, [r1]
 302:Generated_Source\PSoC4/cyfitter_cfg.c **** 	CY_SET_XTND_REG32((void CYFAR *)CYREG_SAR_MUX_SWITCH0, 0x0048003Fu);
 380              		.loc 1 302 0
 381 002c 0F4A     		ldr	r2, .L16+36
 382 002e 1360     		str	r3, [r2]
 303:Generated_Source\PSoC4/cyfitter_cfg.c **** 	CY_SET_XTND_REG32((void CYFAR *)CYREG_SAR_MUX_SWITCH_HW_CTRL, 0x0048003Fu);
 383              		.loc 1 303 0
 384 0030 0F4B     		ldr	r3, .L16+40
 385 0032 104A     		ldr	r2, .L16+44
 386 0034 1360     		str	r3, [r2]
 304:Generated_Source\PSoC4/cyfitter_cfg.c **** 	CY_SET_XTND_REG32((void CYFAR *)CYREG_PASS_DSAB_DSAB_CTRL, 0x00000000u);
ARM GAS  C:\Users\Intern\AppData\Local\Temp\ccHxiR04.s 			page 14


 387              		.loc 1 304 0
 388 0036 104A     		ldr	r2, .L16+48
 389 0038 1360     		str	r3, [r2]
 305:Generated_Source\PSoC4/cyfitter_cfg.c **** 	SetAnalogRoutingPumps(1);
 390              		.loc 1 305 0
 391 003a 0022     		movs	r2, #0
 392 003c 0F4B     		ldr	r3, .L16+52
 393 003e 1A60     		str	r2, [r3]
 306:Generated_Source\PSoC4/cyfitter_cfg.c **** }
 394              		.loc 1 306 0
 395 0040 0B38     		subs	r0, r0, #11
 396 0042 FFF7FEFF 		bl	SetAnalogRoutingPumps
 397              	.LVL28:
 307:Generated_Source\PSoC4/cyfitter_cfg.c **** 
 398              		.loc 1 307 0
 399              		@ sp needed
 400 0046 10BD     		pop	{r4, pc}
 401              	.L17:
 402              		.align	2
 403              	.L16:
 404 0048 08210240 		.word	1073881352
 405 004c 00003040 		.word	1076887552
 406 0050 30003040 		.word	1076887600
 407 0054 04012400 		.word	2359556
 408 0058 80003040 		.word	1076887680
 409 005c 02012400 		.word	2359554
 410 0060 88003040 		.word	1076887688
 411 0064 C0003040 		.word	1076887744
 412 0068 30003140 		.word	1076953136
 413 006c 00003A40 		.word	1077542912
 414 0070 3F004800 		.word	4718655
 415 0074 00033A40 		.word	1077543680
 416 0078 40033A40 		.word	1077543744
 417 007c 000E3F40 		.word	1077874176
 418              		.cfi_endproc
 419              	.LFE7:
 420              		.size	AnalogSetDefault, .-AnalogSetDefault
 421              		.section	.psocinit
 422              		.align	2
 423              		.global	cyfitter_cfg
 424              		.code	16
 425              		.thumb_func
 426              		.type	cyfitter_cfg, %function
 427              	cyfitter_cfg:
 428              	.LFB9:
 339:Generated_Source\PSoC4/cyfitter_cfg.c **** 
 340:Generated_Source\PSoC4/cyfitter_cfg.c **** 
 341:Generated_Source\PSoC4/cyfitter_cfg.c **** 
 342:Generated_Source\PSoC4/cyfitter_cfg.c **** 
 343:Generated_Source\PSoC4/cyfitter_cfg.c **** /*******************************************************************************
 344:Generated_Source\PSoC4/cyfitter_cfg.c **** * Function Name: cyfitter_cfg
 345:Generated_Source\PSoC4/cyfitter_cfg.c **** ********************************************************************************
 346:Generated_Source\PSoC4/cyfitter_cfg.c **** * Summary:
 347:Generated_Source\PSoC4/cyfitter_cfg.c **** *  This function is called by the start-up code for the selected device. It
 348:Generated_Source\PSoC4/cyfitter_cfg.c **** *  performs all of the necessary device configuration based on the design
 349:Generated_Source\PSoC4/cyfitter_cfg.c **** *  settings.  This includes settings from the Design Wide Resources (DWR) such
 350:Generated_Source\PSoC4/cyfitter_cfg.c **** *  as Clocks and Pins as well as any component configuration that is necessary.
ARM GAS  C:\Users\Intern\AppData\Local\Temp\ccHxiR04.s 			page 15


 351:Generated_Source\PSoC4/cyfitter_cfg.c **** *
 352:Generated_Source\PSoC4/cyfitter_cfg.c **** * Parameters:
 353:Generated_Source\PSoC4/cyfitter_cfg.c **** *   void
 354:Generated_Source\PSoC4/cyfitter_cfg.c **** *
 355:Generated_Source\PSoC4/cyfitter_cfg.c **** * Return:
 356:Generated_Source\PSoC4/cyfitter_cfg.c **** *   void
 357:Generated_Source\PSoC4/cyfitter_cfg.c **** *
 358:Generated_Source\PSoC4/cyfitter_cfg.c **** *******************************************************************************/
 359:Generated_Source\PSoC4/cyfitter_cfg.c **** CY_CFG_SECTION
 360:Generated_Source\PSoC4/cyfitter_cfg.c **** void cyfitter_cfg(void)
 361:Generated_Source\PSoC4/cyfitter_cfg.c **** {
 429              		.loc 1 361 0
 430              		.cfi_startproc
 431              		@ args = 0, pretend = 0, frame = 0
 432              		@ frame_needed = 0, uses_anonymous_args = 0
 433 0114 10B5     		push	{r4, lr}
 434              		.cfi_def_cfa_offset 8
 435              		.cfi_offset 4, -8
 436              		.cfi_offset 14, -4
 362:Generated_Source\PSoC4/cyfitter_cfg.c **** 	/* Disable interrupts by default. Let user enable if/when they want. */
 363:Generated_Source\PSoC4/cyfitter_cfg.c **** 	CyGlobalIntDisable;
 437              		.loc 1 363 0
 438              		.syntax divided
 439              	@ 363 "Generated_Source\PSoC4\cyfitter_cfg.c" 1
 440 0116 72B6     		CPSID   i
 441              	@ 0 "" 2
 364:Generated_Source\PSoC4/cyfitter_cfg.c **** 
 365:Generated_Source\PSoC4/cyfitter_cfg.c **** 	CY_SET_REG32((void *)(CYREG_BLE_BLESS_LL_DSM_CTRL), 0x00000000u);
 442              		.loc 1 365 0
 443              		.thumb
 444              		.syntax unified
 445 0118 0022     		movs	r2, #0
 446 011a 364B     		ldr	r3, .L21
 447 011c 1A60     		str	r2, [r3]
 448              	.LVL29:
 449              	.LBB3:
 366:Generated_Source\PSoC4/cyfitter_cfg.c **** 
 367:Generated_Source\PSoC4/cyfitter_cfg.c **** 	{
 368:Generated_Source\PSoC4/cyfitter_cfg.c **** 		static const uint32 CYCODE cy_cfg_addr_table[] = {
 369:Generated_Source\PSoC4/cyfitter_cfg.c **** 			0x400F3004u, /* Base address: 0x400F3000 Count: 4 */
 370:Generated_Source\PSoC4/cyfitter_cfg.c **** 			0x400F3101u, /* Base address: 0x400F3100 Count: 1 */
 371:Generated_Source\PSoC4/cyfitter_cfg.c **** 			0x400F3301u, /* Base address: 0x400F3300 Count: 1 */
 372:Generated_Source\PSoC4/cyfitter_cfg.c **** 			0x400F4105u, /* Base address: 0x400F4100 Count: 5 */
 373:Generated_Source\PSoC4/cyfitter_cfg.c **** 			0x400F6002u, /* Base address: 0x400F6000 Count: 2 */
 374:Generated_Source\PSoC4/cyfitter_cfg.c **** 		};
 375:Generated_Source\PSoC4/cyfitter_cfg.c **** 
 376:Generated_Source\PSoC4/cyfitter_cfg.c **** 		static const cy_cfg_addrvalue_t CYCODE cy_cfg_data_table[] = {
 377:Generated_Source\PSoC4/cyfitter_cfg.c **** 			{0x30u, 0x01u},
 378:Generated_Source\PSoC4/cyfitter_cfg.c **** 			{0x3Eu, 0x01u},
 379:Generated_Source\PSoC4/cyfitter_cfg.c **** 			{0x58u, 0x04u},
 380:Generated_Source\PSoC4/cyfitter_cfg.c **** 			{0x5Fu, 0x01u},
 381:Generated_Source\PSoC4/cyfitter_cfg.c **** 			{0x1Au, 0x80u},
 382:Generated_Source\PSoC4/cyfitter_cfg.c **** 			{0xAAu, 0x40u},
 383:Generated_Source\PSoC4/cyfitter_cfg.c **** 			{0x5Bu, 0x40u},
 384:Generated_Source\PSoC4/cyfitter_cfg.c **** 			{0x9Bu, 0x40u},
 385:Generated_Source\PSoC4/cyfitter_cfg.c **** 			{0xABu, 0x40u},
 386:Generated_Source\PSoC4/cyfitter_cfg.c **** 			{0xD4u, 0x80u},
ARM GAS  C:\Users\Intern\AppData\Local\Temp\ccHxiR04.s 			page 16


 387:Generated_Source\PSoC4/cyfitter_cfg.c **** 			{0xEEu, 0x80u},
 388:Generated_Source\PSoC4/cyfitter_cfg.c **** 			{0x02u, 0x01u},
 389:Generated_Source\PSoC4/cyfitter_cfg.c **** 			{0x11u, 0x01u},
 390:Generated_Source\PSoC4/cyfitter_cfg.c **** 		};
 391:Generated_Source\PSoC4/cyfitter_cfg.c **** 
 392:Generated_Source\PSoC4/cyfitter_cfg.c **** 
 393:Generated_Source\PSoC4/cyfitter_cfg.c **** 
 394:Generated_Source\PSoC4/cyfitter_cfg.c **** 		CYPACKED typedef struct {
 395:Generated_Source\PSoC4/cyfitter_cfg.c **** 			void CYFAR *address;
 396:Generated_Source\PSoC4/cyfitter_cfg.c **** 			uint16 size;
 397:Generated_Source\PSoC4/cyfitter_cfg.c **** 		} CYPACKED_ATTR cfg_memset_t;
 398:Generated_Source\PSoC4/cyfitter_cfg.c **** 
 399:Generated_Source\PSoC4/cyfitter_cfg.c **** 		static const cfg_memset_t CYCODE cfg_memset_list[] = {
 400:Generated_Source\PSoC4/cyfitter_cfg.c **** 			/* address, size */
 401:Generated_Source\PSoC4/cyfitter_cfg.c **** 			{(void CYFAR *)(CYDEV_UDB_P0_U0_BASE), 1024u},
 402:Generated_Source\PSoC4/cyfitter_cfg.c **** 			{(void CYFAR *)(CYDEV_UDB_DSI0_BASE), 1024u},
 403:Generated_Source\PSoC4/cyfitter_cfg.c **** 		};
 404:Generated_Source\PSoC4/cyfitter_cfg.c **** 
 405:Generated_Source\PSoC4/cyfitter_cfg.c **** 		uint8 CYDATA i;
 406:Generated_Source\PSoC4/cyfitter_cfg.c **** 
 407:Generated_Source\PSoC4/cyfitter_cfg.c **** 		/* Zero out critical memory blocks before beginning configuration */
 408:Generated_Source\PSoC4/cyfitter_cfg.c **** 		for (i = 0u; i < (sizeof(cfg_memset_list)/sizeof(cfg_memset_list[0])); i++)
 450              		.loc 1 408 0
 451 011e 0024     		movs	r4, #0
 452 0120 0FE0     		b	.L19
 453              	.LVL30:
 454              	.L20:
 455              	.LBB4:
 409:Generated_Source\PSoC4/cyfitter_cfg.c **** 		{
 410:Generated_Source\PSoC4/cyfitter_cfg.c **** 			const cfg_memset_t CYCODE * CYDATA ms = &cfg_memset_list[i];
 411:Generated_Source\PSoC4/cyfitter_cfg.c **** 			CYMEMZERO(ms->address, (size_t)(uint32)(ms->size));
 456              		.loc 1 411 0 discriminator 3
 457 0122 3548     		ldr	r0, .L21+4
 458 0124 6200     		lsls	r2, r4, #1
 459 0126 1319     		adds	r3, r2, r4
 460 0128 5900     		lsls	r1, r3, #1
 461 012a 0B00     		movs	r3, r1
 462 012c 4118     		adds	r1, r0, r1
 463 012e 8988     		ldrh	r1, [r1, #4]
 464 0130 1A5A     		ldrh	r2, [r3, r0]
 465 0132 C318     		adds	r3, r0, r3
 466 0134 5888     		ldrh	r0, [r3, #2]
 467 0136 0004     		lsls	r0, r0, #16
 468 0138 1043     		orrs	r0, r2
 469 013a FFF7FEFF 		bl	CYMEMZERO
 470              	.LVL31:
 471              	.LBE4:
 408:Generated_Source\PSoC4/cyfitter_cfg.c **** 		{
 472              		.loc 1 408 0 discriminator 3
 473 013e 0134     		adds	r4, r4, #1
 474              	.LVL32:
 475 0140 E4B2     		uxtb	r4, r4
 476              	.LVL33:
 477              	.L19:
 408:Generated_Source\PSoC4/cyfitter_cfg.c **** 		{
 478              		.loc 1 408 0 is_stmt 0 discriminator 1
 479 0142 012C     		cmp	r4, #1
ARM GAS  C:\Users\Intern\AppData\Local\Temp\ccHxiR04.s 			page 17


 480 0144 EDD9     		bls	.L20
 412:Generated_Source\PSoC4/cyfitter_cfg.c **** 		}
 413:Generated_Source\PSoC4/cyfitter_cfg.c **** 
 414:Generated_Source\PSoC4/cyfitter_cfg.c **** 		cfg_write_bytes32(cy_cfg_addr_table, cy_cfg_data_table);
 481              		.loc 1 414 0 is_stmt 1
 482 0146 2C48     		ldr	r0, .L21+4
 483 0148 0100     		movs	r1, r0
 484 014a 0C31     		adds	r1, r1, #12
 485 014c 2830     		adds	r0, r0, #40
 486 014e FFF7FEFF 		bl	cfg_write_bytes32
 487              	.LVL34:
 415:Generated_Source\PSoC4/cyfitter_cfg.c **** 
 416:Generated_Source\PSoC4/cyfitter_cfg.c **** 		/* HSIOM Starting address: CYDEV_HSIOM_BASE */
 417:Generated_Source\PSoC4/cyfitter_cfg.c **** 		CY_SET_REG32((void *)(CYDEV_HSIOM_BASE), 0xEE0000EEu);
 488              		.loc 1 417 0
 489 0152 2A4A     		ldr	r2, .L21+8
 490 0154 2A4B     		ldr	r3, .L21+12
 491 0156 1A60     		str	r2, [r3]
 418:Generated_Source\PSoC4/cyfitter_cfg.c **** 		CY_SET_REG32((void *)(CYREG_HSIOM_PORT_SEL1), 0x00990070u);
 492              		.loc 1 418 0
 493 0158 2A4A     		ldr	r2, .L21+16
 494 015a 2B4B     		ldr	r3, .L21+20
 495 015c 1A60     		str	r2, [r3]
 419:Generated_Source\PSoC4/cyfitter_cfg.c **** 
 420:Generated_Source\PSoC4/cyfitter_cfg.c **** 		/* UDB_PA_0 Starting address: CYDEV_UDB_PA0_BASE */
 421:Generated_Source\PSoC4/cyfitter_cfg.c **** 		CY_SET_REG32((void *)(CYDEV_UDB_PA0_BASE), 0x00990000u);
 496              		.loc 1 421 0
 497 015e 9923     		movs	r3, #153
 498 0160 1B04     		lsls	r3, r3, #16
 499 0162 2A4A     		ldr	r2, .L21+24
 500 0164 1360     		str	r3, [r2]
 422:Generated_Source\PSoC4/cyfitter_cfg.c **** 
 423:Generated_Source\PSoC4/cyfitter_cfg.c **** 		/* UDB_PA_1 Starting address: CYDEV_UDB_PA1_BASE */
 424:Generated_Source\PSoC4/cyfitter_cfg.c **** 		CY_SET_REG32((void *)(CYDEV_UDB_PA1_BASE), 0x00990000u);
 501              		.loc 1 424 0
 502 0166 2A4A     		ldr	r2, .L21+28
 503 0168 1360     		str	r3, [r2]
 425:Generated_Source\PSoC4/cyfitter_cfg.c **** 		CY_SET_REG32((void *)(CYREG_UDB_PA1_CFG8), 0x00080000u);
 504              		.loc 1 425 0
 505 016a 8021     		movs	r1, #128
 506 016c 0903     		lsls	r1, r1, #12
 507 016e 294A     		ldr	r2, .L21+32
 508 0170 1160     		str	r1, [r2]
 426:Generated_Source\PSoC4/cyfitter_cfg.c **** 
 427:Generated_Source\PSoC4/cyfitter_cfg.c **** 		/* UDB_PA_2 Starting address: CYDEV_UDB_PA2_BASE */
 428:Generated_Source\PSoC4/cyfitter_cfg.c **** 		CY_SET_REG32((void *)(CYDEV_UDB_PA2_BASE), 0x00990000u);
 509              		.loc 1 428 0
 510 0172 294A     		ldr	r2, .L21+36
 511 0174 1360     		str	r3, [r2]
 429:Generated_Source\PSoC4/cyfitter_cfg.c **** 		CY_SET_REG32((void *)(CYREG_UDB_PA2_CFG4), 0x80000000u);
 512              		.loc 1 429 0
 513 0176 8021     		movs	r1, #128
 514 0178 0906     		lsls	r1, r1, #24
 515 017a 284A     		ldr	r2, .L21+40
 516 017c 1160     		str	r1, [r2]
 430:Generated_Source\PSoC4/cyfitter_cfg.c **** 
 431:Generated_Source\PSoC4/cyfitter_cfg.c **** 		/* UDB_PA_3 Starting address: CYDEV_UDB_PA3_BASE */
ARM GAS  C:\Users\Intern\AppData\Local\Temp\ccHxiR04.s 			page 18


 432:Generated_Source\PSoC4/cyfitter_cfg.c **** 		CY_SET_REG32((void *)(CYDEV_UDB_PA3_BASE), 0x00990000u);
 517              		.loc 1 432 0
 518 017e 284A     		ldr	r2, .L21+44
 519 0180 1360     		str	r3, [r2]
 433:Generated_Source\PSoC4/cyfitter_cfg.c **** 
 434:Generated_Source\PSoC4/cyfitter_cfg.c **** 		/* Enable UDB array and digital routing */
 435:Generated_Source\PSoC4/cyfitter_cfg.c **** 		CY_SET_XTND_REG8((void *)CYREG_UDB_UDBIF_WAIT_CFG, (uint8)((CY_GET_XTND_REG8((void *)CYREG_UDB_UD
 520              		.loc 1 435 0
 521 0182 2849     		ldr	r1, .L21+48
 522 0184 0B78     		ldrb	r3, [r1]
 523 0186 3C22     		movs	r2, #60
 524 0188 9343     		bics	r3, r2
 525 018a 1422     		movs	r2, #20
 526 018c 1343     		orrs	r3, r2
 527 018e DBB2     		uxtb	r3, r3
 528 0190 0B70     		strb	r3, [r1]
 436:Generated_Source\PSoC4/cyfitter_cfg.c **** 		CY_SET_XTND_REG8((void *)CYREG_UDB_UDBIF_BANK_CTL, (uint8)(CY_GET_XTND_REG8((void *)CYREG_UDB_UDB
 529              		.loc 1 436 0
 530 0192 254A     		ldr	r2, .L21+52
 531 0194 1178     		ldrb	r1, [r2]
 532 0196 1623     		movs	r3, #22
 533 0198 0B43     		orrs	r3, r1
 534 019a DBB2     		uxtb	r3, r3
 535 019c 1370     		strb	r3, [r2]
 536              	.LBE3:
 437:Generated_Source\PSoC4/cyfitter_cfg.c **** 	}
 438:Generated_Source\PSoC4/cyfitter_cfg.c **** 
 439:Generated_Source\PSoC4/cyfitter_cfg.c **** 	/* Perform second pass device configuration. These items must be configured in specific order afte
 440:Generated_Source\PSoC4/cyfitter_cfg.c **** 	/* IOPINS0_0 Starting address: CYDEV_GPIO_PRT0_BASE */
 441:Generated_Source\PSoC4/cyfitter_cfg.c **** 	CY_SET_REG32((void *)(CYDEV_GPIO_PRT0_BASE), 0x00000003u);
 537              		.loc 1 441 0
 538 019e 0322     		movs	r2, #3
 539 01a0 224B     		ldr	r3, .L21+56
 540 01a2 1A60     		str	r2, [r3]
 442:Generated_Source\PSoC4/cyfitter_cfg.c **** 	CY_SET_REG32((void *)(CYREG_GPIO_PRT0_PC), 0x00D80DA4u);
 541              		.loc 1 442 0
 542 01a4 224A     		ldr	r2, .L21+60
 543 01a6 234B     		ldr	r3, .L21+64
 544 01a8 1A60     		str	r2, [r3]
 443:Generated_Source\PSoC4/cyfitter_cfg.c **** 
 444:Generated_Source\PSoC4/cyfitter_cfg.c **** 	/* IOPINS0_1 Starting address: CYDEV_GPIO_PRT1_BASE */
 445:Generated_Source\PSoC4/cyfitter_cfg.c **** 	CY_SET_REG32((void *)(CYDEV_GPIO_PRT1_BASE), 0x00000022u);
 545              		.loc 1 445 0
 546 01aa 2223     		movs	r3, #34
 547 01ac 224A     		ldr	r2, .L21+68
 548 01ae 1360     		str	r3, [r2]
 446:Generated_Source\PSoC4/cyfitter_cfg.c **** 	CY_SET_REG32((void *)(CYREG_GPIO_PRT1_PC), 0x00031000u);
 549              		.loc 1 446 0
 550 01b0 C421     		movs	r1, #196
 551 01b2 8902     		lsls	r1, r1, #10
 552 01b4 214A     		ldr	r2, .L21+72
 553 01b6 1160     		str	r1, [r2]
 447:Generated_Source\PSoC4/cyfitter_cfg.c **** 	CY_SET_REG32((void *)(CYREG_GPIO_PRT1_PC2), 0x00000022u);
 554              		.loc 1 447 0
 555 01b8 214A     		ldr	r2, .L21+76
 556 01ba 1360     		str	r3, [r2]
 448:Generated_Source\PSoC4/cyfitter_cfg.c **** 
ARM GAS  C:\Users\Intern\AppData\Local\Temp\ccHxiR04.s 			page 19


 449:Generated_Source\PSoC4/cyfitter_cfg.c **** 	/* IOPINS0_2 Starting address: CYDEV_GPIO_PRT2_BASE */
 450:Generated_Source\PSoC4/cyfitter_cfg.c **** 	CY_SET_REG32((void *)(CYDEV_GPIO_PRT2_BASE), 0x000000FFu);
 557              		.loc 1 450 0
 558 01bc FF22     		movs	r2, #255
 559 01be 214B     		ldr	r3, .L21+80
 560 01c0 1A60     		str	r2, [r3]
 451:Generated_Source\PSoC4/cyfitter_cfg.c **** 	CY_SET_REG32((void *)(CYREG_GPIO_PRT2_PC), 0x00580000u);
 561              		.loc 1 451 0
 562 01c2 B021     		movs	r1, #176
 563 01c4 C903     		lsls	r1, r1, #15
 564 01c6 204B     		ldr	r3, .L21+84
 565 01c8 1960     		str	r1, [r3]
 452:Generated_Source\PSoC4/cyfitter_cfg.c **** 	CY_SET_REG32((void *)(CYREG_GPIO_PRT2_INTR_CFG), 0x00008000u);
 566              		.loc 1 452 0
 567 01ca 8021     		movs	r1, #128
 568 01cc 0902     		lsls	r1, r1, #8
 569 01ce 1F4B     		ldr	r3, .L21+88
 570 01d0 1960     		str	r1, [r3]
 453:Generated_Source\PSoC4/cyfitter_cfg.c **** 	CY_SET_REG32((void *)(CYREG_GPIO_PRT2_PC2), 0x0000003Fu);
 571              		.loc 1 453 0
 572 01d2 3F23     		movs	r3, #63
 573 01d4 1E49     		ldr	r1, .L21+92
 574 01d6 0B60     		str	r3, [r1]
 454:Generated_Source\PSoC4/cyfitter_cfg.c **** 
 455:Generated_Source\PSoC4/cyfitter_cfg.c **** 	/* IOPINS0_3 Starting address: CYDEV_GPIO_PRT3_BASE */
 456:Generated_Source\PSoC4/cyfitter_cfg.c **** 	CY_SET_REG32((void *)(CYDEV_GPIO_PRT3_BASE), 0x000000FFu);
 575              		.loc 1 456 0
 576 01d8 1E49     		ldr	r1, .L21+96
 577 01da 0A60     		str	r2, [r1]
 457:Generated_Source\PSoC4/cyfitter_cfg.c **** 	CY_SET_REG32((void *)(CYREG_GPIO_PRT3_PC), 0x00D80000u);
 578              		.loc 1 457 0
 579 01dc D821     		movs	r1, #216
 580 01de 0904     		lsls	r1, r1, #16
 581 01e0 1D4A     		ldr	r2, .L21+100
 582 01e2 1160     		str	r1, [r2]
 458:Generated_Source\PSoC4/cyfitter_cfg.c **** 	CY_SET_REG32((void *)(CYREG_GPIO_PRT3_PC2), 0x0000003Fu);
 583              		.loc 1 458 0
 584 01e4 1D4A     		ldr	r2, .L21+104
 585 01e6 1360     		str	r3, [r2]
 459:Generated_Source\PSoC4/cyfitter_cfg.c **** 
 460:Generated_Source\PSoC4/cyfitter_cfg.c **** 
 461:Generated_Source\PSoC4/cyfitter_cfg.c **** 	/* Setup clocks based on selections from Clock DWR */
 462:Generated_Source\PSoC4/cyfitter_cfg.c **** 	ClockSetup();
 586              		.loc 1 462 0
 587 01e8 FFF70AFF 		bl	ClockSetup
 588              	.LVL35:
 463:Generated_Source\PSoC4/cyfitter_cfg.c **** 
 464:Generated_Source\PSoC4/cyfitter_cfg.c **** 	/* Perform basic analog initialization to defaults */
 465:Generated_Source\PSoC4/cyfitter_cfg.c **** 	AnalogSetDefault();
 589              		.loc 1 465 0
 590 01ec FFF7FEFF 		bl	AnalogSetDefault
 591              	.LVL36:
 466:Generated_Source\PSoC4/cyfitter_cfg.c **** 
 467:Generated_Source\PSoC4/cyfitter_cfg.c **** }
 592              		.loc 1 467 0
 593              		@ sp needed
 594              	.LVL37:
ARM GAS  C:\Users\Intern\AppData\Local\Temp\ccHxiR04.s 			page 20


 595 01f0 10BD     		pop	{r4, pc}
 596              	.L22:
 597 01f2 C046     		.align	2
 598              	.L21:
 599 01f4 6CF02E40 		.word	1076818028
 600 01f8 00000000 		.word	.LANCHOR0
 601 01fc EE0000EE 		.word	-301989650
 602 0200 00000240 		.word	1073872896
 603 0204 70009900 		.word	10027120
 604 0208 00010240 		.word	1073873152
 605 020c 00500F40 		.word	1074745344
 606 0210 10500F40 		.word	1074745360
 607 0214 18500F40 		.word	1074745368
 608 0218 20500F40 		.word	1074745376
 609 021c 24500F40 		.word	1074745380
 610 0220 30500F40 		.word	1074745392
 611 0224 01700F40 		.word	1074753537
 612 0228 00700F40 		.word	1074753536
 613 022c 00000440 		.word	1074003968
 614 0230 A40DD800 		.word	14159268
 615 0234 08000440 		.word	1074003976
 616 0238 00010440 		.word	1074004224
 617 023c 08010440 		.word	1074004232
 618 0240 18010440 		.word	1074004248
 619 0244 00020440 		.word	1074004480
 620 0248 08020440 		.word	1074004488
 621 024c 0C020440 		.word	1074004492
 622 0250 18020440 		.word	1074004504
 623 0254 00030440 		.word	1074004736
 624 0258 08030440 		.word	1074004744
 625 025c 18030440 		.word	1074004760
 626              		.cfi_endproc
 627              	.LFE9:
 628              		.size	cyfitter_cfg, .-cyfitter_cfg
 629              		.section	.rodata
 630              		.align	2
 631              		.set	.LANCHOR0,. + 0
 632              		.type	cfg_memset_list.4913, %object
 633              		.size	cfg_memset_list.4913, 12
 634              	cfg_memset_list.4913:
 635 0000 00300F40 		.word	1074737152
 636 0004 0004     		.short	1024
 637 0006 00400F40 		.4byte	1074741248
 638 000a 0004     		.short	1024
 639              		.type	cy_cfg_data_table.4908, %object
 640              		.size	cy_cfg_data_table.4908, 26
 641              	cy_cfg_data_table.4908:
 642 000c 30       		.byte	48
 643 000d 01       		.byte	1
 644 000e 3E       		.byte	62
 645 000f 01       		.byte	1
 646 0010 58       		.byte	88
 647 0011 04       		.byte	4
 648 0012 5F       		.byte	95
 649 0013 01       		.byte	1
 650 0014 1A       		.byte	26
 651 0015 80       		.byte	-128
ARM GAS  C:\Users\Intern\AppData\Local\Temp\ccHxiR04.s 			page 21


 652 0016 AA       		.byte	-86
 653 0017 40       		.byte	64
 654 0018 5B       		.byte	91
 655 0019 40       		.byte	64
 656 001a 9B       		.byte	-101
 657 001b 40       		.byte	64
 658 001c AB       		.byte	-85
 659 001d 40       		.byte	64
 660 001e D4       		.byte	-44
 661 001f 80       		.byte	-128
 662 0020 EE       		.byte	-18
 663 0021 80       		.byte	-128
 664 0022 02       		.byte	2
 665 0023 01       		.byte	1
 666 0024 11       		.byte	17
 667 0025 01       		.byte	1
 668 0026 0000     		.space	2
 669              		.type	cy_cfg_addr_table.4907, %object
 670              		.size	cy_cfg_addr_table.4907, 20
 671              	cy_cfg_addr_table.4907:
 672 0028 04300F40 		.word	1074737156
 673 002c 01310F40 		.word	1074737409
 674 0030 01330F40 		.word	1074737921
 675 0034 05410F40 		.word	1074741509
 676 0038 02600F40 		.word	1074749442
 677              		.text
 678              	.Letext0:
 679              		.file 2 "c:\\program files (x86)\\cypress\\psoc creator\\4.1\\psoc creator\\import\\gnu\\arm\\5.4.
 680              		.file 3 "Generated_Source\\PSoC4\\cytypes.h"
 681              		.file 4 "Generated_Source\\PSoC4\\CyLFClk.h"
 682              		.file 5 "Generated_Source\\PSoC4\\CyLib.h"