ARM GAS  C:\Users\Intern\AppData\Local\Temp\ccjBbyvi.s 			page 1


   1              		.syntax unified
   2              		.cpu cortex-m0
   3              		.fpu softvfp
   4              		.eabi_attribute 20, 1
   5              		.eabi_attribute 21, 1
   6              		.eabi_attribute 23, 3
   7              		.eabi_attribute 24, 1
   8              		.eabi_attribute 25, 1
   9              		.eabi_attribute 26, 1
  10              		.eabi_attribute 30, 1
  11              		.eabi_attribute 34, 0
  12              		.eabi_attribute 18, 4
  13              		.thumb
  14              		.syntax unified
  15              		.file	"sg.c"
  16              		.text
  17              	.Ltext0:
  18              		.cfi_sections	.debug_frame
  19              		.global	__aeabi_ui2f
  20              		.global	__aeabi_fmul
  21              		.section	.text.sg_measure,"ax",%progbits
  22              		.align	2
  23              		.global	sg_measure
  24              		.code	16
  25              		.thumb_func
  26              		.type	sg_measure, %function
  27              	sg_measure:
  28              	.LFB36:
  29              		.file 1 "sg.c"
   1:sg.c          **** #include "sg.h"
   2:sg.c          **** #include "system.h"
   3:sg.c          **** 
   4:sg.c          **** float sg_measure()
   5:sg.c          **** {
  30              		.loc 1 5 0
  31              		.cfi_startproc
  32              		@ args = 0, pretend = 0, frame = 0
  33              		@ frame_needed = 0, uses_anonymous_args = 0
  34 0000 10B5     		push	{r4, lr}
  35              		.cfi_def_cfa_offset 8
  36              		.cfi_offset 4, -8
  37              		.cfi_offset 14, -4
  38              	.LVL0:
   6:sg.c          ****     uint32 sg_channel = 0;
   7:sg.c          **** 
   8:sg.c          ****     float adc_counts_float = (float) adc_acquire_channel(sg_channel);
  39              		.loc 1 8 0
  40 0002 0020     		movs	r0, #0
  41 0004 FFF7FEFF 		bl	adc_acquire_channel
  42              	.LVL1:
  43 0008 FFF7FEFF 		bl	__aeabi_ui2f
  44              	.LVL2:
   9:sg.c          ****     float milli_volts = (adc_counts_float*vdd_calibration)/2048; 
  45              		.loc 1 9 0
  46 000c 044B     		ldr	r3, .L2
  47 000e 1968     		ldr	r1, [r3]
  48 0010 FFF7FEFF 		bl	__aeabi_fmul
ARM GAS  C:\Users\Intern\AppData\Local\Temp\ccjBbyvi.s 			page 2


  49              	.LVL3:
  50 0014 E821     		movs	r1, #232
  51 0016 8905     		lsls	r1, r1, #22
  52 0018 FFF7FEFF 		bl	__aeabi_fmul
  53              	.LVL4:
  10:sg.c          ****     return milli_volts;
  11:sg.c          **** }
  54              		.loc 1 11 0
  55              		@ sp needed
  56 001c 10BD     		pop	{r4, pc}
  57              	.L3:
  58 001e C046     		.align	2
  59              	.L2:
  60 0020 00000000 		.word	vdd_calibration
  61              		.cfi_endproc
  62              	.LFE36:
  63              		.size	sg_measure, .-sg_measure
  64              		.global	__aeabi_fsub
  65              		.global	__aeabi_fdiv
  66              		.section	.text.sg_get_strain,"ax",%progbits
  67              		.align	2
  68              		.global	sg_get_strain
  69              		.code	16
  70              		.thumb_func
  71              		.type	sg_get_strain, %function
  72              	sg_get_strain:
  73              	.LFB37:
  12:sg.c          **** 
  13:sg.c          **** float sg_get_strain()
  14:sg.c          **** {
  74              		.loc 1 14 0
  75              		.cfi_startproc
  76              		@ args = 0, pretend = 0, frame = 0
  77              		@ frame_needed = 0, uses_anonymous_args = 0
  78 0000 70B5     		push	{r4, r5, r6, lr}
  79              		.cfi_def_cfa_offset 16
  80              		.cfi_offset 4, -16
  81              		.cfi_offset 5, -12
  82              		.cfi_offset 6, -8
  83              		.cfi_offset 14, -4
  15:sg.c          ****     float sg_mv = sg_measure(); //Measure Raw ADC value from Strain Guage Port
  84              		.loc 1 15 0
  85 0002 FFF7FEFF 		bl	sg_measure
  86              	.LVL5:
  16:sg.c          ****     float v_out = sg_mv - amp_iov[1] - amp_ibc[1]*sg_resistors[1]; //Get PhotoDiode Voltage, subtra
  87              		.loc 1 16 0
  88 0006 0B4B     		ldr	r3, .L5
  89 0008 5968     		ldr	r1, [r3, #4]
  90 000a FFF7FEFF 		bl	__aeabi_fsub
  91              	.LVL6:
  92 000e 051C     		adds	r5, r0, #0
  93 0010 094B     		ldr	r3, .L5+4
  94 0012 5868     		ldr	r0, [r3, #4]
  95 0014 094C     		ldr	r4, .L5+8
  96 0016 6168     		ldr	r1, [r4, #4]
  97 0018 FFF7FEFF 		bl	__aeabi_fmul
  98              	.LVL7:
ARM GAS  C:\Users\Intern\AppData\Local\Temp\ccjBbyvi.s 			page 3


  99 001c 011C     		adds	r1, r0, #0
 100 001e 281C     		adds	r0, r5, #0
 101 0020 FFF7FEFF 		bl	__aeabi_fsub
 102              	.LVL8:
  17:sg.c          ****     float gain = (1 + 2 * sg_resistors[6] / sg_resistors[8]); //Calculating Gain from Strain Guage 
  18:sg.c          ****     float sg_current = v_out/sg_resistors[2]; //Getting PhotoDiode Current from PhotoDiode Voltage
 103              		.loc 1 18 0
 104 0024 A168     		ldr	r1, [r4, #8]
 105 0026 FFF7FEFF 		bl	__aeabi_fdiv
 106              	.LVL9:
  19:sg.c          ****     float sg_strain = sg_current/sg_resistors[3]; //Getting Power Density from PhotoDiode
 107              		.loc 1 19 0
 108 002a E168     		ldr	r1, [r4, #12]
 109 002c FFF7FEFF 		bl	__aeabi_fdiv
 110              	.LVL10:
  20:sg.c          ****     return sg_strain; //Returning Strain Guage Percent Change(%)
  21:sg.c          **** }
 111              		.loc 1 21 0
 112              		@ sp needed
 113 0030 70BD     		pop	{r4, r5, r6, pc}
 114              	.L6:
 115 0032 C046     		.align	2
 116              	.L5:
 117 0034 00000000 		.word	amp_iov
 118 0038 00000000 		.word	amp_ibc
 119 003c 00000000 		.word	sg_resistors
 120              		.cfi_endproc
 121              	.LFE37:
 122              		.size	sg_get_strain, .-sg_get_strain
 123              		.global	__aeabi_f2d
 124              		.section	.text.sg_get_strain_string,"ax",%progbits
 125              		.align	2
 126              		.global	sg_get_strain_string
 127              		.code	16
 128              		.thumb_func
 129              		.type	sg_get_strain_string, %function
 130              	sg_get_strain_string:
 131              	.LFB38:
  22:sg.c          **** 
  23:sg.c          **** unsigned int sg_get_strain_string(char *sg_strain_string)
  24:sg.c          **** {
 132              		.loc 1 24 0
 133              		.cfi_startproc
 134              		@ args = 0, pretend = 0, frame = 0
 135              		@ frame_needed = 0, uses_anonymous_args = 0
 136              	.LVL11:
 137 0000 10B5     		push	{r4, lr}
 138              		.cfi_def_cfa_offset 8
 139              		.cfi_offset 4, -8
 140              		.cfi_offset 14, -4
 141 0002 0400     		movs	r4, r0
  25:sg.c          ****     float sg_strain = sg_get_strain(); //Returns the Strain Guage Percent Change
 142              		.loc 1 25 0
 143 0004 FFF7FEFF 		bl	sg_get_strain
 144              	.LVL12:
  26:sg.c          ****     sprintf(sg_strain_string, "%.3f", sg_strain); //Places the Float Value of Strain Guage in Strin
 145              		.loc 1 26 0
ARM GAS  C:\Users\Intern\AppData\Local\Temp\ccjBbyvi.s 			page 4


 146 0008 FFF7FEFF 		bl	__aeabi_f2d
 147              	.LVL13:
 148 000c 0200     		movs	r2, r0
 149 000e 0B00     		movs	r3, r1
 150 0010 0449     		ldr	r1, .L8
 151 0012 2000     		movs	r0, r4
 152 0014 FFF7FEFF 		bl	sprintf
 153              	.LVL14:
  27:sg.c          ****     sg_strain_string[5] = '\n'; //Places a new line character in the last spot in the array
 154              		.loc 1 27 0
 155 0018 0A23     		movs	r3, #10
 156 001a 6371     		strb	r3, [r4, #5]
  28:sg.c          ****     
  29:sg.c          ****     unsigned int sg_l = strlen(sg_strain_string); //Gets the length of the Character Vector
 157              		.loc 1 29 0
 158 001c 2000     		movs	r0, r4
 159 001e FFF7FEFF 		bl	strlen
 160              	.LVL15:
  30:sg.c          ****     return sg_l; //Returns the Length of the Character Vector
  31:sg.c          ****     
  32:sg.c          **** }
 161              		.loc 1 32 0
 162              		@ sp needed
 163              	.LVL16:
 164 0022 10BD     		pop	{r4, pc}
 165              	.L9:
 166              		.align	2
 167              	.L8:
 168 0024 00000000 		.word	.LC4
 169              		.cfi_endproc
 170              	.LFE38:
 171              		.size	sg_get_strain_string, .-sg_get_strain_string
 172              		.section	.text.sg_uart,"ax",%progbits
 173              		.align	2
 174              		.global	sg_uart
 175              		.code	16
 176              		.thumb_func
 177              		.type	sg_uart, %function
 178              	sg_uart:
 179              	.LFB39:
  33:sg.c          **** 
  34:sg.c          **** void sg_uart()
  35:sg.c          **** {
 180              		.loc 1 35 0
 181              		.cfi_startproc
 182              		@ args = 0, pretend = 0, frame = 8
 183              		@ frame_needed = 0, uses_anonymous_args = 0
 184 0000 30B5     		push	{r4, r5, lr}
 185              		.cfi_def_cfa_offset 12
 186              		.cfi_offset 4, -12
 187              		.cfi_offset 5, -8
 188              		.cfi_offset 14, -4
 189 0002 83B0     		sub	sp, sp, #12
 190              		.cfi_def_cfa_offset 24
  36:sg.c          ****     char sg_strain_string[6]; //Initializes the Character Array
  37:sg.c          ****     unsigned int sg_l = sg_get_strain_string(sg_strain_string); //Places the strain guage percent c
 191              		.loc 1 37 0
ARM GAS  C:\Users\Intern\AppData\Local\Temp\ccjBbyvi.s 			page 5


 192 0004 6846     		mov	r0, sp
 193 0006 FFF7FEFF 		bl	sg_get_strain_string
 194              	.LVL17:
 195 000a 0500     		movs	r5, r0
 196              	.LVL18:
 197              	.LBB2:
  38:sg.c          ****     //Sends the Value over UART
  39:sg.c          ****     for(unsigned int i = 0; i<sg_l; i++)
 198              		.loc 1 39 0
 199 000c 0024     		movs	r4, #0
 200 000e 04E0     		b	.L11
 201              	.LVL19:
 202              	.L12:
  40:sg.c          ****     {
  41:sg.c          ****         UART_UartPutChar(sg_strain_string[i]);           
 203              		.loc 1 41 0 discriminator 3
 204 0010 6B46     		mov	r3, sp
 205 0012 185D     		ldrb	r0, [r3, r4]
 206 0014 FFF7FEFF 		bl	UART_SpiUartWriteTxData
 207              	.LVL20:
  39:sg.c          ****     {
 208              		.loc 1 39 0 discriminator 3
 209 0018 0134     		adds	r4, r4, #1
 210              	.LVL21:
 211              	.L11:
  39:sg.c          ****     {
 212              		.loc 1 39 0 is_stmt 0 discriminator 1
 213 001a AC42     		cmp	r4, r5
 214 001c F8D3     		bcc	.L12
 215              	.LBE2:
  42:sg.c          ****     }
  43:sg.c          **** }
 216              		.loc 1 43 0 is_stmt 1
 217 001e 03B0     		add	sp, sp, #12
 218              		@ sp needed
 219              	.LVL22:
 220              	.LVL23:
 221 0020 30BD     		pop	{r4, r5, pc}
 222              		.cfi_endproc
 223              	.LFE39:
 224              		.size	sg_uart, .-sg_uart
 225 0022 C046     		.section	.rodata.str1.4,"aMS",%progbits,1
 226              		.align	2
 227              	.LC4:
 228 0000 252E3366 		.ascii	"%.3f\000"
 228      00
 229              		.text
 230              	.Letext0:
 231              		.file 2 "system.h"
 232              		.file 3 "c:\\program files (x86)\\cypress\\psoc creator\\4.1\\psoc creator\\import\\gnu\\arm\\5.4.
 233              		.file 4 "c:\\program files (x86)\\cypress\\psoc creator\\4.1\\psoc creator\\import\\gnu\\arm\\5.4.
 234              		.file 5 "Generated_Source\\PSoC4/UART_SPI_UART.h"
 235              		.file 6 "Generated_Source\\PSoC4/cytypes.h"