ARM GAS  C:\Users\Intern\AppData\Local\Temp\ccDosaP8.s 			page 1


   1              		.syntax unified
   2              		.cpu cortex-m0
   3              		.fpu softvfp
   4              		.eabi_attribute 20, 1
   5              		.eabi_attribute 21, 1
   6              		.eabi_attribute 23, 3
   7              		.eabi_attribute 24, 1
   8              		.eabi_attribute 25, 1
   9              		.eabi_attribute 26, 1
  10              		.eabi_attribute 30, 1
  11              		.eabi_attribute 34, 0
  12              		.eabi_attribute 18, 4
  13              		.thumb
  14              		.syntax unified
  15              		.file	"tmp116.c"
  16              		.text
  17              	.Ltext0:
  18              		.cfi_sections	.debug_frame
  19              		.global	__aeabi_ui2f
  20              		.global	__aeabi_fmul
  21              		.global	__aeabi_fdiv
  22              		.section	.text.tmp116_get_celsius,"ax",%progbits
  23              		.align	2
  24              		.global	tmp116_get_celsius
  25              		.code	16
  26              		.thumb_func
  27              		.type	tmp116_get_celsius, %function
  28              	tmp116_get_celsius:
  29              	.LFB36:
  30              		.file 1 "tmp116.c"
   1:tmp116.c      **** #include "tmp116.h"
   2:tmp116.c      **** #include "system.h"
   3:tmp116.c      **** 
   4:tmp116.c      **** float tmp116_get_celsius(void)
   5:tmp116.c      **** {
  31              		.loc 1 5 0
  32              		.cfi_startproc
  33              		@ args = 0, pretend = 0, frame = 8
  34              		@ frame_needed = 0, uses_anonymous_args = 0
  35 0000 00B5     		push	{lr}
  36              		.cfi_def_cfa_offset 4
  37              		.cfi_offset 14, -4
  38 0002 83B0     		sub	sp, sp, #12
  39              		.cfi_def_cfa_offset 16
  40              	.L2:
   6:tmp116.c      ****     float reg_cels_conv = 7812.5; //1 Register unit = 0.0078125 Celcius
   7:tmp116.c      ****     uint32 tmp116_gnd_add = 0x48; //Slave Address for TMP116, ADD0 = GND
   8:tmp116.c      ****     uint8 i2c_reg_counts[2];
   9:tmp116.c      ****     uint32 i2c_byte_count = 2; //Number of bytes of buffer to read
  10:tmp116.c      ****     uint32 i2c_mode = I2C_TMP116_I2C_MODE_COMPLETE_XFER; //Transfer Mode Possibilities
  11:tmp116.c      ****     uint32 i2c_error;
  12:tmp116.c      ****     
  13:tmp116.c      ****     do
  14:tmp116.c      ****     {
  15:tmp116.c      ****         i2c_error = I2C_TMP116_I2CMasterReadBuf(tmp116_gnd_add, i2c_reg_counts, i2c_byte_count, i2c
  41              		.loc 1 15 0 discriminator 1
  42 0004 0023     		movs	r3, #0
ARM GAS  C:\Users\Intern\AppData\Local\Temp\ccDosaP8.s 			page 2


  43 0006 0222     		movs	r2, #2
  44 0008 01A9     		add	r1, sp, #4
  45 000a 4820     		movs	r0, #72
  46 000c FFF7FEFF 		bl	I2C_TMP116_I2CMasterReadBuf
  47              	.LVL0:
  16:tmp116.c      ****     }
  17:tmp116.c      ****     while(i2c_error != I2C_TMP116_I2C_MSTR_NO_ERROR);
  48              		.loc 1 17 0 discriminator 1
  49 0010 0028     		cmp	r0, #0
  50 0012 F7D1     		bne	.L2
  51              	.LVL1:
  52              	.L3:
  18:tmp116.c      ****     
  19:tmp116.c      ****     /* Wait for the data transfer to complete */
  20:tmp116.c      ****     while(I2C_TMP116_I2CMasterStatus() & I2C_TMP116_I2C_MSTAT_XFER_INP);    
  53              		.loc 1 20 0 discriminator 1
  54 0014 FFF7FEFF 		bl	I2C_TMP116_I2CMasterStatus
  55              	.LVL2:
  56 0018 4307     		lsls	r3, r0, #29
  57 001a FBD4     		bmi	.L3
  21:tmp116.c      ****         
  22:tmp116.c      ****        
  23:tmp116.c      ****     /* Clear Read Complete Status bit */
  24:tmp116.c      ****     I2C_TMP116_I2CMasterClearStatus();
  58              		.loc 1 24 0
  59 001c FFF7FEFF 		bl	I2C_TMP116_I2CMasterClearStatus
  60              	.LVL3:
  25:tmp116.c      ****     I2C_TMP116_I2CMasterClearReadBuf();
  61              		.loc 1 25 0
  62 0020 FFF7FEFF 		bl	I2C_TMP116_I2CMasterClearReadBuf
  63              	.LVL4:
  26:tmp116.c      ****     
  27:tmp116.c      ****     uint16 i2c_counts =  (i2c_reg_counts[0] << 8) | i2c_reg_counts[1];
  64              		.loc 1 27 0
  65 0024 01AB     		add	r3, sp, #4
  66 0026 1878     		ldrb	r0, [r3]
  67 0028 0002     		lsls	r0, r0, #8
  68 002a 5B78     		ldrb	r3, [r3, #1]
  69 002c 1843     		orrs	r0, r3
  70              	.LVL5:
  28:tmp116.c      ****     float celsius_counts = (float) i2c_counts;
  71              		.loc 1 28 0
  72 002e FFF7FEFF 		bl	__aeabi_ui2f
  73              	.LVL6:
  29:tmp116.c      ****     float tmp116_celsius = reg_cels_conv*celsius_counts/1000000;
  74              		.loc 1 29 0
  75 0032 0449     		ldr	r1, .L4
  76 0034 FFF7FEFF 		bl	__aeabi_fmul
  77              	.LVL7:
  78 0038 0349     		ldr	r1, .L4+4
  79 003a FFF7FEFF 		bl	__aeabi_fdiv
  80              	.LVL8:
  30:tmp116.c      ****     return tmp116_celsius;
  31:tmp116.c      **** }
  81              		.loc 1 31 0
  82 003e 03B0     		add	sp, sp, #12
  83              		@ sp needed
ARM GAS  C:\Users\Intern\AppData\Local\Temp\ccDosaP8.s 			page 3


  84 0040 00BD     		pop	{pc}
  85              	.L5:
  86 0042 C046     		.align	2
  87              	.L4:
  88 0044 0024F445 		.word	1173627904
  89 0048 00247449 		.word	1232348160
  90              		.cfi_endproc
  91              	.LFE36:
  92              		.size	tmp116_get_celsius, .-tmp116_get_celsius
  93              		.global	__aeabi_f2d
  94              		.section	.text.tmp116_string_celsius,"ax",%progbits
  95              		.align	2
  96              		.global	tmp116_string_celsius
  97              		.code	16
  98              		.thumb_func
  99              		.type	tmp116_string_celsius, %function
 100              	tmp116_string_celsius:
 101              	.LFB37:
  32:tmp116.c      **** 
  33:tmp116.c      **** unsigned int tmp116_string_celsius(char *tmp116_temperature)
  34:tmp116.c      **** {
 102              		.loc 1 34 0
 103              		.cfi_startproc
 104              		@ args = 0, pretend = 0, frame = 0
 105              		@ frame_needed = 0, uses_anonymous_args = 0
 106              	.LVL9:
 107 0000 10B5     		push	{r4, lr}
 108              		.cfi_def_cfa_offset 8
 109              		.cfi_offset 4, -8
 110              		.cfi_offset 14, -4
 111 0002 0400     		movs	r4, r0
  35:tmp116.c      ****     float int_temp = tmp116_get_celsius();
 112              		.loc 1 35 0
 113 0004 FFF7FEFF 		bl	tmp116_get_celsius
 114              	.LVL10:
  36:tmp116.c      ****     sprintf(tmp116_temperature, "%.3f", int_temp);
 115              		.loc 1 36 0
 116 0008 FFF7FEFF 		bl	__aeabi_f2d
 117              	.LVL11:
 118 000c 0200     		movs	r2, r0
 119 000e 0B00     		movs	r3, r1
 120 0010 0449     		ldr	r1, .L7
 121 0012 2000     		movs	r0, r4
 122 0014 FFF7FEFF 		bl	sprintf
 123              	.LVL12:
  37:tmp116.c      ****     
  38:tmp116.c      ****     tmp116_temperature[5] = '\n';
 124              		.loc 1 38 0
 125 0018 0A23     		movs	r3, #10
 126 001a 6371     		strb	r3, [r4, #5]
  39:tmp116.c      ****     
  40:tmp116.c      ****     unsigned int temp_l = strlen(tmp116_temperature);
 127              		.loc 1 40 0
 128 001c 2000     		movs	r0, r4
 129 001e FFF7FEFF 		bl	strlen
 130              	.LVL13:
  41:tmp116.c      ****     return temp_l;
ARM GAS  C:\Users\Intern\AppData\Local\Temp\ccDosaP8.s 			page 4


  42:tmp116.c      **** }
 131              		.loc 1 42 0
 132              		@ sp needed
 133              	.LVL14:
 134 0022 10BD     		pop	{r4, pc}
 135              	.L8:
 136              		.align	2
 137              	.L7:
 138 0024 00000000 		.word	.LC0
 139              		.cfi_endproc
 140              	.LFE37:
 141              		.size	tmp116_string_celsius, .-tmp116_string_celsius
 142              		.section	.text.tmp116_uart,"ax",%progbits
 143              		.align	2
 144              		.global	tmp116_uart
 145              		.code	16
 146              		.thumb_func
 147              		.type	tmp116_uart, %function
 148              	tmp116_uart:
 149              	.LFB38:
  43:tmp116.c      **** 
  44:tmp116.c      **** void tmp116_uart(void)
  45:tmp116.c      **** {
 150              		.loc 1 45 0
 151              		.cfi_startproc
 152              		@ args = 0, pretend = 0, frame = 8
 153              		@ frame_needed = 0, uses_anonymous_args = 0
 154 0000 30B5     		push	{r4, r5, lr}
 155              		.cfi_def_cfa_offset 12
 156              		.cfi_offset 4, -12
 157              		.cfi_offset 5, -8
 158              		.cfi_offset 14, -4
 159 0002 83B0     		sub	sp, sp, #12
 160              		.cfi_def_cfa_offset 24
  46:tmp116.c      ****     char tmp116_temperature[6];
  47:tmp116.c      ****     unsigned int temp_tmp116_l = tmp116_string_celsius(tmp116_temperature);
 161              		.loc 1 47 0
 162 0004 6846     		mov	r0, sp
 163 0006 FFF7FEFF 		bl	tmp116_string_celsius
 164              	.LVL15:
 165 000a 0500     		movs	r5, r0
 166              	.LVL16:
 167              	.LBB2:
  48:tmp116.c      ****     for(unsigned int i = 0; i<temp_tmp116_l; i++)
 168              		.loc 1 48 0
 169 000c 0024     		movs	r4, #0
 170 000e 04E0     		b	.L10
 171              	.LVL17:
 172              	.L11:
  49:tmp116.c      ****     {
  50:tmp116.c      ****         UART_UartPutChar(tmp116_temperature[i]);           
 173              		.loc 1 50 0 discriminator 3
 174 0010 6B46     		mov	r3, sp
 175 0012 185D     		ldrb	r0, [r3, r4]
 176 0014 FFF7FEFF 		bl	UART_SpiUartWriteTxData
 177              	.LVL18:
  48:tmp116.c      ****     for(unsigned int i = 0; i<temp_tmp116_l; i++)
ARM GAS  C:\Users\Intern\AppData\Local\Temp\ccDosaP8.s 			page 5


 178              		.loc 1 48 0 discriminator 3
 179 0018 0134     		adds	r4, r4, #1
 180              	.LVL19:
 181              	.L10:
  48:tmp116.c      ****     for(unsigned int i = 0; i<temp_tmp116_l; i++)
 182              		.loc 1 48 0 is_stmt 0 discriminator 1
 183 001a AC42     		cmp	r4, r5
 184 001c F8D3     		bcc	.L11
 185              	.LBE2:
  51:tmp116.c      ****     }
  52:tmp116.c      **** }...
 186              		.loc 1 52 0 is_stmt 1
 187 001e 03B0     		add	sp, sp, #12
 188              		@ sp needed
 189              	.LVL20:
 190              	.LVL21:
 191 0020 30BD     		pop	{r4, r5, pc}
 192              		.cfi_endproc
 193              	.LFE38:
 194              		.size	tmp116_uart, .-tmp116_uart
 195 0022 C046     		.section	.rodata.str1.4,"aMS",%progbits,1
 196              		.align	2
 197              	.LC0:
 198 0000 252E3366 		.ascii	"%.3f\000"
 198      00
 199              		.text
 200              	.Letext0:
 201              		.file 2 "Generated_Source\\PSoC4/cytypes.h"
 202              		.file 3 "Generated_Source\\PSoC4/I2C_TMP116_I2C.h"
 203              		.file 4 "c:\\program files (x86)\\cypress\\psoc creator\\4.1\\psoc creator\\import\\gnu\\arm\\5.4.
 204              		.file 5 "c:\\program files (x86)\\cypress\\psoc creator\\4.1\\psoc creator\\import\\gnu\\arm\\5.4.
 205              		.file 6 "Generated_Source\\PSoC4/UART_SPI_UART.h"