ARM GAS  C:\Users\Intern\AppData\Local\Temp\ccCbvh7T.s 			page 1


   1              		.syntax unified
   2              		.cpu cortex-m0
   3              		.fpu softvfp
   4              		.eabi_attribute 20, 1
   5              		.eabi_attribute 21, 1
   6              		.eabi_attribute 23, 3
   7              		.eabi_attribute 24, 1
   8              		.eabi_attribute 25, 1
   9              		.eabi_attribute 26, 1
  10              		.eabi_attribute 30, 1
  11              		.eabi_attribute 34, 0
  12              		.eabi_attribute 18, 4
  13              		.thumb
  14              		.syntax unified
  15              		.file	"watchdog.c"
  16              		.text
  17              	.Ltext0:
  18              		.cfi_sections	.debug_frame
  19              		.section	.text.watchdog_init,"ax",%progbits
  20              		.align	2
  21              		.code	16
  22              		.thumb_func
  23              		.type	watchdog_init, %function
  24              	watchdog_init:
  25              	.LFB36:
  26              		.file 1 "watchdog.c"
   1:watchdog.c    **** #include "watchdog.h"
   2:watchdog.c    **** 
   3:watchdog.c    **** 
   4:watchdog.c    **** #define NOTIFY_EVERY_N_SECONDS 1800
   5:watchdog.c    **** 
   6:watchdog.c    **** 
   7:watchdog.c    **** static volatile int watchdog_get_up = 0;
   8:watchdog.c    **** static volatile unsigned int watchdog_counter = 0xFFFFFFE1;
   9:watchdog.c    **** 
  10:watchdog.c    **** 
  11:watchdog.c    **** CY_ISR(watchdog_interrupt_handler)
  12:watchdog.c    **** {
  13:watchdog.c    ****     //watchdog_interrupt_ClearPending();
  14:watchdog.c    ****     CySysWdtClearInterrupt(CY_SYS_WDT_COUNTER0_INT);
  15:watchdog.c    ****     if ((watchdog_counter++ % (NOTIFY_EVERY_N_SECONDS/2)) == 0) { watchdog_get_up = 1; }
  16:watchdog.c    **** }
  17:watchdog.c    **** 
  18:watchdog.c    **** 
  19:watchdog.c    **** static void watchdog_init(void)
  20:watchdog.c    **** {
  27              		.loc 1 20 0
  28              		.cfi_startproc
  29              		@ args = 0, pretend = 0, frame = 0
  30              		@ frame_needed = 0, uses_anonymous_args = 0
  31              		@ link register save eliminated.
  21:watchdog.c    ****     //watchdog_interrupt_StartEx(watchdog_interrupt_handler);    
  22:watchdog.c    **** }
  32              		.loc 1 22 0
  33              		@ sp needed
  34 0000 7047     		bx	lr
  35              		.cfi_endproc
ARM GAS  C:\Users\Intern\AppData\Local\Temp\ccCbvh7T.s 			page 2


  36              	.LFE36:
  37              		.size	watchdog_init, .-watchdog_init
  38 0002 C046     		.section	.text.watchdog_is_up,"ax",%progbits
  39              		.align	2
  40              		.code	16
  41              		.thumb_func
  42              		.type	watchdog_is_up, %function
  43              	watchdog_is_up:
  44              	.LFB39:
  23:watchdog.c    **** 
  24:watchdog.c    **** 
  25:watchdog.c    **** static void watchdog_start(void)
  26:watchdog.c    **** {
  27:watchdog.c    ****     CySysWdtEnable(CY_SYS_WDT_COUNTER0_MASK);
  28:watchdog.c    **** }
  29:watchdog.c    **** 
  30:watchdog.c    **** 
  31:watchdog.c    **** static void watchdog_stop(void)
  32:watchdog.c    **** {
  33:watchdog.c    ****     CySysWdtDisable(CY_SYS_WDT_COUNTER0_MASK);
  34:watchdog.c    **** }
  35:watchdog.c    **** 
  36:watchdog.c    **** 
  37:watchdog.c    **** static int watchdog_is_up(void)
  38:watchdog.c    **** {
  45              		.loc 1 38 0
  46              		.cfi_startproc
  47              		@ args = 0, pretend = 0, frame = 0
  48              		@ frame_needed = 0, uses_anonymous_args = 0
  49              		@ link register save eliminated.
  39:watchdog.c    ****     if (watchdog_get_up == 1) { watchdog_get_up = 0; return 1; }
  50              		.loc 1 39 0
  51 0000 044B     		ldr	r3, .L5
  52 0002 1868     		ldr	r0, [r3]
  53 0004 0128     		cmp	r0, #1
  54 0006 02D1     		bne	.L4
  55              		.loc 1 39 0 is_stmt 0 discriminator 1
  56 0008 0022     		movs	r2, #0
  57 000a 1A60     		str	r2, [r3]
  58 000c 00E0     		b	.L3
  59              	.L4:
  40:watchdog.c    ****     else { return 0; }
  60              		.loc 1 40 0 is_stmt 1
  61 000e 0020     		movs	r0, #0
  62              	.L3:
  41:watchdog.c    **** }
  63              		.loc 1 41 0
  64              		@ sp needed
  65 0010 7047     		bx	lr
  66              	.L6:
  67 0012 C046     		.align	2
  68              	.L5:
  69 0014 00000000 		.word	.LANCHOR0
  70              		.cfi_endproc
  71              	.LFE39:
  72              		.size	watchdog_is_up, .-watchdog_is_up
  73              		.section	.text.watchdog_stop,"ax",%progbits
ARM GAS  C:\Users\Intern\AppData\Local\Temp\ccCbvh7T.s 			page 3


  74              		.align	2
  75              		.code	16
  76              		.thumb_func
  77              		.type	watchdog_stop, %function
  78              	watchdog_stop:
  79              	.LFB38:
  32:watchdog.c    ****     CySysWdtDisable(CY_SYS_WDT_COUNTER0_MASK);
  80              		.loc 1 32 0
  81              		.cfi_startproc
  82              		@ args = 0, pretend = 0, frame = 0
  83              		@ frame_needed = 0, uses_anonymous_args = 0
  84 0000 10B5     		push	{r4, lr}
  85              		.cfi_def_cfa_offset 8
  86              		.cfi_offset 4, -8
  87              		.cfi_offset 14, -4
  33:watchdog.c    **** }
  88              		.loc 1 33 0
  89 0002 0120     		movs	r0, #1
  90 0004 FFF7FEFF 		bl	CySysWdtDisable
  91              	.LVL0:
  34:watchdog.c    **** 
  92              		.loc 1 34 0
  93              		@ sp needed
  94 0008 10BD     		pop	{r4, pc}
  95              		.cfi_endproc
  96              	.LFE38:
  97              		.size	watchdog_stop, .-watchdog_stop
  98              		.section	.text.watchdog_start,"ax",%progbits
  99              		.align	2
 100              		.code	16
 101              		.thumb_func
 102              		.type	watchdog_start, %function
 103              	watchdog_start:
 104              	.LFB37:
  26:watchdog.c    ****     CySysWdtEnable(CY_SYS_WDT_COUNTER0_MASK);
 105              		.loc 1 26 0
 106              		.cfi_startproc
 107              		@ args = 0, pretend = 0, frame = 0
 108              		@ frame_needed = 0, uses_anonymous_args = 0
 109 0000 10B5     		push	{r4, lr}
 110              		.cfi_def_cfa_offset 8
 111              		.cfi_offset 4, -8
 112              		.cfi_offset 14, -4
  27:watchdog.c    **** }
 113              		.loc 1 27 0
 114 0002 0120     		movs	r0, #1
 115 0004 FFF7FEFF 		bl	CySysWdtEnable
 116              	.LVL1:
  28:watchdog.c    **** 
 117              		.loc 1 28 0
 118              		@ sp needed
 119 0008 10BD     		pop	{r4, pc}
 120              		.cfi_endproc
 121              	.LFE37:
 122              		.size	watchdog_start, .-watchdog_start
 123              		.global	__aeabi_uidivmod
 124 000a C046     		.section	.text.watchdog_interrupt_handler,"ax",%progbits
ARM GAS  C:\Users\Intern\AppData\Local\Temp\ccCbvh7T.s 			page 4


 125              		.align	2
 126              		.global	watchdog_interrupt_handler
 127              		.code	16
 128              		.thumb_func
 129              		.type	watchdog_interrupt_handler, %function
 130              	watchdog_interrupt_handler:
 131              	.LFB35:
  12:watchdog.c    ****     //watchdog_interrupt_ClearPending();
 132              		.loc 1 12 0
 133              		.cfi_startproc
 134              		@ args = 0, pretend = 0, frame = 0
 135              		@ frame_needed = 0, uses_anonymous_args = 0
 136 0000 10B5     		push	{r4, lr}
 137              		.cfi_def_cfa_offset 8
 138              		.cfi_offset 4, -8
 139              		.cfi_offset 14, -4
  14:watchdog.c    ****     if ((watchdog_counter++ % (NOTIFY_EVERY_N_SECONDS/2)) == 0) { watchdog_get_up = 1; }
 140              		.loc 1 14 0
 141 0002 0420     		movs	r0, #4
 142 0004 FFF7FEFF 		bl	CySysWdtClearInterrupt
 143              	.LVL2:
  15:watchdog.c    **** }
 144              		.loc 1 15 0
 145 0008 064B     		ldr	r3, .L11
 146 000a 1868     		ldr	r0, [r3]
 147 000c 421C     		adds	r2, r0, #1
 148 000e 1A60     		str	r2, [r3]
 149 0010 E121     		movs	r1, #225
 150 0012 8900     		lsls	r1, r1, #2
 151 0014 FFF7FEFF 		bl	__aeabi_uidivmod
 152              	.LVL3:
 153 0018 0029     		cmp	r1, #0
 154 001a 02D1     		bne	.L9
  15:watchdog.c    **** }
 155              		.loc 1 15 0 is_stmt 0 discriminator 1
 156 001c 0122     		movs	r2, #1
 157 001e 024B     		ldr	r3, .L11+4
 158 0020 1A60     		str	r2, [r3]
 159              	.L9:
  16:watchdog.c    **** 
 160              		.loc 1 16 0 is_stmt 1
 161              		@ sp needed
 162 0022 10BD     		pop	{r4, pc}
 163              	.L12:
 164              		.align	2
 165              	.L11:
 166 0024 00000000 		.word	.LANCHOR1
 167 0028 00000000 		.word	.LANCHOR0
 168              		.cfi_endproc
 169              	.LFE35:
 170              		.size	watchdog_interrupt_handler, .-watchdog_interrupt_handler
 171              		.global	watchdog
 172              		.global	watchdog_table
 173              		.section	.rodata
 174              		.align	2
 175              		.type	watchdog, %object
 176              		.size	watchdog, 4
ARM GAS  C:\Users\Intern\AppData\Local\Temp\ccCbvh7T.s 			page 5


 177              	watchdog:
 178 0000 00000000 		.word	watchdog_table
 179              		.type	watchdog_table, %object
 180              		.size	watchdog_table, 16
 181              	watchdog_table:
 182 0004 00000000 		.word	watchdog_init
 183 0008 00000000 		.word	watchdog_start
 184 000c 00000000 		.word	watchdog_stop
 185 0010 00000000 		.word	watchdog_is_up
 186              		.data
 187              		.align	2
 188              		.set	.LANCHOR1,. + 0
 189              		.type	watchdog_counter, %object
 190              		.size	watchdog_counter, 4
 191              	watchdog_counter:
 192 0000 E1FFFFFF 		.word	-31
 193              		.bss
 194              		.align	2
 195              		.set	.LANCHOR0,. + 0
 196              		.type	watchdog_get_up, %object
 197              		.size	watchdog_get_up, 4
 198              	watchdog_get_up:
 199 0000 00000000 		.space	4
 200              		.text
 201              	.Letext0:
 202              		.file 2 "Generated_Source\\PSoC4/BLE_Stack.h"
 203              		.file 3 "Generated_Source\\PSoC4/BLE_ans.h"
 204              		.file 4 "watchdog.h"
 205              		.file 5 "Generated_Source\\PSoC4/cytypes.h"
 206              		.file 6 "Generated_Source\\PSoC4/CyLFClk.h"