ARM GAS  C:\Users\Intern\AppData\Local\Temp\ccJgbzfw.s 			page 1


   1              		.syntax unified
   2              		.cpu cortex-m0
   3              		.fpu softvfp
   4              		.eabi_attribute 20, 1
   5              		.eabi_attribute 21, 1
   6              		.eabi_attribute 23, 3
   7              		.eabi_attribute 24, 1
   8              		.eabi_attribute 25, 1
   9              		.eabi_attribute 26, 1
  10              		.eabi_attribute 30, 6
  11              		.eabi_attribute 34, 0
  12              		.eabi_attribute 18, 4
  13              		.thumb
  14              		.syntax unified
  15              		.file	"ias.c"
  16              		.text
  17              	.Ltext0:
  18              		.cfi_sections	.debug_frame
  19              		.global	alertLevel
  20              		.bss
  21              		.type	alertLevel, %object
  22              		.size	alertLevel, 1
  23              	alertLevel:
  24 0000 00       		.space	1
  25              		.section	.text.IasEventHandler,"ax",%progbits
  26              		.align	2
  27              		.global	IasEventHandler
  28              		.code	16
  29              		.thumb_func
  30              		.type	IasEventHandler, %function
  31              	IasEventHandler:
  32              	.LFB35:
  33              		.file 1 "ias.c"
   1:ias.c         **** /*******************************************************************************
   2:ias.c         **** * File Name: ias.c
   3:ias.c         **** *
   4:ias.c         **** * Description:
   5:ias.c         **** *  This file contains Immediate Alert Service callback handler function.
   6:ias.c         **** * 
   7:ias.c         **** ********************************************************************************
   8:ias.c         **** * Copyright 2016, Cypress Semiconductor Corporation.  All rights reserved.
   9:ias.c         **** * You may use this file only in accordance with the license, terms, conditions,
  10:ias.c         **** * disclaimers, and limitations in the end user license agreement accompanying
  11:ias.c         **** * the software package with which this file was provided.
  12:ias.c         **** *******************************************************************************/
  13:ias.c         **** 
  14:ias.c         **** #include <project.h>
  15:ias.c         **** #include "ias.h"
  16:ias.c         **** 
  17:ias.c         **** /* IAS alert level value */
  18:ias.c         **** uint8 alertLevel = 0;
  19:ias.c         **** 
  20:ias.c         **** /*******************************************************************************
  21:ias.c         **** * Function Name: IasEventHandler
  22:ias.c         **** ********************************************************************************
  23:ias.c         **** *
  24:ias.c         **** * Summary:
ARM GAS  C:\Users\Intern\AppData\Local\Temp\ccJgbzfw.s 			page 2


  25:ias.c         **** *  This is an event callback function to receive events from the BLE Component,
  26:ias.c         **** *  which are specific to Immediate Alert Service.
  27:ias.c         **** *
  28:ias.c         **** * Parameters:
  29:ias.c         **** *  uint8 event:       Write Command event from the CYBLE component.
  30:ias.c         **** *  void* eventParams: A structure instance of CYBLE_GATT_HANDLE_VALUE_PAIR_T
  31:ias.c         **** *                     type.
  32:ias.c         **** *
  33:ias.c         **** * Return:
  34:ias.c         **** *  None
  35:ias.c         **** *
  36:ias.c         **** *******************************************************************************/
  37:ias.c         **** void IasEventHandler(uint32 event, void *eventParam)
  38:ias.c         **** {
  34              		.loc 1 38 0
  35              		.cfi_startproc
  36              		@ args = 0, pretend = 0, frame = 8
  37              		@ frame_needed = 1, uses_anonymous_args = 0
  38 0000 80B5     		push	{r7, lr}
  39              		.cfi_def_cfa_offset 8
  40              		.cfi_offset 7, -8
  41              		.cfi_offset 14, -4
  42 0002 82B0     		sub	sp, sp, #8
  43              		.cfi_def_cfa_offset 16
  44 0004 00AF     		add	r7, sp, #0
  45              		.cfi_def_cfa_register 7
  46 0006 7860     		str	r0, [r7, #4]
  47 0008 3960     		str	r1, [r7]
  39:ias.c         ****     /* Alert Level Characteristic write event */
  40:ias.c         ****     if(event == CYBLE_EVT_IASS_WRITE_CHAR_CMD)
  48              		.loc 1 40 0
  49 000a 7A68     		ldr	r2, [r7, #4]
  50 000c DE23     		movs	r3, #222
  51 000e 5B00     		lsls	r3, r3, #1
  52 0010 9A42     		cmp	r2, r3
  53 0012 05D1     		bne	.L3
  41:ias.c         ****     {
  42:ias.c         ****         /* Read the updated Alert Level value from the GATT database */
  43:ias.c         ****         CyBle_IassGetCharacteristicValue(CYBLE_IAS_ALERT_LEVEL, 
  54              		.loc 1 43 0
  55 0014 044B     		ldr	r3, .L4
  56 0016 1A00     		movs	r2, r3
  57 0018 0121     		movs	r1, #1
  58 001a 0020     		movs	r0, #0
  59 001c FFF7FEFF 		bl	CyBle_IassGetCharacteristicValue
  60              	.L3:
  44:ias.c         ****             sizeof(alertLevel), &alertLevel);
  45:ias.c         ****     }
  46:ias.c         **** }
  61              		.loc 1 46 0
  62 0020 C046     		nop
  63 0022 BD46     		mov	sp, r7
  64 0024 02B0     		add	sp, sp, #8
  65              		@ sp needed
  66 0026 80BD     		pop	{r7, pc}
  67              	.L5:
  68              		.align	2
ARM GAS  C:\Users\Intern\AppData\Local\Temp\ccJgbzfw.s 			page 3


  69              	.L4:
  70 0028 00000000 		.word	alertLevel
  71              		.cfi_endproc
  72              	.LFE35:
  73              		.size	IasEventHandler, .-IasEventHandler
  74              		.text
  75              	.Letext0:
  76              		.file 2 "Generated_Source\\PSoC4/cytypes.h"
  77              		.file 3 "Generated_Source\\PSoC4/BLE_Stack.h"
  78              		.file 4 "Generated_Source\\PSoC4/BLE_ias.h"
  79              		.file 5 "Generated_Source\\PSoC4/BLE_eventHandler.h"