ARM GAS  C:\Users\Intern\AppData\Local\Temp\ccZ6arWk.s 			page 1


   1              		.syntax unified
   2              		.cpu cortex-m0
   3              		.fpu softvfp
   4              		.eabi_attribute 20, 1
   5              		.eabi_attribute 21, 1
   6              		.eabi_attribute 23, 3
   7              		.eabi_attribute 24, 1
   8              		.eabi_attribute 25, 1
   9              		.eabi_attribute 26, 1
  10              		.eabi_attribute 30, 6
  11              		.eabi_attribute 34, 0
  12              		.eabi_attribute 18, 4
  13              		.thumb
  14              		.syntax unified
  15              		.file	"main.c"
  16              		.text
  17              	.Ltext0:
  18              		.cfi_sections	.debug_frame
  19              		.section	.text.StackEventHandler,"ax",%progbits
  20              		.align	2
  21              		.global	StackEventHandler
  22              		.code	16
  23              		.thumb_func
  24              		.type	StackEventHandler, %function
  25              	StackEventHandler:
  26              	.LFB35:
  27              		.file 1 "main.c"
   1:main.c        **** /*******************************************************************************
   2:main.c        **** * File Name: main.c
   3:main.c        **** *
   4:main.c        **** * Version: 1.0
   5:main.c        **** *
   6:main.c        **** * Description:
   7:main.c        **** *  This is source code for the PSoC 4 BLE Find Me Profile Target example project.
   8:main.c        **** *
   9:main.c        **** * Note:
  10:main.c        **** *
  11:main.c        **** * Owners:
  12:main.c        **** *  OLEG@CYPRESS.COM, KRIS@CYPRESS.COM
  13:main.c        **** *
  14:main.c        **** * Related Document:
  15:main.c        **** *
  16:main.c        **** * Hardware Dependency:
  17:main.c        **** *  1. PSoC 4 BLE device
  18:main.c        **** *  2. CY8CKIT-042 BLE Pioneer Kit
  19:main.c        **** *
  20:main.c        **** * Code Tested With:
  21:main.c        **** *  1. PSoC Creator 3.1
  22:main.c        **** *  2. ARM CM3-RVDS
  23:main.c        **** *  3. ARM CM3-GCC
  24:main.c        **** *  4. ARM CM3-MDK
  25:main.c        **** *
  26:main.c        **** ********************************************************************************
  27:main.c        **** * Copyright 2016, Cypress Semiconductor Corporation.  All rights reserved.
  28:main.c        **** * You may use this file only in accordance with the license, terms, conditions,
  29:main.c        **** * disclaimers, and limitations in the end user license agreement accompanying
  30:main.c        **** * the software package with which this file was provided.
ARM GAS  C:\Users\Intern\AppData\Local\Temp\ccZ6arWk.s 			page 2


  31:main.c        **** *******************************************************************************/
  32:main.c        **** 
  33:main.c        **** #include <project.h>
  34:main.c        **** #include "ias.h"
  35:main.c        **** #include "common.h"
  36:main.c        **** 
  37:main.c        **** 
  38:main.c        **** /*******************************************************************************
  39:main.c        **** * Function Name: StackEventHandler
  40:main.c        **** ********************************************************************************
  41:main.c        **** *
  42:main.c        **** * Summary:
  43:main.c        **** *  This is an event callback function to receive events from the BLE Component.
  44:main.c        **** *
  45:main.c        **** * Parameters:
  46:main.c        **** *  uint8 event:       Event from the CYBLE component
  47:main.c        **** *  void* eventParams: A structure instance for corresponding event type. The
  48:main.c        **** *                     list of event structure is described in the component
  49:main.c        **** *                     datasheet.
  50:main.c        **** *
  51:main.c        **** * Return:
  52:main.c        **** *  None
  53:main.c        **** *
  54:main.c        **** *******************************************************************************/
  55:main.c        **** void StackEventHandler(uint32 event, void *eventParam)
  56:main.c        **** {
  28              		.loc 1 56 0
  29              		.cfi_startproc
  30              		@ args = 0, pretend = 0, frame = 8
  31              		@ frame_needed = 1, uses_anonymous_args = 0
  32 0000 80B5     		push	{r7, lr}
  33              		.cfi_def_cfa_offset 8
  34              		.cfi_offset 7, -8
  35              		.cfi_offset 14, -4
  36 0002 82B0     		sub	sp, sp, #8
  37              		.cfi_def_cfa_offset 16
  38 0004 00AF     		add	r7, sp, #0
  39              		.cfi_def_cfa_register 7
  40 0006 7860     		str	r0, [r7, #4]
  41 0008 3960     		str	r1, [r7]
  57:main.c        ****     switch(event)
  42              		.loc 1 57 0
  43 000a 7B68     		ldr	r3, [r7, #4]
  44 000c 262B     		cmp	r3, #38
  45 000e 36D0     		beq	.L3
  46 0010 11D8     		bhi	.L4
  47 0012 212B     		cmp	r3, #33
  48 0014 43D0     		beq	.L25
  49 0016 06D8     		bhi	.L6
  50 0018 032B     		cmp	r3, #3
  51 001a 42D0     		beq	.L26
  52 001c 042B     		cmp	r3, #4
  53 001e 42D0     		beq	.L27
  54 0020 012B     		cmp	r3, #1
  55 0022 1BD0     		beq	.L9
  58:main.c        ****     {
  59:main.c        ****         /* Mandatory events to be handled by Find Me Target design */
ARM GAS  C:\Users\Intern\AppData\Local\Temp\ccZ6arWk.s 			page 3


  60:main.c        ****         case CYBLE_EVT_STACK_ON:
  61:main.c        ****         case CYBLE_EVT_GAP_DEVICE_DISCONNECTED:
  62:main.c        ****             /* Start BLE advertisement for 30 seconds and update link
  63:main.c        ****              * status on LEDs */
  64:main.c        ****             CyBle_GappStartAdvertisement(CYBLE_ADVERTISING_FAST);
  65:main.c        ****             Advertising_LED_Write(LED_ON);
  66:main.c        ****             alertLevel = NO_ALERT;
  67:main.c        ****             break;
  68:main.c        **** 
  69:main.c        ****         case CYBLE_EVT_GAP_DEVICE_CONNECTED:
  70:main.c        ****             /* BLE link is established */
  71:main.c        ****             Advertising_LED_Write(LED_OFF);
  72:main.c        ****             Disconnect_LED_Write(LED_OFF);
  73:main.c        ****             break;
  74:main.c        **** 
  75:main.c        ****         case CYBLE_EVT_GAPP_ADVERTISEMENT_START_STOP:
  76:main.c        ****             if(CyBle_GetState() == CYBLE_STATE_DISCONNECTED)
  77:main.c        ****             {
  78:main.c        ****                 /* Advertisement event timed out, go to low power
  79:main.c        ****                  * mode (Stop mode) and wait for device reset
  80:main.c        ****                  * event to wake up the device again */
  81:main.c        ****                 Advertising_LED_Write(LED_OFF);
  82:main.c        ****                 Disconnect_LED_Write(LED_ON);
  83:main.c        ****                 CySysPmSetWakeupPolarity(CY_PM_STOP_WAKEUP_ACTIVE_HIGH);
  84:main.c        ****                 CySysPmStop();
  85:main.c        ****                
  86:main.c        ****                 /* Code execution will not reach here */
  87:main.c        ****             }
  88:main.c        ****             break;
  89:main.c        **** 
  90:main.c        ****         /* Other events that are generated by the BLE Component that
  91:main.c        ****          * are not required for functioning of this design */
  92:main.c        ****         /**********************************************************
  93:main.c        ****         *                       General Events
  94:main.c        ****         ***********************************************************/
  95:main.c        ****         case CYBLE_EVT_HARDWARE_ERROR:    /* This event indicates that some internal HW error has o
  96:main.c        ****             break;
  97:main.c        **** 
  98:main.c        ****         case CYBLE_EVT_HCI_STATUS:
  99:main.c        ****             break;
 100:main.c        **** 
 101:main.c        ****         /**********************************************************
 102:main.c        ****         *                       GAP Events
 103:main.c        ****         ***********************************************************/
 104:main.c        ****         case CYBLE_EVT_GAP_AUTH_REQ:
 105:main.c        ****             break;
 106:main.c        **** 
 107:main.c        ****         case CYBLE_EVT_GAP_PASSKEY_ENTRY_REQUEST:
 108:main.c        ****             break;
 109:main.c        **** 
 110:main.c        ****         case CYBLE_EVT_GAP_PASSKEY_DISPLAY_REQUEST:
 111:main.c        ****             break;
 112:main.c        **** 
 113:main.c        ****         case CYBLE_EVT_GAP_AUTH_COMPLETE:
 114:main.c        **** 
 115:main.c        ****             break;
 116:main.c        ****         case CYBLE_EVT_GAP_AUTH_FAILED:
ARM GAS  C:\Users\Intern\AppData\Local\Temp\ccZ6arWk.s 			page 4


 117:main.c        **** 
 118:main.c        ****             break;
 119:main.c        **** 
 120:main.c        ****         case CYBLE_EVT_GAP_ENCRYPT_CHANGE:
 121:main.c        ****             break;
 122:main.c        **** 
 123:main.c        ****         case CYBLE_EVT_GAPC_CONNECTION_UPDATE_COMPLETE:
 124:main.c        ****             break;
 125:main.c        **** 
 126:main.c        ****         /**********************************************************
 127:main.c        ****         *                       GATT Events
 128:main.c        ****         ***********************************************************/
 129:main.c        ****         case CYBLE_EVT_GATT_CONNECT_IND:
 130:main.c        ****             break;
 131:main.c        **** 
 132:main.c        ****         case CYBLE_EVT_GATT_DISCONNECT_IND:
 133:main.c        ****             break;
 134:main.c        **** 
 135:main.c        ****         case CYBLE_EVT_GATTS_XCNHG_MTU_REQ:
 136:main.c        ****             break;
 137:main.c        **** 
 138:main.c        ****         case CYBLE_EVT_GATTS_READ_CHAR_VAL_ACCESS_REQ:
 139:main.c        ****             break;
 140:main.c        **** 
 141:main.c        ****         /**********************************************************
 142:main.c        ****         *                       Other Events
 143:main.c        ****         ***********************************************************/
 144:main.c        ****         case CYBLE_EVT_PENDING_FLASH_WRITE:
 145:main.c        ****             break;
 146:main.c        **** 
 147:main.c        ****         default:
 148:main.c        ****             break;
  56              		.loc 1 148 0
  57 0024 58E0     		b	.L23
  58              	.L6:
  57:main.c        ****     switch(event)
  59              		.loc 1 57 0
  60 0026 232B     		cmp	r3, #35
  61 0028 3FD0     		beq	.L28
  62 002a 40D3     		bcc	.L29
  63 002c 242B     		cmp	r3, #36
  64 002e 40D0     		beq	.L30
  65 0030 252B     		cmp	r3, #37
  66 0032 40D0     		beq	.L31
  67              		.loc 1 148 0
  68 0034 50E0     		b	.L23
  69              	.L4:
  57:main.c        ****     switch(event)
  70              		.loc 1 57 0
  71 0036 412B     		cmp	r3, #65
  72 0038 3FD0     		beq	.L32
  73 003a 07D8     		bhi	.L15
  74 003c 282B     		cmp	r3, #40
  75 003e 0DD0     		beq	.L9
  76 0040 16D3     		bcc	.L16
  77 0042 292B     		cmp	r3, #41
  78 0044 3BD0     		beq	.L33
ARM GAS  C:\Users\Intern\AppData\Local\Temp\ccZ6arWk.s 			page 5


  79 0046 2A2B     		cmp	r3, #42
  80 0048 3BD0     		beq	.L34
  81              		.loc 1 148 0
  82 004a 45E0     		b	.L23
  83              	.L15:
  57:main.c        ****     switch(event)
  84              		.loc 1 57 0
  85 004c 432B     		cmp	r3, #67
  86 004e 3AD0     		beq	.L35
  87 0050 3BD3     		bcc	.L36
  88 0052 572B     		cmp	r3, #87
  89 0054 3BD0     		beq	.L37
  90 0056 FA2B     		cmp	r3, #250
  91 0058 3BD0     		beq	.L38
  92              		.loc 1 148 0
  93 005a 3DE0     		b	.L23
  94              	.L9:
  64:main.c        ****             Advertising_LED_Write(LED_ON);
  95              		.loc 1 64 0
  96 005c 0020     		movs	r0, #0
  97 005e FFF7FEFF 		bl	CyBle_GappStartAdvertisement
  65:main.c        ****             alertLevel = NO_ALERT;
  98              		.loc 1 65 0
  99 0062 0020     		movs	r0, #0
 100 0064 FFF7FEFF 		bl	Advertising_LED_Write
  66:main.c        ****             break;
 101              		.loc 1 66 0
 102 0068 1D4B     		ldr	r3, .L40
 103 006a 0022     		movs	r2, #0
 104 006c 1A70     		strb	r2, [r3]
  67:main.c        **** 
 105              		.loc 1 67 0
 106 006e 33E0     		b	.L23
 107              	.L16:
  71:main.c        ****             Disconnect_LED_Write(LED_OFF);
 108              		.loc 1 71 0
 109 0070 0120     		movs	r0, #1
 110 0072 FFF7FEFF 		bl	Advertising_LED_Write
  72:main.c        ****             break;
 111              		.loc 1 72 0
 112 0076 0120     		movs	r0, #1
 113 0078 FFF7FEFF 		bl	Disconnect_LED_Write
  73:main.c        **** 
 114              		.loc 1 73 0
 115 007c 2CE0     		b	.L23
 116              	.L3:
  76:main.c        ****             {
 117              		.loc 1 76 0
 118 007e 194B     		ldr	r3, .L40+4
 119 0080 1B78     		ldrb	r3, [r3]
 120 0082 042B     		cmp	r3, #4
 121 0084 27D1     		bne	.L39
  81:main.c        ****                 Disconnect_LED_Write(LED_ON);
 122              		.loc 1 81 0
 123 0086 0120     		movs	r0, #1
 124 0088 FFF7FEFF 		bl	Advertising_LED_Write
  82:main.c        ****                 CySysPmSetWakeupPolarity(CY_PM_STOP_WAKEUP_ACTIVE_HIGH);
ARM GAS  C:\Users\Intern\AppData\Local\Temp\ccZ6arWk.s 			page 6


 125              		.loc 1 82 0
 126 008c 0020     		movs	r0, #0
 127 008e FFF7FEFF 		bl	Disconnect_LED_Write
  83:main.c        ****                 CySysPmStop();
 128              		.loc 1 83 0
 129 0092 0120     		movs	r0, #1
 130 0094 FFF7FEFF 		bl	CySysPmSetWakeupPolarity
  84:main.c        ****                
 131              		.loc 1 84 0
 132 0098 FFF7FEFF 		bl	CySysPmStop
  88:main.c        **** 
 133              		.loc 1 88 0
 134 009c 1BE0     		b	.L39
 135              	.L25:
 105:main.c        **** 
 136              		.loc 1 105 0
 137 009e C046     		nop
 138 00a0 1AE0     		b	.L23
 139              	.L26:
  96:main.c        **** 
 140              		.loc 1 96 0
 141 00a2 C046     		nop
 142 00a4 18E0     		b	.L23
 143              	.L27:
  99:main.c        **** 
 144              		.loc 1 99 0
 145 00a6 C046     		nop
 146 00a8 16E0     		b	.L23
 147              	.L28:
 111:main.c        **** 
 148              		.loc 1 111 0
 149 00aa C046     		nop
 150 00ac 14E0     		b	.L23
 151              	.L29:
 108:main.c        **** 
 152              		.loc 1 108 0
 153 00ae C046     		nop
 154 00b0 12E0     		b	.L23
 155              	.L30:
 115:main.c        ****         case CYBLE_EVT_GAP_AUTH_FAILED:
 156              		.loc 1 115 0
 157 00b2 C046     		nop
 158 00b4 10E0     		b	.L23
 159              	.L31:
 118:main.c        **** 
 160              		.loc 1 118 0
 161 00b6 C046     		nop
 162 00b8 0EE0     		b	.L23
 163              	.L32:
 130:main.c        **** 
 164              		.loc 1 130 0
 165 00ba C046     		nop
 166 00bc 0CE0     		b	.L23
 167              	.L33:
 121:main.c        **** 
 168              		.loc 1 121 0
 169 00be C046     		nop
ARM GAS  C:\Users\Intern\AppData\Local\Temp\ccZ6arWk.s 			page 7


 170 00c0 0AE0     		b	.L23
 171              	.L34:
 124:main.c        **** 
 172              		.loc 1 124 0
 173 00c2 C046     		nop
 174 00c4 08E0     		b	.L23
 175              	.L35:
 136:main.c        **** 
 176              		.loc 1 136 0
 177 00c6 C046     		nop
 178 00c8 06E0     		b	.L23
 179              	.L36:
 133:main.c        **** 
 180              		.loc 1 133 0
 181 00ca C046     		nop
 182 00cc 04E0     		b	.L23
 183              	.L37:
 139:main.c        **** 
 184              		.loc 1 139 0
 185 00ce C046     		nop
 186 00d0 02E0     		b	.L23
 187              	.L38:
 145:main.c        **** 
 188              		.loc 1 145 0
 189 00d2 C046     		nop
 190 00d4 00E0     		b	.L23
 191              	.L39:
  88:main.c        **** 
 192              		.loc 1 88 0
 193 00d6 C046     		nop
 194              	.L23:
 149:main.c        ****     }
 150:main.c        **** }
 195              		.loc 1 150 0
 196 00d8 C046     		nop
 197 00da BD46     		mov	sp, r7
 198 00dc 02B0     		add	sp, sp, #8
 199              		@ sp needed
 200 00de 80BD     		pop	{r7, pc}
 201              	.L41:
 202              		.align	2
 203              	.L40:
 204 00e0 00000000 		.word	alertLevel
 205 00e4 00000000 		.word	cyBle_state
 206              		.cfi_endproc
 207              	.LFE35:
 208              		.size	StackEventHandler, .-StackEventHandler
 209              		.section	.text.main,"ax",%progbits
 210              		.align	2
 211              		.global	main
 212              		.code	16
 213              		.thumb_func
 214              		.type	main, %function
 215              	main:
 216              	.LFB36:
 151:main.c        **** 
 152:main.c        **** 
ARM GAS  C:\Users\Intern\AppData\Local\Temp\ccZ6arWk.s 			page 8


 153:main.c        **** /*******************************************************************************
 154:main.c        **** * Function Name: main
 155:main.c        **** ********************************************************************************
 156:main.c        **** *
 157:main.c        **** * Summary:
 158:main.c        **** *  Main function.
 159:main.c        **** *
 160:main.c        **** * Parameters:
 161:main.c        **** *  None
 162:main.c        **** *
 163:main.c        **** * Return:
 164:main.c        **** *  None
 165:main.c        **** *
 166:main.c        **** *******************************************************************************/
 167:main.c        **** int main()
 168:main.c        **** {
 217              		.loc 1 168 0
 218              		.cfi_startproc
 219              		@ args = 0, pretend = 0, frame = 8
 220              		@ frame_needed = 1, uses_anonymous_args = 0
 221 0000 90B5     		push	{r4, r7, lr}
 222              		.cfi_def_cfa_offset 12
 223              		.cfi_offset 4, -12
 224              		.cfi_offset 7, -8
 225              		.cfi_offset 14, -4
 226 0002 83B0     		sub	sp, sp, #12
 227              		.cfi_def_cfa_offset 24
 228 0004 00AF     		add	r7, sp, #0
 229              		.cfi_def_cfa_register 7
 169:main.c        ****     CYBLE_API_RESULT_T apiResult;
 170:main.c        **** 
 171:main.c        ****     CyGlobalIntEnable;
 230              		.loc 1 171 0
 231              		.syntax divided
 232              	@ 171 "main.c" 1
 233 0006 62B6     		CPSIE   i
 234              	@ 0 "" 2
 172:main.c        **** 
 173:main.c        ****     apiResult = CyBle_Start(StackEventHandler);
 235              		.loc 1 173 0
 236              		.thumb
 237              		.syntax unified
 238 0008 BC1D     		adds	r4, r7, #6
 239 000a 304B     		ldr	r3, .L54
 240 000c 1800     		movs	r0, r3
 241 000e FFF7FEFF 		bl	CyBle_Start
 242 0012 0300     		movs	r3, r0
 243 0014 2380     		strh	r3, [r4]
 174:main.c        **** 
 175:main.c        ****     if(apiResult != CYBLE_ERROR_OK)
 244              		.loc 1 175 0
 245 0016 BB1D     		adds	r3, r7, #6
 246 0018 1B88     		ldrh	r3, [r3]
 247 001a 002B     		cmp	r3, #0
 248 001c 02D0     		beq	.L43
 176:main.c        ****     {
 177:main.c        ****         /* BLE stack initialization failed, check your configuration */
ARM GAS  C:\Users\Intern\AppData\Local\Temp\ccZ6arWk.s 			page 9


 178:main.c        ****         CYASSERT(0);
 249              		.loc 1 178 0 discriminator 1
 250 001e 0020     		movs	r0, #0
 251 0020 FFF7FEFF 		bl	CyHalt
 252              	.L43:
 179:main.c        ****     }
 180:main.c        **** 
 181:main.c        ****     CyBle_IasRegisterAttrCallback(IasEventHandler);
 253              		.loc 1 181 0
 254 0024 2A4B     		ldr	r3, .L54+4
 255 0026 1800     		movs	r0, r3
 256 0028 FFF7FEFF 		bl	CyBle_IasRegisterAttrCallback
 257              	.L52:
 258              	.LBB2:
 182:main.c        **** 
 183:main.c        ****     for(;;)
 184:main.c        ****     {
 185:main.c        ****         static uint8 toggleTimeout = 0;
 186:main.c        ****         CYBLE_BLESS_STATE_T blessState;
 187:main.c        ****         uint8 intrStatus;
 188:main.c        **** 
 189:main.c        ****         /* Single API call to service all the BLE stack events. Must be
 190:main.c        ****          * called at least once in a BLE connection interval */
 191:main.c        ****         CyBle_ProcessEvents();
 259              		.loc 1 191 0
 260 002c FFF7FEFF 		bl	CyBle_ProcessEvents
 192:main.c        ****         
 193:main.c        ****         /* Update Alert Level value on the blue LED */
 194:main.c        ****         switch(alertLevel)
 261              		.loc 1 194 0
 262 0030 284B     		ldr	r3, .L54+8
 263 0032 1B78     		ldrb	r3, [r3]
 264 0034 012B     		cmp	r3, #1
 265 0036 07D0     		beq	.L45
 266 0038 022B     		cmp	r3, #2
 267 003a 1DD0     		beq	.L46
 268 003c 002B     		cmp	r3, #0
 269 003e 20D1     		bne	.L44
 195:main.c        ****         {
 196:main.c        ****             case NO_ALERT:
 197:main.c        ****             Alert_LED_Write(LED_OFF);
 270              		.loc 1 197 0
 271 0040 0120     		movs	r0, #1
 272 0042 FFF7FEFF 		bl	Alert_LED_Write
 198:main.c        ****             break;
 273              		.loc 1 198 0
 274 0046 1CE0     		b	.L44
 275              	.L45:
 199:main.c        **** 
 200:main.c        ****             case MILD_ALERT:
 201:main.c        ****             toggleTimeout++;
 276              		.loc 1 201 0
 277 0048 234B     		ldr	r3, .L54+12
 278 004a 1B78     		ldrb	r3, [r3]
 279 004c 0133     		adds	r3, r3, #1
 280 004e DAB2     		uxtb	r2, r3
 281 0050 214B     		ldr	r3, .L54+12
ARM GAS  C:\Users\Intern\AppData\Local\Temp\ccZ6arWk.s 			page 10


 282 0052 1A70     		strb	r2, [r3]
 202:main.c        ****             if(toggleTimeout == LED_TOGGLE_TIMEOUT)
 283              		.loc 1 202 0
 284 0054 204B     		ldr	r3, .L54+12
 285 0056 1B78     		ldrb	r3, [r3]
 286 0058 642B     		cmp	r3, #100
 287 005a 11D1     		bne	.L53
 203:main.c        ****             {
 204:main.c        ****                 /* Toggle alert LED after timeout */
 205:main.c        ****                 Alert_LED_Write(Alert_LED_Read() ^ 0x01);
 288              		.loc 1 205 0
 289 005c FFF7FEFF 		bl	Alert_LED_Read
 290 0060 0300     		movs	r3, r0
 291 0062 1A00     		movs	r2, r3
 292 0064 0123     		movs	r3, #1
 293 0066 5340     		eors	r3, r2
 294 0068 DBB2     		uxtb	r3, r3
 295 006a 1800     		movs	r0, r3
 296 006c FFF7FEFF 		bl	Alert_LED_Write
 206:main.c        ****                 toggleTimeout = 0;
 297              		.loc 1 206 0
 298 0070 194B     		ldr	r3, .L54+12
 299 0072 0022     		movs	r2, #0
 300 0074 1A70     		strb	r2, [r3]
 207:main.c        ****             }
 208:main.c        ****             break;
 301              		.loc 1 208 0
 302 0076 03E0     		b	.L53
 303              	.L46:
 209:main.c        **** 
 210:main.c        ****             case HIGH_ALERT:
 211:main.c        ****             Alert_LED_Write(LED_ON);
 304              		.loc 1 211 0
 305 0078 0020     		movs	r0, #0
 306 007a FFF7FEFF 		bl	Alert_LED_Write
 212:main.c        ****             break;
 307              		.loc 1 212 0
 308 007e 00E0     		b	.L44
 309              	.L53:
 208:main.c        **** 
 310              		.loc 1 208 0
 311 0080 C046     		nop
 312              	.L44:
 213:main.c        ****         }
 214:main.c        **** 
 215:main.c        ****         /* Configure BLESS in Deep-Sleep mode */
 216:main.c        ****         CyBle_EnterLPM(CYBLE_BLESS_DEEPSLEEP);
 313              		.loc 1 216 0
 314 0082 0320     		movs	r0, #3
 315 0084 FFF7FEFF 		bl	CyBle_EnterLPM
 217:main.c        ****         
 218:main.c        ****         /* Prevent interrupts while entering system low power modes */
 219:main.c        ****         intrStatus = CyEnterCriticalSection();
 316              		.loc 1 219 0
 317 0088 7C1D     		adds	r4, r7, #5
 318 008a FFF7FEFF 		bl	CyEnterCriticalSection
 319 008e 0300     		movs	r3, r0
ARM GAS  C:\Users\Intern\AppData\Local\Temp\ccZ6arWk.s 			page 11


 320 0090 2370     		strb	r3, [r4]
 220:main.c        ****         
 221:main.c        ****         /* Get the current state of BLESS block */
 222:main.c        ****         blessState = CyBle_GetBleSsState();
 321              		.loc 1 222 0
 322 0092 3C1D     		adds	r4, r7, #4
 323 0094 FFF7FEFF 		bl	CyBle_GetBleSsState
 324 0098 0300     		movs	r3, r0
 325 009a 2370     		strb	r3, [r4]
 223:main.c        ****         
 224:main.c        ****         /* If BLESS is in Deep-Sleep mode or the XTAL oscillator is turning on, 
 225:main.c        ****          * then PSoC 4 BLE can enter Deep-Sleep mode (1.3uA current consumption) */
 226:main.c        ****         if(blessState == CYBLE_BLESS_STATE_ECO_ON || 
 326              		.loc 1 226 0
 327 009c 3B1D     		adds	r3, r7, #4
 328 009e 1B78     		ldrb	r3, [r3]
 329 00a0 042B     		cmp	r3, #4
 330 00a2 03D0     		beq	.L49
 331              		.loc 1 226 0 is_stmt 0 discriminator 1
 332 00a4 3B1D     		adds	r3, r7, #4
 333 00a6 1B78     		ldrb	r3, [r3]
 334 00a8 062B     		cmp	r3, #6
 335 00aa 02D1     		bne	.L50
 336              	.L49:
 227:main.c        ****             blessState == CYBLE_BLESS_STATE_DEEPSLEEP)
 228:main.c        ****         {
 229:main.c        ****             CySysPmDeepSleep();
 337              		.loc 1 229 0 is_stmt 1
 338 00ac FFF7FEFF 		bl	CySysPmDeepSleep
 339 00b0 05E0     		b	.L51
 340              	.L50:
 230:main.c        ****         }
 231:main.c        ****         else if(blessState != CYBLE_BLESS_STATE_EVENT_CLOSE)
 341              		.loc 1 231 0
 342 00b2 3B1D     		adds	r3, r7, #4
 343 00b4 1B78     		ldrb	r3, [r3]
 344 00b6 022B     		cmp	r3, #2
 345 00b8 01D0     		beq	.L51
 232:main.c        ****         {
 233:main.c        ****             /* If BLESS is active, then configure PSoC 4 BLE system in 
 234:main.c        ****              * Sleep mode (~1.6mA current consumption) */
 235:main.c        ****             CySysPmSleep();
 346              		.loc 1 235 0
 347 00ba FFF7FEFF 		bl	CySysPmSleep
 348              	.L51:
 236:main.c        ****         }
 237:main.c        ****         else
 238:main.c        ****         {
 239:main.c        ****             /* Keep trying to enter either Sleep or Deep-Sleep mode */    
 240:main.c        ****         }
 241:main.c        ****         CyExitCriticalSection(intrStatus);
 349              		.loc 1 241 0
 350 00be 7B1D     		adds	r3, r7, #5
 351 00c0 1B78     		ldrb	r3, [r3]
 352 00c2 1800     		movs	r0, r3
 353 00c4 FFF7FEFF 		bl	CyExitCriticalSection
 354              	.LBE2:
ARM GAS  C:\Users\Intern\AppData\Local\Temp\ccZ6arWk.s 			page 12


 242:main.c        ****         
 243:main.c        ****         /* BLE link layer timing interrupt will wake up the system from Sleep 
 244:main.c        ****          * and Deep-Sleep modes */
 245:main.c        ****     }
 355              		.loc 1 245 0
 356 00c8 B0E7     		b	.L52
 357              	.L55:
 358 00ca C046     		.align	2
 359              	.L54:
 360 00cc 00000000 		.word	StackEventHandler
 361 00d0 00000000 		.word	IasEventHandler
 362 00d4 00000000 		.word	alertLevel
 363 00d8 00000000 		.word	toggleTimeout.7039
 364              		.cfi_endproc
 365              	.LFE36:
 366              		.size	main, .-main
 367              		.bss
 368              	toggleTimeout.7039:
 369 0000 00       		.space	1
 370              		.text
 371              	.Letext0:
 372              		.file 2 "Generated_Source\\PSoC4/cytypes.h"
 373              		.file 3 "Generated_Source\\PSoC4/BLE_Stack.h"
 374              		.file 4 "Generated_Source\\PSoC4/BLE_eventHandler.h"
 375              		.file 5 "ias.h"