ARM GAS  C:\Users\Intern\AppData\Local\Temp\ccVSLPFx.s 			page 1


   1              		.syntax unified
   2              		.cpu cortex-m0
   3              		.fpu softvfp
   4              		.eabi_attribute 20, 1
   5              		.eabi_attribute 21, 1
   6              		.eabi_attribute 23, 3
   7              		.eabi_attribute 24, 1
   8              		.eabi_attribute 25, 1
   9              		.eabi_attribute 26, 1
  10              		.eabi_attribute 30, 6
  11              		.eabi_attribute 34, 0
  12              		.eabi_attribute 18, 4
  13              		.thumb
  14              		.syntax unified
  15              		.file	"BLE_hids.c"
  16              		.text
  17              	.Ltext0:
  18              		.cfi_sections	.debug_frame
  19              		.bss
  20              		.align	2
  21              	CyBle_HidsApplCallback:
  22 0000 00000000 		.space	4
  23              		.section	.rodata
  24              		.align	2
  25              		.type	cyBle_hids1ReportArray, %object
  26              		.size	cyBle_hids1ReportArray, 6
  27              	cyBle_hids1ReportArray:
  28 0000 1000     		.short	16
  29 0002 1100     		.short	17
  30 0004 1200     		.short	18
  31              		.global	cyBle_hidss
  32 0006 0000     		.align	2
  33              		.type	cyBle_hidss, %object
  34              		.size	cyBle_hidss, 40
  35              	cyBle_hidss:
  36 0008 0C00     		.short	12
  37 000a 0E00     		.short	14
  38 000c 01       		.byte	1
  39 000d 000000   		.space	3
  40 0010 00000000 		.word	cyBle_hids1ReportArray
  41 0014 1700     		.short	23
  42 0016 1800     		.short	24
  43 0018 0000     		.short	0
  44 001a 1A00     		.short	26
  45 001c 0000     		.short	0
  46 001e 0000     		.short	0
  47 0020 1C00     		.short	28
  48 0022 1D00     		.short	29
  49 0024 0000     		.short	0
  50 0026 1400     		.short	20
  51 0028 1500     		.short	21
  52 002a 1F00     		.short	31
  53 002c 2100     		.short	33
  54 002e 0000     		.space	2
  55              		.section	.text.CyBle_HidsInit,"ax",%progbits
  56              		.align	2
  57              		.global	CyBle_HidsInit
ARM GAS  C:\Users\Intern\AppData\Local\Temp\ccVSLPFx.s 			page 2


  58              		.code	16
  59              		.thumb_func
  60              		.type	CyBle_HidsInit, %function
  61              	CyBle_HidsInit:
  62              	.LFB2:
  63              		.file 1 "Generated_Source\\PSoC4\\BLE_hids.c"
   1:Generated_Source\PSoC4/BLE_hids.c **** /***************************************************************************//**
   2:Generated_Source\PSoC4/BLE_hids.c **** * \file CYBLE_hids.c
   3:Generated_Source\PSoC4/BLE_hids.c **** * \version 3.51
   4:Generated_Source\PSoC4/BLE_hids.c **** * 
   5:Generated_Source\PSoC4/BLE_hids.c **** * \brief
   6:Generated_Source\PSoC4/BLE_hids.c **** *  Contains the source code for the HID service.
   7:Generated_Source\PSoC4/BLE_hids.c **** * 
   8:Generated_Source\PSoC4/BLE_hids.c **** ********************************************************************************
   9:Generated_Source\PSoC4/BLE_hids.c **** * \copyright
  10:Generated_Source\PSoC4/BLE_hids.c **** * Copyright 2014-2018, Cypress Semiconductor Corporation.  All rights reserved.
  11:Generated_Source\PSoC4/BLE_hids.c **** * You may use this file only in accordance with the license, terms, conditions,
  12:Generated_Source\PSoC4/BLE_hids.c **** * disclaimers, and limitations in the end user license agreement accompanying
  13:Generated_Source\PSoC4/BLE_hids.c **** * the software package with which this file was provided.
  14:Generated_Source\PSoC4/BLE_hids.c **** *******************************************************************************/
  15:Generated_Source\PSoC4/BLE_hids.c **** 
  16:Generated_Source\PSoC4/BLE_hids.c **** #include "BLE_eventHandler.h"
  17:Generated_Source\PSoC4/BLE_hids.c **** 
  18:Generated_Source\PSoC4/BLE_hids.c **** static CYBLE_CALLBACK_T CyBle_HidsApplCallback;
  19:Generated_Source\PSoC4/BLE_hids.c **** 
  20:Generated_Source\PSoC4/BLE_hids.c **** #ifdef CYBLE_HIDS_SERVER
  21:Generated_Source\PSoC4/BLE_hids.c **** 
  22:Generated_Source\PSoC4/BLE_hids.c **** static const CYBLE_HIDSS_REPORT_T cyBle_hids1ReportArray[0x01u] = {
  23:Generated_Source\PSoC4/BLE_hids.c ****     {
  24:Generated_Source\PSoC4/BLE_hids.c ****         0x0010u, /* Handle of the Report characteristic value */ 
  25:Generated_Source\PSoC4/BLE_hids.c ****         0x0011u, /* Handle of the Client Characteristic Configuration descriptor */ 
  26:Generated_Source\PSoC4/BLE_hids.c ****         0x0012u, /* Handle of the Report Reference descriptor */ 
  27:Generated_Source\PSoC4/BLE_hids.c ****     },
  28:Generated_Source\PSoC4/BLE_hids.c **** };
  29:Generated_Source\PSoC4/BLE_hids.c **** 
  30:Generated_Source\PSoC4/BLE_hids.c **** const CYBLE_HIDSS_T cyBle_hidss[0x01u] = {
  31:Generated_Source\PSoC4/BLE_hids.c ****     {
  32:Generated_Source\PSoC4/BLE_hids.c ****         0x000Cu, /* Handle of the HID service */ 
  33:Generated_Source\PSoC4/BLE_hids.c ****         0x000Eu, /* Handle of the Protocol Mode characteristic */ 
  34:Generated_Source\PSoC4/BLE_hids.c ****         0x01u, /* Number of report characteristics */ 
  35:Generated_Source\PSoC4/BLE_hids.c ****         cyBle_hids1ReportArray, /* Information about report characteristics */ 
  36:Generated_Source\PSoC4/BLE_hids.c ****         {
  37:Generated_Source\PSoC4/BLE_hids.c ****             {
  38:Generated_Source\PSoC4/BLE_hids.c ****                 0x0017u, /* Handle of the Report characteristic value */ 
  39:Generated_Source\PSoC4/BLE_hids.c ****                 0x0018u, /* Handle of the Client Characteristic Configuration descriptor */ 
  40:Generated_Source\PSoC4/BLE_hids.c ****                 CYBLE_GATT_INVALID_ATTR_HANDLE_VALUE, /* Handle of the Report Reference descriptor 
  41:Generated_Source\PSoC4/BLE_hids.c ****             },
  42:Generated_Source\PSoC4/BLE_hids.c ****             {
  43:Generated_Source\PSoC4/BLE_hids.c ****                 0x001Au, /* Handle of the Report characteristic value */ 
  44:Generated_Source\PSoC4/BLE_hids.c ****                 CYBLE_GATT_INVALID_ATTR_HANDLE_VALUE, /* Handle of the Client Characteristic Config
  45:Generated_Source\PSoC4/BLE_hids.c ****                 CYBLE_GATT_INVALID_ATTR_HANDLE_VALUE, /* Handle of the Report Reference descriptor 
  46:Generated_Source\PSoC4/BLE_hids.c ****             },
  47:Generated_Source\PSoC4/BLE_hids.c ****             {
  48:Generated_Source\PSoC4/BLE_hids.c ****                 0x001Cu, /* Handle of the Report characteristic value */ 
  49:Generated_Source\PSoC4/BLE_hids.c ****                 0x001Du, /* Handle of the Client Characteristic Configuration descriptor */ 
  50:Generated_Source\PSoC4/BLE_hids.c ****                 CYBLE_GATT_INVALID_ATTR_HANDLE_VALUE, /* Handle of the Report Reference descriptor 
  51:Generated_Source\PSoC4/BLE_hids.c ****             },
ARM GAS  C:\Users\Intern\AppData\Local\Temp\ccVSLPFx.s 			page 3


  52:Generated_Source\PSoC4/BLE_hids.c ****         }, /* Information about boot report characteristics */ 
  53:Generated_Source\PSoC4/BLE_hids.c ****         0x0014u, /* Handle of the Report Map characteristic */ 
  54:Generated_Source\PSoC4/BLE_hids.c ****         0x0015u, /* Handle of the Report Map External Report Reference descriptor */ 
  55:Generated_Source\PSoC4/BLE_hids.c ****         0x001Fu, /* Handle of the HID Information characteristic */ 
  56:Generated_Source\PSoC4/BLE_hids.c ****         0x0021u, /* Handle of the HID Control Point characteristic */ 
  57:Generated_Source\PSoC4/BLE_hids.c ****     },
  58:Generated_Source\PSoC4/BLE_hids.c **** };
  59:Generated_Source\PSoC4/BLE_hids.c **** 
  60:Generated_Source\PSoC4/BLE_hids.c **** /* Local function prototypes */
  61:Generated_Source\PSoC4/BLE_hids.c **** static uint32 CyBle_HidssCccdWriteEventHandler(uint8 serviceIndex, const CYBLE_GATTS_WRITE_REQ_PARA
  62:Generated_Source\PSoC4/BLE_hids.c **** 
  63:Generated_Source\PSoC4/BLE_hids.c **** #endif /* CYBLE_HIDS_SERVER */
  64:Generated_Source\PSoC4/BLE_hids.c **** 
  65:Generated_Source\PSoC4/BLE_hids.c **** #ifdef CYBLE_HIDS_CLIENT
  66:Generated_Source\PSoC4/BLE_hids.c **** 
  67:Generated_Source\PSoC4/BLE_hids.c ****     CYBLE_HIDSC_T cyBle_hidsc[CYBLE_HIDSC_SERVICE_COUNT];
  68:Generated_Source\PSoC4/BLE_hids.c ****     static CYBLE_GATT_DB_ATTR_HANDLE_T cyBle_hidscReqHandle;
  69:Generated_Source\PSoC4/BLE_hids.c ****     uint8 cyBle_hidscServiceCount;
  70:Generated_Source\PSoC4/BLE_hids.c **** 
  71:Generated_Source\PSoC4/BLE_hids.c **** #endif /* CYBLE_HIDS_CLIENT */
  72:Generated_Source\PSoC4/BLE_hids.c **** 
  73:Generated_Source\PSoC4/BLE_hids.c **** 
  74:Generated_Source\PSoC4/BLE_hids.c **** /****************************************************************************** 
  75:Generated_Source\PSoC4/BLE_hids.c **** * Function Name: CyBle_HidsInit
  76:Generated_Source\PSoC4/BLE_hids.c **** ***************************************************************************//**
  77:Generated_Source\PSoC4/BLE_hids.c **** * 
  78:Generated_Source\PSoC4/BLE_hids.c **** *  This function initializes the HID Service.
  79:Generated_Source\PSoC4/BLE_hids.c **** * 
  80:Generated_Source\PSoC4/BLE_hids.c **** * 
  81:Generated_Source\PSoC4/BLE_hids.c **** ******************************************************************************/
  82:Generated_Source\PSoC4/BLE_hids.c **** void CyBle_HidsInit(void)
  83:Generated_Source\PSoC4/BLE_hids.c **** {
  64              		.loc 1 83 0
  65              		.cfi_startproc
  66              		@ args = 0, pretend = 0, frame = 0
  67              		@ frame_needed = 1, uses_anonymous_args = 0
  68 0000 80B5     		push	{r7, lr}
  69              		.cfi_def_cfa_offset 8
  70              		.cfi_offset 7, -8
  71              		.cfi_offset 14, -4
  72 0002 00AF     		add	r7, sp, #0
  73              		.cfi_def_cfa_register 7
  84:Generated_Source\PSoC4/BLE_hids.c **** 
  85:Generated_Source\PSoC4/BLE_hids.c **** #ifdef CYBLE_HIDS_CLIENT
  86:Generated_Source\PSoC4/BLE_hids.c **** 
  87:Generated_Source\PSoC4/BLE_hids.c ****     uint8 locServIndex;
  88:Generated_Source\PSoC4/BLE_hids.c ****     for(locServIndex = 0u; locServIndex < CYBLE_HIDSC_SERVICE_COUNT; locServIndex++)
  89:Generated_Source\PSoC4/BLE_hids.c ****     {
  90:Generated_Source\PSoC4/BLE_hids.c ****         if(cyBle_serverInfo[CYBLE_SRVI_HIDS + locServIndex].range.startHandle == CYBLE_GATT_INVALID
  91:Generated_Source\PSoC4/BLE_hids.c ****         {
  92:Generated_Source\PSoC4/BLE_hids.c ****             (void)memset(&cyBle_hidsc[locServIndex], 0, sizeof(cyBle_hidsc[locServIndex]));
  93:Generated_Source\PSoC4/BLE_hids.c ****         }
  94:Generated_Source\PSoC4/BLE_hids.c ****     }
  95:Generated_Source\PSoC4/BLE_hids.c ****     cyBle_hidscReqHandle = CYBLE_GATT_INVALID_ATTR_HANDLE_VALUE;
  96:Generated_Source\PSoC4/BLE_hids.c ****     cyBle_hidscServiceCount = 0u;
  97:Generated_Source\PSoC4/BLE_hids.c **** 
  98:Generated_Source\PSoC4/BLE_hids.c **** #endif /* CYBLE_HIDS_CLIENT */
ARM GAS  C:\Users\Intern\AppData\Local\Temp\ccVSLPFx.s 			page 4


  99:Generated_Source\PSoC4/BLE_hids.c **** }
  74              		.loc 1 99 0
  75 0004 C046     		nop
  76 0006 BD46     		mov	sp, r7
  77              		@ sp needed
  78 0008 80BD     		pop	{r7, pc}
  79              		.cfi_endproc
  80              	.LFE2:
  81              		.size	CyBle_HidsInit, .-CyBle_HidsInit
  82 000a C046     		.section	.text.CyBle_HidsRegisterAttrCallback,"ax",%progbits
  83              		.align	2
  84              		.global	CyBle_HidsRegisterAttrCallback
  85              		.code	16
  86              		.thumb_func
  87              		.type	CyBle_HidsRegisterAttrCallback, %function
  88              	CyBle_HidsRegisterAttrCallback:
  89              	.LFB3:
 100:Generated_Source\PSoC4/BLE_hids.c **** 
 101:Generated_Source\PSoC4/BLE_hids.c **** 
 102:Generated_Source\PSoC4/BLE_hids.c **** /****************************************************************************** 
 103:Generated_Source\PSoC4/BLE_hids.c **** * Function Name: CyBle_HidsRegisterAttrCallback
 104:Generated_Source\PSoC4/BLE_hids.c **** ***************************************************************************//**
 105:Generated_Source\PSoC4/BLE_hids.c **** * 
 106:Generated_Source\PSoC4/BLE_hids.c **** *  Registers a callback function for service specific attribute operations.
 107:Generated_Source\PSoC4/BLE_hids.c **** *  Service specific write requests from peer device will not be handled with
 108:Generated_Source\PSoC4/BLE_hids.c **** *  unregistered callback function.
 109:Generated_Source\PSoC4/BLE_hids.c **** * 
 110:Generated_Source\PSoC4/BLE_hids.c **** *  \param callbackFunc: An application layer event callback function to receive 
 111:Generated_Source\PSoC4/BLE_hids.c **** *                    events from the BLE Component. The definition of 
 112:Generated_Source\PSoC4/BLE_hids.c **** *                    CYBLE_CALLBACK_T for HID Service is:\n
 113:Generated_Source\PSoC4/BLE_hids.c **** *                    typedef void (* CYBLE_CALLBACK_T) (uint32 eventCode, 
 114:Generated_Source\PSoC4/BLE_hids.c **** *                                                       void *eventParam)
 115:Generated_Source\PSoC4/BLE_hids.c **** *                    * eventCode indicates the event that triggered this 
 116:Generated_Source\PSoC4/BLE_hids.c **** *                      callback (e.g. CYBLE_EVT_HIDS_NOTIFICATION_ENABLED).
 117:Generated_Source\PSoC4/BLE_hids.c **** *                    * eventParam contains the parameters corresponding to the 
 118:Generated_Source\PSoC4/BLE_hids.c **** *                      current event. (e.g. pointer to CYBLE_HIDS_CHAR_VALUE_T
 119:Generated_Source\PSoC4/BLE_hids.c **** *                      structure that contains details of the characteristic for 
 120:Generated_Source\PSoC4/BLE_hids.c **** *                      which notification enabled event was triggered).
 121:Generated_Source\PSoC4/BLE_hids.c **** *
 122:Generated_Source\PSoC4/BLE_hids.c **** *
 123:Generated_Source\PSoC4/BLE_hids.c **** * \sideeffect The *eventParams in the callback function should not be used by 
 124:Generated_Source\PSoC4/BLE_hids.c **** *                the application once the callback function execution is finished.
 125:Generated_Source\PSoC4/BLE_hids.c **** *                Otherwise this data may become corrupted.
 126:Generated_Source\PSoC4/BLE_hids.c **** * 
 127:Generated_Source\PSoC4/BLE_hids.c **** ******************************************************************************/
 128:Generated_Source\PSoC4/BLE_hids.c **** void CyBle_HidsRegisterAttrCallback(CYBLE_CALLBACK_T callbackFunc)
 129:Generated_Source\PSoC4/BLE_hids.c **** {
  90              		.loc 1 129 0
  91              		.cfi_startproc
  92              		@ args = 0, pretend = 0, frame = 8
  93              		@ frame_needed = 1, uses_anonymous_args = 0
  94 0000 80B5     		push	{r7, lr}
  95              		.cfi_def_cfa_offset 8
  96              		.cfi_offset 7, -8
  97              		.cfi_offset 14, -4
  98 0002 82B0     		sub	sp, sp, #8
  99              		.cfi_def_cfa_offset 16
ARM GAS  C:\Users\Intern\AppData\Local\Temp\ccVSLPFx.s 			page 5


 100 0004 00AF     		add	r7, sp, #0
 101              		.cfi_def_cfa_register 7
 102 0006 7860     		str	r0, [r7, #4]
 130:Generated_Source\PSoC4/BLE_hids.c ****     CyBle_HidsApplCallback = callbackFunc;
 103              		.loc 1 130 0
 104 0008 034B     		ldr	r3, .L3
 105 000a 7A68     		ldr	r2, [r7, #4]
 106 000c 1A60     		str	r2, [r3]
 131:Generated_Source\PSoC4/BLE_hids.c **** }
 107              		.loc 1 131 0
 108 000e C046     		nop
 109 0010 BD46     		mov	sp, r7
 110 0012 02B0     		add	sp, sp, #8
 111              		@ sp needed
 112 0014 80BD     		pop	{r7, pc}
 113              	.L4:
 114 0016 C046     		.align	2
 115              	.L3:
 116 0018 00000000 		.word	CyBle_HidsApplCallback
 117              		.cfi_endproc
 118              	.LFE3:
 119              		.size	CyBle_HidsRegisterAttrCallback, .-CyBle_HidsRegisterAttrCallback
 120              		.section	.text.CyBle_HidssSetCharacteristicValue,"ax",%progbits
 121              		.align	2
 122              		.global	CyBle_HidssSetCharacteristicValue
 123              		.code	16
 124              		.thumb_func
 125              		.type	CyBle_HidssSetCharacteristicValue, %function
 126              	CyBle_HidssSetCharacteristicValue:
 127              	.LFB4:
 132:Generated_Source\PSoC4/BLE_hids.c **** 
 133:Generated_Source\PSoC4/BLE_hids.c **** #ifdef CYBLE_HIDS_SERVER
 134:Generated_Source\PSoC4/BLE_hids.c **** 
 135:Generated_Source\PSoC4/BLE_hids.c **** 
 136:Generated_Source\PSoC4/BLE_hids.c **** /****************************************************************************** 
 137:Generated_Source\PSoC4/BLE_hids.c **** * Function Name: CyBle_HidssSetCharacteristicValue
 138:Generated_Source\PSoC4/BLE_hids.c **** ***************************************************************************//**
 139:Generated_Source\PSoC4/BLE_hids.c **** * 
 140:Generated_Source\PSoC4/BLE_hids.c **** *  Sets local characteristic value of the specified HID Service characteristics.
 141:Generated_Source\PSoC4/BLE_hids.c **** * 
 142:Generated_Source\PSoC4/BLE_hids.c **** *  \param serviceIndex: The index of the service instance. e.g. If two HID Services are 
 143:Generated_Source\PSoC4/BLE_hids.c **** *                 supported in your design, then first service will be identified
 144:Generated_Source\PSoC4/BLE_hids.c **** *                 by serviceIndex of 0 and the second by serviceIndex of 1.
 145:Generated_Source\PSoC4/BLE_hids.c **** *  \param charIndex: The index of a service characteristic.
 146:Generated_Source\PSoC4/BLE_hids.c **** *              * CYBLE_HIDS_PROTOCOL_MODE - Protocol Mode characteristic
 147:Generated_Source\PSoC4/BLE_hids.c **** *              * CYBLE_HIDS_REPORT_MAP - Report Map characteristic
 148:Generated_Source\PSoC4/BLE_hids.c **** *              * CYBLE_HIDS_INFORMATION - HID Information characteristic
 149:Generated_Source\PSoC4/BLE_hids.c **** *              * CYBLE_HIDS_CONTROL_POINT - HID Control Point characteristic
 150:Generated_Source\PSoC4/BLE_hids.c **** *              * CYBLE_HIDS_BOOT_KYBRD_IN_REP - Boot Keyboard Input Report Characteristic
 151:Generated_Source\PSoC4/BLE_hids.c **** *              * CYBLE_HIDS_BOOT_KYBRD_OUT_REP - Boot Keyboard Output Report Characteristic
 152:Generated_Source\PSoC4/BLE_hids.c **** *              * CYBLE_HIDS_BOOT_MOUSE_IN_REP - Boot Mouse Input Report Characteristic
 153:Generated_Source\PSoC4/BLE_hids.c **** *              * CYBLE_HIDS_REPORT - Report Characteristic
 154:Generated_Source\PSoC4/BLE_hids.c **** * 
 155:Generated_Source\PSoC4/BLE_hids.c **** *  \param attrSize: The size of the characteristic value attribute.
 156:Generated_Source\PSoC4/BLE_hids.c **** * 
 157:Generated_Source\PSoC4/BLE_hids.c **** *  \param attrValue: The pointer to the characteristic value data that should be 
 158:Generated_Source\PSoC4/BLE_hids.c **** *               stored in the GATT database.
ARM GAS  C:\Users\Intern\AppData\Local\Temp\ccVSLPFx.s 			page 6


 159:Generated_Source\PSoC4/BLE_hids.c **** * 
 160:Generated_Source\PSoC4/BLE_hids.c **** * \return
 161:Generated_Source\PSoC4/BLE_hids.c **** *  Return value is of type CYBLE_API_RESULT_T.
 162:Generated_Source\PSoC4/BLE_hids.c **** *  * CYBLE_ERROR_OK - The request handled successfully.
 163:Generated_Source\PSoC4/BLE_hids.c **** *  * CYBLE_ERROR_INVALID_PARAMETER - Validation of the input parameter failed.
 164:Generated_Source\PSoC4/BLE_hids.c **** *  * CYBLE_ERROR_GATT_DB_INVALID_ATTR_HANDLE - Optional characteristic is absent
 165:Generated_Source\PSoC4/BLE_hids.c **** *
 166:Generated_Source\PSoC4/BLE_hids.c **** *
 167:Generated_Source\PSoC4/BLE_hids.c **** ******************************************************************************/
 168:Generated_Source\PSoC4/BLE_hids.c **** CYBLE_API_RESULT_T CyBle_HidssSetCharacteristicValue(uint8 serviceIndex, CYBLE_HIDS_CHAR_INDEX_T ch
 169:Generated_Source\PSoC4/BLE_hids.c ****     uint8 attrSize, uint8 *attrValue)
 170:Generated_Source\PSoC4/BLE_hids.c **** {
 128              		.loc 1 170 0
 129              		.cfi_startproc
 130              		@ args = 0, pretend = 0, frame = 24
 131              		@ frame_needed = 1, uses_anonymous_args = 0
 132 0000 90B5     		push	{r4, r7, lr}
 133              		.cfi_def_cfa_offset 12
 134              		.cfi_offset 4, -12
 135              		.cfi_offset 7, -8
 136              		.cfi_offset 14, -4
 137 0002 87B0     		sub	sp, sp, #28
 138              		.cfi_def_cfa_offset 40
 139 0004 00AF     		add	r7, sp, #0
 140              		.cfi_def_cfa_register 7
 141 0006 0400     		movs	r4, r0
 142 0008 0800     		movs	r0, r1
 143 000a 1100     		movs	r1, r2
 144 000c 3B60     		str	r3, [r7]
 145 000e FB1D     		adds	r3, r7, #7
 146 0010 221C     		adds	r2, r4, #0
 147 0012 1A70     		strb	r2, [r3]
 148 0014 BB1D     		adds	r3, r7, #6
 149 0016 021C     		adds	r2, r0, #0
 150 0018 1A70     		strb	r2, [r3]
 151 001a 7B1D     		adds	r3, r7, #5
 152 001c 0A1C     		adds	r2, r1, #0
 153 001e 1A70     		strb	r2, [r3]
 171:Generated_Source\PSoC4/BLE_hids.c ****     CYBLE_API_RESULT_T apiResult = CYBLE_ERROR_OK;
 154              		.loc 1 171 0
 155 0020 1623     		movs	r3, #22
 156 0022 FB18     		adds	r3, r7, r3
 157 0024 0022     		movs	r2, #0
 158 0026 1A80     		strh	r2, [r3]
 172:Generated_Source\PSoC4/BLE_hids.c ****     CYBLE_GATT_DB_ATTR_HANDLE_T charValueHandle;
 173:Generated_Source\PSoC4/BLE_hids.c ****     CYBLE_GATT_HANDLE_VALUE_PAIR_T locHandleValuePair;
 174:Generated_Source\PSoC4/BLE_hids.c **** 
 175:Generated_Source\PSoC4/BLE_hids.c ****     if((serviceIndex >= CYBLE_HIDSS_SERVICE_COUNT) || (charIndex >= CYBLE_HIDS_CHAR_COUNT))
 159              		.loc 1 175 0
 160 0028 FB1D     		adds	r3, r7, #7
 161 002a 1B78     		ldrb	r3, [r3]
 162 002c 002B     		cmp	r3, #0
 163 002e 03D1     		bne	.L6
 164              		.loc 1 175 0 is_stmt 0 discriminator 1
 165 0030 BB1D     		adds	r3, r7, #6
 166 0032 1B78     		ldrb	r3, [r3]
 167 0034 072B     		cmp	r3, #7
ARM GAS  C:\Users\Intern\AppData\Local\Temp\ccVSLPFx.s 			page 7


 168 0036 04D9     		bls	.L7
 169              	.L6:
 176:Generated_Source\PSoC4/BLE_hids.c ****     {
 177:Generated_Source\PSoC4/BLE_hids.c ****         apiResult = CYBLE_ERROR_INVALID_PARAMETER;
 170              		.loc 1 177 0 is_stmt 1
 171 0038 1623     		movs	r3, #22
 172 003a FB18     		adds	r3, r7, r3
 173 003c 0122     		movs	r2, #1
 174 003e 1A80     		strh	r2, [r3]
 175 0040 BCE0     		b	.L8
 176              	.L7:
 178:Generated_Source\PSoC4/BLE_hids.c ****     }
 179:Generated_Source\PSoC4/BLE_hids.c ****     else
 180:Generated_Source\PSoC4/BLE_hids.c ****     {
 181:Generated_Source\PSoC4/BLE_hids.c ****         switch(charIndex)
 177              		.loc 1 181 0
 178 0042 BB1D     		adds	r3, r7, #6
 179 0044 1B78     		ldrb	r3, [r3]
 180 0046 062B     		cmp	r3, #6
 181 0048 66D8     		bhi	.L9
 182 004a 9A00     		lsls	r2, r3, #2
 183 004c 5F4B     		ldr	r3, .L24
 184 004e D318     		adds	r3, r2, r3
 185 0050 1B68     		ldr	r3, [r3]
 186 0052 9F46     		mov	pc, r3
 187              		.section	.rodata
 188              		.align	2
 189              	.L11:
 190 0030 54000000 		.word	.L10
 191 0034 8C000000 		.word	.L12
 192 0038 A8000000 		.word	.L13
 193 003c 70000000 		.word	.L14
 194 0040 C4000000 		.word	.L15
 195 0044 E0000000 		.word	.L16
 196 0048 FC000000 		.word	.L17
 197              		.section	.text.CyBle_HidssSetCharacteristicValue
 198              	.L10:
 182:Generated_Source\PSoC4/BLE_hids.c ****         {
 183:Generated_Source\PSoC4/BLE_hids.c ****             case CYBLE_HIDS_PROTOCOL_MODE:
 184:Generated_Source\PSoC4/BLE_hids.c ****                 charValueHandle = cyBle_hidss[serviceIndex].protocolModeHandle;
 199              		.loc 1 184 0
 200 0054 FB1D     		adds	r3, r7, #7
 201 0056 1A78     		ldrb	r2, [r3]
 202 0058 1423     		movs	r3, #20
 203 005a F918     		adds	r1, r7, r3
 204 005c 5C48     		ldr	r0, .L24+4
 205 005e 1300     		movs	r3, r2
 206 0060 9B00     		lsls	r3, r3, #2
 207 0062 9B18     		adds	r3, r3, r2
 208 0064 DB00     		lsls	r3, r3, #3
 209 0066 C318     		adds	r3, r0, r3
 210 0068 0233     		adds	r3, r3, #2
 211 006a 1B88     		ldrh	r3, [r3]
 212 006c 0B80     		strh	r3, [r1]
 185:Generated_Source\PSoC4/BLE_hids.c ****                 break;
 213              		.loc 1 185 0
 214 006e 7EE0     		b	.L18
ARM GAS  C:\Users\Intern\AppData\Local\Temp\ccVSLPFx.s 			page 8


 215              	.L14:
 186:Generated_Source\PSoC4/BLE_hids.c ****             case CYBLE_HIDS_REPORT_MAP:
 187:Generated_Source\PSoC4/BLE_hids.c ****                 charValueHandle = cyBle_hidss[serviceIndex].reportMapHandle;
 216              		.loc 1 187 0
 217 0070 FB1D     		adds	r3, r7, #7
 218 0072 1A78     		ldrb	r2, [r3]
 219 0074 1423     		movs	r3, #20
 220 0076 F918     		adds	r1, r7, r3
 221 0078 5548     		ldr	r0, .L24+4
 222 007a 1300     		movs	r3, r2
 223 007c 9B00     		lsls	r3, r3, #2
 224 007e 9B18     		adds	r3, r3, r2
 225 0080 DB00     		lsls	r3, r3, #3
 226 0082 C318     		adds	r3, r0, r3
 227 0084 1E33     		adds	r3, r3, #30
 228 0086 1B88     		ldrh	r3, [r3]
 229 0088 0B80     		strh	r3, [r1]
 188:Generated_Source\PSoC4/BLE_hids.c ****                 break;
 230              		.loc 1 188 0
 231 008a 70E0     		b	.L18
 232              	.L12:
 189:Generated_Source\PSoC4/BLE_hids.c ****             case CYBLE_HIDS_INFORMATION:
 190:Generated_Source\PSoC4/BLE_hids.c ****                 charValueHandle = cyBle_hidss[serviceIndex].informationHandle;
 233              		.loc 1 190 0
 234 008c FB1D     		adds	r3, r7, #7
 235 008e 1A78     		ldrb	r2, [r3]
 236 0090 1423     		movs	r3, #20
 237 0092 F918     		adds	r1, r7, r3
 238 0094 4E48     		ldr	r0, .L24+4
 239 0096 1300     		movs	r3, r2
 240 0098 9B00     		lsls	r3, r3, #2
 241 009a 9B18     		adds	r3, r3, r2
 242 009c DB00     		lsls	r3, r3, #3
 243 009e C318     		adds	r3, r0, r3
 244 00a0 2233     		adds	r3, r3, #34
 245 00a2 1B88     		ldrh	r3, [r3]
 246 00a4 0B80     		strh	r3, [r1]
 191:Generated_Source\PSoC4/BLE_hids.c ****                 break;
 247              		.loc 1 191 0
 248 00a6 62E0     		b	.L18
 249              	.L13:
 192:Generated_Source\PSoC4/BLE_hids.c ****             case CYBLE_HIDS_CONTROL_POINT:
 193:Generated_Source\PSoC4/BLE_hids.c ****                 charValueHandle = cyBle_hidss[serviceIndex].controlPointHandle;
 250              		.loc 1 193 0
 251 00a8 FB1D     		adds	r3, r7, #7
 252 00aa 1A78     		ldrb	r2, [r3]
 253 00ac 1423     		movs	r3, #20
 254 00ae F918     		adds	r1, r7, r3
 255 00b0 4748     		ldr	r0, .L24+4
 256 00b2 1300     		movs	r3, r2
 257 00b4 9B00     		lsls	r3, r3, #2
 258 00b6 9B18     		adds	r3, r3, r2
 259 00b8 DB00     		lsls	r3, r3, #3
 260 00ba C318     		adds	r3, r0, r3
 261 00bc 2433     		adds	r3, r3, #36
 262 00be 1B88     		ldrh	r3, [r3]
 263 00c0 0B80     		strh	r3, [r1]
ARM GAS  C:\Users\Intern\AppData\Local\Temp\ccVSLPFx.s 			page 9


 194:Generated_Source\PSoC4/BLE_hids.c ****                 break;
 264              		.loc 1 194 0
 265 00c2 54E0     		b	.L18
 266              	.L15:
 195:Generated_Source\PSoC4/BLE_hids.c ****             case CYBLE_HIDS_BOOT_KYBRD_IN_REP:
 196:Generated_Source\PSoC4/BLE_hids.c ****                 charValueHandle = cyBle_hidss[serviceIndex].bootReportArray[CYBLE_HIDS_BOOT_KYBRD_I
 267              		.loc 1 196 0
 268 00c4 FB1D     		adds	r3, r7, #7
 269 00c6 1A78     		ldrb	r2, [r3]
 270 00c8 1423     		movs	r3, #20
 271 00ca F918     		adds	r1, r7, r3
 272 00cc 4048     		ldr	r0, .L24+4
 273 00ce 1300     		movs	r3, r2
 274 00d0 9B00     		lsls	r3, r3, #2
 275 00d2 9B18     		adds	r3, r3, r2
 276 00d4 DB00     		lsls	r3, r3, #3
 277 00d6 C318     		adds	r3, r0, r3
 278 00d8 0C33     		adds	r3, r3, #12
 279 00da 1B88     		ldrh	r3, [r3]
 280 00dc 0B80     		strh	r3, [r1]
 197:Generated_Source\PSoC4/BLE_hids.c ****                     reportHandle;
 198:Generated_Source\PSoC4/BLE_hids.c ****                 break;
 281              		.loc 1 198 0
 282 00de 46E0     		b	.L18
 283              	.L16:
 199:Generated_Source\PSoC4/BLE_hids.c ****             case CYBLE_HIDS_BOOT_KYBRD_OUT_REP:
 200:Generated_Source\PSoC4/BLE_hids.c ****                 charValueHandle = cyBle_hidss[serviceIndex].bootReportArray[CYBLE_HIDS_BOOT_KYBRD_O
 284              		.loc 1 200 0
 285 00e0 FB1D     		adds	r3, r7, #7
 286 00e2 1A78     		ldrb	r2, [r3]
 287 00e4 1423     		movs	r3, #20
 288 00e6 F918     		adds	r1, r7, r3
 289 00e8 3948     		ldr	r0, .L24+4
 290 00ea 1300     		movs	r3, r2
 291 00ec 9B00     		lsls	r3, r3, #2
 292 00ee 9B18     		adds	r3, r3, r2
 293 00f0 DB00     		lsls	r3, r3, #3
 294 00f2 C318     		adds	r3, r0, r3
 295 00f4 1233     		adds	r3, r3, #18
 296 00f6 1B88     		ldrh	r3, [r3]
 297 00f8 0B80     		strh	r3, [r1]
 201:Generated_Source\PSoC4/BLE_hids.c ****                     reportHandle;
 202:Generated_Source\PSoC4/BLE_hids.c ****                 break;
 298              		.loc 1 202 0
 299 00fa 38E0     		b	.L18
 300              	.L17:
 203:Generated_Source\PSoC4/BLE_hids.c ****             case CYBLE_HIDS_BOOT_MOUSE_IN_REP:
 204:Generated_Source\PSoC4/BLE_hids.c ****                 charValueHandle = cyBle_hidss[serviceIndex].bootReportArray[CYBLE_HIDS_BOOT_MOUSE_I
 301              		.loc 1 204 0
 302 00fc FB1D     		adds	r3, r7, #7
 303 00fe 1A78     		ldrb	r2, [r3]
 304 0100 1423     		movs	r3, #20
 305 0102 F918     		adds	r1, r7, r3
 306 0104 3248     		ldr	r0, .L24+4
 307 0106 1300     		movs	r3, r2
 308 0108 9B00     		lsls	r3, r3, #2
 309 010a 9B18     		adds	r3, r3, r2
ARM GAS  C:\Users\Intern\AppData\Local\Temp\ccVSLPFx.s 			page 10


 310 010c DB00     		lsls	r3, r3, #3
 311 010e C318     		adds	r3, r0, r3
 312 0110 1833     		adds	r3, r3, #24
 313 0112 1B88     		ldrh	r3, [r3]
 314 0114 0B80     		strh	r3, [r1]
 205:Generated_Source\PSoC4/BLE_hids.c ****                     reportHandle;
 206:Generated_Source\PSoC4/BLE_hids.c ****                 break;
 315              		.loc 1 206 0
 316 0116 2AE0     		b	.L18
 317              	.L9:
 207:Generated_Source\PSoC4/BLE_hids.c ****             default:                    /* Report characteristic */
 208:Generated_Source\PSoC4/BLE_hids.c ****                 /* Verify that requested report exists in particular service */
 209:Generated_Source\PSoC4/BLE_hids.c ****                 if((charIndex - CYBLE_HIDS_REPORT) < cyBle_hidss[serviceIndex].reportCount)
 318              		.loc 1 209 0
 319 0118 BB1D     		adds	r3, r7, #6
 320 011a 1B78     		ldrb	r3, [r3]
 321 011c D91F     		subs	r1, r3, #7
 322 011e FB1D     		adds	r3, r7, #7
 323 0120 1A78     		ldrb	r2, [r3]
 324 0122 2B48     		ldr	r0, .L24+4
 325 0124 1300     		movs	r3, r2
 326 0126 9B00     		lsls	r3, r3, #2
 327 0128 9B18     		adds	r3, r3, r2
 328 012a DB00     		lsls	r3, r3, #3
 329 012c C318     		adds	r3, r0, r3
 330 012e 0433     		adds	r3, r3, #4
 331 0130 1B78     		ldrb	r3, [r3]
 332 0132 9942     		cmp	r1, r3
 333 0134 16DA     		bge	.L19
 210:Generated_Source\PSoC4/BLE_hids.c ****                 {
 211:Generated_Source\PSoC4/BLE_hids.c ****                     charValueHandle = cyBle_hidss[serviceIndex].reportArray[charIndex - CYBLE_HIDS_
 334              		.loc 1 211 0
 335 0136 FB1D     		adds	r3, r7, #7
 336 0138 1A78     		ldrb	r2, [r3]
 337 013a 2549     		ldr	r1, .L24+4
 338 013c 1300     		movs	r3, r2
 339 013e 9B00     		lsls	r3, r3, #2
 340 0140 9B18     		adds	r3, r3, r2
 341 0142 DB00     		lsls	r3, r3, #3
 342 0144 CB18     		adds	r3, r1, r3
 343 0146 0833     		adds	r3, r3, #8
 344 0148 1968     		ldr	r1, [r3]
 345 014a BB1D     		adds	r3, r7, #6
 346 014c 1A78     		ldrb	r2, [r3]
 347 014e 1300     		movs	r3, r2
 348 0150 5B00     		lsls	r3, r3, #1
 349 0152 9B18     		adds	r3, r3, r2
 350 0154 5B00     		lsls	r3, r3, #1
 351 0156 2A3B     		subs	r3, r3, #42
 352 0158 CA18     		adds	r2, r1, r3
 353 015a 1423     		movs	r3, #20
 354 015c FB18     		adds	r3, r7, r3
 355 015e 1288     		ldrh	r2, [r2]
 356 0160 1A80     		strh	r2, [r3]
 212:Generated_Source\PSoC4/BLE_hids.c ****                 }
 213:Generated_Source\PSoC4/BLE_hids.c ****                 else
 214:Generated_Source\PSoC4/BLE_hids.c ****                 {
ARM GAS  C:\Users\Intern\AppData\Local\Temp\ccVSLPFx.s 			page 11


 215:Generated_Source\PSoC4/BLE_hids.c ****                     charValueHandle = CYBLE_GATT_INVALID_ATTR_HANDLE_VALUE;
 216:Generated_Source\PSoC4/BLE_hids.c ****                 }
 217:Generated_Source\PSoC4/BLE_hids.c ****                 break;
 357              		.loc 1 217 0
 358 0162 03E0     		b	.L23
 359              	.L19:
 215:Generated_Source\PSoC4/BLE_hids.c ****                 }
 360              		.loc 1 215 0
 361 0164 1423     		movs	r3, #20
 362 0166 FB18     		adds	r3, r7, r3
 363 0168 0022     		movs	r2, #0
 364 016a 1A80     		strh	r2, [r3]
 365              	.L23:
 366              		.loc 1 217 0
 367 016c C046     		nop
 368              	.L18:
 218:Generated_Source\PSoC4/BLE_hids.c ****         }
 219:Generated_Source\PSoC4/BLE_hids.c ****         if(charValueHandle == CYBLE_GATT_INVALID_ATTR_HANDLE_VALUE)
 369              		.loc 1 219 0
 370 016e 1423     		movs	r3, #20
 371 0170 FB18     		adds	r3, r7, r3
 372 0172 1B88     		ldrh	r3, [r3]
 373 0174 002B     		cmp	r3, #0
 374 0176 04D1     		bne	.L21
 220:Generated_Source\PSoC4/BLE_hids.c ****         {
 221:Generated_Source\PSoC4/BLE_hids.c ****             apiResult = CYBLE_ERROR_GATT_DB_INVALID_ATTR_HANDLE;
 375              		.loc 1 221 0
 376 0178 1623     		movs	r3, #22
 377 017a FB18     		adds	r3, r7, r3
 378 017c 1322     		movs	r2, #19
 379 017e 1A80     		strh	r2, [r3]
 380 0180 1CE0     		b	.L8
 381              	.L21:
 222:Generated_Source\PSoC4/BLE_hids.c ****         }
 223:Generated_Source\PSoC4/BLE_hids.c ****         else
 224:Generated_Source\PSoC4/BLE_hids.c ****         {
 225:Generated_Source\PSoC4/BLE_hids.c ****             /* Store data in database */
 226:Generated_Source\PSoC4/BLE_hids.c ****             locHandleValuePair.attrHandle = charValueHandle;
 382              		.loc 1 226 0
 383 0182 0823     		movs	r3, #8
 384 0184 FB18     		adds	r3, r7, r3
 385 0186 1422     		movs	r2, #20
 386 0188 BA18     		adds	r2, r7, r2
 387 018a 1288     		ldrh	r2, [r2]
 388 018c 1A81     		strh	r2, [r3, #8]
 227:Generated_Source\PSoC4/BLE_hids.c ****             locHandleValuePair.value.len = attrSize;
 389              		.loc 1 227 0
 390 018e 7B1D     		adds	r3, r7, #5
 391 0190 1B78     		ldrb	r3, [r3]
 392 0192 9AB2     		uxth	r2, r3
 393 0194 0823     		movs	r3, #8
 394 0196 FB18     		adds	r3, r7, r3
 395 0198 9A80     		strh	r2, [r3, #4]
 228:Generated_Source\PSoC4/BLE_hids.c ****             locHandleValuePair.value.val = attrValue;
 396              		.loc 1 228 0
 397 019a 0823     		movs	r3, #8
 398 019c FB18     		adds	r3, r7, r3
ARM GAS  C:\Users\Intern\AppData\Local\Temp\ccVSLPFx.s 			page 12


 399 019e 3A68     		ldr	r2, [r7]
 400 01a0 1A60     		str	r2, [r3]
 229:Generated_Source\PSoC4/BLE_hids.c **** 
 230:Generated_Source\PSoC4/BLE_hids.c ****             if(CYBLE_GATT_ERR_NONE !=
 231:Generated_Source\PSoC4/BLE_hids.c ****                 CyBle_GattsWriteAttributeValue(&locHandleValuePair, 0u, NULL, CYBLE_GATT_DB_LOCALLY
 401              		.loc 1 231 0
 402 01a2 0823     		movs	r3, #8
 403 01a4 F818     		adds	r0, r7, r3
 404 01a6 0023     		movs	r3, #0
 405 01a8 0022     		movs	r2, #0
 406 01aa 0021     		movs	r1, #0
 407 01ac FFF7FEFF 		bl	CyBle_GattsWriteAttributeValue
 408 01b0 031E     		subs	r3, r0, #0
 230:Generated_Source\PSoC4/BLE_hids.c ****                 CyBle_GattsWriteAttributeValue(&locHandleValuePair, 0u, NULL, CYBLE_GATT_DB_LOCALLY
 409              		.loc 1 230 0
 410 01b2 03D0     		beq	.L8
 232:Generated_Source\PSoC4/BLE_hids.c ****             {
 233:Generated_Source\PSoC4/BLE_hids.c ****                 apiResult = CYBLE_ERROR_INVALID_PARAMETER;
 411              		.loc 1 233 0
 412 01b4 1623     		movs	r3, #22
 413 01b6 FB18     		adds	r3, r7, r3
 414 01b8 0122     		movs	r2, #1
 415 01ba 1A80     		strh	r2, [r3]
 416              	.L8:
 234:Generated_Source\PSoC4/BLE_hids.c ****             }
 235:Generated_Source\PSoC4/BLE_hids.c ****         }
 236:Generated_Source\PSoC4/BLE_hids.c ****     }
 237:Generated_Source\PSoC4/BLE_hids.c ****     return (apiResult);
 417              		.loc 1 237 0
 418 01bc 1623     		movs	r3, #22
 419 01be FB18     		adds	r3, r7, r3
 420 01c0 1B88     		ldrh	r3, [r3]
 238:Generated_Source\PSoC4/BLE_hids.c **** }
 421              		.loc 1 238 0
 422 01c2 1800     		movs	r0, r3
 423 01c4 BD46     		mov	sp, r7
 424 01c6 07B0     		add	sp, sp, #28
 425              		@ sp needed
 426 01c8 90BD     		pop	{r4, r7, pc}
 427              	.L25:
 428 01ca C046     		.align	2
 429              	.L24:
 430 01cc 30000000 		.word	.L11
 431 01d0 00000000 		.word	cyBle_hidss
 432              		.cfi_endproc
 433              	.LFE4:
 434              		.size	CyBle_HidssSetCharacteristicValue, .-CyBle_HidssSetCharacteristicValue
 435              		.section	.text.CyBle_HidssGetCharacteristicValue,"ax",%progbits
 436              		.align	2
 437              		.global	CyBle_HidssGetCharacteristicValue
 438              		.code	16
 439              		.thumb_func
 440              		.type	CyBle_HidssGetCharacteristicValue, %function
 441              	CyBle_HidssGetCharacteristicValue:
 442              	.LFB5:
 239:Generated_Source\PSoC4/BLE_hids.c **** 
 240:Generated_Source\PSoC4/BLE_hids.c **** 
ARM GAS  C:\Users\Intern\AppData\Local\Temp\ccVSLPFx.s 			page 13


 241:Generated_Source\PSoC4/BLE_hids.c **** /****************************************************************************** 
 242:Generated_Source\PSoC4/BLE_hids.c **** * Function Name: CyBle_HidssGetCharacteristicValue
 243:Generated_Source\PSoC4/BLE_hids.c **** ***************************************************************************//**
 244:Generated_Source\PSoC4/BLE_hids.c **** * 
 245:Generated_Source\PSoC4/BLE_hids.c **** *  Gets local characteristic value of the specified HID Service characteristics.
 246:Generated_Source\PSoC4/BLE_hids.c **** * 
 247:Generated_Source\PSoC4/BLE_hids.c **** *  \param serviceIndex: The index of the service instance. e.g. If two HID Services are 
 248:Generated_Source\PSoC4/BLE_hids.c **** *                 supported in your design, then first service will be identified
 249:Generated_Source\PSoC4/BLE_hids.c **** *                 by serviceIndex of 0 and the second by serviceIndex of 1.
 250:Generated_Source\PSoC4/BLE_hids.c **** * 
 251:Generated_Source\PSoC4/BLE_hids.c **** *  \param charIndex: The index of the service characteristic. 
 252:Generated_Source\PSoC4/BLE_hids.c **** *              * CYBLE_HIDS_PROTOCOL_MODE - Protocol Mode characteristic
 253:Generated_Source\PSoC4/BLE_hids.c **** *              * CYBLE_HIDS_REPORT_MAP - Report Map characteristic
 254:Generated_Source\PSoC4/BLE_hids.c **** *              * CYBLE_HIDS_INFORMATION - HID Information characteristic
 255:Generated_Source\PSoC4/BLE_hids.c **** *              * CYBLE_HIDS_CONTROL_POINT - HID Control Point characteristic
 256:Generated_Source\PSoC4/BLE_hids.c **** *              * CYBLE_HIDS_BOOT_KYBRD_IN_REP - Boot Keyboard Input Report Characteristic
 257:Generated_Source\PSoC4/BLE_hids.c **** *              * CYBLE_HIDS_BOOT_KYBRD_OUT_REP - Boot Keyboard Output Report Characteristic
 258:Generated_Source\PSoC4/BLE_hids.c **** *              * CYBLE_HIDS_BOOT_MOUSE_IN_REP - Boot Mouse Input Report Characteristic
 259:Generated_Source\PSoC4/BLE_hids.c **** *              * CYBLE_HIDS_REPORT - Report Characteristic
 260:Generated_Source\PSoC4/BLE_hids.c **** * 
 261:Generated_Source\PSoC4/BLE_hids.c **** *  \param attrSize: The size of the characteristic value attribute.
 262:Generated_Source\PSoC4/BLE_hids.c **** * 
 263:Generated_Source\PSoC4/BLE_hids.c **** *  \param attrValue: The pointer to the location where characteristic value data
 264:Generated_Source\PSoC4/BLE_hids.c **** *               should be stored.
 265:Generated_Source\PSoC4/BLE_hids.c **** * 
 266:Generated_Source\PSoC4/BLE_hids.c **** * \return
 267:Generated_Source\PSoC4/BLE_hids.c **** *  Return value is of type CYBLE_API_RESULT_T.
 268:Generated_Source\PSoC4/BLE_hids.c **** *  * CYBLE_ERROR_OK - The request handled successfully
 269:Generated_Source\PSoC4/BLE_hids.c **** *  * CYBLE_ERROR_INVALID_PARAMETER - Validation of the input parameter failed
 270:Generated_Source\PSoC4/BLE_hids.c **** *  * CYBLE_ERROR_GATT_DB_INVALID_ATTR_HANDLE - Optional characteristic is absent
 271:Generated_Source\PSoC4/BLE_hids.c **** *
 272:Generated_Source\PSoC4/BLE_hids.c **** *
 273:Generated_Source\PSoC4/BLE_hids.c **** ******************************************************************************/
 274:Generated_Source\PSoC4/BLE_hids.c **** CYBLE_API_RESULT_T CyBle_HidssGetCharacteristicValue(uint8 serviceIndex, CYBLE_HIDS_CHAR_INDEX_T ch
 275:Generated_Source\PSoC4/BLE_hids.c ****     uint8 attrSize, uint8 *attrValue)
 276:Generated_Source\PSoC4/BLE_hids.c **** {
 443              		.loc 1 276 0
 444              		.cfi_startproc
 445              		@ args = 0, pretend = 0, frame = 24
 446              		@ frame_needed = 1, uses_anonymous_args = 0
 447 0000 90B5     		push	{r4, r7, lr}
 448              		.cfi_def_cfa_offset 12
 449              		.cfi_offset 4, -12
 450              		.cfi_offset 7, -8
 451              		.cfi_offset 14, -4
 452 0002 87B0     		sub	sp, sp, #28
 453              		.cfi_def_cfa_offset 40
 454 0004 00AF     		add	r7, sp, #0
 455              		.cfi_def_cfa_register 7
 456 0006 0400     		movs	r4, r0
 457 0008 0800     		movs	r0, r1
 458 000a 1100     		movs	r1, r2
 459 000c 3B60     		str	r3, [r7]
 460 000e FB1D     		adds	r3, r7, #7
 461 0010 221C     		adds	r2, r4, #0
 462 0012 1A70     		strb	r2, [r3]
 463 0014 BB1D     		adds	r3, r7, #6
ARM GAS  C:\Users\Intern\AppData\Local\Temp\ccVSLPFx.s 			page 14


 464 0016 021C     		adds	r2, r0, #0
 465 0018 1A70     		strb	r2, [r3]
 466 001a 7B1D     		adds	r3, r7, #5
 467 001c 0A1C     		adds	r2, r1, #0
 468 001e 1A70     		strb	r2, [r3]
 277:Generated_Source\PSoC4/BLE_hids.c ****     CYBLE_API_RESULT_T apiResult = CYBLE_ERROR_OK;
 469              		.loc 1 277 0
 470 0020 1623     		movs	r3, #22
 471 0022 FB18     		adds	r3, r7, r3
 472 0024 0022     		movs	r2, #0
 473 0026 1A80     		strh	r2, [r3]
 278:Generated_Source\PSoC4/BLE_hids.c ****     CYBLE_GATT_DB_ATTR_HANDLE_T charValueHandle;
 279:Generated_Source\PSoC4/BLE_hids.c ****     CYBLE_GATT_HANDLE_VALUE_PAIR_T locHandleValuePair;
 280:Generated_Source\PSoC4/BLE_hids.c **** 
 281:Generated_Source\PSoC4/BLE_hids.c ****     if((serviceIndex >= CYBLE_HIDSS_SERVICE_COUNT) || (charIndex >= CYBLE_HIDS_CHAR_COUNT))
 474              		.loc 1 281 0
 475 0028 FB1D     		adds	r3, r7, #7
 476 002a 1B78     		ldrb	r3, [r3]
 477 002c 002B     		cmp	r3, #0
 478 002e 03D1     		bne	.L27
 479              		.loc 1 281 0 is_stmt 0 discriminator 1
 480 0030 BB1D     		adds	r3, r7, #6
 481 0032 1B78     		ldrb	r3, [r3]
 482 0034 072B     		cmp	r3, #7
 483 0036 04D9     		bls	.L28
 484              	.L27:
 282:Generated_Source\PSoC4/BLE_hids.c ****     {
 283:Generated_Source\PSoC4/BLE_hids.c ****         apiResult = CYBLE_ERROR_INVALID_PARAMETER;
 485              		.loc 1 283 0 is_stmt 1
 486 0038 1623     		movs	r3, #22
 487 003a FB18     		adds	r3, r7, r3
 488 003c 0122     		movs	r2, #1
 489 003e 1A80     		strh	r2, [r3]
 490 0040 BCE0     		b	.L29
 491              	.L28:
 284:Generated_Source\PSoC4/BLE_hids.c ****     }
 285:Generated_Source\PSoC4/BLE_hids.c ****     else
 286:Generated_Source\PSoC4/BLE_hids.c ****     {
 287:Generated_Source\PSoC4/BLE_hids.c ****         switch(charIndex)
 492              		.loc 1 287 0
 493 0042 BB1D     		adds	r3, r7, #6
 494 0044 1B78     		ldrb	r3, [r3]
 495 0046 062B     		cmp	r3, #6
 496 0048 66D8     		bhi	.L30
 497 004a 9A00     		lsls	r2, r3, #2
 498 004c 5F4B     		ldr	r3, .L45
 499 004e D318     		adds	r3, r2, r3
 500 0050 1B68     		ldr	r3, [r3]
 501 0052 9F46     		mov	pc, r3
 502              		.section	.rodata
 503              		.align	2
 504              	.L32:
 505 004c 54000000 		.word	.L31
 506 0050 8C000000 		.word	.L33
 507 0054 A8000000 		.word	.L34
 508 0058 70000000 		.word	.L35
 509 005c C4000000 		.word	.L36
ARM GAS  C:\Users\Intern\AppData\Local\Temp\ccVSLPFx.s 			page 15


 510 0060 E0000000 		.word	.L37
 511 0064 FC000000 		.word	.L38
 512              		.section	.text.CyBle_HidssGetCharacteristicValue
 513              	.L31:
 288:Generated_Source\PSoC4/BLE_hids.c ****         {
 289:Generated_Source\PSoC4/BLE_hids.c ****             case CYBLE_HIDS_PROTOCOL_MODE:
 290:Generated_Source\PSoC4/BLE_hids.c ****                 charValueHandle = cyBle_hidss[serviceIndex].protocolModeHandle;
 514              		.loc 1 290 0
 515 0054 FB1D     		adds	r3, r7, #7
 516 0056 1A78     		ldrb	r2, [r3]
 517 0058 1423     		movs	r3, #20
 518 005a F918     		adds	r1, r7, r3
 519 005c 5C48     		ldr	r0, .L45+4
 520 005e 1300     		movs	r3, r2
 521 0060 9B00     		lsls	r3, r3, #2
 522 0062 9B18     		adds	r3, r3, r2
 523 0064 DB00     		lsls	r3, r3, #3
 524 0066 C318     		adds	r3, r0, r3
 525 0068 0233     		adds	r3, r3, #2
 526 006a 1B88     		ldrh	r3, [r3]
 527 006c 0B80     		strh	r3, [r1]
 291:Generated_Source\PSoC4/BLE_hids.c ****                 break;
 528              		.loc 1 291 0
 529 006e 7EE0     		b	.L39
 530              	.L35:
 292:Generated_Source\PSoC4/BLE_hids.c ****             case CYBLE_HIDS_REPORT_MAP:
 293:Generated_Source\PSoC4/BLE_hids.c ****                 charValueHandle = cyBle_hidss[serviceIndex].reportMapHandle;
 531              		.loc 1 293 0
 532 0070 FB1D     		adds	r3, r7, #7
 533 0072 1A78     		ldrb	r2, [r3]
 534 0074 1423     		movs	r3, #20
 535 0076 F918     		adds	r1, r7, r3
 536 0078 5548     		ldr	r0, .L45+4
 537 007a 1300     		movs	r3, r2
 538 007c 9B00     		lsls	r3, r3, #2
 539 007e 9B18     		adds	r3, r3, r2
 540 0080 DB00     		lsls	r3, r3, #3
 541 0082 C318     		adds	r3, r0, r3
 542 0084 1E33     		adds	r3, r3, #30
 543 0086 1B88     		ldrh	r3, [r3]
 544 0088 0B80     		strh	r3, [r1]
 294:Generated_Source\PSoC4/BLE_hids.c ****                 break;
 545              		.loc 1 294 0
 546 008a 70E0     		b	.L39
 547              	.L33:
 295:Generated_Source\PSoC4/BLE_hids.c ****             case CYBLE_HIDS_INFORMATION:
 296:Generated_Source\PSoC4/BLE_hids.c ****                 charValueHandle = cyBle_hidss[serviceIndex].informationHandle;
 548              		.loc 1 296 0
 549 008c FB1D     		adds	r3, r7, #7
 550 008e 1A78     		ldrb	r2, [r3]
 551 0090 1423     		movs	r3, #20
 552 0092 F918     		adds	r1, r7, r3
 553 0094 4E48     		ldr	r0, .L45+4
 554 0096 1300     		movs	r3, r2
 555 0098 9B00     		lsls	r3, r3, #2
 556 009a 9B18     		adds	r3, r3, r2
 557 009c DB00     		lsls	r3, r3, #3
ARM GAS  C:\Users\Intern\AppData\Local\Temp\ccVSLPFx.s 			page 16


 558 009e C318     		adds	r3, r0, r3
 559 00a0 2233     		adds	r3, r3, #34
 560 00a2 1B88     		ldrh	r3, [r3]
 561 00a4 0B80     		strh	r3, [r1]
 297:Generated_Source\PSoC4/BLE_hids.c ****                 break;
 562              		.loc 1 297 0
 563 00a6 62E0     		b	.L39
 564              	.L34:
 298:Generated_Source\PSoC4/BLE_hids.c ****             case CYBLE_HIDS_CONTROL_POINT:
 299:Generated_Source\PSoC4/BLE_hids.c ****                 charValueHandle = cyBle_hidss[serviceIndex].controlPointHandle;
 565              		.loc 1 299 0
 566 00a8 FB1D     		adds	r3, r7, #7
 567 00aa 1A78     		ldrb	r2, [r3]
 568 00ac 1423     		movs	r3, #20
 569 00ae F918     		adds	r1, r7, r3
 570 00b0 4748     		ldr	r0, .L45+4
 571 00b2 1300     		movs	r3, r2
 572 00b4 9B00     		lsls	r3, r3, #2
 573 00b6 9B18     		adds	r3, r3, r2
 574 00b8 DB00     		lsls	r3, r3, #3
 575 00ba C318     		adds	r3, r0, r3
 576 00bc 2433     		adds	r3, r3, #36
 577 00be 1B88     		ldrh	r3, [r3]
 578 00c0 0B80     		strh	r3, [r1]
 300:Generated_Source\PSoC4/BLE_hids.c ****                 break;
 579              		.loc 1 300 0
 580 00c2 54E0     		b	.L39
 581              	.L36:
 301:Generated_Source\PSoC4/BLE_hids.c ****             case CYBLE_HIDS_BOOT_KYBRD_IN_REP:
 302:Generated_Source\PSoC4/BLE_hids.c ****                 charValueHandle =
 303:Generated_Source\PSoC4/BLE_hids.c ****                     cyBle_hidss[serviceIndex].bootReportArray[CYBLE_HIDS_BOOT_KYBRD_IN_REP_INDX].re
 582              		.loc 1 303 0
 583 00c4 FB1D     		adds	r3, r7, #7
 584 00c6 1A78     		ldrb	r2, [r3]
 302:Generated_Source\PSoC4/BLE_hids.c ****                     cyBle_hidss[serviceIndex].bootReportArray[CYBLE_HIDS_BOOT_KYBRD_IN_REP_INDX].re
 585              		.loc 1 302 0
 586 00c8 1423     		movs	r3, #20
 587 00ca F918     		adds	r1, r7, r3
 588 00cc 4048     		ldr	r0, .L45+4
 589 00ce 1300     		movs	r3, r2
 590 00d0 9B00     		lsls	r3, r3, #2
 591 00d2 9B18     		adds	r3, r3, r2
 592 00d4 DB00     		lsls	r3, r3, #3
 593 00d6 C318     		adds	r3, r0, r3
 594 00d8 0C33     		adds	r3, r3, #12
 595 00da 1B88     		ldrh	r3, [r3]
 596 00dc 0B80     		strh	r3, [r1]
 304:Generated_Source\PSoC4/BLE_hids.c ****                 break;
 597              		.loc 1 304 0
 598 00de 46E0     		b	.L39
 599              	.L37:
 305:Generated_Source\PSoC4/BLE_hids.c ****             case CYBLE_HIDS_BOOT_KYBRD_OUT_REP:
 306:Generated_Source\PSoC4/BLE_hids.c ****                 charValueHandle =
 307:Generated_Source\PSoC4/BLE_hids.c ****                     cyBle_hidss[serviceIndex].bootReportArray[CYBLE_HIDS_BOOT_KYBRD_OUT_REP_INDX].r
 600              		.loc 1 307 0
 601 00e0 FB1D     		adds	r3, r7, #7
 602 00e2 1A78     		ldrb	r2, [r3]
ARM GAS  C:\Users\Intern\AppData\Local\Temp\ccVSLPFx.s 			page 17


 306:Generated_Source\PSoC4/BLE_hids.c ****                     cyBle_hidss[serviceIndex].bootReportArray[CYBLE_HIDS_BOOT_KYBRD_OUT_REP_INDX].r
 603              		.loc 1 306 0
 604 00e4 1423     		movs	r3, #20
 605 00e6 F918     		adds	r1, r7, r3
 606 00e8 3948     		ldr	r0, .L45+4
 607 00ea 1300     		movs	r3, r2
 608 00ec 9B00     		lsls	r3, r3, #2
 609 00ee 9B18     		adds	r3, r3, r2
 610 00f0 DB00     		lsls	r3, r3, #3
 611 00f2 C318     		adds	r3, r0, r3
 612 00f4 1233     		adds	r3, r3, #18
 613 00f6 1B88     		ldrh	r3, [r3]
 614 00f8 0B80     		strh	r3, [r1]
 308:Generated_Source\PSoC4/BLE_hids.c ****                 break;
 615              		.loc 1 308 0
 616 00fa 38E0     		b	.L39
 617              	.L38:
 309:Generated_Source\PSoC4/BLE_hids.c ****             case CYBLE_HIDS_BOOT_MOUSE_IN_REP:
 310:Generated_Source\PSoC4/BLE_hids.c ****                 charValueHandle =
 311:Generated_Source\PSoC4/BLE_hids.c ****                     cyBle_hidss[serviceIndex].bootReportArray[CYBLE_HIDS_BOOT_MOUSE_IN_REP_INDX].re
 618              		.loc 1 311 0
 619 00fc FB1D     		adds	r3, r7, #7
 620 00fe 1A78     		ldrb	r2, [r3]
 310:Generated_Source\PSoC4/BLE_hids.c ****                     cyBle_hidss[serviceIndex].bootReportArray[CYBLE_HIDS_BOOT_MOUSE_IN_REP_INDX].re
 621              		.loc 1 310 0
 622 0100 1423     		movs	r3, #20
 623 0102 F918     		adds	r1, r7, r3
 624 0104 3248     		ldr	r0, .L45+4
 625 0106 1300     		movs	r3, r2
 626 0108 9B00     		lsls	r3, r3, #2
 627 010a 9B18     		adds	r3, r3, r2
 628 010c DB00     		lsls	r3, r3, #3
 629 010e C318     		adds	r3, r0, r3
 630 0110 1833     		adds	r3, r3, #24
 631 0112 1B88     		ldrh	r3, [r3]
 632 0114 0B80     		strh	r3, [r1]
 312:Generated_Source\PSoC4/BLE_hids.c ****                 break;
 633              		.loc 1 312 0
 634 0116 2AE0     		b	.L39
 635              	.L30:
 313:Generated_Source\PSoC4/BLE_hids.c ****             default:                    /* Report characteristic */
 314:Generated_Source\PSoC4/BLE_hids.c ****                 /* Verify that requested report exists in particular service */
 315:Generated_Source\PSoC4/BLE_hids.c ****                 if((charIndex - CYBLE_HIDS_REPORT) < cyBle_hidss[serviceIndex].reportCount)
 636              		.loc 1 315 0
 637 0118 BB1D     		adds	r3, r7, #6
 638 011a 1B78     		ldrb	r3, [r3]
 639 011c D91F     		subs	r1, r3, #7
 640 011e FB1D     		adds	r3, r7, #7
 641 0120 1A78     		ldrb	r2, [r3]
 642 0122 2B48     		ldr	r0, .L45+4
 643 0124 1300     		movs	r3, r2
 644 0126 9B00     		lsls	r3, r3, #2
 645 0128 9B18     		adds	r3, r3, r2
 646 012a DB00     		lsls	r3, r3, #3
 647 012c C318     		adds	r3, r0, r3
 648 012e 0433     		adds	r3, r3, #4
 649 0130 1B78     		ldrb	r3, [r3]
ARM GAS  C:\Users\Intern\AppData\Local\Temp\ccVSLPFx.s 			page 18


 650 0132 9942     		cmp	r1, r3
 651 0134 16DA     		bge	.L40
 316:Generated_Source\PSoC4/BLE_hids.c ****                 {
 317:Generated_Source\PSoC4/BLE_hids.c ****                     charValueHandle = cyBle_hidss[serviceIndex].reportArray[charIndex - CYBLE_HIDS_
 652              		.loc 1 317 0
 653 0136 FB1D     		adds	r3, r7, #7
 654 0138 1A78     		ldrb	r2, [r3]
 655 013a 2549     		ldr	r1, .L45+4
 656 013c 1300     		movs	r3, r2
 657 013e 9B00     		lsls	r3, r3, #2
 658 0140 9B18     		adds	r3, r3, r2
 659 0142 DB00     		lsls	r3, r3, #3
 660 0144 CB18     		adds	r3, r1, r3
 661 0146 0833     		adds	r3, r3, #8
 662 0148 1968     		ldr	r1, [r3]
 663 014a BB1D     		adds	r3, r7, #6
 664 014c 1A78     		ldrb	r2, [r3]
 665 014e 1300     		movs	r3, r2
 666 0150 5B00     		lsls	r3, r3, #1
 667 0152 9B18     		adds	r3, r3, r2
 668 0154 5B00     		lsls	r3, r3, #1
 669 0156 2A3B     		subs	r3, r3, #42
 670 0158 CA18     		adds	r2, r1, r3
 671 015a 1423     		movs	r3, #20
 672 015c FB18     		adds	r3, r7, r3
 673 015e 1288     		ldrh	r2, [r2]
 674 0160 1A80     		strh	r2, [r3]
 318:Generated_Source\PSoC4/BLE_hids.c ****                 }
 319:Generated_Source\PSoC4/BLE_hids.c ****                 else
 320:Generated_Source\PSoC4/BLE_hids.c ****                 {
 321:Generated_Source\PSoC4/BLE_hids.c ****                     charValueHandle = CYBLE_GATT_INVALID_ATTR_HANDLE_VALUE;
 322:Generated_Source\PSoC4/BLE_hids.c ****                 }
 323:Generated_Source\PSoC4/BLE_hids.c ****                 break;
 675              		.loc 1 323 0
 676 0162 03E0     		b	.L44
 677              	.L40:
 321:Generated_Source\PSoC4/BLE_hids.c ****                 }
 678              		.loc 1 321 0
 679 0164 1423     		movs	r3, #20
 680 0166 FB18     		adds	r3, r7, r3
 681 0168 0022     		movs	r2, #0
 682 016a 1A80     		strh	r2, [r3]
 683              	.L44:
 684              		.loc 1 323 0
 685 016c C046     		nop
 686              	.L39:
 324:Generated_Source\PSoC4/BLE_hids.c ****         }
 325:Generated_Source\PSoC4/BLE_hids.c **** 
 326:Generated_Source\PSoC4/BLE_hids.c ****         if(charValueHandle == CYBLE_GATT_INVALID_ATTR_HANDLE_VALUE)
 687              		.loc 1 326 0
 688 016e 1423     		movs	r3, #20
 689 0170 FB18     		adds	r3, r7, r3
 690 0172 1B88     		ldrh	r3, [r3]
 691 0174 002B     		cmp	r3, #0
 692 0176 04D1     		bne	.L42
 327:Generated_Source\PSoC4/BLE_hids.c ****         {
 328:Generated_Source\PSoC4/BLE_hids.c ****             apiResult = CYBLE_ERROR_GATT_DB_INVALID_ATTR_HANDLE;
ARM GAS  C:\Users\Intern\AppData\Local\Temp\ccVSLPFx.s 			page 19


 693              		.loc 1 328 0
 694 0178 1623     		movs	r3, #22
 695 017a FB18     		adds	r3, r7, r3
 696 017c 1322     		movs	r2, #19
 697 017e 1A80     		strh	r2, [r3]
 698 0180 1CE0     		b	.L29
 699              	.L42:
 329:Generated_Source\PSoC4/BLE_hids.c ****         }
 330:Generated_Source\PSoC4/BLE_hids.c ****         else
 331:Generated_Source\PSoC4/BLE_hids.c ****         {
 332:Generated_Source\PSoC4/BLE_hids.c ****             /* Read characteristic value from database */
 333:Generated_Source\PSoC4/BLE_hids.c ****             locHandleValuePair.attrHandle = charValueHandle;
 700              		.loc 1 333 0
 701 0182 0823     		movs	r3, #8
 702 0184 FB18     		adds	r3, r7, r3
 703 0186 1422     		movs	r2, #20
 704 0188 BA18     		adds	r2, r7, r2
 705 018a 1288     		ldrh	r2, [r2]
 706 018c 1A81     		strh	r2, [r3, #8]
 334:Generated_Source\PSoC4/BLE_hids.c ****             locHandleValuePair.value.len = attrSize;
 707              		.loc 1 334 0
 708 018e 7B1D     		adds	r3, r7, #5
 709 0190 1B78     		ldrb	r3, [r3]
 710 0192 9AB2     		uxth	r2, r3
 711 0194 0823     		movs	r3, #8
 712 0196 FB18     		adds	r3, r7, r3
 713 0198 9A80     		strh	r2, [r3, #4]
 335:Generated_Source\PSoC4/BLE_hids.c ****             locHandleValuePair.value.val = attrValue;
 714              		.loc 1 335 0
 715 019a 0823     		movs	r3, #8
 716 019c FB18     		adds	r3, r7, r3
 717 019e 3A68     		ldr	r2, [r7]
 718 01a0 1A60     		str	r2, [r3]
 336:Generated_Source\PSoC4/BLE_hids.c ****             if(CYBLE_GATT_ERR_NONE !=
 337:Generated_Source\PSoC4/BLE_hids.c ****                 CyBle_GattsReadAttributeValue(&locHandleValuePair, NULL, CYBLE_GATT_DB_LOCALLY_INIT
 719              		.loc 1 337 0
 720 01a2 0823     		movs	r3, #8
 721 01a4 FB18     		adds	r3, r7, r3
 722 01a6 0022     		movs	r2, #0
 723 01a8 0021     		movs	r1, #0
 724 01aa 1800     		movs	r0, r3
 725 01ac FFF7FEFF 		bl	CyBle_GattsReadAttributeValue
 726 01b0 031E     		subs	r3, r0, #0
 336:Generated_Source\PSoC4/BLE_hids.c ****             if(CYBLE_GATT_ERR_NONE !=
 727              		.loc 1 336 0
 728 01b2 03D0     		beq	.L29
 338:Generated_Source\PSoC4/BLE_hids.c ****             {
 339:Generated_Source\PSoC4/BLE_hids.c ****                 apiResult = CYBLE_ERROR_INVALID_PARAMETER;
 729              		.loc 1 339 0
 730 01b4 1623     		movs	r3, #22
 731 01b6 FB18     		adds	r3, r7, r3
 732 01b8 0122     		movs	r2, #1
 733 01ba 1A80     		strh	r2, [r3]
 734              	.L29:
 340:Generated_Source\PSoC4/BLE_hids.c ****             }
 341:Generated_Source\PSoC4/BLE_hids.c ****         }
 342:Generated_Source\PSoC4/BLE_hids.c ****     }
ARM GAS  C:\Users\Intern\AppData\Local\Temp\ccVSLPFx.s 			page 20


 343:Generated_Source\PSoC4/BLE_hids.c ****     return (apiResult);
 735              		.loc 1 343 0
 736 01bc 1623     		movs	r3, #22
 737 01be FB18     		adds	r3, r7, r3
 738 01c0 1B88     		ldrh	r3, [r3]
 344:Generated_Source\PSoC4/BLE_hids.c **** }
 739              		.loc 1 344 0
 740 01c2 1800     		movs	r0, r3
 741 01c4 BD46     		mov	sp, r7
 742 01c6 07B0     		add	sp, sp, #28
 743              		@ sp needed
 744 01c8 90BD     		pop	{r4, r7, pc}
 745              	.L46:
 746 01ca C046     		.align	2
 747              	.L45:
 748 01cc 4C000000 		.word	.L32
 749 01d0 00000000 		.word	cyBle_hidss
 750              		.cfi_endproc
 751              	.LFE5:
 752              		.size	CyBle_HidssGetCharacteristicValue, .-CyBle_HidssGetCharacteristicValue
 753              		.section	.text.CyBle_HidssGetCharacteristicDescriptor,"ax",%progbits
 754              		.align	2
 755              		.global	CyBle_HidssGetCharacteristicDescriptor
 756              		.code	16
 757              		.thumb_func
 758              		.type	CyBle_HidssGetCharacteristicDescriptor, %function
 759              	CyBle_HidssGetCharacteristicDescriptor:
 760              	.LFB6:
 345:Generated_Source\PSoC4/BLE_hids.c **** 
 346:Generated_Source\PSoC4/BLE_hids.c **** 
 347:Generated_Source\PSoC4/BLE_hids.c **** /****************************************************************************** 
 348:Generated_Source\PSoC4/BLE_hids.c **** * Function Name: CyBle_HidssGetCharacteristicDescriptor
 349:Generated_Source\PSoC4/BLE_hids.c **** ***************************************************************************//**
 350:Generated_Source\PSoC4/BLE_hids.c **** * 
 351:Generated_Source\PSoC4/BLE_hids.c **** *  Gets local characteristic descriptor of the specified HID Service 
 352:Generated_Source\PSoC4/BLE_hids.c **** *  characteristic.
 353:Generated_Source\PSoC4/BLE_hids.c **** * 
 354:Generated_Source\PSoC4/BLE_hids.c **** *  \param serviceIndex: The index of the service instance. e.g. If two HID Services are 
 355:Generated_Source\PSoC4/BLE_hids.c **** *                 supported in your design, then first service will be identified
 356:Generated_Source\PSoC4/BLE_hids.c **** *                 by serviceIndex of 0 and the second by serviceIndex of 1.
 357:Generated_Source\PSoC4/BLE_hids.c **** * 
 358:Generated_Source\PSoC4/BLE_hids.c **** *  \param charIndex: The index of the characteristic.
 359:Generated_Source\PSoC4/BLE_hids.c **** *              * CYBLE_HIDS_REPORT_MAP          - Report Map Characteristic
 360:Generated_Source\PSoC4/BLE_hids.c **** *              * CYBLE_HIDS_BOOT_KYBRD_IN_REP   - Boot Keyboard Input Report Characteristic
 361:Generated_Source\PSoC4/BLE_hids.c **** *              * CYBLE_HIDS_BOOT_KYBRD_OUT_REP  - Boot Keyboard Output Report Characteristic
 362:Generated_Source\PSoC4/BLE_hids.c **** *              * CYBLE_HIDS_BOOT_MOUSE_IN_REP   - Boot Mouse Input Report Characteristic
 363:Generated_Source\PSoC4/BLE_hids.c **** *              * CYBLE_HIDS_REPORT              - Report Characteristic
 364:Generated_Source\PSoC4/BLE_hids.c **** * 
 365:Generated_Source\PSoC4/BLE_hids.c **** *  \param descrIndex: The index of the descriptor.
 366:Generated_Source\PSoC4/BLE_hids.c **** *               * CYBLE_HIDS_REPORT_CCCD - Client Characteristic Configuration descriptor
 367:Generated_Source\PSoC4/BLE_hids.c **** *               * CYBLE_HIDS_REPORT_RRD - Report Reference descriptor
 368:Generated_Source\PSoC4/BLE_hids.c **** *               * CYBLE_HIDS_REPORT_MAP_ERRD - Report Map External Report Reference descriptor
 369:Generated_Source\PSoC4/BLE_hids.c **** * 
 370:Generated_Source\PSoC4/BLE_hids.c **** *  \param attrSize: The size of the descriptor value attribute.
 371:Generated_Source\PSoC4/BLE_hids.c **** * 
 372:Generated_Source\PSoC4/BLE_hids.c **** *  \param attrValue: The pointer to the location where characteristic descriptor
 373:Generated_Source\PSoC4/BLE_hids.c **** *               value data should be stored.
ARM GAS  C:\Users\Intern\AppData\Local\Temp\ccVSLPFx.s 			page 21


 374:Generated_Source\PSoC4/BLE_hids.c **** * 
 375:Generated_Source\PSoC4/BLE_hids.c **** * \return
 376:Generated_Source\PSoC4/BLE_hids.c **** *  Return value is of type CYBLE_API_RESULT_T.
 377:Generated_Source\PSoC4/BLE_hids.c **** *  * CYBLE_ERROR_OK - The request handled successfully
 378:Generated_Source\PSoC4/BLE_hids.c **** *  * CYBLE_ERROR_INVALID_PARAMETER - Validation of the input parameter failed
 379:Generated_Source\PSoC4/BLE_hids.c **** *  * CYBLE_ERROR_GATT_DB_INVALID_ATTR_HANDLE - Optional descriptor is absent
 380:Generated_Source\PSoC4/BLE_hids.c **** *
 381:Generated_Source\PSoC4/BLE_hids.c **** *
 382:Generated_Source\PSoC4/BLE_hids.c **** ******************************************************************************/
 383:Generated_Source\PSoC4/BLE_hids.c **** CYBLE_API_RESULT_T CyBle_HidssGetCharacteristicDescriptor(uint8 serviceIndex, CYBLE_HIDS_CHAR_INDEX
 384:Generated_Source\PSoC4/BLE_hids.c ****     CYBLE_HIDS_DESCR_T descrIndex, uint8 attrSize, uint8 *attrValue)
 385:Generated_Source\PSoC4/BLE_hids.c **** {
 761              		.loc 1 385 0
 762              		.cfi_startproc
 763              		@ args = 4, pretend = 0, frame = 32
 764              		@ frame_needed = 1, uses_anonymous_args = 0
 765 0000 B0B5     		push	{r4, r5, r7, lr}
 766              		.cfi_def_cfa_offset 16
 767              		.cfi_offset 4, -16
 768              		.cfi_offset 5, -12
 769              		.cfi_offset 7, -8
 770              		.cfi_offset 14, -4
 771 0002 88B0     		sub	sp, sp, #32
 772              		.cfi_def_cfa_offset 48
 773 0004 00AF     		add	r7, sp, #0
 774              		.cfi_def_cfa_register 7
 775 0006 0500     		movs	r5, r0
 776 0008 0C00     		movs	r4, r1
 777 000a 1000     		movs	r0, r2
 778 000c 1900     		movs	r1, r3
 779 000e FB1D     		adds	r3, r7, #7
 780 0010 2A1C     		adds	r2, r5, #0
 781 0012 1A70     		strb	r2, [r3]
 782 0014 BB1D     		adds	r3, r7, #6
 783 0016 221C     		adds	r2, r4, #0
 784 0018 1A70     		strb	r2, [r3]
 785 001a 7B1D     		adds	r3, r7, #5
 786 001c 021C     		adds	r2, r0, #0
 787 001e 1A70     		strb	r2, [r3]
 788 0020 3B1D     		adds	r3, r7, #4
 789 0022 0A1C     		adds	r2, r1, #0
 790 0024 1A70     		strb	r2, [r3]
 386:Generated_Source\PSoC4/BLE_hids.c ****     CYBLE_API_RESULT_T apiResult = CYBLE_ERROR_OK;
 791              		.loc 1 386 0
 792 0026 1E23     		movs	r3, #30
 793 0028 FB18     		adds	r3, r7, r3
 794 002a 0022     		movs	r2, #0
 795 002c 1A80     		strh	r2, [r3]
 387:Generated_Source\PSoC4/BLE_hids.c ****     CYBLE_GATT_DB_ATTR_HANDLE_T locDescrHandle = CYBLE_GATT_INVALID_ATTR_HANDLE_VALUE;
 796              		.loc 1 387 0
 797 002e 1C23     		movs	r3, #28
 798 0030 FB18     		adds	r3, r7, r3
 799 0032 0022     		movs	r2, #0
 800 0034 1A80     		strh	r2, [r3]
 388:Generated_Source\PSoC4/BLE_hids.c ****     const CYBLE_HIDSS_REPORT_T *locReport;
 389:Generated_Source\PSoC4/BLE_hids.c ****     CYBLE_GATT_HANDLE_VALUE_PAIR_T locHandleValuePair;
 390:Generated_Source\PSoC4/BLE_hids.c **** 
ARM GAS  C:\Users\Intern\AppData\Local\Temp\ccVSLPFx.s 			page 22


 391:Generated_Source\PSoC4/BLE_hids.c ****     if((serviceIndex >= CYBLE_HIDSS_SERVICE_COUNT) || (descrIndex >= CYBLE_HIDS_DESCR_COUNT) ||
 801              		.loc 1 391 0
 802 0036 FB1D     		adds	r3, r7, #7
 803 0038 1B78     		ldrb	r3, [r3]
 804 003a 002B     		cmp	r3, #0
 805 003c 0FD1     		bne	.L48
 806              		.loc 1 391 0 is_stmt 0 discriminator 1
 807 003e 7B1D     		adds	r3, r7, #5
 808 0040 1B78     		ldrb	r3, [r3]
 809 0042 022B     		cmp	r3, #2
 810 0044 0BD8     		bhi	.L48
 811              		.loc 1 391 0 discriminator 2
 812 0046 BB1D     		adds	r3, r7, #6
 813 0048 1B78     		ldrb	r3, [r3]
 814 004a 072B     		cmp	r3, #7
 815 004c 07D8     		bhi	.L48
 392:Generated_Source\PSoC4/BLE_hids.c ****        (charIndex >= CYBLE_HIDS_CHAR_COUNT) || (charIndex < CYBLE_HIDS_REPORT_MAP) || 
 816              		.loc 1 392 0 is_stmt 1
 817 004e BB1D     		adds	r3, r7, #6
 818 0050 1B78     		ldrb	r3, [r3]
 819 0052 022B     		cmp	r3, #2
 820 0054 03D9     		bls	.L48
 821              		.loc 1 392 0 is_stmt 0 discriminator 1
 822 0056 BB1D     		adds	r3, r7, #6
 823 0058 1B78     		ldrb	r3, [r3]
 824 005a 052B     		cmp	r3, #5
 825 005c 04D1     		bne	.L49
 826              	.L48:
 393:Generated_Source\PSoC4/BLE_hids.c ****        (charIndex == CYBLE_HIDS_BOOT_KYBRD_OUT_REP))
 394:Generated_Source\PSoC4/BLE_hids.c ****     {
 395:Generated_Source\PSoC4/BLE_hids.c ****         apiResult = CYBLE_ERROR_INVALID_PARAMETER;
 827              		.loc 1 395 0 is_stmt 1
 828 005e 1E23     		movs	r3, #30
 829 0060 FB18     		adds	r3, r7, r3
 830 0062 0122     		movs	r2, #1
 831 0064 1A80     		strh	r2, [r3]
 832 0066 63E0     		b	.L50
 833              	.L49:
 396:Generated_Source\PSoC4/BLE_hids.c ****     }
 397:Generated_Source\PSoC4/BLE_hids.c ****     else
 398:Generated_Source\PSoC4/BLE_hids.c ****     {
 399:Generated_Source\PSoC4/BLE_hids.c ****         if(charIndex == CYBLE_HIDS_REPORT_MAP)
 834              		.loc 1 399 0
 835 0068 BB1D     		adds	r3, r7, #6
 836 006a 1B78     		ldrb	r3, [r3]
 837 006c 032B     		cmp	r3, #3
 838 006e 16D1     		bne	.L51
 400:Generated_Source\PSoC4/BLE_hids.c ****         {
 401:Generated_Source\PSoC4/BLE_hids.c ****             if(descrIndex == CYBLE_HIDS_REPORT_MAP_ERRD)
 839              		.loc 1 401 0
 840 0070 7B1D     		adds	r3, r7, #5
 841 0072 1B78     		ldrb	r3, [r3]
 842 0074 022B     		cmp	r3, #2
 843 0076 0DD1     		bne	.L52
 402:Generated_Source\PSoC4/BLE_hids.c ****             {
 403:Generated_Source\PSoC4/BLE_hids.c ****                 locDescrHandle = cyBle_hidss[serviceIndex].reportMapErrdHandle;
 844              		.loc 1 403 0
ARM GAS  C:\Users\Intern\AppData\Local\Temp\ccVSLPFx.s 			page 23


 845 0078 FB1D     		adds	r3, r7, #7
 846 007a 1A78     		ldrb	r2, [r3]
 847 007c 1C23     		movs	r3, #28
 848 007e F918     		adds	r1, r7, r3
 849 0080 4548     		ldr	r0, .L61
 850 0082 1300     		movs	r3, r2
 851 0084 9B00     		lsls	r3, r3, #2
 852 0086 9B18     		adds	r3, r3, r2
 853 0088 DB00     		lsls	r3, r3, #3
 854 008a C318     		adds	r3, r0, r3
 855 008c 2033     		adds	r3, r3, #32
 856 008e 1B88     		ldrh	r3, [r3]
 857 0090 0B80     		strh	r3, [r1]
 858 0092 4DE0     		b	.L50
 859              	.L52:
 404:Generated_Source\PSoC4/BLE_hids.c ****             }
 405:Generated_Source\PSoC4/BLE_hids.c ****             else
 406:Generated_Source\PSoC4/BLE_hids.c ****             {
 407:Generated_Source\PSoC4/BLE_hids.c ****                 apiResult = CYBLE_ERROR_INVALID_PARAMETER;
 860              		.loc 1 407 0
 861 0094 1E23     		movs	r3, #30
 862 0096 FB18     		adds	r3, r7, r3
 863 0098 0122     		movs	r2, #1
 864 009a 1A80     		strh	r2, [r3]
 865 009c 48E0     		b	.L50
 866              	.L51:
 408:Generated_Source\PSoC4/BLE_hids.c ****             }
 409:Generated_Source\PSoC4/BLE_hids.c ****         }
 410:Generated_Source\PSoC4/BLE_hids.c ****         else /* Report characteristics */
 411:Generated_Source\PSoC4/BLE_hids.c ****         {
 412:Generated_Source\PSoC4/BLE_hids.c ****             /* Get report structure */
 413:Generated_Source\PSoC4/BLE_hids.c ****             if((charIndex >= CYBLE_HIDS_BOOT_KYBRD_IN_REP) && (charIndex <= CYBLE_HIDS_BOOT_MOUSE_I
 867              		.loc 1 413 0
 868 009e BB1D     		adds	r3, r7, #6
 869 00a0 1B78     		ldrb	r3, [r3]
 870 00a2 032B     		cmp	r3, #3
 871 00a4 19D9     		bls	.L54
 872              		.loc 1 413 0 is_stmt 0 discriminator 1
 873 00a6 BB1D     		adds	r3, r7, #6
 874 00a8 1B78     		ldrb	r3, [r3]
 875 00aa 062B     		cmp	r3, #6
 876 00ac 15D8     		bhi	.L54
 414:Generated_Source\PSoC4/BLE_hids.c ****             {
 415:Generated_Source\PSoC4/BLE_hids.c ****                 locReport = &cyBle_hidss[serviceIndex].bootReportArray[charIndex - CYBLE_HIDS_BOOT_
 877              		.loc 1 415 0 is_stmt 1
 878 00ae FB1D     		adds	r3, r7, #7
 879 00b0 1978     		ldrb	r1, [r3]
 880 00b2 BB1D     		adds	r3, r7, #6
 881 00b4 1B78     		ldrb	r3, [r3]
 882 00b6 043B     		subs	r3, r3, #4
 883 00b8 1A00     		movs	r2, r3
 884 00ba 5200     		lsls	r2, r2, #1
 885 00bc D218     		adds	r2, r2, r3
 886 00be 5300     		lsls	r3, r2, #1
 887 00c0 1A00     		movs	r2, r3
 888 00c2 0B00     		movs	r3, r1
 889 00c4 9B00     		lsls	r3, r3, #2
ARM GAS  C:\Users\Intern\AppData\Local\Temp\ccVSLPFx.s 			page 24


 890 00c6 5B18     		adds	r3, r3, r1
 891 00c8 DB00     		lsls	r3, r3, #3
 892 00ca D318     		adds	r3, r2, r3
 893 00cc 0833     		adds	r3, r3, #8
 894 00ce 1A00     		movs	r2, r3
 895 00d0 314B     		ldr	r3, .L61
 896 00d2 D318     		adds	r3, r2, r3
 897 00d4 0433     		adds	r3, r3, #4
 898 00d6 BB61     		str	r3, [r7, #24]
 899 00d8 12E0     		b	.L55
 900              	.L54:
 416:Generated_Source\PSoC4/BLE_hids.c ****             }
 417:Generated_Source\PSoC4/BLE_hids.c ****             else
 418:Generated_Source\PSoC4/BLE_hids.c ****             {
 419:Generated_Source\PSoC4/BLE_hids.c ****                 locReport = &cyBle_hidss[serviceIndex].reportArray[charIndex - CYBLE_HIDS_REPORT];
 901              		.loc 1 419 0
 902 00da FB1D     		adds	r3, r7, #7
 903 00dc 1A78     		ldrb	r2, [r3]
 904 00de 2E49     		ldr	r1, .L61
 905 00e0 1300     		movs	r3, r2
 906 00e2 9B00     		lsls	r3, r3, #2
 907 00e4 9B18     		adds	r3, r3, r2
 908 00e6 DB00     		lsls	r3, r3, #3
 909 00e8 CB18     		adds	r3, r1, r3
 910 00ea 0833     		adds	r3, r3, #8
 911 00ec 1968     		ldr	r1, [r3]
 912 00ee BB1D     		adds	r3, r7, #6
 913 00f0 1A78     		ldrb	r2, [r3]
 914 00f2 1300     		movs	r3, r2
 915 00f4 5B00     		lsls	r3, r3, #1
 916 00f6 9B18     		adds	r3, r3, r2
 917 00f8 5B00     		lsls	r3, r3, #1
 918 00fa 2A3B     		subs	r3, r3, #42
 919 00fc CB18     		adds	r3, r1, r3
 920 00fe BB61     		str	r3, [r7, #24]
 921              	.L55:
 420:Generated_Source\PSoC4/BLE_hids.c ****             }
 421:Generated_Source\PSoC4/BLE_hids.c ****             /* Get descriptor handle from report structure */
 422:Generated_Source\PSoC4/BLE_hids.c ****             if(descrIndex == CYBLE_HIDS_REPORT_CCCD)
 922              		.loc 1 422 0
 923 0100 7B1D     		adds	r3, r7, #5
 924 0102 1B78     		ldrb	r3, [r3]
 925 0104 002B     		cmp	r3, #0
 926 0106 05D1     		bne	.L56
 423:Generated_Source\PSoC4/BLE_hids.c ****             {
 424:Generated_Source\PSoC4/BLE_hids.c ****                 locDescrHandle = locReport->cccdHandle;
 927              		.loc 1 424 0
 928 0108 1C23     		movs	r3, #28
 929 010a FB18     		adds	r3, r7, r3
 930 010c BA69     		ldr	r2, [r7, #24]
 931 010e 5288     		ldrh	r2, [r2, #2]
 932 0110 1A80     		strh	r2, [r3]
 933 0112 0DE0     		b	.L50
 934              	.L56:
 425:Generated_Source\PSoC4/BLE_hids.c ****             }
 426:Generated_Source\PSoC4/BLE_hids.c ****             else if(descrIndex == CYBLE_HIDS_REPORT_RRD)
 935              		.loc 1 426 0
ARM GAS  C:\Users\Intern\AppData\Local\Temp\ccVSLPFx.s 			page 25


 936 0114 7B1D     		adds	r3, r7, #5
 937 0116 1B78     		ldrb	r3, [r3]
 938 0118 012B     		cmp	r3, #1
 939 011a 05D1     		bne	.L57
 427:Generated_Source\PSoC4/BLE_hids.c ****             {
 428:Generated_Source\PSoC4/BLE_hids.c ****                 locDescrHandle = locReport->rrdHandle;
 940              		.loc 1 428 0
 941 011c 1C23     		movs	r3, #28
 942 011e FB18     		adds	r3, r7, r3
 943 0120 BA69     		ldr	r2, [r7, #24]
 944 0122 9288     		ldrh	r2, [r2, #4]
 945 0124 1A80     		strh	r2, [r3]
 946 0126 03E0     		b	.L50
 947              	.L57:
 429:Generated_Source\PSoC4/BLE_hids.c ****             }
 430:Generated_Source\PSoC4/BLE_hids.c ****             else /* External Report Reference descriptor doesn't exist for report characteristic */
 431:Generated_Source\PSoC4/BLE_hids.c ****             {
 432:Generated_Source\PSoC4/BLE_hids.c ****                 apiResult = CYBLE_ERROR_INVALID_PARAMETER;
 948              		.loc 1 432 0
 949 0128 1E23     		movs	r3, #30
 950 012a FB18     		adds	r3, r7, r3
 951 012c 0122     		movs	r2, #1
 952 012e 1A80     		strh	r2, [r3]
 953              	.L50:
 433:Generated_Source\PSoC4/BLE_hids.c ****             }
 434:Generated_Source\PSoC4/BLE_hids.c ****         }
 435:Generated_Source\PSoC4/BLE_hids.c ****     }
 436:Generated_Source\PSoC4/BLE_hids.c ****     if(apiResult != CYBLE_ERROR_INVALID_PARAMETER)
 954              		.loc 1 436 0
 955 0130 1E23     		movs	r3, #30
 956 0132 FB18     		adds	r3, r7, r3
 957 0134 1B88     		ldrh	r3, [r3]
 958 0136 012B     		cmp	r3, #1
 959 0138 26D0     		beq	.L58
 437:Generated_Source\PSoC4/BLE_hids.c ****     {
 438:Generated_Source\PSoC4/BLE_hids.c ****         if(locDescrHandle == CYBLE_GATT_INVALID_ATTR_HANDLE_VALUE)
 960              		.loc 1 438 0
 961 013a 1C23     		movs	r3, #28
 962 013c FB18     		adds	r3, r7, r3
 963 013e 1B88     		ldrh	r3, [r3]
 964 0140 002B     		cmp	r3, #0
 965 0142 04D1     		bne	.L59
 439:Generated_Source\PSoC4/BLE_hids.c ****         {
 440:Generated_Source\PSoC4/BLE_hids.c ****             apiResult = CYBLE_ERROR_GATT_DB_INVALID_ATTR_HANDLE;
 966              		.loc 1 440 0
 967 0144 1E23     		movs	r3, #30
 968 0146 FB18     		adds	r3, r7, r3
 969 0148 1322     		movs	r2, #19
 970 014a 1A80     		strh	r2, [r3]
 971 014c 1CE0     		b	.L58
 972              	.L59:
 441:Generated_Source\PSoC4/BLE_hids.c ****         }
 442:Generated_Source\PSoC4/BLE_hids.c ****         else
 443:Generated_Source\PSoC4/BLE_hids.c ****         {
 444:Generated_Source\PSoC4/BLE_hids.c ****             /* Read value from database */
 445:Generated_Source\PSoC4/BLE_hids.c ****             locHandleValuePair.attrHandle = locDescrHandle;
 973              		.loc 1 445 0
ARM GAS  C:\Users\Intern\AppData\Local\Temp\ccVSLPFx.s 			page 26


 974 014e 0C23     		movs	r3, #12
 975 0150 FB18     		adds	r3, r7, r3
 976 0152 1C22     		movs	r2, #28
 977 0154 BA18     		adds	r2, r7, r2
 978 0156 1288     		ldrh	r2, [r2]
 979 0158 1A81     		strh	r2, [r3, #8]
 446:Generated_Source\PSoC4/BLE_hids.c ****             locHandleValuePair.value.len = attrSize;
 980              		.loc 1 446 0
 981 015a 3B1D     		adds	r3, r7, #4
 982 015c 1B78     		ldrb	r3, [r3]
 983 015e 9AB2     		uxth	r2, r3
 984 0160 0C23     		movs	r3, #12
 985 0162 FB18     		adds	r3, r7, r3
 986 0164 9A80     		strh	r2, [r3, #4]
 447:Generated_Source\PSoC4/BLE_hids.c ****             locHandleValuePair.value.val = attrValue;
 987              		.loc 1 447 0
 988 0166 0C23     		movs	r3, #12
 989 0168 FB18     		adds	r3, r7, r3
 990 016a 3A6B     		ldr	r2, [r7, #48]
 991 016c 1A60     		str	r2, [r3]
 448:Generated_Source\PSoC4/BLE_hids.c ****             if(CYBLE_GATT_ERR_NONE !=
 449:Generated_Source\PSoC4/BLE_hids.c ****                 CyBle_GattsReadAttributeValue(&locHandleValuePair, NULL, CYBLE_GATT_DB_LOCALLY_INIT
 992              		.loc 1 449 0
 993 016e 0C23     		movs	r3, #12
 994 0170 FB18     		adds	r3, r7, r3
 995 0172 0022     		movs	r2, #0
 996 0174 0021     		movs	r1, #0
 997 0176 1800     		movs	r0, r3
 998 0178 FFF7FEFF 		bl	CyBle_GattsReadAttributeValue
 999 017c 031E     		subs	r3, r0, #0
 448:Generated_Source\PSoC4/BLE_hids.c ****             if(CYBLE_GATT_ERR_NONE !=
 1000              		.loc 1 448 0
 1001 017e 03D0     		beq	.L58
 450:Generated_Source\PSoC4/BLE_hids.c ****             {
 451:Generated_Source\PSoC4/BLE_hids.c ****                 apiResult = CYBLE_ERROR_INVALID_PARAMETER;
 1002              		.loc 1 451 0
 1003 0180 1E23     		movs	r3, #30
 1004 0182 FB18     		adds	r3, r7, r3
 1005 0184 0122     		movs	r2, #1
 1006 0186 1A80     		strh	r2, [r3]
 1007              	.L58:
 452:Generated_Source\PSoC4/BLE_hids.c ****             }
 453:Generated_Source\PSoC4/BLE_hids.c ****         }
 454:Generated_Source\PSoC4/BLE_hids.c ****     }
 455:Generated_Source\PSoC4/BLE_hids.c ****     return (apiResult);
 1008              		.loc 1 455 0
 1009 0188 1E23     		movs	r3, #30
 1010 018a FB18     		adds	r3, r7, r3
 1011 018c 1B88     		ldrh	r3, [r3]
 456:Generated_Source\PSoC4/BLE_hids.c **** }
 1012              		.loc 1 456 0
 1013 018e 1800     		movs	r0, r3
 1014 0190 BD46     		mov	sp, r7
 1015 0192 08B0     		add	sp, sp, #32
 1016              		@ sp needed
 1017 0194 B0BD     		pop	{r4, r5, r7, pc}
 1018              	.L62:
ARM GAS  C:\Users\Intern\AppData\Local\Temp\ccVSLPFx.s 			page 27


 1019 0196 C046     		.align	2
 1020              	.L61:
 1021 0198 00000000 		.word	cyBle_hidss
 1022              		.cfi_endproc
 1023              	.LFE6:
 1024              		.size	CyBle_HidssGetCharacteristicDescriptor, .-CyBle_HidssGetCharacteristicDescriptor
 1025              		.section	.text.CyBle_HidssCccdWriteEventHandler,"ax",%progbits
 1026              		.align	2
 1027              		.code	16
 1028              		.thumb_func
 1029              		.type	CyBle_HidssCccdWriteEventHandler, %function
 1030              	CyBle_HidssCccdWriteEventHandler:
 1031              	.LFB7:
 457:Generated_Source\PSoC4/BLE_hids.c **** 
 458:Generated_Source\PSoC4/BLE_hids.c **** 
 459:Generated_Source\PSoC4/BLE_hids.c **** /****************************************************************************** 
 460:Generated_Source\PSoC4/BLE_hids.c **** * Function Name: CyBle_HidssCccdWriteEventHandler
 461:Generated_Source\PSoC4/BLE_hids.c **** ***************************************************************************//**
 462:Generated_Source\PSoC4/BLE_hids.c **** * 
 463:Generated_Source\PSoC4/BLE_hids.c **** *  Handles the Write Request Event of the Client Characteristic Configuration
 464:Generated_Source\PSoC4/BLE_hids.c **** *  descriptor.
 465:Generated_Source\PSoC4/BLE_hids.c **** * 
 466:Generated_Source\PSoC4/BLE_hids.c **** *  \param serviceIndex: The index of the service instance.
 467:Generated_Source\PSoC4/BLE_hids.c **** *  \param charIndex: The index of the characteristic.
 468:Generated_Source\PSoC4/BLE_hids.c **** *  \param eventParam: The pointer to the data structure specified by the event.
 469:Generated_Source\PSoC4/BLE_hids.c **** * 
 470:Generated_Source\PSoC4/BLE_hids.c **** * \return
 471:Generated_Source\PSoC4/BLE_hids.c **** *  uint32 eventCode: The event code to be send to application.
 472:Generated_Source\PSoC4/BLE_hids.c **** * 
 473:Generated_Source\PSoC4/BLE_hids.c **** ******************************************************************************/
 474:Generated_Source\PSoC4/BLE_hids.c **** static uint32 CyBle_HidssCccdWriteEventHandler(uint8 serviceIndex, const CYBLE_GATTS_WRITE_REQ_PARA
 475:Generated_Source\PSoC4/BLE_hids.c **** {
 1032              		.loc 1 475 0
 1033              		.cfi_startproc
 1034              		@ args = 0, pretend = 0, frame = 16
 1035              		@ frame_needed = 1, uses_anonymous_args = 0
 1036 0000 80B5     		push	{r7, lr}
 1037              		.cfi_def_cfa_offset 8
 1038              		.cfi_offset 7, -8
 1039              		.cfi_offset 14, -4
 1040 0002 84B0     		sub	sp, sp, #16
 1041              		.cfi_def_cfa_offset 24
 1042 0004 00AF     		add	r7, sp, #0
 1043              		.cfi_def_cfa_register 7
 1044 0006 0200     		movs	r2, r0
 1045 0008 3960     		str	r1, [r7]
 1046 000a FB1D     		adds	r3, r7, #7
 1047 000c 1A70     		strb	r2, [r3]
 476:Generated_Source\PSoC4/BLE_hids.c ****     uint32 eventCode;
 477:Generated_Source\PSoC4/BLE_hids.c **** 
 478:Generated_Source\PSoC4/BLE_hids.c ****     if(CYBLE_IS_NOTIFICATION_ENABLED_IN_PTR(eventParam->handleValPair.value.val))
 1048              		.loc 1 478 0
 1049 000e 3B68     		ldr	r3, [r7]
 1050 0010 5B68     		ldr	r3, [r3, #4]
 1051 0012 1800     		movs	r0, r3
 1052 0014 FFF7FEFF 		bl	CyBle_Get16ByPtr
 1053 0018 0300     		movs	r3, r0
ARM GAS  C:\Users\Intern\AppData\Local\Temp\ccVSLPFx.s 			page 28


 1054 001a 1A00     		movs	r2, r3
 1055 001c 0123     		movs	r3, #1
 1056 001e 1340     		ands	r3, r2
 1057 0020 9BB2     		uxth	r3, r3
 1058 0022 002B     		cmp	r3, #0
 1059 0024 03D0     		beq	.L64
 479:Generated_Source\PSoC4/BLE_hids.c ****     {
 480:Generated_Source\PSoC4/BLE_hids.c ****         eventCode = (uint32)CYBLE_EVT_HIDSS_NOTIFICATION_ENABLED;
 1060              		.loc 1 480 0
 1061 0026 9623     		movs	r3, #150
 1062 0028 FF33     		adds	r3, r3, #255
 1063 002a FB60     		str	r3, [r7, #12]
 1064 002c 02E0     		b	.L65
 1065              	.L64:
 481:Generated_Source\PSoC4/BLE_hids.c ****     }
 482:Generated_Source\PSoC4/BLE_hids.c ****     else
 483:Generated_Source\PSoC4/BLE_hids.c ****     {
 484:Generated_Source\PSoC4/BLE_hids.c ****         eventCode = (uint32)CYBLE_EVT_HIDSS_NOTIFICATION_DISABLED;
 1066              		.loc 1 484 0
 1067 002e CB23     		movs	r3, #203
 1068 0030 5B00     		lsls	r3, r3, #1
 1069 0032 FB60     		str	r3, [r7, #12]
 1070              	.L65:
 485:Generated_Source\PSoC4/BLE_hids.c ****     }
 486:Generated_Source\PSoC4/BLE_hids.c ****     cyBle_eventHandlerFlag &= (uint8)~CYBLE_CALLBACK;
 1071              		.loc 1 486 0
 1072 0034 0B4B     		ldr	r3, .L68
 1073 0036 1B78     		ldrb	r3, [r3]
 1074 0038 DBB2     		uxtb	r3, r3
 1075 003a 0122     		movs	r2, #1
 1076 003c 9343     		bics	r3, r2
 1077 003e DAB2     		uxtb	r2, r3
 1078 0040 084B     		ldr	r3, .L68
 1079 0042 1A70     		strb	r2, [r3]
 487:Generated_Source\PSoC4/BLE_hids.c ****     
 488:Generated_Source\PSoC4/BLE_hids.c **** #if((CYBLE_GAP_ROLE_PERIPHERAL || CYBLE_GAP_ROLE_CENTRAL) && (CYBLE_BONDING_REQUIREMENT == CYBLE_BO
 489:Generated_Source\PSoC4/BLE_hids.c ****     /* Set flag to store bonding data to flash */
 490:Generated_Source\PSoC4/BLE_hids.c ****     if(cyBle_peerBonding == CYBLE_GAP_BONDING)
 1080              		.loc 1 490 0
 1081 0044 084B     		ldr	r3, .L68+4
 1082 0046 1B78     		ldrb	r3, [r3]
 1083 0048 012B     		cmp	r3, #1
 1084 004a 06D1     		bne	.L66
 491:Generated_Source\PSoC4/BLE_hids.c ****     {
 492:Generated_Source\PSoC4/BLE_hids.c ****         cyBle_pendingFlashWrite |= CYBLE_PENDING_CCCD_FLASH_WRITE_BIT;
 1085              		.loc 1 492 0
 1086 004c 074B     		ldr	r3, .L68+8
 1087 004e 1B78     		ldrb	r3, [r3]
 1088 0050 0222     		movs	r2, #2
 1089 0052 1343     		orrs	r3, r2
 1090 0054 DAB2     		uxtb	r2, r3
 1091 0056 054B     		ldr	r3, .L68+8
 1092 0058 1A70     		strb	r2, [r3]
 1093              	.L66:
 493:Generated_Source\PSoC4/BLE_hids.c ****     }
 494:Generated_Source\PSoC4/BLE_hids.c **** #endif /* (CYBLE_BONDING_REQUIREMENT == CYBLE_BONDING_YES) */
 495:Generated_Source\PSoC4/BLE_hids.c **** 
ARM GAS  C:\Users\Intern\AppData\Local\Temp\ccVSLPFx.s 			page 29


 496:Generated_Source\PSoC4/BLE_hids.c ****     return(eventCode);
 1094              		.loc 1 496 0
 1095 005a FB68     		ldr	r3, [r7, #12]
 497:Generated_Source\PSoC4/BLE_hids.c **** }
 1096              		.loc 1 497 0
 1097 005c 1800     		movs	r0, r3
 1098 005e BD46     		mov	sp, r7
 1099 0060 04B0     		add	sp, sp, #16
 1100              		@ sp needed
 1101 0062 80BD     		pop	{r7, pc}
 1102              	.L69:
 1103              		.align	2
 1104              	.L68:
 1105 0064 00000000 		.word	cyBle_eventHandlerFlag
 1106 0068 00000000 		.word	cyBle_peerBonding
 1107 006c 00000000 		.word	cyBle_pendingFlashWrite
 1108              		.cfi_endproc
 1109              	.LFE7:
 1110              		.size	CyBle_HidssCccdWriteEventHandler, .-CyBle_HidssCccdWriteEventHandler
 1111              		.section	.text.CyBle_HidssWriteEventHandler,"ax",%progbits
 1112              		.align	2
 1113              		.global	CyBle_HidssWriteEventHandler
 1114              		.code	16
 1115              		.thumb_func
 1116              		.type	CyBle_HidssWriteEventHandler, %function
 1117              	CyBle_HidssWriteEventHandler:
 1118              	.LFB8:
 498:Generated_Source\PSoC4/BLE_hids.c **** 
 499:Generated_Source\PSoC4/BLE_hids.c **** 
 500:Generated_Source\PSoC4/BLE_hids.c **** /****************************************************************************** 
 501:Generated_Source\PSoC4/BLE_hids.c **** * Function Name: CyBle_HidssWriteEventHandler
 502:Generated_Source\PSoC4/BLE_hids.c **** ***************************************************************************//**
 503:Generated_Source\PSoC4/BLE_hids.c **** * 
 504:Generated_Source\PSoC4/BLE_hids.c **** *  Handles the Write Request Event.
 505:Generated_Source\PSoC4/BLE_hids.c **** * 
 506:Generated_Source\PSoC4/BLE_hids.c **** *  \param eventParam: The pointer to the data structure specified by the event.
 507:Generated_Source\PSoC4/BLE_hids.c **** * 
 508:Generated_Source\PSoC4/BLE_hids.c **** * \return
 509:Generated_Source\PSoC4/BLE_hids.c **** *  Return value is of type CYBLE_GATT_ERR_CODE_T.
 510:Generated_Source\PSoC4/BLE_hids.c **** *   * CYBLE_GATT_ERR_NONE - Write is successful.
 511:Generated_Source\PSoC4/BLE_hids.c **** * 
 512:Generated_Source\PSoC4/BLE_hids.c **** ******************************************************************************/
 513:Generated_Source\PSoC4/BLE_hids.c **** CYBLE_GATT_ERR_CODE_T CyBle_HidssWriteEventHandler(CYBLE_GATTS_WRITE_REQ_PARAM_T *eventParam)
 514:Generated_Source\PSoC4/BLE_hids.c **** {
 1119              		.loc 1 514 0
 1120              		.cfi_startproc
 1121              		@ args = 0, pretend = 0, frame = 32
 1122              		@ frame_needed = 1, uses_anonymous_args = 0
 1123 0000 90B5     		push	{r4, r7, lr}
 1124              		.cfi_def_cfa_offset 12
 1125              		.cfi_offset 4, -12
 1126              		.cfi_offset 7, -8
 1127              		.cfi_offset 14, -4
 1128 0002 89B0     		sub	sp, sp, #36
 1129              		.cfi_def_cfa_offset 48
 1130 0004 00AF     		add	r7, sp, #0
 1131              		.cfi_def_cfa_register 7
ARM GAS  C:\Users\Intern\AppData\Local\Temp\ccVSLPFx.s 			page 30


 1132 0006 7860     		str	r0, [r7, #4]
 515:Generated_Source\PSoC4/BLE_hids.c ****     CYBLE_GATT_ERR_CODE_T gattErr = CYBLE_GATT_ERR_NONE;
 1133              		.loc 1 515 0
 1134 0008 1F23     		movs	r3, #31
 1135 000a FB18     		adds	r3, r7, r3
 1136 000c 0022     		movs	r2, #0
 1137 000e 1A70     		strb	r2, [r3]
 516:Generated_Source\PSoC4/BLE_hids.c ****     uint8 locServIndex = 0u;
 1138              		.loc 1 516 0
 1139 0010 1E23     		movs	r3, #30
 1140 0012 FB18     		adds	r3, r7, r3
 1141 0014 0022     		movs	r2, #0
 1142 0016 1A70     		strb	r2, [r3]
 517:Generated_Source\PSoC4/BLE_hids.c ****     uint8 reportIndex;
 518:Generated_Source\PSoC4/BLE_hids.c ****     CYBLE_HIDS_CHAR_INDEX_T locCharIndex;
 519:Generated_Source\PSoC4/BLE_hids.c ****     CYBLE_HIDS_CHAR_VALUE_T locCharValue;
 520:Generated_Source\PSoC4/BLE_hids.c ****     uint32 eventCode = 0u;
 1143              		.loc 1 520 0
 1144 0018 0023     		movs	r3, #0
 1145 001a BB61     		str	r3, [r7, #24]
 521:Generated_Source\PSoC4/BLE_hids.c **** 
 522:Generated_Source\PSoC4/BLE_hids.c ****     if(NULL != CyBle_HidsApplCallback)
 1146              		.loc 1 522 0
 1147 001c 9C4B     		ldr	r3, .L97
 1148 001e 1B68     		ldr	r3, [r3]
 1149 0020 002B     		cmp	r3, #0
 1150 0022 00D1     		bne	.LCB1010
 1151 0024 EAE1     		b	.L71	@long jump
 1152              	.LCB1010:
 523:Generated_Source\PSoC4/BLE_hids.c ****     {
 524:Generated_Source\PSoC4/BLE_hids.c ****         locCharValue.connHandle = eventParam->connHandle;
 1153              		.loc 1 524 0
 1154 0026 0C23     		movs	r3, #12
 1155 0028 FB18     		adds	r3, r7, r3
 1156 002a 7A68     		ldr	r2, [r7, #4]
 1157 002c 1288     		ldrh	r2, [r2]
 1158 002e 1A80     		strh	r2, [r3]
 525:Generated_Source\PSoC4/BLE_hids.c ****         locCharValue.value = NULL;
 1159              		.loc 1 525 0
 1160 0030 0C23     		movs	r3, #12
 1161 0032 FB18     		adds	r3, r7, r3
 1162 0034 0022     		movs	r2, #0
 1163 0036 5A60     		str	r2, [r3, #4]
 1164              	.L94:
 526:Generated_Source\PSoC4/BLE_hids.c ****         do
 527:Generated_Source\PSoC4/BLE_hids.c ****         {
 528:Generated_Source\PSoC4/BLE_hids.c ****             locCharValue.serviceIndex = locServIndex;
 1165              		.loc 1 528 0
 1166 0038 0C23     		movs	r3, #12
 1167 003a FB18     		adds	r3, r7, r3
 1168 003c 1E22     		movs	r2, #30
 1169 003e BA18     		adds	r2, r7, r2
 1170 0040 1278     		ldrb	r2, [r2]
 1171 0042 9A70     		strb	r2, [r3, #2]
 529:Generated_Source\PSoC4/BLE_hids.c ****             /* Protocol Mode characteristic write request */
 530:Generated_Source\PSoC4/BLE_hids.c ****             if(eventParam->handleValPair.attrHandle == cyBle_hidss[locServIndex].protocolModeHandle
 1172              		.loc 1 530 0
ARM GAS  C:\Users\Intern\AppData\Local\Temp\ccVSLPFx.s 			page 31


 1173 0044 7B68     		ldr	r3, [r7, #4]
 1174 0046 9989     		ldrh	r1, [r3, #12]
 1175 0048 1E23     		movs	r3, #30
 1176 004a FB18     		adds	r3, r7, r3
 1177 004c 1A78     		ldrb	r2, [r3]
 1178 004e 9148     		ldr	r0, .L97+4
 1179 0050 1300     		movs	r3, r2
 1180 0052 9B00     		lsls	r3, r3, #2
 1181 0054 9B18     		adds	r3, r3, r2
 1182 0056 DB00     		lsls	r3, r3, #3
 1183 0058 C318     		adds	r3, r0, r3
 1184 005a 0233     		adds	r3, r3, #2
 1185 005c 1B88     		ldrh	r3, [r3]
 1186 005e 9942     		cmp	r1, r3
 1187 0060 28D1     		bne	.L72
 531:Generated_Source\PSoC4/BLE_hids.c ****             {
 532:Generated_Source\PSoC4/BLE_hids.c ****                 locCharValue.charIndex = CYBLE_HIDS_PROTOCOL_MODE;
 1188              		.loc 1 532 0
 1189 0062 0C23     		movs	r3, #12
 1190 0064 FB18     		adds	r3, r7, r3
 1191 0066 0022     		movs	r2, #0
 1192 0068 DA70     		strb	r2, [r3, #3]
 533:Generated_Source\PSoC4/BLE_hids.c ****                 if(eventParam->handleValPair.value.len == CYBLE_HIDS_PM_CHAR_LEN)
 1193              		.loc 1 533 0
 1194 006a 7B68     		ldr	r3, [r7, #4]
 1195 006c 1B89     		ldrh	r3, [r3, #8]
 1196 006e 012B     		cmp	r3, #1
 1197 0070 00D0     		beq	.LCB1050
 1198 0072 95E1     		b	.L77	@long jump
 1199              	.LCB1050:
 534:Generated_Source\PSoC4/BLE_hids.c ****                 {
 535:Generated_Source\PSoC4/BLE_hids.c ****                     switch(eventParam->handleValPair.value.val[0u])
 1200              		.loc 1 535 0
 1201 0074 7B68     		ldr	r3, [r7, #4]
 1202 0076 5B68     		ldr	r3, [r3, #4]
 1203 0078 1B78     		ldrb	r3, [r3]
 1204 007a 002B     		cmp	r3, #0
 1205 007c 02D0     		beq	.L75
 1206 007e 012B     		cmp	r3, #1
 1207 0080 0CD0     		beq	.L76
 536:Generated_Source\PSoC4/BLE_hids.c ****                     {
 537:Generated_Source\PSoC4/BLE_hids.c ****                         case CYBLE_HIDS_PROTOCOL_MODE_BOOT:
 538:Generated_Source\PSoC4/BLE_hids.c ****                             eventCode = (uint32)CYBLE_EVT_HIDSS_BOOT_MODE_ENTER;
 539:Generated_Source\PSoC4/BLE_hids.c ****                             cyBle_eventHandlerFlag &= (uint8)~CYBLE_CALLBACK;
 540:Generated_Source\PSoC4/BLE_hids.c ****                             break;
 541:Generated_Source\PSoC4/BLE_hids.c ****                         case CYBLE_HIDS_PROTOCOL_MODE_REPORT:
 542:Generated_Source\PSoC4/BLE_hids.c ****                             eventCode = (uint32)CYBLE_EVT_HIDSS_REPORT_MODE_ENTER;
 543:Generated_Source\PSoC4/BLE_hids.c ****                             cyBle_eventHandlerFlag &= (uint8)~CYBLE_CALLBACK;
 544:Generated_Source\PSoC4/BLE_hids.c ****                             break;
 545:Generated_Source\PSoC4/BLE_hids.c ****                         default:    /* Reserved for Future Use. */
 546:Generated_Source\PSoC4/BLE_hids.c ****                             break;
 1208              		.loc 1 546 0
 1209 0082 8DE1     		b	.L77
 1210              	.L75:
 538:Generated_Source\PSoC4/BLE_hids.c ****                             cyBle_eventHandlerFlag &= (uint8)~CYBLE_CALLBACK;
 1211              		.loc 1 538 0
 1212 0084 9823     		movs	r3, #152
ARM GAS  C:\Users\Intern\AppData\Local\Temp\ccVSLPFx.s 			page 32


 1213 0086 FF33     		adds	r3, r3, #255
 1214 0088 BB61     		str	r3, [r7, #24]
 539:Generated_Source\PSoC4/BLE_hids.c ****                             break;
 1215              		.loc 1 539 0
 1216 008a 834B     		ldr	r3, .L97+8
 1217 008c 1B78     		ldrb	r3, [r3]
 1218 008e DBB2     		uxtb	r3, r3
 1219 0090 0122     		movs	r2, #1
 1220 0092 9343     		bics	r3, r2
 1221 0094 DAB2     		uxtb	r2, r3
 1222 0096 804B     		ldr	r3, .L97+8
 1223 0098 1A70     		strb	r2, [r3]
 540:Generated_Source\PSoC4/BLE_hids.c ****                         case CYBLE_HIDS_PROTOCOL_MODE_REPORT:
 1224              		.loc 1 540 0
 1225 009a 81E1     		b	.L77
 1226              	.L76:
 542:Generated_Source\PSoC4/BLE_hids.c ****                             cyBle_eventHandlerFlag &= (uint8)~CYBLE_CALLBACK;
 1227              		.loc 1 542 0
 1228 009c CC23     		movs	r3, #204
 1229 009e 5B00     		lsls	r3, r3, #1
 1230 00a0 BB61     		str	r3, [r7, #24]
 543:Generated_Source\PSoC4/BLE_hids.c ****                             break;
 1231              		.loc 1 543 0
 1232 00a2 7D4B     		ldr	r3, .L97+8
 1233 00a4 1B78     		ldrb	r3, [r3]
 1234 00a6 DBB2     		uxtb	r3, r3
 1235 00a8 0122     		movs	r2, #1
 1236 00aa 9343     		bics	r3, r2
 1237 00ac DAB2     		uxtb	r2, r3
 1238 00ae 7A4B     		ldr	r3, .L97+8
 1239 00b0 1A70     		strb	r2, [r3]
 544:Generated_Source\PSoC4/BLE_hids.c ****                         default:    /* Reserved for Future Use. */
 1240              		.loc 1 544 0
 1241 00b2 75E1     		b	.L77
 1242              	.L72:
 547:Generated_Source\PSoC4/BLE_hids.c ****                     }
 548:Generated_Source\PSoC4/BLE_hids.c ****                 }
 549:Generated_Source\PSoC4/BLE_hids.c ****             }
 550:Generated_Source\PSoC4/BLE_hids.c ****             /* Control Point characteristic write request */
 551:Generated_Source\PSoC4/BLE_hids.c ****             else if(eventParam->handleValPair.attrHandle == cyBle_hidss[locServIndex].controlPointH
 1243              		.loc 1 551 0
 1244 00b4 7B68     		ldr	r3, [r7, #4]
 1245 00b6 9989     		ldrh	r1, [r3, #12]
 1246 00b8 1E23     		movs	r3, #30
 1247 00ba FB18     		adds	r3, r7, r3
 1248 00bc 1A78     		ldrb	r2, [r3]
 1249 00be 7548     		ldr	r0, .L97+4
 1250 00c0 1300     		movs	r3, r2
 1251 00c2 9B00     		lsls	r3, r3, #2
 1252 00c4 9B18     		adds	r3, r3, r2
 1253 00c6 DB00     		lsls	r3, r3, #3
 1254 00c8 C318     		adds	r3, r0, r3
 1255 00ca 2433     		adds	r3, r3, #36
 1256 00cc 1B88     		ldrh	r3, [r3]
 1257 00ce 9942     		cmp	r1, r3
 1258 00d0 28D1     		bne	.L78
 552:Generated_Source\PSoC4/BLE_hids.c ****             {
ARM GAS  C:\Users\Intern\AppData\Local\Temp\ccVSLPFx.s 			page 33


 553:Generated_Source\PSoC4/BLE_hids.c ****                 locCharValue.charIndex = CYBLE_HIDS_CONTROL_POINT;
 1259              		.loc 1 553 0
 1260 00d2 0C23     		movs	r3, #12
 1261 00d4 FB18     		adds	r3, r7, r3
 1262 00d6 0222     		movs	r2, #2
 1263 00d8 DA70     		strb	r2, [r3, #3]
 554:Generated_Source\PSoC4/BLE_hids.c ****                 if(eventParam->handleValPair.value.len == CYBLE_HIDS_CP_CHAR_LEN)
 1264              		.loc 1 554 0
 1265 00da 7B68     		ldr	r3, [r7, #4]
 1266 00dc 1B89     		ldrh	r3, [r3, #8]
 1267 00de 012B     		cmp	r3, #1
 1268 00e0 00D0     		beq	.LCB1114
 1269 00e2 5DE1     		b	.L77	@long jump
 1270              	.LCB1114:
 555:Generated_Source\PSoC4/BLE_hids.c ****                 {
 556:Generated_Source\PSoC4/BLE_hids.c ****                     switch(eventParam->handleValPair.value.val[0u])
 1271              		.loc 1 556 0
 1272 00e4 7B68     		ldr	r3, [r7, #4]
 1273 00e6 5B68     		ldr	r3, [r3, #4]
 1274 00e8 1B78     		ldrb	r3, [r3]
 1275 00ea 002B     		cmp	r3, #0
 1276 00ec 02D0     		beq	.L81
 1277 00ee 012B     		cmp	r3, #1
 1278 00f0 0CD0     		beq	.L82
 557:Generated_Source\PSoC4/BLE_hids.c ****                     {
 558:Generated_Source\PSoC4/BLE_hids.c ****                         case CYBLE_HIDS_CP_SUSPEND:
 559:Generated_Source\PSoC4/BLE_hids.c ****                             eventCode = (uint32)CYBLE_EVT_HIDSS_SUSPEND;
 560:Generated_Source\PSoC4/BLE_hids.c ****                             cyBle_eventHandlerFlag &= (uint8)~CYBLE_CALLBACK;
 561:Generated_Source\PSoC4/BLE_hids.c ****                             break;
 562:Generated_Source\PSoC4/BLE_hids.c ****                         case CYBLE_HIDS_CP_EXIT_SUSPEND:
 563:Generated_Source\PSoC4/BLE_hids.c ****                             eventCode = (uint32)CYBLE_EVT_HIDSS_EXIT_SUSPEND;
 564:Generated_Source\PSoC4/BLE_hids.c ****                             cyBle_eventHandlerFlag &= (uint8)~CYBLE_CALLBACK;
 565:Generated_Source\PSoC4/BLE_hids.c ****                             break;
 566:Generated_Source\PSoC4/BLE_hids.c ****                         default:    /* Reserved for Future Use. */
 567:Generated_Source\PSoC4/BLE_hids.c ****                             break;
 1279              		.loc 1 567 0
 1280 00f2 55E1     		b	.L77
 1281              	.L81:
 559:Generated_Source\PSoC4/BLE_hids.c ****                             cyBle_eventHandlerFlag &= (uint8)~CYBLE_CALLBACK;
 1282              		.loc 1 559 0
 1283 00f4 9A23     		movs	r3, #154
 1284 00f6 FF33     		adds	r3, r3, #255
 1285 00f8 BB61     		str	r3, [r7, #24]
 560:Generated_Source\PSoC4/BLE_hids.c ****                             break;
 1286              		.loc 1 560 0
 1287 00fa 674B     		ldr	r3, .L97+8
 1288 00fc 1B78     		ldrb	r3, [r3]
 1289 00fe DBB2     		uxtb	r3, r3
 1290 0100 0122     		movs	r2, #1
 1291 0102 9343     		bics	r3, r2
 1292 0104 DAB2     		uxtb	r2, r3
 1293 0106 644B     		ldr	r3, .L97+8
 1294 0108 1A70     		strb	r2, [r3]
 561:Generated_Source\PSoC4/BLE_hids.c ****                         case CYBLE_HIDS_CP_EXIT_SUSPEND:
 1295              		.loc 1 561 0
 1296 010a 49E1     		b	.L77
 1297              	.L82:
ARM GAS  C:\Users\Intern\AppData\Local\Temp\ccVSLPFx.s 			page 34


 563:Generated_Source\PSoC4/BLE_hids.c ****                             cyBle_eventHandlerFlag &= (uint8)~CYBLE_CALLBACK;
 1298              		.loc 1 563 0
 1299 010c CD23     		movs	r3, #205
 1300 010e 5B00     		lsls	r3, r3, #1
 1301 0110 BB61     		str	r3, [r7, #24]
 564:Generated_Source\PSoC4/BLE_hids.c ****                             break;
 1302              		.loc 1 564 0
 1303 0112 614B     		ldr	r3, .L97+8
 1304 0114 1B78     		ldrb	r3, [r3]
 1305 0116 DBB2     		uxtb	r3, r3
 1306 0118 0122     		movs	r2, #1
 1307 011a 9343     		bics	r3, r2
 1308 011c DAB2     		uxtb	r2, r3
 1309 011e 5E4B     		ldr	r3, .L97+8
 1310 0120 1A70     		strb	r2, [r3]
 565:Generated_Source\PSoC4/BLE_hids.c ****                         default:    /* Reserved for Future Use. */
 1311              		.loc 1 565 0
 1312 0122 3DE1     		b	.L77
 1313              	.L78:
 568:Generated_Source\PSoC4/BLE_hids.c ****                     }
 569:Generated_Source\PSoC4/BLE_hids.c ****                 }
 570:Generated_Source\PSoC4/BLE_hids.c ****             }
 571:Generated_Source\PSoC4/BLE_hids.c ****             else if(eventParam->handleValPair.attrHandle ==
 1314              		.loc 1 571 0
 1315 0124 7B68     		ldr	r3, [r7, #4]
 1316 0126 9989     		ldrh	r1, [r3, #12]
 572:Generated_Source\PSoC4/BLE_hids.c ****                         cyBle_hidss[locServIndex].bootReportArray[CYBLE_HIDS_BOOT_KYBRD_IN_REP_INDX
 1317              		.loc 1 572 0
 1318 0128 1E23     		movs	r3, #30
 1319 012a FB18     		adds	r3, r7, r3
 1320 012c 1A78     		ldrb	r2, [r3]
 1321 012e 5948     		ldr	r0, .L97+4
 1322 0130 1300     		movs	r3, r2
 1323 0132 9B00     		lsls	r3, r3, #2
 1324 0134 9B18     		adds	r3, r3, r2
 1325 0136 DB00     		lsls	r3, r3, #3
 1326 0138 C318     		adds	r3, r0, r3
 1327 013a 0C33     		adds	r3, r3, #12
 1328 013c 1B88     		ldrh	r3, [r3]
 571:Generated_Source\PSoC4/BLE_hids.c ****                         cyBle_hidss[locServIndex].bootReportArray[CYBLE_HIDS_BOOT_KYBRD_IN_REP_INDX
 1329              		.loc 1 571 0
 1330 013e 9942     		cmp	r1, r3
 1331 0140 14D1     		bne	.L83
 573:Generated_Source\PSoC4/BLE_hids.c ****             {
 574:Generated_Source\PSoC4/BLE_hids.c ****                 locCharValue.charIndex = CYBLE_HIDS_BOOT_KYBRD_IN_REP;
 1332              		.loc 1 574 0
 1333 0142 0C23     		movs	r3, #12
 1334 0144 FB18     		adds	r3, r7, r3
 1335 0146 0422     		movs	r2, #4
 1336 0148 DA70     		strb	r2, [r3, #3]
 575:Generated_Source\PSoC4/BLE_hids.c ****                 locCharValue.value = &eventParam->handleValPair.value;
 1337              		.loc 1 575 0
 1338 014a 7B68     		ldr	r3, [r7, #4]
 1339 014c 1A1D     		adds	r2, r3, #4
 1340 014e 0C23     		movs	r3, #12
 1341 0150 FB18     		adds	r3, r7, r3
 1342 0152 5A60     		str	r2, [r3, #4]
ARM GAS  C:\Users\Intern\AppData\Local\Temp\ccVSLPFx.s 			page 35


 576:Generated_Source\PSoC4/BLE_hids.c ****                 eventCode = (uint32)CYBLE_EVT_HIDSS_REPORT_CHAR_WRITE;
 1343              		.loc 1 576 0
 1344 0154 9C23     		movs	r3, #156
 1345 0156 FF33     		adds	r3, r3, #255
 1346 0158 BB61     		str	r3, [r7, #24]
 577:Generated_Source\PSoC4/BLE_hids.c ****                 cyBle_eventHandlerFlag &= (uint8)~CYBLE_CALLBACK;
 1347              		.loc 1 577 0
 1348 015a 4F4B     		ldr	r3, .L97+8
 1349 015c 1B78     		ldrb	r3, [r3]
 1350 015e DBB2     		uxtb	r3, r3
 1351 0160 0122     		movs	r2, #1
 1352 0162 9343     		bics	r3, r2
 1353 0164 DAB2     		uxtb	r2, r3
 1354 0166 4C4B     		ldr	r3, .L97+8
 1355 0168 1A70     		strb	r2, [r3]
 1356 016a 19E1     		b	.L77
 1357              	.L83:
 578:Generated_Source\PSoC4/BLE_hids.c ****             }
 579:Generated_Source\PSoC4/BLE_hids.c ****             else if(eventParam->handleValPair.attrHandle ==
 1358              		.loc 1 579 0
 1359 016c 7B68     		ldr	r3, [r7, #4]
 1360 016e 9989     		ldrh	r1, [r3, #12]
 580:Generated_Source\PSoC4/BLE_hids.c ****                         cyBle_hidss[locServIndex].bootReportArray[CYBLE_HIDS_BOOT_KYBRD_IN_REP_INDX
 1361              		.loc 1 580 0
 1362 0170 1E23     		movs	r3, #30
 1363 0172 FB18     		adds	r3, r7, r3
 1364 0174 1A78     		ldrb	r2, [r3]
 1365 0176 4748     		ldr	r0, .L97+4
 1366 0178 1300     		movs	r3, r2
 1367 017a 9B00     		lsls	r3, r3, #2
 1368 017c 9B18     		adds	r3, r3, r2
 1369 017e DB00     		lsls	r3, r3, #3
 1370 0180 C318     		adds	r3, r0, r3
 1371 0182 0E33     		adds	r3, r3, #14
 1372 0184 1B88     		ldrh	r3, [r3]
 579:Generated_Source\PSoC4/BLE_hids.c ****                         cyBle_hidss[locServIndex].bootReportArray[CYBLE_HIDS_BOOT_KYBRD_IN_REP_INDX
 1373              		.loc 1 579 0
 1374 0186 9942     		cmp	r1, r3
 1375 0188 0ED1     		bne	.L84
 581:Generated_Source\PSoC4/BLE_hids.c ****             {
 582:Generated_Source\PSoC4/BLE_hids.c ****                 locCharValue.charIndex = CYBLE_HIDS_BOOT_KYBRD_IN_REP;
 1376              		.loc 1 582 0
 1377 018a 0C23     		movs	r3, #12
 1378 018c FB18     		adds	r3, r7, r3
 1379 018e 0422     		movs	r2, #4
 1380 0190 DA70     		strb	r2, [r3, #3]
 583:Generated_Source\PSoC4/BLE_hids.c ****                 eventCode = CyBle_HidssCccdWriteEventHandler(locServIndex, eventParam);
 1381              		.loc 1 583 0
 1382 0192 7A68     		ldr	r2, [r7, #4]
 1383 0194 1E23     		movs	r3, #30
 1384 0196 FB18     		adds	r3, r7, r3
 1385 0198 1B78     		ldrb	r3, [r3]
 1386 019a 1100     		movs	r1, r2
 1387 019c 1800     		movs	r0, r3
 1388 019e FFF7FEFF 		bl	CyBle_HidssCccdWriteEventHandler
 1389 01a2 0300     		movs	r3, r0
 1390 01a4 BB61     		str	r3, [r7, #24]
ARM GAS  C:\Users\Intern\AppData\Local\Temp\ccVSLPFx.s 			page 36


 1391 01a6 FBE0     		b	.L77
 1392              	.L84:
 584:Generated_Source\PSoC4/BLE_hids.c ****             }
 585:Generated_Source\PSoC4/BLE_hids.c ****             else if(eventParam->handleValPair.attrHandle ==
 1393              		.loc 1 585 0
 1394 01a8 7B68     		ldr	r3, [r7, #4]
 1395 01aa 9989     		ldrh	r1, [r3, #12]
 586:Generated_Source\PSoC4/BLE_hids.c ****                         cyBle_hidss[locServIndex].bootReportArray[CYBLE_HIDS_BOOT_KYBRD_OUT_REP_IND
 1396              		.loc 1 586 0
 1397 01ac 1E23     		movs	r3, #30
 1398 01ae FB18     		adds	r3, r7, r3
 1399 01b0 1A78     		ldrb	r2, [r3]
 1400 01b2 3848     		ldr	r0, .L97+4
 1401 01b4 1300     		movs	r3, r2
 1402 01b6 9B00     		lsls	r3, r3, #2
 1403 01b8 9B18     		adds	r3, r3, r2
 1404 01ba DB00     		lsls	r3, r3, #3
 1405 01bc C318     		adds	r3, r0, r3
 1406 01be 1233     		adds	r3, r3, #18
 1407 01c0 1B88     		ldrh	r3, [r3]
 585:Generated_Source\PSoC4/BLE_hids.c ****                         cyBle_hidss[locServIndex].bootReportArray[CYBLE_HIDS_BOOT_KYBRD_OUT_REP_IND
 1408              		.loc 1 585 0
 1409 01c2 9942     		cmp	r1, r3
 1410 01c4 14D1     		bne	.L85
 587:Generated_Source\PSoC4/BLE_hids.c ****             {
 588:Generated_Source\PSoC4/BLE_hids.c ****                 locCharValue.charIndex = CYBLE_HIDS_BOOT_KYBRD_OUT_REP;
 1411              		.loc 1 588 0
 1412 01c6 0C23     		movs	r3, #12
 1413 01c8 FB18     		adds	r3, r7, r3
 1414 01ca 0522     		movs	r2, #5
 1415 01cc DA70     		strb	r2, [r3, #3]
 589:Generated_Source\PSoC4/BLE_hids.c ****                 locCharValue.value = &eventParam->handleValPair.value;
 1416              		.loc 1 589 0
 1417 01ce 7B68     		ldr	r3, [r7, #4]
 1418 01d0 1A1D     		adds	r2, r3, #4
 1419 01d2 0C23     		movs	r3, #12
 1420 01d4 FB18     		adds	r3, r7, r3
 1421 01d6 5A60     		str	r2, [r3, #4]
 590:Generated_Source\PSoC4/BLE_hids.c ****                 eventCode = (uint32)CYBLE_EVT_HIDSS_REPORT_CHAR_WRITE;
 1422              		.loc 1 590 0
 1423 01d8 9C23     		movs	r3, #156
 1424 01da FF33     		adds	r3, r3, #255
 1425 01dc BB61     		str	r3, [r7, #24]
 591:Generated_Source\PSoC4/BLE_hids.c ****                 cyBle_eventHandlerFlag &= (uint8)~CYBLE_CALLBACK;
 1426              		.loc 1 591 0
 1427 01de 2E4B     		ldr	r3, .L97+8
 1428 01e0 1B78     		ldrb	r3, [r3]
 1429 01e2 DBB2     		uxtb	r3, r3
 1430 01e4 0122     		movs	r2, #1
 1431 01e6 9343     		bics	r3, r2
 1432 01e8 DAB2     		uxtb	r2, r3
 1433 01ea 2B4B     		ldr	r3, .L97+8
 1434 01ec 1A70     		strb	r2, [r3]
 1435 01ee D7E0     		b	.L77
 1436              	.L85:
 592:Generated_Source\PSoC4/BLE_hids.c ****             }
 593:Generated_Source\PSoC4/BLE_hids.c ****             else if(eventParam->handleValPair.attrHandle ==
ARM GAS  C:\Users\Intern\AppData\Local\Temp\ccVSLPFx.s 			page 37


 1437              		.loc 1 593 0
 1438 01f0 7B68     		ldr	r3, [r7, #4]
 1439 01f2 9989     		ldrh	r1, [r3, #12]
 594:Generated_Source\PSoC4/BLE_hids.c ****                         cyBle_hidss[locServIndex].bootReportArray[CYBLE_HIDS_BOOT_MOUSE_IN_REP_INDX
 1440              		.loc 1 594 0
 1441 01f4 1E23     		movs	r3, #30
 1442 01f6 FB18     		adds	r3, r7, r3
 1443 01f8 1A78     		ldrb	r2, [r3]
 1444 01fa 2648     		ldr	r0, .L97+4
 1445 01fc 1300     		movs	r3, r2
 1446 01fe 9B00     		lsls	r3, r3, #2
 1447 0200 9B18     		adds	r3, r3, r2
 1448 0202 DB00     		lsls	r3, r3, #3
 1449 0204 C318     		adds	r3, r0, r3
 1450 0206 1833     		adds	r3, r3, #24
 1451 0208 1B88     		ldrh	r3, [r3]
 593:Generated_Source\PSoC4/BLE_hids.c ****                         cyBle_hidss[locServIndex].bootReportArray[CYBLE_HIDS_BOOT_MOUSE_IN_REP_INDX
 1452              		.loc 1 593 0
 1453 020a 9942     		cmp	r1, r3
 1454 020c 14D1     		bne	.L86
 595:Generated_Source\PSoC4/BLE_hids.c ****             {
 596:Generated_Source\PSoC4/BLE_hids.c ****                 locCharValue.charIndex = CYBLE_HIDS_BOOT_MOUSE_IN_REP;
 1455              		.loc 1 596 0
 1456 020e 0C23     		movs	r3, #12
 1457 0210 FB18     		adds	r3, r7, r3
 1458 0212 0622     		movs	r2, #6
 1459 0214 DA70     		strb	r2, [r3, #3]
 597:Generated_Source\PSoC4/BLE_hids.c ****                 locCharValue.value = &eventParam->handleValPair.value;
 1460              		.loc 1 597 0
 1461 0216 7B68     		ldr	r3, [r7, #4]
 1462 0218 1A1D     		adds	r2, r3, #4
 1463 021a 0C23     		movs	r3, #12
 1464 021c FB18     		adds	r3, r7, r3
 1465 021e 5A60     		str	r2, [r3, #4]
 598:Generated_Source\PSoC4/BLE_hids.c ****                 eventCode = (uint32)CYBLE_EVT_HIDSS_REPORT_CHAR_WRITE;
 1466              		.loc 1 598 0
 1467 0220 9C23     		movs	r3, #156
 1468 0222 FF33     		adds	r3, r3, #255
 1469 0224 BB61     		str	r3, [r7, #24]
 599:Generated_Source\PSoC4/BLE_hids.c ****                 cyBle_eventHandlerFlag &= (uint8)~CYBLE_CALLBACK;
 1470              		.loc 1 599 0
 1471 0226 1C4B     		ldr	r3, .L97+8
 1472 0228 1B78     		ldrb	r3, [r3]
 1473 022a DBB2     		uxtb	r3, r3
 1474 022c 0122     		movs	r2, #1
 1475 022e 9343     		bics	r3, r2
 1476 0230 DAB2     		uxtb	r2, r3
 1477 0232 194B     		ldr	r3, .L97+8
 1478 0234 1A70     		strb	r2, [r3]
 1479 0236 B3E0     		b	.L77
 1480              	.L86:
 600:Generated_Source\PSoC4/BLE_hids.c ****             }
 601:Generated_Source\PSoC4/BLE_hids.c ****             else if(eventParam->handleValPair.attrHandle ==
 1481              		.loc 1 601 0
 1482 0238 7B68     		ldr	r3, [r7, #4]
 1483 023a 9989     		ldrh	r1, [r3, #12]
 602:Generated_Source\PSoC4/BLE_hids.c ****                         cyBle_hidss[locServIndex].bootReportArray[CYBLE_HIDS_BOOT_MOUSE_IN_REP_INDX
ARM GAS  C:\Users\Intern\AppData\Local\Temp\ccVSLPFx.s 			page 38


 1484              		.loc 1 602 0
 1485 023c 1E23     		movs	r3, #30
 1486 023e FB18     		adds	r3, r7, r3
 1487 0240 1A78     		ldrb	r2, [r3]
 1488 0242 1448     		ldr	r0, .L97+4
 1489 0244 1300     		movs	r3, r2
 1490 0246 9B00     		lsls	r3, r3, #2
 1491 0248 9B18     		adds	r3, r3, r2
 1492 024a DB00     		lsls	r3, r3, #3
 1493 024c C318     		adds	r3, r0, r3
 1494 024e 1A33     		adds	r3, r3, #26
 1495 0250 1B88     		ldrh	r3, [r3]
 601:Generated_Source\PSoC4/BLE_hids.c ****                         cyBle_hidss[locServIndex].bootReportArray[CYBLE_HIDS_BOOT_MOUSE_IN_REP_INDX
 1496              		.loc 1 601 0
 1497 0252 9942     		cmp	r1, r3
 1498 0254 0ED1     		bne	.L87
 603:Generated_Source\PSoC4/BLE_hids.c ****             {
 604:Generated_Source\PSoC4/BLE_hids.c ****                 locCharValue.charIndex = CYBLE_HIDS_BOOT_MOUSE_IN_REP;
 1499              		.loc 1 604 0
 1500 0256 0C23     		movs	r3, #12
 1501 0258 FB18     		adds	r3, r7, r3
 1502 025a 0622     		movs	r2, #6
 1503 025c DA70     		strb	r2, [r3, #3]
 605:Generated_Source\PSoC4/BLE_hids.c ****                 eventCode = CyBle_HidssCccdWriteEventHandler(locServIndex, eventParam);
 1504              		.loc 1 605 0
 1505 025e 7A68     		ldr	r2, [r7, #4]
 1506 0260 1E23     		movs	r3, #30
 1507 0262 FB18     		adds	r3, r7, r3
 1508 0264 1B78     		ldrb	r3, [r3]
 1509 0266 1100     		movs	r1, r2
 1510 0268 1800     		movs	r0, r3
 1511 026a FFF7FEFF 		bl	CyBle_HidssCccdWriteEventHandler
 1512 026e 0300     		movs	r3, r0
 1513 0270 BB61     		str	r3, [r7, #24]
 1514 0272 95E0     		b	.L77
 1515              	.L87:
 1516              	.LBB2:
 606:Generated_Source\PSoC4/BLE_hids.c ****             }
 607:Generated_Source\PSoC4/BLE_hids.c ****             else
 608:Generated_Source\PSoC4/BLE_hids.c ****             {
 609:Generated_Source\PSoC4/BLE_hids.c ****                 uint8 locReqHandle = 0u;
 1517              		.loc 1 609 0
 1518 0274 1723     		movs	r3, #23
 1519 0276 FB18     		adds	r3, r7, r3
 1520 0278 0022     		movs	r2, #0
 1521 027a 1A70     		strb	r2, [r3]
 610:Generated_Source\PSoC4/BLE_hids.c ****                 
 611:Generated_Source\PSoC4/BLE_hids.c ****                 locCharIndex = CYBLE_HIDS_REPORT;
 1522              		.loc 1 611 0
 1523 027c 1C23     		movs	r3, #28
 1524 027e FB18     		adds	r3, r7, r3
 1525 0280 0722     		movs	r2, #7
 1526 0282 1A70     		strb	r2, [r3]
 612:Generated_Source\PSoC4/BLE_hids.c ****                 for(reportIndex = 0u; (reportIndex < cyBle_hidss[locServIndex].reportCount) && (loc
 1527              		.loc 1 612 0
 1528 0284 1D23     		movs	r3, #29
 1529 0286 FB18     		adds	r3, r7, r3
ARM GAS  C:\Users\Intern\AppData\Local\Temp\ccVSLPFx.s 			page 39


 1530 0288 0022     		movs	r2, #0
 1531 028a 1A70     		strb	r2, [r3]
 1532 028c 72E0     		b	.L88
 1533              	.L98:
 1534 028e C046     		.align	2
 1535              	.L97:
 1536 0290 00000000 		.word	CyBle_HidsApplCallback
 1537 0294 00000000 		.word	cyBle_hidss
 1538 0298 00000000 		.word	cyBle_eventHandlerFlag
 1539              	.L91:
 613:Generated_Source\PSoC4/BLE_hids.c ****                         reportIndex++)
 614:Generated_Source\PSoC4/BLE_hids.c ****                 {
 615:Generated_Source\PSoC4/BLE_hids.c ****                     if(eventParam->handleValPair.attrHandle == 
 1540              		.loc 1 615 0
 1541 029c 7B68     		ldr	r3, [r7, #4]
 1542 029e 9989     		ldrh	r1, [r3, #12]
 616:Generated_Source\PSoC4/BLE_hids.c ****                         cyBle_hidss[locServIndex].reportArray[reportIndex].reportHandle)
 1543              		.loc 1 616 0
 1544 02a0 1E23     		movs	r3, #30
 1545 02a2 FB18     		adds	r3, r7, r3
 1546 02a4 1A78     		ldrb	r2, [r3]
 1547 02a6 5948     		ldr	r0, .L99
 1548 02a8 1300     		movs	r3, r2
 1549 02aa 9B00     		lsls	r3, r3, #2
 1550 02ac 9B18     		adds	r3, r3, r2
 1551 02ae DB00     		lsls	r3, r3, #3
 1552 02b0 C318     		adds	r3, r0, r3
 1553 02b2 0833     		adds	r3, r3, #8
 1554 02b4 1868     		ldr	r0, [r3]
 1555 02b6 1D23     		movs	r3, #29
 1556 02b8 FB18     		adds	r3, r7, r3
 1557 02ba 1A78     		ldrb	r2, [r3]
 1558 02bc 1300     		movs	r3, r2
 1559 02be 5B00     		lsls	r3, r3, #1
 1560 02c0 9B18     		adds	r3, r3, r2
 1561 02c2 5B00     		lsls	r3, r3, #1
 1562 02c4 C318     		adds	r3, r0, r3
 1563 02c6 1B88     		ldrh	r3, [r3]
 615:Generated_Source\PSoC4/BLE_hids.c ****                         cyBle_hidss[locServIndex].reportArray[reportIndex].reportHandle)
 1564              		.loc 1 615 0
 1565 02c8 9942     		cmp	r1, r3
 1566 02ca 19D1     		bne	.L89
 617:Generated_Source\PSoC4/BLE_hids.c ****                     {
 618:Generated_Source\PSoC4/BLE_hids.c ****                         locCharValue.charIndex = locCharIndex;
 1567              		.loc 1 618 0
 1568 02cc 0C23     		movs	r3, #12
 1569 02ce FB18     		adds	r3, r7, r3
 1570 02d0 1C22     		movs	r2, #28
 1571 02d2 BA18     		adds	r2, r7, r2
 1572 02d4 1278     		ldrb	r2, [r2]
 1573 02d6 DA70     		strb	r2, [r3, #3]
 619:Generated_Source\PSoC4/BLE_hids.c ****                         locCharValue.value = &eventParam->handleValPair.value;
 1574              		.loc 1 619 0
 1575 02d8 7B68     		ldr	r3, [r7, #4]
 1576 02da 1A1D     		adds	r2, r3, #4
 1577 02dc 0C23     		movs	r3, #12
 1578 02de FB18     		adds	r3, r7, r3
ARM GAS  C:\Users\Intern\AppData\Local\Temp\ccVSLPFx.s 			page 40


 1579 02e0 5A60     		str	r2, [r3, #4]
 620:Generated_Source\PSoC4/BLE_hids.c ****                         eventCode = (uint32)CYBLE_EVT_HIDSS_REPORT_CHAR_WRITE;
 1580              		.loc 1 620 0
 1581 02e2 9C23     		movs	r3, #156
 1582 02e4 FF33     		adds	r3, r3, #255
 1583 02e6 BB61     		str	r3, [r7, #24]
 621:Generated_Source\PSoC4/BLE_hids.c ****                         cyBle_eventHandlerFlag &= (uint8)~CYBLE_CALLBACK;
 1584              		.loc 1 621 0
 1585 02e8 494B     		ldr	r3, .L99+4
 1586 02ea 1B78     		ldrb	r3, [r3]
 1587 02ec DBB2     		uxtb	r3, r3
 1588 02ee 0122     		movs	r2, #1
 1589 02f0 9343     		bics	r3, r2
 1590 02f2 DAB2     		uxtb	r2, r3
 1591 02f4 464B     		ldr	r3, .L99+4
 1592 02f6 1A70     		strb	r2, [r3]
 622:Generated_Source\PSoC4/BLE_hids.c ****                         locReqHandle = 1u;
 1593              		.loc 1 622 0
 1594 02f8 1723     		movs	r3, #23
 1595 02fa FB18     		adds	r3, r7, r3
 1596 02fc 0122     		movs	r2, #1
 1597 02fe 1A70     		strb	r2, [r3]
 1598              	.L89:
 623:Generated_Source\PSoC4/BLE_hids.c ****                     }
 624:Generated_Source\PSoC4/BLE_hids.c ****                     if(eventParam->handleValPair.attrHandle == 
 1599              		.loc 1 624 0
 1600 0300 7B68     		ldr	r3, [r7, #4]
 1601 0302 9989     		ldrh	r1, [r3, #12]
 625:Generated_Source\PSoC4/BLE_hids.c ****                         cyBle_hidss[locServIndex].reportArray[reportIndex].cccdHandle)
 1602              		.loc 1 625 0
 1603 0304 1E23     		movs	r3, #30
 1604 0306 FB18     		adds	r3, r7, r3
 1605 0308 1A78     		ldrb	r2, [r3]
 1606 030a 4048     		ldr	r0, .L99
 1607 030c 1300     		movs	r3, r2
 1608 030e 9B00     		lsls	r3, r3, #2
 1609 0310 9B18     		adds	r3, r3, r2
 1610 0312 DB00     		lsls	r3, r3, #3
 1611 0314 C318     		adds	r3, r0, r3
 1612 0316 0833     		adds	r3, r3, #8
 1613 0318 1868     		ldr	r0, [r3]
 1614 031a 1D23     		movs	r3, #29
 1615 031c FB18     		adds	r3, r7, r3
 1616 031e 1A78     		ldrb	r2, [r3]
 1617 0320 1300     		movs	r3, r2
 1618 0322 5B00     		lsls	r3, r3, #1
 1619 0324 9B18     		adds	r3, r3, r2
 1620 0326 5B00     		lsls	r3, r3, #1
 1621 0328 C318     		adds	r3, r0, r3
 1622 032a 5B88     		ldrh	r3, [r3, #2]
 624:Generated_Source\PSoC4/BLE_hids.c ****                         cyBle_hidss[locServIndex].reportArray[reportIndex].cccdHandle)
 1623              		.loc 1 624 0
 1624 032c 9942     		cmp	r1, r3
 1625 032e 13D1     		bne	.L90
 626:Generated_Source\PSoC4/BLE_hids.c ****                     {
 627:Generated_Source\PSoC4/BLE_hids.c ****                         locCharValue.charIndex = locCharIndex;
 1626              		.loc 1 627 0
ARM GAS  C:\Users\Intern\AppData\Local\Temp\ccVSLPFx.s 			page 41


 1627 0330 0C23     		movs	r3, #12
 1628 0332 FB18     		adds	r3, r7, r3
 1629 0334 1C22     		movs	r2, #28
 1630 0336 BA18     		adds	r2, r7, r2
 1631 0338 1278     		ldrb	r2, [r2]
 1632 033a DA70     		strb	r2, [r3, #3]
 628:Generated_Source\PSoC4/BLE_hids.c ****                         eventCode = CyBle_HidssCccdWriteEventHandler(locServIndex, eventParam);
 1633              		.loc 1 628 0
 1634 033c 7A68     		ldr	r2, [r7, #4]
 1635 033e 1E23     		movs	r3, #30
 1636 0340 FB18     		adds	r3, r7, r3
 1637 0342 1B78     		ldrb	r3, [r3]
 1638 0344 1100     		movs	r1, r2
 1639 0346 1800     		movs	r0, r3
 1640 0348 FFF7FEFF 		bl	CyBle_HidssCccdWriteEventHandler
 1641 034c 0300     		movs	r3, r0
 1642 034e BB61     		str	r3, [r7, #24]
 629:Generated_Source\PSoC4/BLE_hids.c ****                         locReqHandle = 1u;
 1643              		.loc 1 629 0
 1644 0350 1723     		movs	r3, #23
 1645 0352 FB18     		adds	r3, r7, r3
 1646 0354 0122     		movs	r2, #1
 1647 0356 1A70     		strb	r2, [r3]
 1648              	.L90:
 630:Generated_Source\PSoC4/BLE_hids.c ****                     }
 631:Generated_Source\PSoC4/BLE_hids.c ****                     locCharIndex++;
 1649              		.loc 1 631 0
 1650 0358 1C23     		movs	r3, #28
 1651 035a FB18     		adds	r3, r7, r3
 1652 035c 1A78     		ldrb	r2, [r3]
 1653 035e 1C23     		movs	r3, #28
 1654 0360 FB18     		adds	r3, r7, r3
 1655 0362 0132     		adds	r2, r2, #1
 1656 0364 1A70     		strb	r2, [r3]
 613:Generated_Source\PSoC4/BLE_hids.c ****                 {
 1657              		.loc 1 613 0
 1658 0366 1D23     		movs	r3, #29
 1659 0368 FB18     		adds	r3, r7, r3
 1660 036a 1A78     		ldrb	r2, [r3]
 1661 036c 1D23     		movs	r3, #29
 1662 036e FB18     		adds	r3, r7, r3
 1663 0370 0132     		adds	r2, r2, #1
 1664 0372 1A70     		strb	r2, [r3]
 1665              	.L88:
 612:Generated_Source\PSoC4/BLE_hids.c ****                         reportIndex++)
 1666              		.loc 1 612 0 discriminator 1
 1667 0374 1E23     		movs	r3, #30
 1668 0376 FB18     		adds	r3, r7, r3
 1669 0378 1A78     		ldrb	r2, [r3]
 1670 037a 2449     		ldr	r1, .L99
 1671 037c 1300     		movs	r3, r2
 1672 037e 9B00     		lsls	r3, r3, #2
 1673 0380 9B18     		adds	r3, r3, r2
 1674 0382 DB00     		lsls	r3, r3, #3
 1675 0384 CB18     		adds	r3, r1, r3
 1676 0386 0433     		adds	r3, r3, #4
 1677 0388 1B78     		ldrb	r3, [r3]
ARM GAS  C:\Users\Intern\AppData\Local\Temp\ccVSLPFx.s 			page 42


 1678 038a 1D22     		movs	r2, #29
 1679 038c BA18     		adds	r2, r7, r2
 1680 038e 1278     		ldrb	r2, [r2]
 1681 0390 9A42     		cmp	r2, r3
 1682 0392 05D2     		bcs	.L77
 612:Generated_Source\PSoC4/BLE_hids.c ****                         reportIndex++)
 1683              		.loc 1 612 0 is_stmt 0 discriminator 2
 1684 0394 1723     		movs	r3, #23
 1685 0396 FB18     		adds	r3, r7, r3
 1686 0398 1B78     		ldrb	r3, [r3]
 1687 039a 002B     		cmp	r3, #0
 1688 039c 00D1     		bne	.LCB1495
 1689 039e 7DE7     		b	.L91	@long jump
 1690              	.LCB1495:
 1691              	.L77:
 1692              	.LBE2:
 632:Generated_Source\PSoC4/BLE_hids.c ****                 }
 633:Generated_Source\PSoC4/BLE_hids.c ****             }
 634:Generated_Source\PSoC4/BLE_hids.c ****             locServIndex++;
 1693              		.loc 1 634 0 is_stmt 1
 1694 03a0 1E23     		movs	r3, #30
 1695 03a2 FB18     		adds	r3, r7, r3
 1696 03a4 1A78     		ldrb	r2, [r3]
 1697 03a6 1E23     		movs	r3, #30
 1698 03a8 FB18     		adds	r3, r7, r3
 1699 03aa 0132     		adds	r2, r2, #1
 1700 03ac 1A70     		strb	r2, [r3]
 635:Generated_Source\PSoC4/BLE_hids.c ****             /* Store data to database if event is handled */
 636:Generated_Source\PSoC4/BLE_hids.c ****             if((cyBle_eventHandlerFlag & CYBLE_CALLBACK) == 0u)
 1701              		.loc 1 636 0
 1702 03ae 184B     		ldr	r3, .L99+4
 1703 03b0 1B78     		ldrb	r3, [r3]
 1704 03b2 DBB2     		uxtb	r3, r3
 1705 03b4 1A00     		movs	r2, r3
 1706 03b6 0123     		movs	r3, #1
 1707 03b8 1340     		ands	r3, r2
 1708 03ba 17D1     		bne	.L92
 637:Generated_Source\PSoC4/BLE_hids.c ****             {
 638:Generated_Source\PSoC4/BLE_hids.c ****                 gattErr = CyBle_GattsWriteAttributeValue(&eventParam->handleValPair, 0u, 
 1709              		.loc 1 638 0
 1710 03bc 7B68     		ldr	r3, [r7, #4]
 1711 03be 181D     		adds	r0, r3, #4
 1712 03c0 7A68     		ldr	r2, [r7, #4]
 1713 03c2 1F23     		movs	r3, #31
 1714 03c4 FC18     		adds	r4, r7, r3
 1715 03c6 4023     		movs	r3, #64
 1716 03c8 0021     		movs	r1, #0
 1717 03ca FFF7FEFF 		bl	CyBle_GattsWriteAttributeValue
 1718 03ce 0300     		movs	r3, r0
 1719 03d0 2370     		strb	r3, [r4]
 639:Generated_Source\PSoC4/BLE_hids.c ****                     &eventParam->connHandle, CYBLE_GATT_DB_PEER_INITIATED);
 640:Generated_Source\PSoC4/BLE_hids.c ****                 if(gattErr == CYBLE_GATT_ERR_NONE)
 1720              		.loc 1 640 0
 1721 03d2 1F23     		movs	r3, #31
 1722 03d4 FB18     		adds	r3, r7, r3
 1723 03d6 1B78     		ldrb	r3, [r3]
 1724 03d8 002B     		cmp	r3, #0
ARM GAS  C:\Users\Intern\AppData\Local\Temp\ccVSLPFx.s 			page 43


 1725 03da 0ED1     		bne	.L96
 641:Generated_Source\PSoC4/BLE_hids.c ****                 {                
 642:Generated_Source\PSoC4/BLE_hids.c ****                     CyBle_HidsApplCallback(eventCode, &locCharValue);
 1726              		.loc 1 642 0
 1727 03dc 0D4B     		ldr	r3, .L99+8
 1728 03de 1B68     		ldr	r3, [r3]
 1729 03e0 0C22     		movs	r2, #12
 1730 03e2 B918     		adds	r1, r7, r2
 1731 03e4 BA69     		ldr	r2, [r7, #24]
 1732 03e6 1000     		movs	r0, r2
 1733 03e8 9847     		blx	r3
 643:Generated_Source\PSoC4/BLE_hids.c ****                 }
 644:Generated_Source\PSoC4/BLE_hids.c ****                 break;
 1734              		.loc 1 644 0
 1735 03ea 06E0     		b	.L96
 1736              	.L92:
 645:Generated_Source\PSoC4/BLE_hids.c ****             }
 646:Generated_Source\PSoC4/BLE_hids.c ****         }while(locServIndex < CYBLE_HIDSS_SERVICE_COUNT);
 1737              		.loc 1 646 0
 1738 03ec 1E23     		movs	r3, #30
 1739 03ee FB18     		adds	r3, r7, r3
 1740 03f0 1B78     		ldrb	r3, [r3]
 1741 03f2 002B     		cmp	r3, #0
 1742 03f4 00D1     		bne	.LCB1543
 1743 03f6 1FE6     		b	.L94	@long jump
 1744              	.LCB1543:
 1745 03f8 00E0     		b	.L71
 1746              	.L96:
 644:Generated_Source\PSoC4/BLE_hids.c ****             }
 1747              		.loc 1 644 0
 1748 03fa C046     		nop
 1749              	.L71:
 647:Generated_Source\PSoC4/BLE_hids.c ****     }
 648:Generated_Source\PSoC4/BLE_hids.c ****     return (gattErr);
 1750              		.loc 1 648 0
 1751 03fc 1F23     		movs	r3, #31
 1752 03fe FB18     		adds	r3, r7, r3
 1753 0400 1B78     		ldrb	r3, [r3]
 649:Generated_Source\PSoC4/BLE_hids.c **** }
 1754              		.loc 1 649 0
 1755 0402 1800     		movs	r0, r3
 1756 0404 BD46     		mov	sp, r7
 1757 0406 09B0     		add	sp, sp, #36
 1758              		@ sp needed
 1759 0408 90BD     		pop	{r4, r7, pc}
 1760              	.L100:
 1761 040a C046     		.align	2
 1762              	.L99:
 1763 040c 00000000 		.word	cyBle_hidss
 1764 0410 00000000 		.word	cyBle_eventHandlerFlag
 1765 0414 00000000 		.word	CyBle_HidsApplCallback
 1766              		.cfi_endproc
 1767              	.LFE8:
 1768              		.size	CyBle_HidssWriteEventHandler, .-CyBle_HidssWriteEventHandler
 1769              		.section	.text.CyBle_HidssSendNotification,"ax",%progbits
 1770              		.align	2
 1771              		.global	CyBle_HidssSendNotification
ARM GAS  C:\Users\Intern\AppData\Local\Temp\ccVSLPFx.s 			page 44


 1772              		.code	16
 1773              		.thumb_func
 1774              		.type	CyBle_HidssSendNotification, %function
 1775              	CyBle_HidssSendNotification:
 1776              	.LFB9:
 650:Generated_Source\PSoC4/BLE_hids.c **** 
 651:Generated_Source\PSoC4/BLE_hids.c **** 
 652:Generated_Source\PSoC4/BLE_hids.c **** /****************************************************************************** 
 653:Generated_Source\PSoC4/BLE_hids.c **** * Function Name: CyBle_HidssSendNotification
 654:Generated_Source\PSoC4/BLE_hids.c **** ***************************************************************************//**
 655:Generated_Source\PSoC4/BLE_hids.c **** * 
 656:Generated_Source\PSoC4/BLE_hids.c **** *  Sends specified HID Service characteristic notification to the Client device.
 657:Generated_Source\PSoC4/BLE_hids.c **** * 
 658:Generated_Source\PSoC4/BLE_hids.c **** *  CYBLE_EVT_HIDSC_NOTIFICATION event is received by the peer device, on  
 659:Generated_Source\PSoC4/BLE_hids.c **** *  invoking this function.
 660:Generated_Source\PSoC4/BLE_hids.c **** *
 661:Generated_Source\PSoC4/BLE_hids.c **** *  On enabling notification successfully for a service characteristic, it sends
 662:Generated_Source\PSoC4/BLE_hids.c **** *  out a 'Handle Value Notification' which results in 
 663:Generated_Source\PSoC4/BLE_hids.c **** *  CYBLE_EVT_HIDSC_NOTIFICATION event at the GATT Client's end.
 664:Generated_Source\PSoC4/BLE_hids.c **** * 
 665:Generated_Source\PSoC4/BLE_hids.c **** *  \param connHandle:   BLE peer device connection handle.
 666:Generated_Source\PSoC4/BLE_hids.c **** *  \param serviceIndex: The index of the HID service instance. e.g. If two HID 
 667:Generated_Source\PSoC4/BLE_hids.c **** *                       Services are supported in your design, then first 
 668:Generated_Source\PSoC4/BLE_hids.c **** *                       service will be identified by serviceIndex of 0 and the 
 669:Generated_Source\PSoC4/BLE_hids.c **** *                       second by serviceIndex of 1.
 670:Generated_Source\PSoC4/BLE_hids.c **** *  \param charIndex:    The index of the service characteristic.
 671:Generated_Source\PSoC4/BLE_hids.c **** *  \param attrSize:     The size of the characteristic value attribute.
 672:Generated_Source\PSoC4/BLE_hids.c **** *  \param attrValue:    Pointer to the characteristic value data that should be
 673:Generated_Source\PSoC4/BLE_hids.c **** *                       sent to the Client device.
 674:Generated_Source\PSoC4/BLE_hids.c **** * 
 675:Generated_Source\PSoC4/BLE_hids.c **** * \return
 676:Generated_Source\PSoC4/BLE_hids.c **** *  Return value is of type CYBLE_API_RESULT_T.
 677:Generated_Source\PSoC4/BLE_hids.c **** *   * CYBLE_ERROR_OK - The request handled successfully.
 678:Generated_Source\PSoC4/BLE_hids.c **** *   * CYBLE_ERROR_INVALID_PARAMETER - Validation of the input parameter failed.
 679:Generated_Source\PSoC4/BLE_hids.c **** *   * CYBLE_ERROR_INVALID_OPERATION - This operation is not permitted.
 680:Generated_Source\PSoC4/BLE_hids.c **** *   * CYBLE_ERROR_GATT_DB_INVALID_ATTR_HANDLE - Optional characteristic is 
 681:Generated_Source\PSoC4/BLE_hids.c **** *                                               absent.
 682:Generated_Source\PSoC4/BLE_hids.c **** *   * CYBLE_ERROR_INVALID_STATE - Connection with the client is not established.
 683:Generated_Source\PSoC4/BLE_hids.c **** *   * CYBLE_ERROR_MEMORY_ALLOCATION_FAILED - Memory allocation failed. 
 684:Generated_Source\PSoC4/BLE_hids.c **** * 
 685:Generated_Source\PSoC4/BLE_hids.c **** ******************************************************************************/
 686:Generated_Source\PSoC4/BLE_hids.c **** CYBLE_API_RESULT_T CyBle_HidssSendNotification(CYBLE_CONN_HANDLE_T connHandle,
 687:Generated_Source\PSoC4/BLE_hids.c ****     uint8 serviceIndex, CYBLE_HIDS_CHAR_INDEX_T charIndex, uint8 attrSize, uint8 *attrValue)
 688:Generated_Source\PSoC4/BLE_hids.c **** {
 1777              		.loc 1 688 0
 1778              		.cfi_startproc
 1779              		@ args = 4, pretend = 0, frame = 40
 1780              		@ frame_needed = 1, uses_anonymous_args = 0
 1781 0000 90B5     		push	{r4, r7, lr}
 1782              		.cfi_def_cfa_offset 12
 1783              		.cfi_offset 4, -12
 1784              		.cfi_offset 7, -8
 1785              		.cfi_offset 14, -4
 1786 0002 8BB0     		sub	sp, sp, #44
 1787              		.cfi_def_cfa_offset 56
 1788 0004 00AF     		add	r7, sp, #0
 1789              		.cfi_def_cfa_register 7
ARM GAS  C:\Users\Intern\AppData\Local\Temp\ccVSLPFx.s 			page 45


 1790 0006 3C1D     		adds	r4, r7, #4
 1791 0008 2080     		strh	r0, [r4]
 1792 000a 0C00     		movs	r4, r1
 1793 000c 1000     		movs	r0, r2
 1794 000e 1900     		movs	r1, r3
 1795 0010 FB1C     		adds	r3, r7, #3
 1796 0012 221C     		adds	r2, r4, #0
 1797 0014 1A70     		strb	r2, [r3]
 1798 0016 BB1C     		adds	r3, r7, #2
 1799 0018 021C     		adds	r2, r0, #0
 1800 001a 1A70     		strb	r2, [r3]
 1801 001c 7B1C     		adds	r3, r7, #1
 1802 001e 0A1C     		adds	r2, r1, #0
 1803 0020 1A70     		strb	r2, [r3]
 689:Generated_Source\PSoC4/BLE_hids.c ****     CYBLE_API_RESULT_T apiResult = CYBLE_ERROR_OK;
 1804              		.loc 1 689 0
 1805 0022 2623     		movs	r3, #38
 1806 0024 FB18     		adds	r3, r7, r3
 1807 0026 0022     		movs	r2, #0
 1808 0028 1A80     		strh	r2, [r3]
 690:Generated_Source\PSoC4/BLE_hids.c ****     const CYBLE_HIDSS_REPORT_T *locReport;
 691:Generated_Source\PSoC4/BLE_hids.c ****     CYBLE_GATTS_HANDLE_VALUE_NTF_T ntfReqParam;
 692:Generated_Source\PSoC4/BLE_hids.c ****     CYBLE_GATT_HANDLE_VALUE_PAIR_T locHandleValuePair;
 693:Generated_Source\PSoC4/BLE_hids.c **** 
 694:Generated_Source\PSoC4/BLE_hids.c ****     if((serviceIndex >= CYBLE_HIDSS_SERVICE_COUNT) || (charIndex >= CYBLE_HIDS_CHAR_COUNT))
 1809              		.loc 1 694 0
 1810 002a FB1C     		adds	r3, r7, #3
 1811 002c 1B78     		ldrb	r3, [r3]
 1812 002e 002B     		cmp	r3, #0
 1813 0030 03D1     		bne	.L102
 1814              		.loc 1 694 0 is_stmt 0 discriminator 1
 1815 0032 BB1C     		adds	r3, r7, #2
 1816 0034 1B78     		ldrb	r3, [r3]
 1817 0036 072B     		cmp	r3, #7
 1818 0038 04D9     		bls	.L103
 1819              	.L102:
 695:Generated_Source\PSoC4/BLE_hids.c ****     {
 696:Generated_Source\PSoC4/BLE_hids.c ****         apiResult = CYBLE_ERROR_INVALID_PARAMETER;
 1820              		.loc 1 696 0 is_stmt 1
 1821 003a 2623     		movs	r3, #38
 1822 003c FB18     		adds	r3, r7, r3
 1823 003e 0122     		movs	r2, #1
 1824 0040 1A80     		strh	r2, [r3]
 1825 0042 BAE0     		b	.L104
 1826              	.L103:
 697:Generated_Source\PSoC4/BLE_hids.c ****     }
 698:Generated_Source\PSoC4/BLE_hids.c ****     else
 699:Generated_Source\PSoC4/BLE_hids.c ****     {
 700:Generated_Source\PSoC4/BLE_hids.c ****         if(charIndex == CYBLE_HIDS_BOOT_KYBRD_IN_REP)
 1827              		.loc 1 700 0
 1828 0044 BB1C     		adds	r3, r7, #2
 1829 0046 1B78     		ldrb	r3, [r3]
 1830 0048 042B     		cmp	r3, #4
 1831 004a 0CD1     		bne	.L105
 701:Generated_Source\PSoC4/BLE_hids.c ****         {
 702:Generated_Source\PSoC4/BLE_hids.c ****             locReport = &cyBle_hidss[serviceIndex].bootReportArray[CYBLE_HIDS_BOOT_KYBRD_IN_REP_IND
 1832              		.loc 1 702 0
ARM GAS  C:\Users\Intern\AppData\Local\Temp\ccVSLPFx.s 			page 46


 1833 004c FB1C     		adds	r3, r7, #3
 1834 004e 1A78     		ldrb	r2, [r3]
 1835 0050 1300     		movs	r3, r2
 1836 0052 9B00     		lsls	r3, r3, #2
 1837 0054 9B18     		adds	r3, r3, r2
 1838 0056 DB00     		lsls	r3, r3, #3
 1839 0058 0833     		adds	r3, r3, #8
 1840 005a 1A00     		movs	r2, r3
 1841 005c 5A4B     		ldr	r3, .L116
 1842 005e D318     		adds	r3, r2, r3
 1843 0060 0433     		adds	r3, r3, #4
 1844 0062 3B62     		str	r3, [r7, #32]
 1845 0064 44E0     		b	.L106
 1846              	.L105:
 703:Generated_Source\PSoC4/BLE_hids.c ****         }
 704:Generated_Source\PSoC4/BLE_hids.c ****         else if(charIndex == CYBLE_HIDS_BOOT_MOUSE_IN_REP)
 1847              		.loc 1 704 0
 1848 0066 BB1C     		adds	r3, r7, #2
 1849 0068 1B78     		ldrb	r3, [r3]
 1850 006a 062B     		cmp	r3, #6
 1851 006c 0CD1     		bne	.L107
 705:Generated_Source\PSoC4/BLE_hids.c ****         {
 706:Generated_Source\PSoC4/BLE_hids.c ****             locReport = &cyBle_hidss[serviceIndex].bootReportArray[CYBLE_HIDS_BOOT_MOUSE_IN_REP_IND
 1852              		.loc 1 706 0
 1853 006e FB1C     		adds	r3, r7, #3
 1854 0070 1A78     		ldrb	r2, [r3]
 1855 0072 1300     		movs	r3, r2
 1856 0074 9B00     		lsls	r3, r3, #2
 1857 0076 9B18     		adds	r3, r3, r2
 1858 0078 DB00     		lsls	r3, r3, #3
 1859 007a 1433     		adds	r3, r3, #20
 1860 007c 1A00     		movs	r2, r3
 1861 007e 524B     		ldr	r3, .L116
 1862 0080 D318     		adds	r3, r2, r3
 1863 0082 0433     		adds	r3, r3, #4
 1864 0084 3B62     		str	r3, [r7, #32]
 1865 0086 33E0     		b	.L106
 1866              	.L107:
 707:Generated_Source\PSoC4/BLE_hids.c ****         }
 708:Generated_Source\PSoC4/BLE_hids.c ****         else if((charIndex >= CYBLE_HIDS_REPORT) && (charIndex <= CYBLE_HIDS_REPORT_END))
 1867              		.loc 1 708 0
 1868 0088 BB1C     		adds	r3, r7, #2
 1869 008a 1B78     		ldrb	r3, [r3]
 1870 008c 062B     		cmp	r3, #6
 1871 008e 2BD9     		bls	.L108
 1872              		.loc 1 708 0 is_stmt 0 discriminator 1
 1873 0090 BB1C     		adds	r3, r7, #2
 1874 0092 1B78     		ldrb	r3, [r3]
 1875 0094 072B     		cmp	r3, #7
 1876 0096 27D8     		bhi	.L108
 709:Generated_Source\PSoC4/BLE_hids.c ****         {
 710:Generated_Source\PSoC4/BLE_hids.c ****             /* Verify that requested report exists in particular service */
 711:Generated_Source\PSoC4/BLE_hids.c ****             if((charIndex - CYBLE_HIDS_REPORT) < cyBle_hidss[serviceIndex].reportCount)
 1877              		.loc 1 711 0 is_stmt 1
 1878 0098 BB1C     		adds	r3, r7, #2
 1879 009a 1B78     		ldrb	r3, [r3]
 1880 009c D91F     		subs	r1, r3, #7
ARM GAS  C:\Users\Intern\AppData\Local\Temp\ccVSLPFx.s 			page 47


 1881 009e FB1C     		adds	r3, r7, #3
 1882 00a0 1A78     		ldrb	r2, [r3]
 1883 00a2 4948     		ldr	r0, .L116
 1884 00a4 1300     		movs	r3, r2
 1885 00a6 9B00     		lsls	r3, r3, #2
 1886 00a8 9B18     		adds	r3, r3, r2
 1887 00aa DB00     		lsls	r3, r3, #3
 1888 00ac C318     		adds	r3, r0, r3
 1889 00ae 0433     		adds	r3, r3, #4
 1890 00b0 1B78     		ldrb	r3, [r3]
 1891 00b2 9942     		cmp	r1, r3
 1892 00b4 13DA     		bge	.L109
 712:Generated_Source\PSoC4/BLE_hids.c ****             {
 713:Generated_Source\PSoC4/BLE_hids.c ****                 locReport = &cyBle_hidss[serviceIndex].reportArray[charIndex - CYBLE_HIDS_REPORT];
 1893              		.loc 1 713 0
 1894 00b6 FB1C     		adds	r3, r7, #3
 1895 00b8 1A78     		ldrb	r2, [r3]
 1896 00ba 4349     		ldr	r1, .L116
 1897 00bc 1300     		movs	r3, r2
 1898 00be 9B00     		lsls	r3, r3, #2
 1899 00c0 9B18     		adds	r3, r3, r2
 1900 00c2 DB00     		lsls	r3, r3, #3
 1901 00c4 CB18     		adds	r3, r1, r3
 1902 00c6 0833     		adds	r3, r3, #8
 1903 00c8 1968     		ldr	r1, [r3]
 1904 00ca BB1C     		adds	r3, r7, #2
 1905 00cc 1A78     		ldrb	r2, [r3]
 1906 00ce 1300     		movs	r3, r2
 1907 00d0 5B00     		lsls	r3, r3, #1
 1908 00d2 9B18     		adds	r3, r3, r2
 1909 00d4 5B00     		lsls	r3, r3, #1
 1910 00d6 2A3B     		subs	r3, r3, #42
 1911 00d8 CB18     		adds	r3, r1, r3
 1912 00da 3B62     		str	r3, [r7, #32]
 711:Generated_Source\PSoC4/BLE_hids.c ****             {
 1913              		.loc 1 711 0
 1914 00dc 08E0     		b	.L106
 1915              	.L109:
 714:Generated_Source\PSoC4/BLE_hids.c ****             }
 715:Generated_Source\PSoC4/BLE_hids.c ****             else
 716:Generated_Source\PSoC4/BLE_hids.c ****             {
 717:Generated_Source\PSoC4/BLE_hids.c ****                 apiResult = CYBLE_ERROR_INVALID_PARAMETER;
 1916              		.loc 1 717 0
 1917 00de 2623     		movs	r3, #38
 1918 00e0 FB18     		adds	r3, r7, r3
 1919 00e2 0122     		movs	r2, #1
 1920 00e4 1A80     		strh	r2, [r3]
 711:Generated_Source\PSoC4/BLE_hids.c ****             {
 1921              		.loc 1 711 0
 1922 00e6 03E0     		b	.L106
 1923              	.L108:
 718:Generated_Source\PSoC4/BLE_hids.c ****             }
 719:Generated_Source\PSoC4/BLE_hids.c ****         }
 720:Generated_Source\PSoC4/BLE_hids.c ****         else
 721:Generated_Source\PSoC4/BLE_hids.c ****         {
 722:Generated_Source\PSoC4/BLE_hids.c ****             apiResult = CYBLE_ERROR_INVALID_PARAMETER;
 1924              		.loc 1 722 0
ARM GAS  C:\Users\Intern\AppData\Local\Temp\ccVSLPFx.s 			page 48


 1925 00e8 2623     		movs	r3, #38
 1926 00ea FB18     		adds	r3, r7, r3
 1927 00ec 0122     		movs	r2, #1
 1928 00ee 1A80     		strh	r2, [r3]
 1929              	.L106:
 723:Generated_Source\PSoC4/BLE_hids.c ****         }
 724:Generated_Source\PSoC4/BLE_hids.c ****         if(apiResult == CYBLE_ERROR_OK)
 1930              		.loc 1 724 0
 1931 00f0 2623     		movs	r3, #38
 1932 00f2 FB18     		adds	r3, r7, r3
 1933 00f4 1B88     		ldrh	r3, [r3]
 1934 00f6 002B     		cmp	r3, #0
 1935 00f8 5FD1     		bne	.L104
 725:Generated_Source\PSoC4/BLE_hids.c ****         {
 726:Generated_Source\PSoC4/BLE_hids.c ****             if(locReport->reportHandle == CYBLE_GATT_INVALID_ATTR_HANDLE_VALUE)
 1936              		.loc 1 726 0
 1937 00fa 3B6A     		ldr	r3, [r7, #32]
 1938 00fc 1B88     		ldrh	r3, [r3]
 1939 00fe 002B     		cmp	r3, #0
 1940 0100 04D1     		bne	.L111
 727:Generated_Source\PSoC4/BLE_hids.c ****             {
 728:Generated_Source\PSoC4/BLE_hids.c ****                 apiResult = CYBLE_ERROR_GATT_DB_INVALID_ATTR_HANDLE;
 1941              		.loc 1 728 0
 1942 0102 2623     		movs	r3, #38
 1943 0104 FB18     		adds	r3, r7, r3
 1944 0106 1322     		movs	r2, #19
 1945 0108 1A80     		strh	r2, [r3]
 1946 010a 56E0     		b	.L104
 1947              	.L111:
 729:Generated_Source\PSoC4/BLE_hids.c ****             }
 730:Generated_Source\PSoC4/BLE_hids.c ****             else
 731:Generated_Source\PSoC4/BLE_hids.c ****             {
 732:Generated_Source\PSoC4/BLE_hids.c ****                 /* Send Notification if it is enabled and connected */
 733:Generated_Source\PSoC4/BLE_hids.c ****                 if(CYBLE_IS_NOTIFICATION_ENABLED(locReport->cccdHandle))
 1948              		.loc 1 733 0
 1949 010c 3B6A     		ldr	r3, [r7, #32]
 1950 010e 5B88     		ldrh	r3, [r3, #2]
 1951 0110 5A1E     		subs	r2, r3, #1
 1952 0112 2E49     		ldr	r1, .L116+4
 1953 0114 1300     		movs	r3, r2
 1954 0116 9B00     		lsls	r3, r3, #2
 1955 0118 9B18     		adds	r3, r3, r2
 1956 011a 9B00     		lsls	r3, r3, #2
 1957 011c CB18     		adds	r3, r1, r3
 1958 011e 1033     		adds	r3, r3, #16
 1959 0120 1B68     		ldr	r3, [r3]
 1960 0122 5B68     		ldr	r3, [r3, #4]
 1961 0124 1800     		movs	r0, r3
 1962 0126 FFF7FEFF 		bl	CyBle_Get16ByPtr
 1963 012a 0300     		movs	r3, r0
 1964 012c 1A00     		movs	r2, r3
 1965 012e 0123     		movs	r3, #1
 1966 0130 1340     		ands	r3, r2
 1967 0132 9BB2     		uxth	r3, r3
 1968 0134 002B     		cmp	r3, #0
 1969 0136 24D0     		beq	.L112
 734:Generated_Source\PSoC4/BLE_hids.c ****                 {
ARM GAS  C:\Users\Intern\AppData\Local\Temp\ccVSLPFx.s 			page 49


 735:Generated_Source\PSoC4/BLE_hids.c ****                     if(cyBle_state == CYBLE_STATE_CONNECTED)
 1970              		.loc 1 735 0
 1971 0138 254B     		ldr	r3, .L116+8
 1972 013a 1B78     		ldrb	r3, [r3]
 1973 013c 022B     		cmp	r3, #2
 1974 013e 1AD1     		bne	.L113
 736:Generated_Source\PSoC4/BLE_hids.c ****                     {
 737:Generated_Source\PSoC4/BLE_hids.c ****                         /* Fill all fields of write request structure ... */
 738:Generated_Source\PSoC4/BLE_hids.c ****                         ntfReqParam.attrHandle = locReport->reportHandle;
 1975              		.loc 1 738 0
 1976 0140 3B6A     		ldr	r3, [r7, #32]
 1977 0142 1A88     		ldrh	r2, [r3]
 1978 0144 1423     		movs	r3, #20
 1979 0146 FB18     		adds	r3, r7, r3
 1980 0148 1A81     		strh	r2, [r3, #8]
 739:Generated_Source\PSoC4/BLE_hids.c ****                         ntfReqParam.value.val = attrValue;
 1981              		.loc 1 739 0
 1982 014a 1423     		movs	r3, #20
 1983 014c FB18     		adds	r3, r7, r3
 1984 014e BA6B     		ldr	r2, [r7, #56]
 1985 0150 1A60     		str	r2, [r3]
 740:Generated_Source\PSoC4/BLE_hids.c ****                         ntfReqParam.value.len = attrSize;
 1986              		.loc 1 740 0
 1987 0152 7B1C     		adds	r3, r7, #1
 1988 0154 1B78     		ldrb	r3, [r3]
 1989 0156 9AB2     		uxth	r2, r3
 1990 0158 1423     		movs	r3, #20
 1991 015a FB18     		adds	r3, r7, r3
 1992 015c 9A80     		strh	r2, [r3, #4]
 741:Generated_Source\PSoC4/BLE_hids.c **** 
 742:Generated_Source\PSoC4/BLE_hids.c ****                         /* Send notification to client using previously filled structure */
 743:Generated_Source\PSoC4/BLE_hids.c ****                         apiResult = CyBle_GattsNotification(connHandle, &ntfReqParam);
 1993              		.loc 1 743 0
 1994 015e 2623     		movs	r3, #38
 1995 0160 FC18     		adds	r4, r7, r3
 1996 0162 1423     		movs	r3, #20
 1997 0164 FA18     		adds	r2, r7, r3
 1998 0166 3B1D     		adds	r3, r7, #4
 1999 0168 1100     		movs	r1, r2
 2000 016a 1868     		ldr	r0, [r3]
 2001 016c FFF7FEFF 		bl	CyBle_GattsNotification
 2002 0170 0300     		movs	r3, r0
 2003 0172 2380     		strh	r3, [r4]
 2004 0174 21E0     		b	.L104
 2005              	.L113:
 744:Generated_Source\PSoC4/BLE_hids.c ****                     }
 745:Generated_Source\PSoC4/BLE_hids.c ****                     else
 746:Generated_Source\PSoC4/BLE_hids.c ****                     {
 747:Generated_Source\PSoC4/BLE_hids.c ****                         apiResult = CYBLE_ERROR_INVALID_STATE;
 2006              		.loc 1 747 0
 2007 0176 2623     		movs	r3, #38
 2008 0178 FB18     		adds	r3, r7, r3
 2009 017a 0422     		movs	r2, #4
 2010 017c FF32     		adds	r2, r2, #255
 2011 017e 1A80     		strh	r2, [r3]
 2012 0180 1BE0     		b	.L104
 2013              	.L112:
ARM GAS  C:\Users\Intern\AppData\Local\Temp\ccVSLPFx.s 			page 50


 748:Generated_Source\PSoC4/BLE_hids.c ****                     }
 749:Generated_Source\PSoC4/BLE_hids.c ****                 }
 750:Generated_Source\PSoC4/BLE_hids.c ****                 else    /* Store data in database */
 751:Generated_Source\PSoC4/BLE_hids.c ****                 {
 752:Generated_Source\PSoC4/BLE_hids.c ****                     locHandleValuePair.attrHandle = locReport->reportHandle;
 2014              		.loc 1 752 0
 2015 0182 3B6A     		ldr	r3, [r7, #32]
 2016 0184 1A88     		ldrh	r2, [r3]
 2017 0186 0823     		movs	r3, #8
 2018 0188 FB18     		adds	r3, r7, r3
 2019 018a 1A81     		strh	r2, [r3, #8]
 753:Generated_Source\PSoC4/BLE_hids.c ****                     locHandleValuePair.value.len = attrSize;
 2020              		.loc 1 753 0
 2021 018c 7B1C     		adds	r3, r7, #1
 2022 018e 1B78     		ldrb	r3, [r3]
 2023 0190 9AB2     		uxth	r2, r3
 2024 0192 0823     		movs	r3, #8
 2025 0194 FB18     		adds	r3, r7, r3
 2026 0196 9A80     		strh	r2, [r3, #4]
 754:Generated_Source\PSoC4/BLE_hids.c ****                     locHandleValuePair.value.val = attrValue;
 2027              		.loc 1 754 0
 2028 0198 0823     		movs	r3, #8
 2029 019a FB18     		adds	r3, r7, r3
 2030 019c BA6B     		ldr	r2, [r7, #56]
 2031 019e 1A60     		str	r2, [r3]
 755:Generated_Source\PSoC4/BLE_hids.c ****                     if(CYBLE_GATT_ERR_NONE !=
 756:Generated_Source\PSoC4/BLE_hids.c ****                         CyBle_GattsWriteAttributeValue(&locHandleValuePair, 0u, NULL, CYBLE_GATT_DB
 2032              		.loc 1 756 0
 2033 01a0 0823     		movs	r3, #8
 2034 01a2 F818     		adds	r0, r7, r3
 2035 01a4 0023     		movs	r3, #0
 2036 01a6 0022     		movs	r2, #0
 2037 01a8 0021     		movs	r1, #0
 2038 01aa FFF7FEFF 		bl	CyBle_GattsWriteAttributeValue
 2039 01ae 031E     		subs	r3, r0, #0
 755:Generated_Source\PSoC4/BLE_hids.c ****                     if(CYBLE_GATT_ERR_NONE !=
 2040              		.loc 1 755 0
 2041 01b0 03D0     		beq	.L104
 757:Generated_Source\PSoC4/BLE_hids.c ****                     {
 758:Generated_Source\PSoC4/BLE_hids.c ****                         apiResult = CYBLE_ERROR_INVALID_PARAMETER;
 2042              		.loc 1 758 0
 2043 01b2 2623     		movs	r3, #38
 2044 01b4 FB18     		adds	r3, r7, r3
 2045 01b6 0122     		movs	r2, #1
 2046 01b8 1A80     		strh	r2, [r3]
 2047              	.L104:
 759:Generated_Source\PSoC4/BLE_hids.c ****                     }
 760:Generated_Source\PSoC4/BLE_hids.c ****                 }
 761:Generated_Source\PSoC4/BLE_hids.c ****             }
 762:Generated_Source\PSoC4/BLE_hids.c ****         }
 763:Generated_Source\PSoC4/BLE_hids.c ****     }
 764:Generated_Source\PSoC4/BLE_hids.c ****     return (apiResult);
 2048              		.loc 1 764 0
 2049 01ba 2623     		movs	r3, #38
 2050 01bc FB18     		adds	r3, r7, r3
 2051 01be 1B88     		ldrh	r3, [r3]
 765:Generated_Source\PSoC4/BLE_hids.c **** }
ARM GAS  C:\Users\Intern\AppData\Local\Temp\ccVSLPFx.s 			page 51


 2052              		.loc 1 765 0
 2053 01c0 1800     		movs	r0, r3
 2054 01c2 BD46     		mov	sp, r7
 2055 01c4 0BB0     		add	sp, sp, #44
 2056              		@ sp needed
 2057 01c6 90BD     		pop	{r4, r7, pc}
 2058              	.L117:
 2059              		.align	2
 2060              	.L116:
 2061 01c8 00000000 		.word	cyBle_hidss
 2062 01cc 00000000 		.word	cyBle_gattDB
 2063 01d0 00000000 		.word	cyBle_state
 2064              		.cfi_endproc
 2065              	.LFE9:
 2066              		.size	CyBle_HidssSendNotification, .-CyBle_HidssSendNotification
 2067              		.section	.text.CyBle_HidssOnDeviceConnected,"ax",%progbits
 2068              		.align	2
 2069              		.global	CyBle_HidssOnDeviceConnected
 2070              		.code	16
 2071              		.thumb_func
 2072              		.type	CyBle_HidssOnDeviceConnected, %function
 2073              	CyBle_HidssOnDeviceConnected:
 2074              	.LFB10:
 766:Generated_Source\PSoC4/BLE_hids.c **** 
 767:Generated_Source\PSoC4/BLE_hids.c **** 
 768:Generated_Source\PSoC4/BLE_hids.c **** /****************************************************************************** 
 769:Generated_Source\PSoC4/BLE_hids.c **** * Function Name: CyBle_HidssOnDeviceConnected
 770:Generated_Source\PSoC4/BLE_hids.c **** ***************************************************************************//**
 771:Generated_Source\PSoC4/BLE_hids.c **** * 
 772:Generated_Source\PSoC4/BLE_hids.c **** *  Handles the connection establishment request.
 773:Generated_Source\PSoC4/BLE_hids.c **** * 
 774:Generated_Source\PSoC4/BLE_hids.c **** ******************************************************************************/
 775:Generated_Source\PSoC4/BLE_hids.c **** void CyBle_HidssOnDeviceConnected(void)
 776:Generated_Source\PSoC4/BLE_hids.c **** {
 2075              		.loc 1 776 0
 2076              		.cfi_startproc
 2077              		@ args = 0, pretend = 0, frame = 8
 2078              		@ frame_needed = 1, uses_anonymous_args = 0
 2079 0000 80B5     		push	{r7, lr}
 2080              		.cfi_def_cfa_offset 8
 2081              		.cfi_offset 7, -8
 2082              		.cfi_offset 14, -4
 2083 0002 82B0     		sub	sp, sp, #8
 2084              		.cfi_def_cfa_offset 16
 2085 0004 00AF     		add	r7, sp, #0
 2086              		.cfi_def_cfa_register 7
 777:Generated_Source\PSoC4/BLE_hids.c ****     /* The Protocol Mode characteristic value shall be reset to the default value
 778:Generated_Source\PSoC4/BLE_hids.c ****        following a connection establishment */
 779:Generated_Source\PSoC4/BLE_hids.c ****     uint8 defaultProtocol = CYBLE_HIDS_PROTOCOL_DEFAULT;
 2087              		.loc 1 779 0
 2088 0006 BB1D     		adds	r3, r7, #6
 2089 0008 0122     		movs	r2, #1
 2090 000a 1A70     		strb	r2, [r3]
 780:Generated_Source\PSoC4/BLE_hids.c ****     uint8 locServIndex = 0u;
 2091              		.loc 1 780 0
 2092 000c FB1D     		adds	r3, r7, #7
 2093 000e 0022     		movs	r2, #0
ARM GAS  C:\Users\Intern\AppData\Local\Temp\ccVSLPFx.s 			page 52


 2094 0010 1A70     		strb	r2, [r3]
 2095              	.L120:
 781:Generated_Source\PSoC4/BLE_hids.c ****     do
 782:Generated_Source\PSoC4/BLE_hids.c ****     {
 783:Generated_Source\PSoC4/BLE_hids.c ****         if(cyBle_hidss[locServIndex].protocolModeHandle !=
 2096              		.loc 1 783 0
 2097 0012 FB1D     		adds	r3, r7, #7
 2098 0014 1A78     		ldrb	r2, [r3]
 2099 0016 1749     		ldr	r1, .L121
 2100 0018 1300     		movs	r3, r2
 2101 001a 9B00     		lsls	r3, r3, #2
 2102 001c 9B18     		adds	r3, r3, r2
 2103 001e DB00     		lsls	r3, r3, #3
 2104 0020 CB18     		adds	r3, r1, r3
 2105 0022 0233     		adds	r3, r3, #2
 2106 0024 1B88     		ldrh	r3, [r3]
 2107 0026 002B     		cmp	r3, #0
 2108 0028 16D0     		beq	.L119
 784:Generated_Source\PSoC4/BLE_hids.c ****            CYBLE_GATT_INVALID_ATTR_HANDLE_VALUE)
 785:Generated_Source\PSoC4/BLE_hids.c ****         {
 786:Generated_Source\PSoC4/BLE_hids.c ****             /* Store default protocol value in database */
 787:Generated_Source\PSoC4/BLE_hids.c ****             CYBLE_GATT_DB_ATTR_SET_GEN_VALUE(cyBle_hidss[locServIndex].protocolModeHandle,
 2109              		.loc 1 787 0
 2110 002a FB1D     		adds	r3, r7, #7
 2111 002c 1A78     		ldrb	r2, [r3]
 2112 002e 1149     		ldr	r1, .L121
 2113 0030 1300     		movs	r3, r2
 2114 0032 9B00     		lsls	r3, r3, #2
 2115 0034 9B18     		adds	r3, r3, r2
 2116 0036 DB00     		lsls	r3, r3, #3
 2117 0038 CB18     		adds	r3, r1, r3
 2118 003a 0233     		adds	r3, r3, #2
 2119 003c 1B88     		ldrh	r3, [r3]
 2120 003e 5A1E     		subs	r2, r3, #1
 2121 0040 0D49     		ldr	r1, .L121+4
 2122 0042 1300     		movs	r3, r2
 2123 0044 9B00     		lsls	r3, r3, #2
 2124 0046 9B18     		adds	r3, r3, r2
 2125 0048 9B00     		lsls	r3, r3, #2
 2126 004a CB18     		adds	r3, r1, r3
 2127 004c 1033     		adds	r3, r3, #16
 2128 004e 1B68     		ldr	r3, [r3]
 2129 0050 5B68     		ldr	r3, [r3, #4]
 2130 0052 BA1D     		adds	r2, r7, #6
 2131 0054 1278     		ldrb	r2, [r2]
 2132 0056 1A70     		strb	r2, [r3]
 2133              	.L119:
 788:Generated_Source\PSoC4/BLE_hids.c ****                                                     &defaultProtocol, sizeof(defaultProtocol));
 789:Generated_Source\PSoC4/BLE_hids.c ****         }
 790:Generated_Source\PSoC4/BLE_hids.c ****         ++locServIndex;
 2134              		.loc 1 790 0
 2135 0058 FB1D     		adds	r3, r7, #7
 2136 005a FA1D     		adds	r2, r7, #7
 2137 005c 1278     		ldrb	r2, [r2]
 2138 005e 0132     		adds	r2, r2, #1
 2139 0060 1A70     		strb	r2, [r3]
 791:Generated_Source\PSoC4/BLE_hids.c ****     }while(locServIndex < CYBLE_HIDSS_SERVICE_COUNT);
ARM GAS  C:\Users\Intern\AppData\Local\Temp\ccVSLPFx.s 			page 53


 2140              		.loc 1 791 0
 2141 0062 FB1D     		adds	r3, r7, #7
 2142 0064 1B78     		ldrb	r3, [r3]
 2143 0066 002B     		cmp	r3, #0
 2144 0068 D3D0     		beq	.L120
 792:Generated_Source\PSoC4/BLE_hids.c **** }
 2145              		.loc 1 792 0
 2146 006a C046     		nop
 2147 006c BD46     		mov	sp, r7
 2148 006e 02B0     		add	sp, sp, #8
 2149              		@ sp needed
 2150 0070 80BD     		pop	{r7, pc}
 2151              	.L122:
 2152 0072 C046     		.align	2
 2153              	.L121:
 2154 0074 00000000 		.word	cyBle_hidss
 2155 0078 00000000 		.word	cyBle_gattDB
 2156              		.cfi_endproc
 2157              	.LFE10:
 2158              		.size	CyBle_HidssOnDeviceConnected, .-CyBle_HidssOnDeviceConnected
 2159              		.text
 2160              	.Letext0:
 2161              		.file 2 "Generated_Source\\PSoC4\\cytypes.h"
 2162              		.file 3 "Generated_Source\\PSoC4\\BLE_Stack.h"
 2163              		.file 4 "Generated_Source\\PSoC4\\BLE_StackGatt.h"
 2164              		.file 5 "Generated_Source\\PSoC4\\BLE_StackGattServer.h"
 2165              		.file 6 "Generated_Source\\PSoC4\\BLE_StackGattDb.h"
 2166              		.file 7 "Generated_Source\\PSoC4\\BLE.h"
 2167              		.file 8 "Generated_Source\\PSoC4\\BLE_dis.h"
 2168              		.file 9 "Generated_Source\\PSoC4\\BLE_hids.h"
 2169              		.file 10 "Generated_Source\\PSoC4\\BLE_eventHandler.h"
 2170              		.file 11 "Generated_Source\\PSoC4\\BLE_gatt.h"