ARM GAS  C:\Users\Intern\AppData\Local\Temp\ccVSLPFx.s 			page 1


   1              		.syntax unified
   2              		.cpu cortex-m0
   3              		.fpu softvfp
   4              		.eabi_attribute 20, 1
   5              		.eabi_attribute 21, 1
   6              		.eabi_attribute 23, 3
   7              		.eabi_attribute 24, 1
   8              		.eabi_attribute 25, 1
   9              		.eabi_attribute 26, 1
  10              		.eabi_attribute 30, 6
  11              		.eabi_attribute 34, 0
  12              		.eabi_attribute 18, 4
  13              		.thumb
  14              		.syntax unified
  15              		.file	"BLE_hids.c"
  16              		.text
  17              	.Ltext0:
  18              		.cfi_sections	.debug_frame
  19              		.bss
  20              		.align	2
  21              	CyBle_HidsApplCallback:
  22 0000 00000000 		.space	4
  23              		.section	.rodata
  24              		.align	2
  25              		.type	cyBle_hids1ReportArray, %object
  26              		.size	cyBle_hids1ReportArray, 6
  27              	cyBle_hids1ReportArray:
  28 0000 1000     		.short	16
  29 0002 1100     		.short	17
  30 0004 1200     		.short	18
  31              		.global	cyBle_hidss
  32 0006 0000     		.align	2
  33              		.type	cyBle_hidss, %object
  34              		.size	cyBle_hidss, 40
  35              	cyBle_hidss:
  36 0008 0C00     		.short	12
  37 000a 0E00     		.short	14
  38 000c 01       		.byte	1
  39 000d 000000   		.space	3
  40 0010 00000000 		.word	cyBle_hids1ReportArray
  41 0014 1700     		.short	23
  42 0016 1800     		.short	24
  43 0018 0000     		.short	0
  44 001a 1A00     		.short	26
  45 001c 0000     		.short	0
  46 001e 0000     		.short	0
  47 0020 1C00     		.short	28
  48 0022 1D00     		.short	29
  49 0024 0000     		.short	0
  50 0026 1400     		.short	20
  51 0028 1500     		.short	21
  52 002a 1F00     		.short	31
  53 002c 2100     		.short	33
  54 002e 0000     		.space	2
  55              		.section	.text.CyBle_HidsInit,"ax",%progbits
  56              		.align	2
  57              		.global	CyBle_HidsInit
ARM GAS  C:\Users\Intern\AppData\Local\Temp\ccVSLPFx.s 			page 2


  58              		.code	16
  59              		.thumb_func
  60              		.type	CyBle_HidsInit, %function
  61              	CyBle_HidsInit:
  62              	.LFB2:
  63              		.file 1 "Generated_Source\\PSoC4\\BLE_hids.c"
   1:Generated_Source\PSoC4/BLE_hids.c **** /***************************************************************************//**
   2:Generated_Source\PSoC4/BLE_hids.c **** * \file CYBLE_hids.c
   3:Generated_Source\PSoC4/BLE_hids.c **** * \version 3.51
   4:Generated_Source\PSoC4/BLE_hids.c **** * 
   5:Generated_Source\PSoC4/BLE_hids.c **** * \brief
   6:Generated_Source\PSoC4/BLE_hids.c **** *  Contains the source code for the HID service.
   7:Generated_Source\PSoC4/BLE_hids.c **** * 
   8:Generated_Source\PSoC4/BLE_hids.c **** ********************************************************************************
   9:Generated_Source\PSoC4/BLE_hids.c **** * \copyright
  10:Generated_Source\PSoC4/BLE_hids.c **** * Copyright 2014-2018, Cypress Semiconductor Corporation.  All rights reserved.
  11:Generated_Source\PSoC4/BLE_hids.c **** * You may use this file only in accordance with the license, terms, conditions,
  12:Generated_Source\PSoC4/BLE_hids.c **** * disclaimers, and limitations in the end user license agreement accompanying
  13:Generated_Source\PSoC4/BLE_hids.c **** * the software package with which this file was provided.
  14:Generated_Source\PSoC4/BLE_hids.c **** *******************************************************************************/
  15:Generated_Source\PSoC4/BLE_hids.c **** 
  16:Generated_Source\PSoC4/BLE_hids.c **** #include "BLE_eventHandler.h"
  17:Generated_Source\PSoC4/BLE_hids.c **** 
  18:Generated_Source\PSoC4/BLE_hids.c **** static CYBLE_CALLBACK_T CyBle_HidsApplCallback;
  19:Generated_Source\PSoC4/BLE_hids.c **** 
  20:Generated_Source\PSoC4/BLE_hids.c **** #ifdef CYBLE_HIDS_SERVER
  21:Generated_Source\PSoC4/BLE_hids.c **** 
  22:Generated_Source\PSoC4/BLE_hids.c **** static const CYBLE_HIDSS_REPORT_T cyBle_hids1ReportArray[0x01u] = {
  23:Generated_Source\PSoC4/BLE_hids.c ****     {
  24:Generated_Source\PSoC4/BLE_hids.c ****         0x0010u, /* Handle of the Report characteristic value */ 
  25:Generated_Source\PSoC4/BLE_hids.c ****         0x0011u, /* Handle of the Client Characteristic Configuration descriptor */ 
  26:Generated_Source\PSoC4/BLE_hids.c ****         0x0012u, /* Handle of the Report Reference descriptor */ 
  27:Generated_Source\PSoC4/BLE_hids.c ****     },
  28:Generated_Source\PSoC4/BLE_hids.c **** };
  29:Generated_Source\PSoC4/BLE_hids.c **** 
  30:Generated_Source\PSoC4/BLE_hids.c **** const CYBLE_HIDSS_T cyBle_hidss[0x01u] = {
  31:Generated_Source\PSoC4/BLE_hids.c ****     {
  32:Generated_Source\PSoC4/BLE_hids.c ****         0x000Cu, /* Handle of the HID service */ 
  33:Generated_Source\PSoC4/BLE_hids.c ****         0x000Eu, /* Handle of the Protocol Mode characteristic */ 
  34:Generated_Source\PSoC4/BLE_hids.c ****         0x01u, /* Number of report characteristics */ 
  35:Generated_Source\PSoC4/BLE_hids.c ****         cyBle_hids1ReportArray, /* Information about report characteristics */ 
  36:Generated_Source\PSoC4/BLE_hids.c ****         {
  37:Generated_Source\PSoC4/BLE_hids.c ****             {
  38:Generated_Source\PSoC4/BLE_hids.c ****                 0x0017u, /* Handle of the Report characteristic value */ 
  39:Generated_Source\PSoC4/BLE_hids.c ****                 0x0018u, /* Handle of the Client Characteristic Configuration descriptor */ 
  40:Generated_Source\PSoC4/BLE_hids.c ****                 CYBLE_GATT_INVALID_ATTR_HANDLE_VALUE, /* Handle of the Report Reference descriptor 
  41:Generated_Source\PSoC4/BLE_hids.c ****             },
  42:Generated_Source\PSoC4/BLE_hids.c ****             {
  43:Generated_Source\PSoC4/BLE_hids.c ****                 0x001Au, /* Handle of the Report characteristic value */ 
  44:Generated_Source\PSoC4/BLE_hids.c ****                 CYBLE_GATT_INVALID_ATTR_HANDLE_VALUE, /* Handle of the Client Characteristic Config
  45:Generated_Source\PSoC4/BLE_hids.c ****                 CYBLE_GATT_INVALID_ATTR_HANDLE_VALUE, /* Handle of the Report Reference descriptor 
  46:Generated_Source\PSoC4/BLE_hids.c ****             },
  47:Generated_Source\PSoC4/BLE_hids.c ****             {
  48:Generated_Source\PSoC4/BLE_hids.c ****                 0x001Cu, /* Handle of the Report characteristic value */ 
  49:Generated_Source\PSoC4/BLE_hids.c ****                 0x001Du, /* Handle of the Client Characteristic Configuration descriptor */ 
  50:Generated_Source\PSoC4/BLE_hids.c ****                 CYBLE_GATT_INVALID_ATTR_HANDLE_VALUE, /* Handle of the Report Reference descriptor 
  51:Generated_Source\PSoC4/BLE_hids.c ****             },
ARM GAS  C:\Users\Intern\AppData\Local\Temp\ccVSLPFx.s 			page 3


  52:Generated_Source\PSoC4/BLE_hids.c ****         }, /* Information about boot report characteristics */ 
  53:Generated_Source\PSoC4/BLE_hids.c ****         0x0014u, /* Handle of the Report Map characteristic */ 
  54:Generated_Source\PSoC4/BLE_hids.c ****         0x0015u, /* Handle of the Report Map External Report Reference descriptor */ 
  55:Generated_Source\PSoC4/BLE_hids.c ****         0x001Fu, /* Handle of the HID Information characteristic */ 
  56:Generated_Source\PSoC4/BLE_hids.c ****         0x0021u, /* Handle of the HID Control Point characteristic */ 
  57:Generated_Source\PSoC4/BLE_hids.c ****     },
  58:Generated_Source\PSoC4/BLE_hids.c **** };
  59:Generated_Source\PSoC4/BLE_hids.c **** 
  60:Generated_Source\PSoC4/BLE_hids.c **** /* Local function prototypes */
  61:Generated_Source\PSoC4/BLE_hids.c **** static uint32 CyBle_HidssCccdWriteEventHandler(uint8 serviceIndex, const CYBLE_GATTS_WRITE_REQ_PARA
  62:Generated_Source\PSoC4/BLE_hids.c **** 
  63:Generated_Source\PSoC4/BLE_hids.c **** #endif /* CYBLE_HIDS_SERVER */
  64:Generated_Source\PSoC4/BLE_hids.c **** 
  65:Generated_Source\PSoC4/BLE_hids.c **** #ifdef CYBLE_HIDS_CLIENT
  66:Generated_Source\PSoC4/BLE_hids.c **** 
  67:Generated_Source\PSoC4/BLE_hids.c ****     CYBLE_HIDSC_T cyBle_hidsc[CYBLE_HIDSC_SERVICE_COUNT];
  68:Generated_Source\PSoC4/BLE_hids.c ****     static CYBLE_GATT_DB_ATTR_HANDLE_T cyBle_hidscReqHandle;
  69:Generated_Source\PSoC4/BLE_hids.c ****     uint8 cyBle_hidscServiceCount;
  70:Generated_Source\PSoC4/BLE_hids.c **** 
  71:Generated_Source\PSoC4/BLE_hids.c **** #endif /* CYBLE_HIDS_CLIENT */
  72:Generated_Source\PSoC4/BLE_hids.c **** 
  73:Generated_Source\PSoC4/BLE_hids.c **** 
  74:Generated_Source\PSoC4/BLE_hids.c **** /****************************************************************************** 
  75:Generated_Source\PSoC4/BLE_hids.c **** * Function Name: CyBle_HidsInit
  76:Generated_Source\PSoC4/BLE_hids.c **** ***************************************************************************//**
  77:Generated_Source\PSoC4/BLE_hids.c **** * 
  78:Generated_Source\PSoC4/BLE_hids.c **** *  This function initializes the HID Service.
  79:Generated_Source\PSoC4/BLE_hids.c **** * 
  80:Generated_Source\PSoC4/BLE_hids.c **** * 
  81:Generated_Source\PSoC4/BLE_hids.c **** ******************************************************************************/
  82:Generated_Source\PSoC4/BLE_hids.c **** void CyBle_HidsInit(void)
  83:Generated_Source\PSoC4/BLE_hids.c **** {
  64              		.loc 1 83 0
  65              		.cfi_startproc
  66              		@ args = 0, pretend = 0, frame = 0
  67              		@ frame_needed = 1, uses_anonymous_args = 0
  68 0000 80B5     		push	{r7, lr}
  69              		.cfi_def_cfa_offset 8
  70              		.cfi_offset 7, -8
  71              		.cfi_offset 14, -4
  72 0002 00AF     		add	r7, sp, #0
  73              		.cfi_def_cfa_register 7
  84:Generated_Source\PSoC4/BLE_hids.c **** 
  85:Generated_Source\PSoC4/BLE_hids.c **** #ifdef CYBLE_HIDS_CLIENT
  86:Generated_Source\PSoC4/BLE_hids.c **** 
  87:Generated_Source\PSoC4/BLE_hids.c ****     uint8 locServIndex;
  88:Generated_Source\PSoC4/BLE_hids.c ****     for(locServIndex = 0u; locServIndex < CYBLE_HIDSC_SERVICE_COUNT; locServIndex++)
  89:Generated_Source\PSoC4/BLE_hids.c ****     {
  90:Generated_Source\PSoC4/BLE_hids.c ****         if(cyBle_serverInfo[CYBLE_SRVI_HIDS + locServIndex].range.startHandle == CYBLE_GATT_INVALID
  91:Generated_Source\PSoC4/BLE_hids.c ****         {
  92:Generated_Source\PSoC4/BLE_hids.c ****             (void)memset(&cyBle_hidsc[locServIndex], 0, sizeof(cyBle_hidsc[locServIndex]));
  93:Generated_Source\PSoC4/BLE_hids.c ****         }
  94:Generated_Source\PSoC4/BLE_hids.c ****     }
  95:Generated_Source\PSoC4/BLE_hids.c ****     cyBle_hidscReqHandle = CYBLE_GATT_INVALID_ATTR_HANDLE_VALUE;
  96:Generated_Source\PSoC4/BLE_hids.c ****     cyBle_hidscServiceCount = 0u;
  97:Generated_Source\PSoC4/BLE_hids.c **** 
  98:Generated_Source\PSoC4/BLE_hids.c **** #endif /* CYBLE_HIDS_CLIENT */
ARM GAS  C:\Users\Intern\AppData\Local\Temp\ccVSLPFx.s 			page 4


  99:Generated_Source\PSoC4/BLE_hids.c **** }
  74              		.loc 1 99 0
  75 0004 C046     		nop
  76 0006 BD46     		mov	sp, r7
  77              		@ sp needed
  78 0008 80BD     		pop	{r7, pc}
  79              		.cfi_endproc
  80              	.LFE2:
  81              		.size	CyBle_HidsInit, .-CyBle_HidsInit
  82 000a C046     		.section	.text.CyBle_HidsRegisterAttrCallback,"ax",%progbits
  83              		.align	2
  84              		.global	CyBle_HidsRegisterAttrCallback
  85              		.code	16
  86              		.thumb_func
  87              		.type	CyBle_HidsRegisterAttrCallback, %function
  88              	CyBle_HidsRegisterAttrCallback:
  89              	.LFB3:
 100:Generated_Source\PSoC4/BLE_hids.c **** 
 101:Generated_Source\PSoC4/BLE_hids.c **** 
 102:Generated_Source\PSoC4/BLE_hids.c **** /****************************************************************************** 
 103:Generated_Source\PSoC4/BLE_hids.c **** * Function Name: CyBle_HidsRegisterAttrCallback
 104:Generated_Source\PSoC4/BLE_hids.c **** ***************************************************************************//**
 105:Generated_Source\PSoC4/BLE_hids.c **** * 
 106:Generated_Source\PSoC4/BLE_hids.c **** *  Registers a callback function for service specific attribute operations.
 107:Generated_Source\PSoC4/BLE_hids.c **** *  Service specific write requests from peer device will not be handled with
 108:Generated_Source\PSoC4/BLE_hids.c **** *  unregistered callback function.
 109:Generated_Source\PSoC4/BLE_hids.c **** * 
 110:Generated_Source\PSoC4/BLE_hids.c **** *  \param callbackFunc: An application layer event callback function to receive 
 111:Generated_Source\PSoC4/BLE_hids.c **** *                    events from the BLE Component. The definition of 
 112:Generated_Source\PSoC4/BLE_hids.c **** *                    CYBLE_CALLBACK_T for HID Service is:\n
 113:Generated_Source\PSoC4/BLE_hids.c **** *                    typedef void (* CYBLE_CALLBACK_T) (uint32 eventCode, 
 114:Generated_Source\PSoC4/BLE_hids.c **** *                                                       void *eventParam)
 115:Generated_Source\PSoC4/BLE_hids.c **** *                    * eventCode indicates the event that triggered this 
 116:Generated_Source\PSoC4/BLE_hids.c **** *                      callback (e.g. CYBLE_EVT_HIDS_NOTIFICATION_ENABLED).
 117:Generated_Source\PSoC4/BLE_hids.c **** *                    * eventParam contains the parameters corresponding to the 
 118:Generated_Source\PSoC4/BLE_hids.c **** *                      current event. (e.g. pointer to CYBLE_HIDS_CHAR_VALUE_T
 119:Generated_Source\PSoC4/BLE_hids.c **** *                      structure that contains details of the characteristic for 
 120:Generated_Source\PSoC4/BLE_hids.c **** *                      which notification enabled event was triggered).
 121:Generated_Source\PSoC4/BLE_hids.c **** *
 122:Generated_Source\PSoC4/BLE_hids.c **** *
 123:Generated_Source\PSoC4/BLE_hids.c **** * \sideeffect The *eventParams in the callback function should not be used by 
 124:Generated_Source\PSoC4/BLE_hids.c **** *                the application once the callback function execution is finished.
 125:Generated_Source\PSoC4/BLE_hids.c **** *                Otherwise this data may become corrupted.
 126:Generated_Source\PSoC4/BLE_hids.c **** * 
 127:Generated_Source\PSoC4/BLE_hids.c **** ******************************************************************************/
 128:Generated_Source\PSoC4/BLE_hids.c **** void CyBle_HidsRegisterAttrCallback(CYBLE_CALLBACK_T callbackFunc)
 129:Generated_Source\PSoC4/BLE_hids.c **** {
  90              		.loc 1 129 0
  91              		.cfi_startproc
  92              		@ args = 0, pretend = 0, frame = 8
  93              		@ frame_needed = 1, uses_anonymous_args = 0
  94 0000 80B5     		push	{r7, lr}
  95              		.cfi_def_cfa_offset 8
  96              		.cfi_offset 7, -8
  97              		.cfi_offset 14, -4
  98 0002 82B0     		sub	sp, sp, #8
  99              		.cfi_def_cfa_offset 16
ARM GAS  C:\Users\Intern\AppData\Local\Temp\ccVSLPFx.s 			page 5


 100 0004 00AF     		add	r7, sp, #0
 101              		.cfi_def_cfa_register 7
 102 0006 7860     		str	r0, [r7, #4]
 130:Generated_Source\PSoC4/BLE_hids.c ****     CyBle_HidsApplCallback = callbackFunc;
 103              		.loc 1 130 0
 104 0008 034B     		ldr	r3, .L3
 105 000a 7A68     		ldr	r2, [r7, #4]
 106 000c 1A60     		str	r2, [r3]
 131:Generated_Source\PSoC4/BLE_hids.c **** }
 107              		.loc 1 131 0
 108 000e C046     		nop
 109 0010 BD46     		mov	sp, r7
 110 0012 02B0     		add	sp, sp, #8
 111              		@ sp needed
 112 0014 80BD     		pop	{r7, pc}
 113              	.L4:
 114 0016 C046     		.align	2
 115              	.L3:
 116 0018 00000000 		.word	CyBle_HidsApplCallback
 117              		.cfi_endproc
 118              	.LFE3:
 119              		.size	CyBle_HidsRegisterAttrCallback, .-CyBle_HidsRegisterAttrCallback
 120              		.section	.text.CyBle_HidssSetCharacteristicValue,"ax",%progbits
 121              		.align	2
 122              		.global	CyBle_HidssSetCharacteristicValue
 123              		.code	16
 124              		.thumb_func
 125              		.type	CyBle_HidssSetCharacteristicValue, %function
 126              	CyBle_HidssSetCharacteristicValue:
 127              	.LFB4:
 132:Generated_Source\PSoC4/BLE_hids.c **** 
 133:Generated_Source\PSoC4/BLE_hids.c **** #ifdef CYBLE_HIDS_SERVER
 134:Generated_Source\PSoC4/BLE_hids.c **** 
 135:Generated_Source\PSoC4/BLE_hids.c **** 
 136:Generated_Source\PSoC4/BLE_hids.c **** /****************************************************************************** 
 137:Generated_Source\PSoC4/BLE_hids.c **** * Function Name: CyBle_HidssSetCharacteristicValue
 138:Generated_Source\PSoC4/BLE_hids.c **** ***************************************************************************//**
 139:Generated_Source\PSoC4/BLE_hids.c **** * 
 140:Generated_Source\PSoC4/BLE_hids.c **** *  Sets local characteristic value of the specified HID Service characteristics.
 141:Generated_Source\PSoC4/BLE_hids.c **** * 
 142:Generated_Source\PSoC4/BLE_hids.c **** *  \param serviceIndex: The index of the service instance. e.g. If two HID Services are 
 143:Generated_Source\PSoC4/BLE_hids.c **** *                 supported in your design, then first service will be identified
 144:Generated_Source\PSoC4/BLE_hids.c **** *                 by serviceIndex of 0 and the second by serviceIndex of 1.
 145:Generated_Source\PSoC4/BLE_hids.c **** *  \param charIndex: The index of a service characteristic.
 146:Generated_Source\PSoC4/BLE_hids.c **** *              * CYBLE_HIDS_PROTOCOL_MODE - Protocol Mode characteristic
 147:Generated_Source\PSoC4/BLE_hids.c **** *              * CYBLE_HIDS_REPORT_MAP - Report Map characteristic
 148:Generated_Source\PSoC4/BLE_hids.c **** *              * CYBLE_HIDS_INFORMATION - HID Information characteristic
 149:Generated_Source\PSoC4/BLE_hids.c **** *              * CYBLE_HIDS_CONTROL_POINT - HID Control Point characteristic
 150:Generated_Source\PSoC4/BLE_hids.c **** *              * CYBLE_HIDS_BOOT_KYBRD_IN_REP - Boot Keyboard Input Report Characteristic
 151:Generated_Source\PSoC4/BLE_hids.c **** *              * CYBLE_HIDS_BOOT_KYBRD_OUT_REP - Boot Keyboard Output Report Characteristic
 152:Generated_Source\PSoC4/BLE_hids.c **** *              * CYBLE_HIDS_BOOT_MOUSE_IN_REP - Boot Mouse Input Report Characteristic
 153:Generated_Source\PSoC4/BLE_hids.c **** *              * CYBLE_HIDS_REPORT - Report Characteristic
 154:Generated_Source\PSoC4/BLE_hids.c **** * 
 155:Generated_Source\PSoC4/BLE_hids.c **** *  \param attrSize: The size of the characteristic value attribute.
 156:Generated_Source\PSoC4/BLE_hids.c **** * 
 157:Generated_Source\PSoC4/BLE_hids.c **** *  \param attrValue: The pointer to the characteristic value data that should be 
 158:Generated_Source\PSoC4/BLE_hids.c **** *               stored in the GATT database.
ARM GAS  C:\Users\Intern\AppData\Local\Temp\ccVSLPFx.s 			page 6


 159:Generated_Source\PSoC4/BLE_hids.c **** * 
 160:Generated_Source\PSoC4/BLE_hids.c **** * \return
 161:Generated_Source\PSoC4/BLE_hids.c **** *  Return value is of type CYBLE_API_RESULT_T.
 162:Generated_Source\PSoC4/BLE_hids.c **** *  * CYBLE_ERROR_OK - The request handled successfully.
 163:Generated_Source\PSoC4/BLE_hids.c **** *  * CYBLE_ERROR_INVALID_PARAMETER - Validation of the input parameter failed.
 164:Generated_Source\PSoC4/BLE_hids.c **** *  * CYBLE_ERROR_GATT_DB_INVALID_ATTR_HANDLE - Optional characteristic is absent
 165:Generated_Source\PSoC4/BLE_hids.c **** *
 166:Generated_Source\PSoC4/BLE_hids.c **** *
 167:Generated_Source\PSoC4/BLE_hids.c **** ******************************************************************************/
 168:Generated_Source\PSoC4/BLE_hids.c **** CYBLE_API_RESULT_T CyBle_HidssSetCharacteristicValue(uint8 serviceIndex, CYBLE_HIDS_CHAR_INDEX_T ch
 169:Generated_Source\PSoC4/BLE_hids.c ****     uint8 attrSize, uint8 *attrValue)
 170:Generated_Source\PSoC4/BLE_hids.c **** {
 128              		.loc 1 170 0
 129              		.cfi_startproc
 130              		@ args = 0, pretend = 0, frame = 24
 131              		@ frame_needed = 1, uses_anonymous_args = 0
 132 0000 90B5     		push	{r4, r7, lr}
 133              		.cfi_def_cfa_offset 12
 134              		.cfi_offset 4, -12
 135              		.cfi_offset 7, -8
 136              		.cfi_offset 14, -4
 137 0002 87B0     		sub	sp, sp, #28
 138              		.cfi_def_cfa_offset 40
 139 0004 00AF     		add	r7, sp, #0
 140              		.cfi_def_cfa_register 7
 141 0006 0400     		movs	r4, r0
 142 0008 0800     		movs	r0, r1
 143 000a 1100     		movs	r1, r2
 144 000c 3B60     		str	r3, [r7]
 145 000e FB1D     		adds	r3, r7, #7
 146 0010 221C     		adds	r2, r4, #0
 147 0012 1A70     		strb	r2, [r3]
 148 0014 BB1D     		adds	r3, r7, #6
 149 0016 021C     		adds	r2, r0, #0
 150 0018 1A70     		strb	r2, [r3]
 151 001a 7B1D     		adds	r3, r7, #5
 152 001c 0A1C     		adds	r2, r1, #0
 153 001e 1A70     		strb	r2, [r3]
 171:Generated_Source\PSoC4/BLE_hids.c ****     CYBLE_API_RESULT_T apiResult = CYBLE_ERROR_OK;
 154              		.loc 1 171 0
 155 0020 1623     		movs	r3, #22
 156 0022 FB18     		adds	r3, r7, r3
 157 0024 0022     		movs	r2, #0
 158 0026 1A80     		strh	r2, [r3]
 172:Generated_Source\PSoC4/BLE_hids.c ****     CYBLE_GATT_DB_ATTR_HANDLE_T charValueHandle;
 173:Generated_Source\PSoC4/BLE_hids.c ****     CYBLE_GATT_HANDLE_VALUE_PAIR_T locHandleValuePair;
 174:Generated_Source\PSoC4/BLE_hids.c **** 
 175:Generated_Source\PSoC4/BLE_hids.c ****     if((serviceIndex >= CYBLE_HIDSS_SERVICE_COUNT) || (charIndex >= CYBLE_HIDS_CHAR_COUNT))
 159              		.loc 1 175 0
 160 0028 FB1D     		adds	r3, r7, #7
 161 002a 1B78     		ldrb	r3, [r3]
 162 002c 002B     		cmp	r3, #0
 163 002e 03D1     		bne	.L6
 164              		.loc 1 175 0 is_stmt 0 discriminator 1
 165 0030 BB1D     		adds	r3, r7, #6
 166 0032 1B78     		ldrb	r3, [r3]
 167 0034 072B     		cmp	r3, #7
ARM GAS  C:\Users\Intern\AppData\Local\Temp\ccVSLPFx.s 			page 7


 168 0036 04D9     		bls	.L7
 169              	.L6:
 176:Generated_Source\PSoC4/BLE_hids.c ****     {
 177:Generated_Source\PSoC4/BLE_hids.c ****         apiResult = CYBLE_ERROR_INVALID_PARAMETER;
 170              		.loc 1 177 0 is_stmt 1
 171 0038 1623     		movs	r3, #22
 172 003a FB18     		adds	r3, r7, r3
 173 003c 0122     		movs	r2, #1
 174 003e 1A80     		strh	r2, [r3]
 175 0040 BCE0     		b	.L8
 176              	.L7:
 178:Generated_Source\PSoC4/BLE_hids.c ****     }
 179:Generated_Source\PSoC4/BLE_hids.c ****     else
 180:Generated_Source\PSoC4/BLE_hids.c ****     {
 181:Generated_Source\PSoC4/BLE_hids.c ****         switch(charIndex)
 177              		.loc 1 181 0
 178 0042 BB1D     		adds	r3, r7, #6
 179 0044 1B78     		ldrb	r3, [r3]
 180 0046 062B     		cmp	r3, #6
 181 0048 66D8     		bhi	.L9
 182 004a 9A00     		lsls	r2, r3, #2
 183 004c 5F4B     		ldr	r3, .L24
 184 004e D318     		adds	r3, r2, r3
 185 0050 1B68     		ldr	r3, [r3]
 186 0052 9F46     		mov	pc, r3
 187              		.section	.rodata
 188              		.align	2
 189              	.L11:
 190 0030 54000000 		.word	.L10
 191 0034 8C000000 		.word	.L12
 192 0038 A8000000 		.word	.L13
 193 003c 70000000 		.word	.L14
 194 0040 C4000000 		.word	.L15
 195 0044 E0000000 		.word	.L16
 196 0048 FC000000 		.word	.L17
 197              		.section	.text.CyBle_HidssSetCharacteristicValue
 198              	.L10:
 182:Generated_Source\PSoC4/BLE_hids.c ****         {
 183:Generated_Source\PSoC4/BLE_hids.c ****             case CYBLE_HIDS_PROTOCOL_MODE:
 184:Generated_Source\PSoC4/BLE_hids.c ****                 charValueHandle = cyBle_hidss[serviceIndex].protocolModeHandle;
 199              		.loc 1 184 0
 200 0054 FB1D     		adds	r3, r7, #7
 201 0056 1A78     		ldrb	r2, [r3]
 202 0058 1423     		movs	r3, #20
 203 005a F918     		adds	r1, r7, r3
 204 005c 5C48     		ldr	r0, .L24+4
 205 005e 1300     		movs	r3, r2
 206 0060 9B00     		lsls	r3, r3, #2
 207 0062 9B18     		adds	r3, r3, r2
 208 0064 DB00     		lsls	r3, r3, #3
 209 0066 C318     		adds	r3, r0, r3
 210 0068 0233     		adds	r3, r3, #2
 211 006a 1B88     		ldrh	r3, [r3]
 212 006c 0B80     		strh	r3, [r1]
 185:Generated_Source\PSoC4/BLE_hids.c ****                 break;
 213              		.loc 1 185 0
 214 006e 7EE0     		b	.L18
ARM GAS  C:\Users\Intern\AppData\Local\Temp\ccVSLPFx.s 			page 8


 215              	.L14:
 186:Generated_Source\PSoC4/BLE_hids.c ****             case CYBLE_HIDS_REPORT_MAP:
 187:Generated_Source\PSoC4/BLE_hids.c ****                 charValueHandle = cyBle_hidss[serviceIndex].reportMapHandle;
 216              		.loc 1 187 0
 217 0070 FB1D     		adds	r3, r7, #7
 218 0072 1A78     		ldrb	r2, [r3]
 219 0074 1423     		movs	r3, #20
 220 0076 F918     		adds	r1, r7, r3
 221 0078 5548     		ldr	r0, .L24+4
 222 007a 1300     		movs	r3, r2
 223 007c 9B00     		lsls	r3, r3, #2
 224 007e 9B18     		adds	r3, r3, r2
 225 0080 DB00     		lsls	r3, r3, #3
 226 0082 C318     		adds	r3, r0, r3
 227 0084 1E33     		adds	r3, r3, #30
 228 0086 1B88     		ldrh	r3, [r3]
 229 0088 0B80     		strh	r3, [r1]
 188:Generated_Source\PSoC4/BLE_hids.c ****                 break;
 230              		.loc 1 188 0
 231 008a 70E0     		b	.L18
 232              	.L12:
 189:Generated_Source\PSoC4/BLE_hids.c ****             case CYBLE_HIDS_INFORMATION:
 190:Generated_Source\PSoC4/BLE_hids.c ****                 charValueHandle = cyBle_hidss[serviceIndex].informationHandle;
 233              		.loc 1 190 0
 234 008c FB1D     		adds	r3, r7, #7
 235 008e 1A78     		ldrb	r2, [r3]
 236 0090 1423     		movs	r3, #20
 237 0092 F918     		adds	r1, r7, r3
 238 0094 4E48     		ldr	r0, .L24+4
 239 0096 1300     		movs	r3, r2
 240 0098 9B00     		lsls	r3, r3, #2
 241 009a 9B18     		adds	r3, r3, r2
 242 009c DB00     		lsls	r3, r3, #3
 243 009e C318     		adds	r3, r0, r3
 244 00a0 2233     		adds	r3, r3, #34
 245 00a2 1B88     		ldrh	r3, [r3]
 246 00a4 0B80     		strh	r3, [r1]
 191:Generated_Source\PSoC4/BLE_hids.c ****                 break;
 247              		.loc 1 191 0
 248 00a6 62E0     		b	.L18
 249              	.L13:
 192:Generated_Source\PSoC4/BLE_hids.c ****             case CYBLE_HIDS_CONTROL_POINT:
 193:Generated_Source\PSoC4/BLE_hids.c ****                 charValueHandle = cyBle_hidss[serviceIndex].controlPointHandle;
 250              		.loc 1 193 0
 251 00a8 FB1D     		adds	r3, r7, #7
 252 00aa 1A78     		ldrb	r2, [r3]
 253 00ac 1423     		movs	r3, #20
 254 00ae F918     		adds	r1, r7, r3
 255 00b0 4748     		ldr	r0, .L24+4
 256 00b2 1300     		movs	r3, r2
 257 00b4 9B00     		lsls	r3, r3, #2
 258 00b6 9B18     		adds	r3, r3, r2
 259 00b8 DB00     		lsls	r3, r3, #3
 260 00ba C318     		adds	r3, r0, r3
 261 00bc 2433     		adds	r3, r3, #36
 262 00be 1B88     		ldrh	r3, [r3]
 263 00c0 0B80     		strh	r3, [r1]
ARM GAS  C:\Users\Intern\AppData\Local\Temp\ccVSLPFx.s 			page 9


 194:Generated_Source\PSoC4/BLE_hids.c ****                 break;
 264              		.loc 1 194 0
 265 00c2 54E0     		b	.L18
 266              	.L15:
 195:Generated_Source\PSoC4/BLE_hids.c ****             case CYBLE_HIDS_BOOT_KYBRD_IN_REP:
 196:Generated_Source\PSoC4/BLE_hids.c ****                 charValueHandle = cyBle_hidss[serviceIndex].bootReportArray[CYBLE_HIDS_BOOT_KYBRD_I
 267              		.loc 1 196 0
 268 00c4 FB1D     		adds	r3, r7, #7
 269 00c6 1A78     		ldrb	r2, [r3]
 270 00c8 1423     		movs	r3, #20
 271 00ca F918     		adds	r1, r7, r3
 272 00cc 4048     		ldr	r0, .L24+4
 273 00ce 1300     		movs	r3, r2
 274 00d0 9B00     		lsls	r3, r3, #2
 275 00d2 9B18     		adds	r3, r3, r2
 276 00d4 DB00     		lsls	r3, r3, #3
 277 00d6 C318     		adds	r3, r0, r3
 278 00d8 0C33     		adds	r3, r3, #12
 279 00da 1B88     		ldrh	r3, [r3]
 280 00dc 0B80     		strh	r3, [r1]
 197:Generated_Source\PSoC4/BLE_hids.c ****                     reportHandle;
 198:Generated_Source\PSoC4/BLE_hids.c ****                 break;
 281              		.loc 1 198 0
 282 00de 46E0     		b	.L18
 283              	.L16:
 199:Generated_Source\PSoC4/BLE_hids.c ****             case CYBLE_HIDS_BOOT_KYBRD_OUT_REP:
 200:Generated_Source\PSoC4/BLE_hids.c ****                 charValueHandle = cyBle_hidss[serviceIndex].bootReportArray[CYBLE_HIDS_BOOT_KYBRD_O
 284              		.loc 1 200 0
 285 00e0 FB1D     		adds	r3, r7, #7
 286 00e2 1A78     		ldrb	r2, [r3]
 287 00e4 1423     		movs	r3, #20
 288 00e6 F918     		adds	r1, r7, r3
 289 00e8 3948     		ldr	r0, .L24+4
 290 00ea 1300     		movs	r3, r2
 291 00ec 9B00     		lsls	r3, r3, #2
 292 00ee 9B18     		adds	r3, r3, r2
 293 00f0 DB00     		lsls	r3, r3, #3
 294 00f2 C318     		adds	r3, r0, r3
 295 00f4 1233     		adds	r3, r3, #18
 296 00f6 1B88     		ldrh	r3, [r3]
 297 00f8 0B80     		strh	r3, [r1]
 201:Generated_Source\PSoC4/BLE_hids.c ****                     reportHandle;
 202:Generated_Source\PSoC4/BLE_hids.c ****                 break;
 298              		.loc 1 202 0
 299 00fa 38E0     		b	.L18
 300              	.L17:
 203:Generated_Source\PSoC4/BLE_hids.c ****             case CYBLE_HIDS_BOOT_MOUSE_IN_REP:
 204:Generated_Source\PSoC4/BLE_hids.c ****                 charValueHandle = cyBle_hidss[serviceIndex].bootReportArray[CYBLE_HIDS_BOOT_MOUSE_I
 301              		.loc 1 204 0
 302 00fc FB1D     		adds	r3, r7, #7
 303 00fe 1A78     		ldrb	r2, [r3]
 304 0100 1423     		movs	r3, #20
 305 0102 F918     		adds	r1, r7, r3
 306 0104 3248     		ldr	r0, .L24+4
 307 0106 1300     		movs	r3, r2
 308 0108 9B00     		lsls	r3, r3, #2
 309 010a 9B18     		adds	r3, r3, r2
ARM GAS  C:\Users\Intern\AppData\Local\Temp\ccVSLPFx.s 			page 10


 310 010c DB00     		lsls	r3, r3, #3
 311 010e C318     		adds	r3, r0, r3
 312 0110 1833     		adds	r3, r3, #24
 313 0112 1B88     		ldrh	r3, [r3]
 314 0114 0B80     		strh	r3, [r1]
 205:Generated_Source\PSoC4/BLE_hids.c ****                     reportHandle;
 206:Generated_Source\PSoC4/BLE_hids.c ****                 break;
 315              		.loc 1 206 0
 316 0116 2AE0     		b	.L18
 317              	.L9:
 207:Generated_Source\PSoC4/BLE_hids.c ****             default:                    /* Report characteristic */
 208:Generated_Source\PSoC4/BLE_hids.c ****                 /* Verify that requested report exists in particular service */
 209:Generated_Source\PSoC4/BLE_hids.c ****                 if((charIndex - CYBLE_HIDS_REPORT) < cyBle_hidss[serviceIndex].reportCount)
 318              		.loc 1 209 0
 319 0118 BB1D     		adds	r3, r7, #6
 320 011a 1B78     		ldrb	r3, [r3]
 321 011c D91F     		subs	r1, r3, #7
 322 011e FB1D     		adds	r3, r7, #7
 323 0120 1A78     		ldrb	r2, [r3]
 324 0122 2B48     		ldr	r0, .L24+4
 325 0124 1300     		movs	r3, r2
 326 0126 9B00     		lsls	r3, r3, #2
 327 0128 9B18     		adds	r3, r3, r2
 328 012a DB00     		lsls	r3, r3, #3
 329 012c C318     		adds	r3, r0, r3
 330 012e 0433     		adds	r3, r3, #4
 331 0130 1B78     		ldrb	r3, [r3]
 332 0132 9942     		cmp	r1, r3
 333 0134 16DA     		bge	.L19
 210:Generated_Source\PSoC4/BLE_hids.c ****                 {
 211:Generated_Source\PSoC4/BLE_hids.c ****                     charValueHandle = cyBle_hidss[serviceIndex].reportArray[charIndex - CYBLE_HIDS_
 334              		.loc 1 211 0
 335 0136 FB1D     		adds	r3, r7, #7
 336 0138 1A78     		ldrb	r2, [r3]
 337 013a 2549     		ldr	r1, .L24+4
 338 013c 1300     		movs	r3, r2
 339 013e 9B00     		lsls	r3, r3, #2
 340 0140 9B18     		adds	r3, r3, r2
 341 0142 DB00     		lsls	r3, r3, #3
 342 0144 CB18     		adds	r3, r1, r3
 343 0146 0833     		adds	r3, r3, #8
 344 0148 1968     		ldr	r1, [r3]
 345 014a BB1D     		adds	r3, r7, #6
 346 014c 1A78     		ldrb	r2, [r3]
 347 014e 1300     		movs	r3, r2
 348 0150 5B00     		lsls	r3, r3, #1
 349 0152 9B18     		adds	r3, r3, r2
 350 0154 5B00     		lsls	r3, r3, #1
 351 0156 2A3B     		subs	r3, r3, #42
 352 0158 CA18     		adds	r2, r1, r3
 353 015a 1423     		movs	r3, #20
 354 015c FB18     		adds	r3, r7, r3
 355 015e 1288     		ldrh	r2, [r2]
 356 0160 1A80     		strh	r2, [r3]
 212:Generated_Source\PSoC4/BLE_hids.c ****                 }
 213:Generated_Source\PSoC4/BLE_hids.c ****                 else
 214:Generated_Source\PSoC4/BLE_hids.c ****                 {
ARM GAS  C:\Users\Intern\AppData\Local\Temp\ccVSLPFx.s 			page 11


 215:Generated_Source\PSoC4/BLE_hids.c ****                     charValueHandle = CYBLE_GATT_INVALID_ATTR_HANDLE_VALUE;
 216:Generated_Source\PSoC4/BLE_hids.c ****                 }
 217:Generated_Source\PSoC4/BLE_hids.c ****                 break;
 357              		.loc 1 217 0
 358 0162 03E0     		b	.L23
 359              	.L19:
 215:Generated_Source\PSoC4/BLE_hids.c ****                 }
 360              		.loc 1 215 0
 361 0164 1423     		movs	r3, #20
 362 0166 FB18     		adds	r3, r7, r3
 363 0168 0022     		movs	r2, #0
 364 016a 1A80     		strh	r2, [r3]
 365              	.L23:
 366              		.loc 1 217 0
 367 016c C046     		nop
 368              	.L18:
 218:Generated_Source\PSoC4/BLE_hids.c ****         }
 219:Generated_Source\PSoC4/BLE_hids.c ****         if(charValueHandle == CYBLE_GATT_INVALID_ATTR_HANDLE_VALUE)
 369              		.loc 1 219 0
 370 016e 1423     		movs	r3, #20
 371 0170 FB18     		adds	r3, r7, r3
 372 0172 1B88     		ldrh	r3, [r3]
 373 0174 002B     		cmp	r3, #0
 374 0176 04D1     		bne	.L21
 220:Generated_Source\PSoC4/BLE_hids.c ****         {
 221:Generated_Source\PSoC4/BLE_hids.c ****             apiResult = CYBLE_ERROR_GATT_DB_INVALID_ATTR_HANDLE;
 375              		.loc 1 221 0
 376 0178 1623     		movs	r3, #22
 377 017a FB18     		adds	r3, r7, r3
 378 017c 1322     		movs	r2, #19
 379 017e 1A80     		strh	r2, [r3]
 380 0180 1CE0     		b	.L8
 381              	.L21:
 222:Generated_Source\PSoC4/BLE_hids.c ****         }
 223:Generated_Source\PSoC4/BLE_hids.c ****         else
 224:Generated_Source\PSoC4/BLE_hids.c ****         {
 225:Generated_Source\PSoC4/BLE_hids.c ****             /* Store data in database */
 226:Generated_Source\PSoC4/BLE_hids.c ****             locHandleValuePair.attrHandle = charValueHandle;
 382              		.loc 1 226 0
 383 0182 0823     		movs	r3, #8
 384 0184 FB18     		adds	r3, r7, r3
 385 0186 1422     		movs	r2, #20
 386 0188 BA18     		adds	r2, r7, r2
 387 018a 1288     		ldrh	r2, [r2]
 388 018c 1A81     		strh	r2, [r3, #8]
 227:Generated_Source\PSoC4/BLE_hids.c ****             locHandleValuePair.value.len = attrSize;
 389              		.loc 1 227 0
 390 018e 7B1D     		adds	r3, r7, #5
 391 0190 1B78     		ldrb	r3, [r3]
 392 0192 9AB2     		uxth	r2, r3
 393 0194 0823     		movs	r3, #8
 394 0196 FB18     		adds	r3, r7, r3
 395 0198 9A80     		strh	r2, [r3, #4]
 228:Generated_Source\PSoC4/BLE_hids.c ****             locHandleValuePair.value.val = attrValue;
 396              		.loc 1 228 0
 397 019a 0823     		movs	r3, #8
 398 019c FB18     		adds	r3, r7, r3
ARM GAS  C:\Users\Intern\AppData\Local\Temp\ccVSLPFx.s 			page 12


 399 019e 3A68     		ldr	r2, [r7]
 400 01a0 1A60     		str	r2, [r3]
 229:Generated_Source\PSoC4/BLE_hids.c **** 
 230:Generated_Source\PSoC4/BLE_hids.c ****             if(CYBLE_GATT_ERR_NONE !=
 231:Generated_Source\PSoC4/BLE_hids.c ****                 CyBle_GattsWriteAttributeValue(&locHandleValuePair, 0u, NULL, CYBLE_GATT_DB_LOCALLY
 401              		.loc 1 231 0
 402 01a2 0823     		movs	r3, #8
 403 01a4 F818     		adds	r0, r7, r3
 404 01a6 0023     		movs	r3, #0
 405 01a8 0022     		movs	r2, #0
 406 01aa 0021     		movs	r1, #0
 407 01ac FFF7FEFF 		bl	CyBle_GattsWriteAttributeValue
 408 01b0 031E     		subs	r3, r0, #0
 230:Generated_Source\PSoC4/BLE_hids.c ****                 CyBle_GattsWriteAttributeValue(&locHandleValuePair, 0u, NULL, CYBLE_GATT_DB_LOCALLY
 409              		.loc 1 230 0
 410 01b2 03D0     		beq	.L8
 232:Generated_Source\PSoC4/BLE_hids.c ****             {
 233:Generated_Source\PSoC4/BLE_hids.c ****                 apiResult = CYBLE_ERROR_INVALID_PARAMETER;
 411              		.loc 1 233 0
 412 01b4 1623     		movs	r3, #22
 413 01b6 FB18     		adds	r3, r7, r3
 414 01b8 0122     		movs	r2, #1
 415 01ba 1A80     		strh	r2, [r3]
 416              	.L8:
 234:Generated_Source\PSoC4/BLE_hids.c ****             }
 235:Generated_Source\PSoC4/BLE_hids.c ****         }
 236:Generated_Source\PSoC4/BLE_hids.c ****     }
 237:Generated_Source\PSoC4/BLE_hids.c ****     return (apiResult);
 417              		.loc 1 237 0
 418 01bc 1623     		movs	r3, #22
 419 01be FB18     		adds	r3, r7, r3
 420 01c0 1B88     		ldrh	r3, [r3]
 238:Generated_Source\PSoC4/BLE_hids.c **** }
 421              		.loc 1 238 0
 422 01c2 1800     		movs	r0, r3
 423 01c4 BD46     		mov	sp, r7
 424 01c6 07B0     		add	sp, sp, #28
 425              		@ sp needed
 426 01c8 90BD     		pop	{r4, r7, pc}
 427              	.L25:
 428 01ca C046     		.align	2
 429              	.L24:
 430 01cc 30000000 		.word	.L11
 431 01d0 00000000 		.word	cyBle_hidss
 432              		.cfi_endproc
 433              	.LFE4:
 434              		.size	CyBle_HidssSetCharacteristicValue, .-CyBle_HidssSetCharacteristicValue
 435              		.section	.text.CyBle_HidssGetCharacteristicValue,"ax",%progbits
 436              		.align	2
 437              		.global	CyBle_HidssGetCharacteristicValue
 438              		.code	16
 439              		.thumb_func
 440              		.type	CyBle_HidssGetCharacteristicValue, %function
 441              	CyBle_HidssGetCharacteristicValue:
 442              	.LFB5:
 239:Generated_Source\PSoC4/BLE_hids.c **** 
 240:Generated_Source\PSoC4/BLE_hids.c **** 
ARM GAS  C:\Users\Intern\AppData\Local\Temp\ccVSLPFx.s 			page 13


 241:Generated_Source\PSoC4/BLE_hids.c **** /****************************************************************************** 
 242:Generated_Source\PSoC4/BLE_hids.c **** * Function Name: CyBle_HidssGetCharacteristicValue
 243:Generated_Source\PSoC4/BLE_hids.c **** ***************************************************************************//**
 244:Generated_Source\PSoC4/BLE_hids.c **** * 
 245:Generated_Source\PSoC4/BLE_hids.c **** *  Gets local characteristic value of the specified HID Service characteristics.
 246:Generated_Source\PSoC4/BLE_hids.c **** * 
 247:Generated_Source\PSoC4/BLE_hids.c **** *  \param serviceIndex: The index of the service instance. e.g. If two HID Services are 
 248:Generated_Source\PSoC4/BLE_hids.c **** *                 supported in your design, then first service will be identified
 249:Generated_Source\PSoC4/BLE_hids.c **** *                 by serviceIndex of 0 and the second by serviceIndex of 1.
 250:Generated_Source\PSoC4/BLE_hids.c **** * 
 251:Generated_Source\PSoC4/BLE_hids.c **** *  \param charIndex: The index of the service characteristic. 
 252:Generated_Source\PSoC4/BLE_hids.c **** *              * CYBLE_HIDS_PROTOCOL_MODE - Protocol Mode characteristic
 253:Generated_Source\PSoC4/BLE_hids.c **** *              * CYBLE_HIDS_REPORT_MAP - Report Map characteristic
 254:Generated_Source\PSoC4/BLE_hids.c **** *              * CYBLE_HIDS_INFORMATION - HID Information characteristic
 255:Generated_Source\PSoC4/BLE_hids.c **** *              * CYBLE_HIDS_CONTROL_POINT - HID Control Point characteristic
 256:Generated_Source\PSoC4/BLE_hids.c **** *              * CYBLE_HIDS_BOOT_KYBRD_IN_REP - Boot Keyboard Input Report Characteristic
 257:Generated_Source\PSoC4/BLE_hids.c **** *              * CYBLE_HIDS_BOOT_KYBRD_OUT_REP - Boot Keyboard Output Report Characteristic
 258:Generated_Source\PSoC4/BLE_hids.c **** *              * CYBLE_HIDS_BOOT_MOUSE_IN_REP - Boot Mouse Input Report Characteristic
 259:Generated_Source\PSoC4/BLE_hids.c **** *              * CYBLE_HIDS_REPORT - Report Characteristic
 260:Generated_Source\PSoC4/BLE_hids.c **** * 
 261:Generated_Source\PSoC4/BLE_hids.c **** *  \param attrSize: The size of the characteristic value attribute.
 262:Generated_Source\PSoC4/BLE_hids.c **** * 
 263:Generated_Source\PSoC4/BLE_hids.c **** *  \param attrValue: The pointer to the location where characteristic value data
 264:Generated_Source\PSoC4/BLE_hids.c **** *               should be stored.
 265:Generated_Source\PSoC4/BLE_hids.c **** * 
 266:Generated_Source\PSoC4/BLE_hids.c **** * \return
 267:Generated_Source\PSoC4/BLE_hids.c **** *  Return value is of type CYBLE_API_RESULT_T.
 268:Generated_Source\PSoC4/BLE_hids.c **** *  * CYBLE_ERROR_OK - The request handled successfully
 269:Generated_Source\PSoC4/BLE_hids.c **** *  * CYBLE_ERROR_INVALID_PARAMETER - Validation of the input parameter failed
 270:Generated_Source\PSoC4/BLE_hids.c **** *  * CYBLE_ERROR_GATT_DB_INVALID_ATTR_HANDLE - Optional characteristic is absent
 271:Generated_Source\PSoC4/BLE_hids.c **** *
 272:Generated_Source\PSoC4/BLE_hids.c **** *
 273:Generated_Source\PSoC4/BLE_hids.c **** ******************************************************************************/
 274:Generated_Source\PSoC4/BLE_hids.c **** CYBLE_API_RESULT_T CyBle_HidssGetCharacteristicValue(uint8 serviceIndex, CYBLE_HIDS_CHAR_INDEX_T ch
 275:Generated_Source\PSoC4/BLE_hids.c ****     uint8 attrSize, uint8 *attrValue)
 276:Generated_Source\PSoC4/BLE_hids.c **** {
 443              		.loc 1 276 0
 444              		.cfi_startproc
 445              		@ args = 0, pretend = 0, frame = 24
 446              		@ frame_needed = 1, uses_anonymous_args = 0
 447 0000 90B5     		push	{r4, r7, lr}
 448              		.cfi_def_cfa_offset 12
 449              		.cfi_offset 4, -12
 450              		.cfi_offset 7, -8
 451              		.cfi_offset 14, -4
 452 0002 87B0     		sub	sp, sp, #28
 453              		.cfi_def_cfa_offset 40
 454 0004 00AF     		add	r7, sp, #0
 455              		.cfi_def_cfa_register 7
 456 0006 0400     		movs	r4, r0
 457 0008 0800     		movs	r0, r1
 458 000a 1100     		movs	r1, r2
 459 000c 3B60     		str	r3, [r7]
 460 000e FB1D     		adds	r3, r7, #7
 461 0010 221C     		adds	r2, r4, #0
 462 0012 1A70     		strb	r2, [r3]
 463 0014 BB1D     		adds	r3, r7, #6
ARM GAS  C:\Users\Intern\AppData\Local\Temp\ccVSLPFx.s 			page 14


 464 0016 021C     		adds	r2, r0, #0
 465 0018 1A70     		strb	r2, [r3]
 466 001a 7B1D     		adds	r3, r7, #5
 467 001c 0A1C     		adds	r2, r1, #0
 468 001e 1A70     		strb	r2, [r3]
 277:Generated_Source\PSoC4/BLE_hids.c ****     CYBLE_API_RESULT_T apiResult = CYBLE_ERROR_OK;
 469              		.loc 1 277 0
 470 0020 1623     		movs	r3, #22
 471 0022 FB18     		adds	r3, r7, r3
 472 0024 0022     		movs	r2, #0
 473 0026 1A80     		strh	r2, [r3]
 278:Generated_Source\PSoC4/BLE_hids.c ****     CYBLE_GATT_DB_ATTR_HANDLE_T charValueHandle;
 279:Generated_Source\PSoC4/BLE_hids.c ****     CYBLE_GATT_HANDLE_VALUE_PAIR_T locHandleValuePair;
 280:Generated_Source\PSoC4/BLE_hids.c **** 
 281:Generated_Source\PSoC4/BLE_hids.c ****     if((serviceIndex >= CYBLE_HIDSS_SERVICE_COUNT) || (charIndex >= CYBLE_HIDS_CHAR_COUNT))
 474              		.loc 1 281 0
 475 0028 FB1D     		adds	r3, r7, #7
 476 002a 1B78     		ldrb	r3, [r3]
 477 002c 002B     		cmp	r3, #0
 478 002e 03D1     		bne	.L27
 479              		.loc 1 281 0 is_stmt 0 discriminator 1
 480 0030 BB1D     		adds	r3, r7, #6
 481 0032 1B78     		ldrb	r3, [r3]
 482 0034 072B     		cmp	r3, #7
 483 0036 04D9     		bls	.L28
 484              	.L27:
 282:Generated_Source\PSoC4/BLE_hids.c ****     {
 283:Generated_Source\PSoC4/BLE_hids.c ****         apiResult = CYBLE_ERROR_INVALID_PARAMETER;
 485              		.loc 1 283 0 is_stmt 1
 486 0038 1623     		movs	r3, #22
 487 003a FB18     		adds	r3, r7, r3
 488 003c 0122     		movs	r2, #1
 489 003e 1A80     		strh	r2, [r3]
 490 0040 BCE0     		b	.L29
 491              	.L28:
 284:Generated_Source\PSoC4/BLE_hids.c ****     }
 285:Generated_Source\PSoC4/BLE_hids.c ****     else
 286:Generated_Source\PSoC4/BLE_hids.c ****     {
 287:Generated_Source\PSoC4/BLE_hids.c ****         switch(charIndex)
 492              		.loc 1 287 0
 493 0042 BB1D     		adds	r3, r7, #6
 494 0044 1B78     		ldrb	r3, [r3]
 495 0046 062B     		cmp	r3, #6
 496 0048 66D8     		bhi	.L30
 497 004a 9A00     		lsls	r2, r3, #2
 498 004c 5F4B     		ldr	r3, .L45
 499 004e D318     		adds	r3, r2, r3
 500 0050 1B68     		ldr	r3, [r3]
 501 0052 9F46     		mov	pc, r3
 502              		.section	.rodata
 503              		.align	2
 504              	.L32:
 505 004c 54000000 		.word	.L31
 506 0050 8C000000 		.word	.L33
 507 0054 A8000000 		.word	.L34
 508 0058 70000000 		.word	.L35
 509 005c C4000000 		.word	.L36
ARM GAS  C:\Users\Intern\AppData\Local\Temp\ccVSLPFx.s 			page 15


 510 0060 E0000000 		.word	.L37
 511 0064 FC000000 		.word	.L38
 512              		.section	.text.CyBle_HidssGetCharacteristicValue
 513              	.L31:
 288:Generated_Source\PSoC4/BLE_hids.c ****         {
 289:Generated_Source\PSoC4/BLE_hids.c ****             case CYBLE_HIDS_PROTOCOL_MODE:
 290:Generated_Source\PSoC4/BLE_hids.c ****                 charValueHandle = cyBle_hidss[serviceIndex].protocolModeHandle;
 514              		.loc 1 290 0
 515 0054 FB1D     		adds	r3, r7, #7
 516 0056 1A78     		ldrb	r2, [r3]
 517 0058 1423     		movs	r3, #20
 518 005a F918     		adds	r1, r7, r3
 519 005c 5C48     		ldr	r0, .L45+4
 520 005e 1300     		movs	r3, r2
 521 0060 9B00     		lsls	r3, r3, #2
 522 0062 9B18     		adds	r3, r3, r2
 523 0064 DB00     		lsls	r3, r3, #3
 524 0066 C318     		adds	r3, r0, r3
 525 0068 0233     		adds	r3, r3, #2
 526 006a 1B88     		ldrh	r3, [r3]
 527 006c 0B80     		strh	r3, [r1]
 291:Generated_Source\PSoC4/BLE_hids.c ****                 break;
 528              		.loc 1 291 0
 529 006e 7EE0     		b	.L39
 530              	.L35:
 292:Generated_Source\PSoC4/BLE_hids.c ****             case CYBLE_HIDS_REPORT_MAP:
 293:Generated_Source\PSoC4/BLE_hids.c ****                 charValueHandle = cyBle_hidss[serviceIndex].reportMapHandle;
 531              		.loc 1 293 0
 532 0070 FB1D     		adds	r3, r7, #7
 533 0072 1A78     		ldrb	r2, [r3]
 534 0074 1423     		movs	r3, #20
 535 0076 F918     		adds	r1, r7, r3
 536 0078 5548     		ldr	r0, .L45+4
 537 007a 1300     		movs	r3, r2
 538 007c 9B00     		lsls	r3, r3, #2
 539 007e 9B18     		adds	r3, r3, r2
 540 0080 DB00     		lsls	r3, r3, #3
 541 0082 C318     		adds	r3, r0, r3
 542 0084 1E33     		adds	r3, r3, #30
 543 0086 1B88     		ldrh	r3, [r3]
 544 0088 0B80     		strh	r3, [r1]
 294:Generated_Source\PSoC4/BLE_hids.c ****                 break;
 545              		.loc 1 294 0
 546 008a 70E0     		b	.L39
 547              	.L33:
 295:Generated_Source\PSoC4/BLE_hids.c ****             case CYBLE_HIDS_INFORMATION:
 296:Generated_Source\PSoC4/BLE_hids.c ****                 charValueHandle = cyBle_hidss[serviceIndex].informationHandle;
 548              		.loc 1 296 0
 549 008c FB1D     		adds	r3, r7, #7
 550 008e 1A78     		ldrb	r2, [r3]
 551 0090 1423     		movs	r3, #20
 552 0092 F918     		adds	r1, r7, r3
 553 0094 4E48     		ldr	r0, .L45+4
 554 0096 1300     		movs	r3, r2
 555 0098 9B00     		lsls	r3, r3, #2
 556 009a 9B18     		adds	r3, r3, r2
 557 009c DB00     		lsls	r3, r3, #3
ARM GAS  C:\Users\Intern\AppData\Local\Temp\ccVSLPFx.s 			page 16


 558 009e C318     		adds	r3, r0, r3
 559 00a0 2233     		adds	r3, r3, #34
 560 00a2 1B88     		ldrh	r3, [r3]
 561 00a4 0B80     		strh	r3, [r1]
 297:Generated_Source\PSoC4/BLE_hids.c ****                 break;
 562              		.loc 1 297 0
 563 00a6 62E0     		b	.L39
 564              	.L34:
 298:Generated_Source\PSoC4/BLE_hids.c ****             case CYBLE_HIDS_CONTROL_POINT:
 299:Generated_Source\PSoC4/BLE_hids.c ****                 charValueHandle = cyBle_hidss[serviceIndex].controlPointHandle;
 565              		.loc 1 299 0
 566 00a8 FB1D     		adds	r3, r7, #7
 567 00aa 1A78     		ldrb	r2, [r3]
 568 00ac 1423     		movs	r3, #20
 569 00ae F918     		adds	r1, r7, r3
 570 00b0 4748     		ldr	r0, .L45+4
 571 00b2 1300     		movs	r3, r2
 572 00b4 9B00     		lsls	r3, r3, #2
 573 00b6 9B18     		adds	r3, r3, r2
 574 00b8 DB00     		lsls	r3, r3, #3
 575 00ba C318     		adds	r3, r0, r3
 576 00bc 2433     		adds	r3, r3, #36
 577 00be 1B88     		ldrh	r3, [r3]
 578 00c0 0B80     		strh	r3, [r1]
 300:Generated_Source\PSoC4/BLE_hids.c ****                 break;
 579              		.loc 1 300 0
 580 00c2 54E0     		b	.L39
 581              	.L36:
 301:Generated_Source\PSoC4/BLE_hids.c ****             case CYBLE_HIDS_BOOT_KYBRD_IN_REP:
 302:Generated_Source\PSoC4/BLE_hids.c ****                 charValueHandle =
 303:Generated_Source\PSoC4/BLE_hids.c ****                     cyBle_hidss[serviceIndex].bootReportArray[CYBLE_HIDS_BOOT_KYBRD_IN_REP_INDX].re
 582              		.loc 1 303 0
 583 00c4 FB1D     		adds	r3, r7, #7
 584 00c6 1A78     		ldrb	r2, [r3]
 302:Generated_Source\PSoC4/BLE_hids.c ****                     cyBle_hidss[serviceIndex].bootReportArray[CYBLE_HIDS_BOOT_KYBRD_IN_REP_INDX].re
 585              		.loc 1 302 0
 586 00c8 1423     		movs	r3, #20
 587 00ca F918     		adds	r1, r7, r3
 588 00cc 4048     		ldr	r0, .L45+4
 589 00ce 1300     		movs	r3, r2
 590 00d0 9B00     		lsls	r3, r3, #2
 591 00d2 9B18     		adds	r3, r3, r2
 592 00d4 DB00     		lsls	r3, r3, #3
 593 00d6 C318     		adds	r3, r0, r3
 594 00d8 0C33     		adds	r3, r3, #12
 595 00da 1B88     		ldrh	r3, [r3]
 596 00dc 0B80     		strh	r3, [r1]
 304:Generated_Source\PSoC4/BLE_hids.c ****                 break;
 597              		.loc 1 304 0
 598 00de 46E0     		b	.L39
 599              	.L37:
 305:Generated_Source\PSoC4/BLE_hids.c ****             case CYBLE_HIDS_BOOT_KYBRD_OUT_REP:
 306:Generated_Source\PSoC4/BLE_hids.c ****                 charValueHandle =
 307:Generated_Source\PSoC4/BLE_hids.c ****                     cyBle_hidss[serviceIndex].bootReportArray[CYBLE_HIDS_BOOT_KYBRD_OUT_REP_INDX].r
 600              		.loc 1 307 0
 601 00e0 FB1D     		adds	r3, r7, #7
 602 00e2 1A78     		ldrb	r2, [r3]
ARM GAS  C:\Users\Intern\AppData\Local\Temp\ccVSLPFx.s 			page 17


 306:Generated_Source\PSoC4/BLE_hids.c ****                     cyBle_hidss[serviceIndex].bootReportArray[CYBLE_HIDS_BOOT_KYBRD_OUT_REP_INDX].r
 603              		.loc 1 306 0
 604 00e4 1423     		movs	r3, #20
 605 00e6 F918     		adds	r1, r7, r3
 606 00e8 3948     		ldr	r0, .L45+4
 607 00ea 1300     		movs	r3, r2
 608 00ec 9B00     		lsls	r3, r3, #2
 609 00ee 9B18     		adds	r3, r3, r2
 610 00f0 DB00     		lsls	r3, r3, #3
 611 00f2 C318     		adds	r3, r0, r3
 612 00f4 1233     		adds	r3, r3, #18
 613 00f6 1B88     		ldrh	r3, [r3]
 614 00f8 0B80     		strh	r3, [r1]
 308:Generated_Source\PSoC4/BLE_hids.c ****                 break;
 615              		.loc 1 308 0
 616 00fa 38E0     		b	.L39
 617              	.L38:
 309:Generated_Source\PSoC4/BLE_hids.c ****             case CYBLE_HIDS_BOOT_MOUSE_IN_REP:
 310:Generated_Source\PSoC4/BLE_hids.c ****                 charValueHandle =
 311:Generated_Source\PSoC4/BLE_hids.c ****                     cyBle_hidss[serviceIndex].bootReportArray[CYBLE_HIDS_BOOT_MOUSE_IN_REP_INDX].re
 618              		.loc 1 311 0
 619 00fc FB1D     		adds	r3, r7, #7
 620 00fe 1A78     		ldrb	r2, [r3]
 310:Generated_Source\PSoC4/BLE_hids.c ****                     cyBle_hidss[serviceIndex].bootReportArray[CYBLE_HIDS_BOOT_MOUSE_IN_REP_INDX].re
 621              		.loc 1 310 0
 622 0100 1423     		movs	r3, #20
 623 0102 F918     		adds	r1, r7, r3
 624 0104 3248     		ldr	r0, .L45+4
 625 0106 1300     		movs	r3, r2
 626 0108 9B00     		lsls	r3, r3, #2
 627 010a 9B18     		adds	r3, r3, r2
 628 010c DB00     		lsls	r3, r3, #3
 629 010e C318     		adds	r3, r0, r3
 630 0110 1833     		adds	r3, r3, #24
 631 0112 1B88     		ldrh	r3, [r3]
 632 0114 0B80     		strh	r3, [r1]
 312:Generated_Source\PSoC4/BLE_hids.c ****                 break;
 633              		.loc 1 312 0
 634 0116 2AE0     		b	.L39
 635              	.L30:
 313:Generated_Source\PSoC4/BLE_hids.c ****             default:                    /* Report characteristic */
 314:Generated_Source\PSoC4/BLE_hids.c ****                 /* Verify that requested report exists in particular service */
 315:Generated_Source\PSoC4/BLE_hids.c ****                 if((charIndex - CYBLE_HIDS_REPORT) < cyBle_hidss[serviceIndex].reportCount)
 636              		.loc 1 315 0
 637 0118 BB1D     		adds	r3, r7, #6
 638 011a 1B78     		ldrb	r3, [r3]
 639 011c D91F     		subs	r1, r3, #7
 640 011e FB1D     		adds	r3, r7, #7
 641 0120 1A78     		ldrb	r2, [r3]
 642 0122 2B48     		ldr	r0, .L45+4
 643 0124 1300     		movs	r3, r2
 644 0126 9B00     		lsls	r3, r3, #2
 645 0128 9B18     		adds	r3, r3, r2
 646 012a DB00     		lsls	r3, r3, #3
 647 012c C318     		adds	r3, r0, r3
 648 012e 0433     		adds	r3, r3, #4
 649 0130 1B78     		ldrb	r3, [r3]
ARM GAS  C:\Users\Intern\AppData\Local\Temp\ccVSLPFx.s 			page 18


 650 0132 9942     		cmp	r1, r3
 651 0134 16DA     		bge	.L40
 316:Generated_Source\PSoC4/BLE_hids.c ****                 {
 317:Generated_Source\PSoC4/BLE_hids.c ****                     charValueHandle = cyBle_hidss[serviceIndex].reportArray[charIndex - CYBLE_HIDS_
 652              		.loc 1 317 0
 653 0136 FB1D     		adds	r3, r7, #7
 654 0138 1A78     		ldrb	r2, [r3]
 655 013a 2549     		ldr	r1, .L45+4
 656 013c 1300     		movs	r3, r2
 657 013e 9B00     		lsls	r3, r3, #2
 658 0140 9B18     		adds	r3, r3, r2
 659 0142 DB00     		lsls	r3, r3, #3
 660 0144 CB18     		adds	r3, r1, r3
 661 0146 0833     		adds	r3, r3, #8
 662 0148 1968     		ldr	r1, [r3]
 663 014a BB1D     		adds	r3, r7, #6
 664 014c 1A78     		ldrb	r2, [r3]
 665 014e 1300     		movs	r3, r2
 666 0150 5B00     		lsls	r3, r3, #1
 667 0152 9B18     		adds	r3, r3, r2
 668 0154 5B00     		lsls	r3, r3, #1
 669 0156 2A3B     		subs	r3, r3, #42
 670 0158 CA18     		adds	r2, r1, r3
 671 015a 1423     		movs	r3, #20
 672 015c FB18     		adds	r3, r7, r3
 673 015e 1288     		ldrh	r2, [r2]
 674 0160 1A80     		strh	r2, [r3]
 318:Generated_Source\PSoC4/BLE_hids.c ****                 }
 319:Generated_Source\PSoC4/BLE_hids.c ****                 else
 320:Generated_Source\PSoC4/BLE_hids.c ****                 {
 321:Generated_Source\PSoC4/BLE_hids.c ****                     charValueHandle = CYBLE_GATT_INVALID_ATTR_HANDLE_VALUE;
 322:Generated_Source\PSoC4/BLE_hids.c ****                 }
 323:Generated_Source\PSoC4/BLE_hids.c ****                 break;
 675              		.loc 1 323 0
 676 0162 03E0     		b	.L44
 677              	.L40:
 321:Generated_Source\PSoC4/BLE_hids.c ****                 }
 678              		.loc 1 321 0
 679 0164 1423     		movs	r3, #20
 680 0166 FB18     		adds	r3, r7, r3
 681 0168 0022     		movs	r2, #0
 682 016a 1A80     		strh	r2, [r3]
 683              	.L44:
 684              		.loc 1 323 0
 685 016c C046     		nop
 686              	.L39:
 324:Generated_Source\PSoC4/BLE_hids.c ****         }
 325:Generated_Source\PSoC4/BLE_hids.c **** 
 326:Generated_Source\PSoC4/BLE_hids.c ****         if(charValueHandle == CYBLE_GATT_INVALID_ATTR_HANDLE_VALUE)
 687              		.loc 1 326 0
 688 016e 1423     		movs	r3, #20
 689 0170 FB18     		adds	r3, r7, r3
 690 0172 1B88     		ldrh	r3, [r3]
 691 0174 002B     		cmp	r3, #0
 692 0176 04D1     		bne	.L42
 327:Generated_Source\PSoC4/BLE_hids.c ****         {
 328:Generated_Source\PSoC4/BLE_hids.c ****             apiResult = CYBLE_ERROR_GATT_DB_INVALID_ATTR_HANDLE;
ARM GAS  C:\Users\Intern\AppData\Local\Temp\ccVSLPFx.s 			page 19


 693              		.loc 1 328 0
 694 0178 1623     		movs	r3, #22
 695 017a FB18     		adds	r3, r7, r3
 696 017c 1322     		movs	r2, #19
 697 017e 1A80     		strh	r2, [r3]
 698 0180 1CE0     		b	.L29
 699              	.L42:
 329:Generated_Source\PSoC4/BLE_hids.c ****         }
 330:Generated_Source\PSoC4/BLE_hids.c ****         else
 331:Generated_Source\PSoC4/BLE_hids.c ****         {
 332:Generated_Source\PSoC4/BLE_hids.c ****             /* Read characteristic value from database */
 333:Generated_Source\PSoC4/BLE_hids.c ****             locHandleValuePair.attrHandle = charValueHandle;
 700              		.loc 1 333 0
 701 0182 0823     		movs	r3, #8
 702 0184 FB18     		adds	r3, r7, r3
 703 0186 1422     		movs	r2, #20
 704 0188 BA18     		adds	r2, r7, r2
 705 018a 1288     		ldrh	r2, [r2]
 706 018c 1A81     		strh	r2, [r3, #8]
 334:Generated_Source\PSoC4/BLE_hids.c ****             locHandleValuePair.value.len = attrSize;
 707              		.loc 1 334 0
 708 018e 7B1D     		adds	r3, r7, #5
 709 0190 1B78     		ldrb	r3, [r3]
 710 0192 9AB2     		uxth	r2, r3
 711 0194 0823     		movs	r3, #8
 712 0196 FB18     		adds	r3, r7, r3
 713 0198 9A80     		strh	r2, [r3, #4]
 335:Generated_Source\PSoC4/BLE_hids.c ****             locHandleValuePair.value.val = attrValue;
 714              		.loc 1 335 0
 715 019a 0823     		movs	r3, #8
 716 019c FB18     		adds	r3, r7, r3
 717 019e 3A68     		ldr	r2, [r7]
 718 01a0 1A60     		str	r2, [r3]
 336:Generated_Source\PSoC4/BLE_hids.c ****             if(CYBLE_GATT_ERR_NONE !=
 337:Generated_Source\PSoC4/BLE_hids.c ****                 CyBle_GattsReadAttributeValue(&locHandleValuePair, NULL, CYBLE_GATT_DB_LOCALLY_INIT
 719              		.loc 1 337 0
 720 01a2 0823     		movs	r3, #8
 721 01a4 FB18     		adds	r3, r7, r3
 722 01a6 0022     		movs	r2, #0
 723 01a8 0021     		movs	r1, #0
 724 01aa 1800     		movs	r0, r3
 725 01ac FFF7FEFF 		bl	CyBle_GattsReadAttributeValue
 726 01b0 031E     		subs	r3, r0, #0
 336:Generated_Source\PSoC4/BLE_hids.c ****             if(CYBLE_GATT_ERR_NONE !=
 727              		.loc 1 336 0
 728 01b2 03D0     		beq	.L29
 338:Generated_Source\PSoC4/BLE_hids.c ****             {
 339:Generated_Source\PSoC4/BLE_hids.c ****                 apiResult = CYBLE_ERROR_INVALID_PARAMETER;
 729              		.loc 1 339 0
 730 01b4 1623     		movs	r3, #22
 731 01b6 FB18     		adds	r3, r7, r3
 732 01b8 0122     		movs	r2, #1
 733 01ba 1A80     		strh	r2, [r3]
 734              	.L29:
 340:Generated_Source\PSoC4/BLE_hids.c ****             }
 341:Generated_Source\PSoC4/BLE_hids.c ****         }
 342:Generated_Source\PSoC4/BLE_hids.c ****     }
ARM GAS  C:\Users\Intern\AppData\Local\Temp\ccVSLPFx.s 			page 20


 343:Generated_Source\PSoC4/BLE_hids.c ****     return (apiResult);
 735              		.loc 1 343 0
 736 01bc 1623     		movs	r3, #22
 737 01be FB18     		adds	r3, r7, r3
 738 01c0 1B88     		ldrh	r3, [r3]
 344:Generated_Source\PSoC4/BLE_hids.c **** }
 739              		.loc 1 344 0
 740 01c2 1800     		movs	r0, r3
 741 01c4 BD46     		mov	sp, r7
 742 01c6 07B0     		add	sp, sp, #28
 743              		@ sp needed
 744 01c8 90BD     		pop	{r4, r7, pc}
 745              	.L46:
 746 01ca C046     		.align	2
 747              	.L45:
 748 01cc 4C000000 		.word	.L32
 749 01d0 00000000 		.word	cyBle_hidss
 750              		.cfi_endproc
 751              	.LFE5:
 752              		.size	CyBle_HidssGetCharacteristicValue, .-CyBle_HidssGetCharacteristicValue
 753              		.section	.text.CyBle_HidssGetCharacteristicDescriptor,"ax",%progbits
 754              		.align	2
 755              		.global	CyBle_HidssGetCharacteristicDescriptor
 756              		.code	16
 757              		.thumb_func
 758              		.type	CyBle_HidssGetCharacteristicDescriptor, %function
 759              	CyBle_HidssGetCharacteristicDescriptor:
 760              	.LFB6:
 345:Generated_Source\PSoC4/BLE_hids.c **** 
 346:Generated_Source\PSoC4/BLE_hids.c **** 
 347:Generated_Source\PSoC4/BLE_hids.c **** /****************************************************************************** 
 348:Generated_Source\PSoC4/BLE_hids.c **** * Function Name: CyBle_HidssGetCharacteristicDescriptor
 349:Generated_Source\PSoC4/BLE_hids.c **** ***************************************************************************//**
 350:Generated_Source\PSoC4/BLE_hids.c **** * 
 351:Generated_Source\PSoC4/BLE_hids.c **** *  Gets local characteristic descriptor of the specified HID Service 
 352:Generated_Source\PSoC4/BLE_hids.c **** *  characteristic.
 353:Generated_Source\PSoC4/BLE_hids.c **** * 
 354:Generated_Source\PSoC4/BLE_hids.c **** *  \param serviceIndex: The index of the service instance. e.g. If two HID Services are 
 355:Generated_Source\PSoC4/BLE_hids.c **** *                 supported in your design, then first service will be identified
 356:Generated_Source\PSoC4/BLE_hids.c **** *                 by serviceIndex of 0 and the second by serviceIndex of 1.
 357:Generated_Source\PSoC4/BLE_hids.c **** * 
 358:Generated_Source\PSoC4/BLE_hids.c **** *  \param charIndex: The index of the characteristic.
 359:Generated_Source\PSoC4/BLE_hids.c **** *              * CYBLE_HIDS_REPORT_MAP          - Report Map Characteristic
 360:Generated_Source\PSoC4/BLE_hids.c **** *              * CYBLE_HIDS_BOOT_KYBRD_IN_REP   - Boot Keyboard Input Report Characteristic
 361:Generated_Source\PSoC4/BLE_hids.c **** *              * CYBLE_HIDS_BOOT_KYBRD_OUT_REP  - Boot Keyboard Output Report Characteristic
 362:Generated_Source\PSoC4/BLE_hids.c **** *              * CYBLE_HIDS_BOOT_MOUSE_IN_REP   - Boot Mouse Input Report Characteristic
 363:Generated_Source\PSoC4/BLE_hids.c **** *              * CYBLE_HIDS_REPORT              - Report Characteristic
 364:Generated_Source\PSoC4/BLE_hids.c **** * 
 365:Generated_Source\PSoC4/BLE_hids.c **** *  \param descrIndex: The index of the descriptor.
 366:Generated_Source\PSoC4/BLE_hids.c **** *               * CYBLE_HIDS_REPORT_CCCD - Client Characteristic Configuration descriptor
 367:Generated_Source\PSoC4/BLE_hids.c **** *               * CYBLE_HIDS_REPORT_RRD - Report Reference descriptor
 368:Generated_Source\PSoC4/BLE_hids.c **** *               * CYBLE_HIDS_REPORT_MAP_ERRD - Report Map External Report Reference descriptor
 369:Generated_Source\PSoC4/BLE_hids.c **** * 
 370:Generated_Source\PSoC4/BLE_hids.c **** *  \param attrSize: The size of the descriptor value attribute.
 371:Generated_Source\PSoC4/BLE_hids.c **** * 
 372:Generated_Source\PSoC4/BLE_hids.c **** *  \param attrValue: The pointer to the location where characteristic descriptor
 373:Generated_Source\PSoC4/BLE_hids.c **** *               value data should be stored.
ARM GAS  C:\Users\Intern\AppData\Local\Temp\ccVSLPFx.s 			page 21


 374:Generated_Source\PSoC4/BLE_hids.c **** * 
 375:Generated_Source\PSoC4/BLE_hids.c **** * \return
 376:Generated_Source\PSoC4/BLE_hids.c **** *  Return value is of type CYBLE_API_RESULT_T.
 377:Generated_Source\PSoC4/BLE_hids.c **** *  * CYBLE_ERROR_OK - The request handled successfully
 378:Generated_Source\PSoC4/BLE_hids.c **** *  * CYBLE_ERROR_INVALID_PARAMETER - Validation of the input parameter failed
 379:Generated_Source\PSoC4/BLE_hids.c **** *  * CYBLE_ERROR_GATT_DB_INVALID_ATTR_HANDLE - Optional descriptor is absent
 380:Generated_Source\PSoC4/BLE_hids.c **** *
 381:Generated_Source\PSoC4/BLE_hids.c **** *
 382:Generated_Source\PSoC4/BLE_hids.c **** ******************************************************************************/
 383:Generated_Source\PSoC4/BLE_hids.c **** CYBLE_API_RESULT_T CyBle_HidssGetCharacteristicDescriptor(uint8 serviceIndex, CYBLE_HIDS_CHAR_INDEX
 384:Generated_Source\PSoC4/BLE_hids.c ****     CYBLE_HIDS_DESCR_T descrIndex, uint8 attrSize, uint8 *attrValue)
 385:Generated_Source\PSoC4/BLE_hids.c **** {
 761              		.loc 1 385 0
 762              		.cfi_startproc
 763              		@ args = 4, pretend = 0, frame = 32
 764              		@ frame_needed = 1, uses_anonymous_args = 0
 765 0000 B0B5     		push	{r4, r5, r7, lr}
 766              		.cfi_def_cfa_offset 16
 767              		.cfi_offset 4, -16
 768              		.cfi_offset 5, -12
 769              		.cfi_offset 7, -8
 770              		.cfi_offset 14, -4
 771 0002 88B0     		sub	sp, sp, #32
 772              		.cfi_def_cfa_offset 48
 773 0004 00AF     		add	r7, sp, #0
 774              		.cfi_def_cfa_register 7
 775 0006 0500     		movs	r5, r0
 776 0008 0C00     		movs	r4, r1
 777 000a 1000     		movs	r0, r2
 778 000c 1900     		movs	r1, r3
 779 000e FB1D     		adds	r3, r7, #7
 780 0010 2A1C     		adds	r2, r5, #0
 781 0012 1A70     		strb	r2, [r3]
 782 0014 BB1D     		adds	r3, r7, #6
 783 0016 221C     		adds	r2, r4, #0
 784 0018 1A70     		strb	r2, [r3]
 785 001a 7B1D     		adds	r3, r7, #5
 786 001c 021C     		adds	r2, r0, #0
 787 001e 1A70     		strb	r2, [r3]
 788 0020 3B1D     		adds	r3, r7, #4
 789 0022 0A1C     		adds	r2, r1, #0
 790 0024 1A70     		strb	r2, [r3]
 386:Generated_Source\PSoC4/BLE_hids.c ****     CYBLE_API_RESULT_T apiResult = CYBLE_ERROR_OK;
 791              		.loc 1 386 0
 792 0026 1E23     		movs	r3, #30
 793 0028 FB18     		adds	r3, r7, r3
 794 002a 0022     		movs	r2, #0
 795 002c 1A80     		strh	r2, [r3]
 387:Generated_Source\PSoC4/BLE_hids.c ****     CYBLE_GATT_DB_ATTR_HANDLE_T locDescrHandle = CYBLE_GATT_INVALID_ATTR_HANDLE_VALUE;
 796              		.loc 1 387 0
 797 002e 1C23     		movs	r3, #28
 798 0030 FB18     		adds	r3, r7, r3
 799 0032 0022     		movs	r2, #0
 800 0034 1A80     		strh	r2, [r3]
 388:Generated_Source\PSoC4/BLE_hids.c ****     const CYBLE_HIDSS_REPORT_T *locReport;
 389:Generated_Source\PSoC4/BLE_hids.c ****     CYBLE_GATT_HANDLE_VALUE_PAIR_T locHandleValuePair;
 390:Generated_Source\PSoC4/BLE_hids.c **** 
ARM GAS  C:\Users\Intern\AppData\Local\Temp\ccVSLPFx.s 			page 22


 391:Generated_Source\PSoC4/BLE_hids.c ****     if((serviceIndex >= CYBLE_HIDSS_SERVICE_COUNT) || (descrIndex >= CYBLE_HIDS_DESCR_COUNT) ||
 801              		.loc 1 391 0
 802 0036 FB1D     		adds	r3, r7, #7
 803 0038 1B78     		ldrb	r3, [r3]
 804 003a 002B     		cmp	r3, #0
 805 003c 0FD1     		bne	.L48
 806              		.loc 1 391 0 is_stmt 0 discriminator 1
 807 003e 7B1D     		adds	r3, r7, #5
 808 0040 1B78     		ldrb	r3, [r3]
 809 0042 022B     		cmp	r3, #2
 810 0044 0BD8     		bhi	.L48
 811              		.loc 1 391 0 discriminator 2
 812 0046 BB1D     		adds	r3, r7, #6
 813 0048 1B78     		ldrb	r3, [r3]
 814 004a 072B     		cmp	r3, #7
 815 004c 07D8     		bhi	.L48
 392:Generated_Source\PSoC4/BLE_hids.c ****        (charIndex >= CYBLE_HIDS_CHAR_COUNT) || (charIndex < CYBLE_HIDS_REPORT_MAP) || 
 816              		.loc 1 392 0 is_stmt 1
 817 004e BB1D     		adds	r3, r7, #6
 818 0050 1B78     		ldrb	r3, [r3]
 819 0052 022B     		cmp	r3, #2
 820 0054 03D9     		bls	.L48
 821              		.loc 1 392 0 is_stmt 0 discriminator 1
 822 0056 BB1D     		adds	r3, r7, #6
 823 0058 1B78     		ldrb	r3, [r3]
 824 005a 052B     		cmp	r3, #5
 825 005c 04D1     		bne	.L49
 826              	.L48:
 393:Generated_Source\PSoC4/BLE_hids.c ****        (charIndex == CYBLE_HIDS_BOOT_KYBRD_OUT_REP))
 394:Generated_Source\PSoC4/BLE_hids.c ****     {
 395:Generated_Source\PSoC4/BLE_hids.c ****         apiResult = CYBLE_ERROR_INVALID_PARAMETER;
 827              		.loc 1 395 0 is_stmt 1
 828 005e 1E23     		movs	r3, #30
 829 0060 FB18     		adds	r3, r7, r3
 830 0062 0122     		movs	r2, #1
 831 0064 1A80     		strh	r2, [r3]
 832 0066 63E0     		b	.L50
 833              	.L49:
 396:Generated_Source\PSoC4/BLE_hids.c ****     }
 397:Generated_Source\PSoC4/BLE_hids.c ****     else
 398:Generated_Source\PSoC4/BLE_hids.c ****     {
 399:Generated_Source\PSoC4/BLE_hids.c ****         if(charIndex == CYBLE_HIDS_REPORT_MAP)
 834              		.loc 1 399 0
 835 0068 BB1D     		adds	r3, r7, #6
 836 006a 1B78     		ldrb	r3, [r3]
 837 006c 032B     		cmp	r3, #3
 838 006e 16D1     		bne	.L51
 400:Generated_Source\PSoC4/BLE_hids.c ****         {
 401:Generated_Source\PSoC4/BLE_hids.c ****             if(descrIndex == CYBLE_HIDS_REPORT_MAP_ERRD)
 839              		.loc 1 401 0
 840 0070 7B1D     		adds	r3, r7, #5
 841 0072 1B78     		ldrb	r3, [r3]
 842 0074 022B     		cmp	r3, #2
 843 0076 0DD1     		bne	.L52
 402:Generated_Source\PSoC4/BLE_hids.c ****             {
 403:Generated_Source\PSoC4/BLE_hids.c ****                 locDescrHandle = cyBle_hidss[serviceIndex].reportMapErrdHandle;
 844              		.loc 1 403 0
ARM GAS  C:\Users\Intern\AppData\Local\Temp\ccVSLPFx.s 			page 23


 845 0078 FB1D     		adds	r3, r7, #7
 846 007a 1A78     		ldrb	r2, [r3]
 847 007c 1C23     		movs	r3, #28
 848 007e F918     		adds	r1, r7, r3
 849 0080 4548     		ldr	r0, .L61
 850 0082 1300     		movs	r3, r2
 851 0084 9B00     		lsls	r3, r3, #2
 852 0086 9B18     		adds	r3, r3, r2
 853 0088 DB00     		lsls	r3, r3, #3
 854 008a C318     		adds	r3, r0, r3
 855 008c 2033     		adds	r3, r3, #32
 856 008e 1B88     		ldrh	r3, [r3]
 857 0090 0B80     		strh	r3, [r1]
 858 0092 4DE0     		b	.L50
 859              	.L52:
 404:Generated_Source\PSoC4/BLE_hids.c ****             }
 405:Generated_Source\PSoC4/BLE_hids.c ****             else
 406:Generated_Source\PSoC4/BLE_hids.c ****             {
 407:Generated_Source\PSoC4/BLE_hids.c ****                 apiResult = CYBLE_ERROR_INVALID_PARAMETER;
 860              		.loc 1 407 0
 861 0094 1E23     		movs	r3, #30
 862 0096 FB18     		adds	r3, r7, r3
 863 0098 0122     		movs	r2, #1
 864 009a 1A80     		strh	r2, [r3]
 865 009c 48E0     		b	.L50
 866              	.L51:
 408:Generated_Source\PSoC4/BLE_hids.c ****             }
 409:Generated_Source\PSoC4/BLE_hids.c ****         }
 410:Generated_Source\PSoC4/BLE_hids.c ****         else /* Report characteristics */
 411:Generated_Source\PSoC4/BLE_hids.c ****         {
 412:Generated_Source\PSoC4/BLE_hids.c ****             /* Get report structure */
 413:Generated_Source\PSoC4/BLE_hids.c ****             if((charIndex >= CYBLE_HIDS_BOOT_KYBRD_IN_REP) && (charIndex <= CYBLE_HIDS_BOOT_MOUSE_I
 867              		.loc 1 413 0
 868 009e BB1D     		adds	r3, r7, #6
 869 00a0 1B78     		ldrb	r3, [r3]
 870 00a2 032B     		cmp	r3, #3
 871 00a4 19D9     		bls	.L54
 872              		.loc 1 413 0 is_stmt 0 discriminator 1
 873 00a6 BB1D     		adds	r3, r7, #6
 874 00a8 1B78     		ldrb	r3, [r3]
 875 00aa 062B     		cmp	r3, #6
 876 00ac 15D8     		bhi	.L54
 414:Generated_Source\PSoC4/BLE_hids.c ****             {
 415:Generated_Source\PSoC4/BLE_hids.c ****                 locReport = &cyBle_hidss[serviceIndex].bootReportArray[charIndex - CYBLE_HIDS_BOOT_
 877              		.loc 1 415 0 is_stmt 1
 878 00ae FB1D     		adds	r3, r7, #7
 879 00b0 1978     		ldrb	r1, [r3]
 880 00b2 BB1D     		adds	r3, r7, #6
 881 00b4 1B78     		ldrb	r3, [r3]
 882 00b6 043B     		subs	r3, r3, #4
 883 00b8 1A00     		movs	r2, r3
 884 00ba 5200     		lsls	r2, r2, #1
 885 00bc D218     		adds	r2, r2, r3
 886 00be 5300     		lsls	r3, r2, #1
 887 00c0 1A00     		movs	r2, r3
 888 00c2 0B00     		movs	r3, r1
 889 00c4 9B00     		lsls	r3, r3, #2
ARM GAS  C:\Users\Intern\AppData\Local\Temp\ccVSLPFx.s 			page 24


 890 00c6 5B18     		adds	r3, r3, r1
 891 00c8 DB00     		lsls	r3, r3, #3
 892 00ca D318     		adds	r3, r2, r3
 893 00cc 0833     		adds	r3, r3, #8
 894 00ce 1A00     		movs	r2, r3
 895 00d0 314B     		ldr	r3, .L61
 896 00d2 D318     		adds	r3, r2, r3
 897 00d4 0433     		adds	r3, r3, #4
 898 00d6 BB61     		str	r3, [r7, #24]
 899 00d8 12E0     		b	.L55
 900              	.L54:
 416:Generated_Source\PSoC4/BLE_hids.c ****             }
 417:Generated_Source\PSoC4/BLE_hids.c ****             else
 418:Generated_Source\PSoC4/BLE_hids.c ****             {
 419:Generated_Source\PSoC4/BLE_hids.c ****                 locReport = &cyBle_hidss[serviceIndex].reportArray[charIndex - CYBLE_HIDS_REPORT];
 901              		.loc 1 419 0
 902 00da FB1D     		adds	r3, r7, #7
 903 00dc 1A78     		ldrb	r2, [r3]
 904 00de 2E49     		ldr	r1, .L61
 905 00e0 1300     		movs	r3, r2
 906 00e2 9B00     		lsls	r3, r3, #2
 907 00e4 9B18     		adds	r3, r3, r2
 908 00e6 DB00     		lsls	r3, r3, #3
 909 00e8 CB18     		adds	r3, r1, r3
 910 00ea 0833     		adds	r3, r3, #8
 911 00ec 1968     		ldr	r1, [r3]
 912 00ee BB1D     		adds	r3, r7, #6
 913 00f0 1A78     		ldrb	r2, [r3]
 914 00f2 1300     		movs	r3, r2
 915 00f4 5B00     		lsls	r3, r3, #1
 916 00f6 9B18     		adds	r3, r3, r2
 917 00f8 5B00     		lsls	r3, r3, #1
 918 00fa 2A3B     		subs	r3, r3, #42
 919 00fc CB18     		adds	r3, r1, r3
 920 00fe BB61     		str	r3, [r7, #24]
 921              	.L55:
 420:Generated_Source\PSoC4/BLE_hids.c ****             }
 421:Generated_Source\PSoC4/BLE_hids.c ****             /* Get descriptor handle from report structure */
 422:Generated_Source\PSoC4/BLE_hids.c ****             if(descrIndex == CYBLE_HIDS_REPORT_CCCD)
 922              		.loc 1 422 0
 923 0100 7B1D     		adds	r3, r7, #5
 924 0102 1B78     		ldrb	r3, [r3]
 925 0104 002B     		cmp	r3, #0
 926 0106 05D1     		bne	.L56
 423:Generated_Source\PSoC4/BLE_hids.c ****             {
 424:Generated_Source\PSoC4/BLE_hids.c ****                 locDescrHandle = locReport->cccdHandle;
 927              		.loc 1 424 0
 928 0108 1C23     		movs	r3, #28
 929 010a FB18     		adds	r3, r7, r3
 930 010c BA69     		ldr	r2, [r7, #24]
 931 010e 5288     		ldrh	r2, [r2, #2]
 932 0110 1A80     		strh	r2, [r3]
 933 0112 0DE0     		b	.L50
 934              	.L56:
 425:Generated_Source\PSoC4/BLE_hids.c ****             }
 426:Generated_Source\PSoC4/BLE_hids.c ****             else if(descrIndex == CYBLE_HIDS_REPORT_RRD)
 935              		.loc 1 426 0
ARM GAS  C:\Users\Intern\AppData\Local\Temp\ccVSLPFx.s 			page 25


 936 0114 7B1D     		adds	r3, r7, #5
 937 0116 1B78     		ldrb	r3, [r3]
 938 0118 012B     		cmp	r3, #1
 939 011a 05D1     		bne	.L57
 427:Generated_Source\PSoC4/BLE_hids.c ****             {
 428:Generated_Source\PSoC4/BLE_hids.c ****                 locDescrHandle = locReport->rrdHandle;
 940              		.loc 1 428 0
 941 011c 1C23     		movs	r3, #28
 942 011e FB18     		adds	r3, r7, r3
 943 0120 BA69     		ldr	r2, [r7, #24]
 944 0122 9288     		ldrh	r2, [r2, #4]
 945 0124 1A80     		strh	r2, [r3]
 946 0126 03E0     		b	.L50
 947              	.L57:
 429:Generated_Source\PSoC4/BLE_hids.c ****             }
 430:Generated_Source\PSoC4/BLE_hids.c ****             else /* External Report Reference descriptor doesn't exist for report characteristic */
 431:Generated_Source\PSoC4/BLE_hids.c ****             {
 432:Generated_Source\PSoC4/BLE_hids.c ****                 apiResult = CYBLE_ERROR_INVALID_PARAMETER;
 948              		.loc 1 432 0
 949 0128 1E23     		movs	r3, #30
 950 012a FB18     		adds	r3, r7, r3
 951 012c 0122     		movs	r2, #1
 952 012e 1A80     		strh	r2, [r3]
 953              	.L50:
 433:Generated_Source\PSoC4/BLE_hids.c ****             }
 434:Generated_Source\PSoC4/BLE_hids.c ****         }
 435:Generated_Source\PSoC4/BLE_hids.c ****     }
 436:Generated_Source\PSoC4/BLE_hids.c ****     if(apiResult != CYBLE_ERROR_INVALID_PARAMETER)
 954              		.loc 1 436 0
 955 0130 1E23     		movs	r3, #30
 956 0132 FB18     		adds	r3, r7, r3
 957 0134 1B88     		ldrh	r3, [r3]
 958 0136 012B     		cmp	r3, #1
 959 0138 26D0     		beq	.L58
 437:Generated_Source\PSoC4/BLE_hids.c ****     {
 438:Generated_Source\PSoC4/BLE_hids.c ****         if(locDescrHandle == CYBLE_GATT_INVALID_ATTR_HANDLE_VALUE)
 960              		.loc 1 438 0
 961 013a 1C23     		movs	r3, #28
 962 013c FB18     		adds	r3, r7, r3
 963 013e 1B88     		ldrh	r3, [r3]
 964 0140 002B     		cmp	r3, #0
 965 0142 04D1     		bne	.L59
 439:Generated_Source\PSoC4/BLE_hids.c ****         {
 440:Generated_Source\PSoC4/BLE_hids.c ****             apiResult = CYBLE_ERROR_GATT_DB_INVALID_ATTR_HANDLE;
 966              		.loc 1 440 0
 967 0144 1E23     		movs	r3, #30
 968 0146 FB18     		adds	r3, r7, r3
 969 0148 1322     		movs	r2, #19
 970 014a 1A80     		strh	r2, [r3]
 971 014c 1CE0     		b	.L58
 972              	.L59:
 441:Generated_Source\PSoC4/BLE_hids.c ****         }
 442:Generated_Source\PSoC4/BLE_hids.c ****         else
 443:Generated_Source\PSoC4/BLE_hids.c ****         {
 444:Generated_Source\PSoC4/BLE_hids.c ****             /* Read value from database */
 445:Generated_Source\PSoC4/BLE_hids.c ****             locHandleValuePair.attrHandle = locDescrHandle;
 973              		.loc 1 445 0
ARM GAS  C:\Users\Intern\AppData\Local\Temp\ccVSLPFx.s 			page 26


 974 014e 0C23     		movs	r3, #12
 975 0150 FB18     		adds	r3, r7, r3
 976 0152 1C22     		movs	r2, #28
 977 0154 BA18     		adds	r2, r7, r2
 978 0156 1288     		ldrh	r2, [r2]
 979 0158 1A81     		strh	r2, [r3, #8]
 446:Generated_Source\PSoC4/BLE_hids.c ****             locHandleValuePair.value.len = attrSize;
 980              		.loc 1 446 0
 981 015a 3B1D     		adds	r3, r7, #4
 982 015c 1B78     		ldrb	r3, [r3]
 983 015e 9AB2     		uxth	r2, r3
 984 0160 0C23     		movs	r3, #12
 985 0162 FB18     		adds	r3, r7, r3
 986 0164 9A80     		strh	r2, [r3, #4]
 447:Generated_Source\PSoC4/BLE_hids.c ****             locHandleValuePair.value.val = attrValue;
 987              		.loc 1 447 0
 988 0166 0C23     		movs	r3, #12
 989 0168 FB18     		adds	r3, r7, r3
 990 016a 3A6B     		ldr	r2, [r7, #48]
 991 016c 1A60     		str	r2, [r3]
 448:Generated_Source\PSoC4/BLE_hids.c ****             if(CYBLE_GATT_ERR_NONE !=
 449:Generated_Source\PSoC4/BLE_hids.c ****                 CyBle_GattsReadAttributeValue(&locHandleValuePair, NULL, CYBLE_GATT_DB_LOCALLY_INIT
 992              		.loc 1 449 0
 993 016e 0C23     		movs	r3, #12
 994 0170 FB18     		adds	r3, r7, r3
 995 0172 0022     		movs	r2, #0
 996 0174 0021     		movs	r1, #0
 997 0176 1800     		movs	r0, r3
 998 0178 FFF7FEFF 		bl	CyBle_GattsReadAttributeValue
 999 017c 031E     		subs	r3, r0, #0
 448:Generated_Source\PSoC4/BLE_hids.c ****             if(CYBLE_GATT_ERR_NONE !=
 1000              		.loc 1 448 0
 1001 017e 03D0     		beq	.L58
 450:Generated_Source\PSoC4/BLE_hids.c ****             {
 451:Generated_Source\PSoC4/BLE_hids.c ****                 apiResult = CYBLE_ERROR_INVALID_PARAMETER;
 1002              		.loc 1 451 0
 1003 0180 1E23     		movs	r3, #30
 1004 0182 FB18     		adds	r3, r7, r3
 1005 0184 0122     		movs	r2, #1
 1006 0186 1A80     		strh	r2, [r3]
 1007              	.L58:
 452:Generated_Source\PSoC4/BLE_hids.c ****             }
 453:Generated_Source\PSoC4/BLE_hids.c ****         }
 454:Generated_Source\PSoC4/BLE_hids.c ****     }
 455:Generated_Source\PSoC4/BLE_hids.c ****     return (apiResult);
 1008              		.loc 1 455 0
 1009 0188 1E23     		movs	r3, #30
 1010 018a FB18     		adds	r3, r7, r3
 1011 018c 1B88     		ldrh	r3, [r3]
 456:Generated_Source\PSoC4/BLE_hids.c **** }
 1012              		.loc 1 456 0
 1013 018e 1800     		movs	r0, r3
 1014 0190 BD46     		mov	sp, r7
 1015 0192 08B0     		add	sp, sp, #32
 1016              		@ sp needed
 1017 0194 B0BD     		pop	{r4, r5, r7, pc}
 1018              	.L62:
ARM GAS  C:\Users\Intern\AppData\Local\Temp\ccVSLPFx.s 			page 27


 1019 0196 C046     		.align	2
 1020              	.L61:
 1021 0198 00000000 		.word	cyBle_hidss
 1022              		.cfi_endproc
 1023              	.LFE6:
 1024              		.size	CyBle_HidssGetCharacteristicDescriptor, .-CyBle_HidssGetCharacteristicDescriptor
 1025              		.section	.text.CyBle_HidssCccdWriteEventHandler,"ax",%progbits
 1026              		.align	2
 1027              		.code	16
 1028              		.thumb_func
 1029              		.type	CyBle_HidssCccdWriteEventHandler, %function
 1030              	CyBle_HidssCccdWriteEventHandler:
 1031              	.LFB7:
 457:Generated_Source\PSoC4/BLE_hids.c **** 
 458:Generated_Source\PSoC4/BLE_hids.c **** 
 459:Generated_Source\PSoC4/BLE_hids.c **** /****************************************************************************** 
 460:Generated_Source\PSoC4/BLE_hids.c **** * Function Name: CyBle_HidssCccdWriteEventHandler
 461:Generated_Source\PSoC4/BLE_hids.c **** ***************************************************************************//**
 462:Generated_Source\PSoC4/BLE_hids.c **** * 
 463:Generated_Source\PSoC4/BLE_hids.c **** *  Handles the Write Request Event of the Client Characteristic Configuration
 464:Generated_Source\PSoC4/BLE_hids.c **** *  descriptor.
 465:Generated_Source\PSoC4/BLE_hids.c **** * 
 466:Generated_Source\PSoC4/BLE_hids.c **** *  \param serviceIndex: The index of the service instance.
 467:Generated_Source\PSoC4/BLE_hids.c **** *  \param charIndex: The index of the characteristic.
 468:Generated_Source\PSoC4/BLE_hids.c **** *  \param eventParam: The pointer to the data structure specified by the event.
 469:Generated_Source\PSoC4/BLE_hids.c **** * 
 470:Generated_Source\PSoC4/BLE_hids.c **** * \return
 471:Generated_Source\PSoC4/BLE_hids.c **** *  uint32 eventCode: The event code to be send to application.
 472:Generated_Source\PSoC4/BLE_hids.c **** * 
 473:Generated_Source\PSoC4/BLE_hids.c **** ******************************************************************************/
 474:Generated_Source\PSoC4/BLE_hids.c **** static uint32 CyBle_HidssCccdWriteEventHandler(uint8 serviceIndex, const CYBLE_GATTS_WRITE_REQ_PARA
 475:Generated_Source\PSoC4/BLE_hids.c **** {
 1032              		.loc 1 475 0
 1033              		.cfi_startproc
 1034              		@ args = 0, pretend = 0, frame = 16
 1035              		@ frame_needed = 1, uses_anonymous_args = 0
 1036 0000 80B5     		push	{r7, lr}
 1037              		.cfi_def_cfa_offset 8
 1038              		.cfi_offset 7, -8
 1039              		.cfi_offset 14, -4
 1040 0002 84B0     		sub	sp, sp, #16
 1041              		.cfi_def_cfa_offset 24
 1042 0004 00AF     		add	r7, sp, #0
 1043              		.cfi_def_cfa_register 7
 1044 0006 0200     		movs	r2, r0
 1045 0008 3960     		str	r1, [r7]
 1046 000a FB1D     		adds	r3, r7, #7
 1047 000c 1A70     		strb	r2, [r3]
 476:Generated_Source\PSoC4/BLE_hids.c ****     uint32 eventCode;
 477:Generated_Source\PSoC4/BLE_hids.c **** 
 478:Generated_Source\PSoC4/BLE_hids.c ****     if(CYBLE_IS_NOTIFICATION_ENABLED_IN_PTR(eventParam->handleValPair.value.val))
 1048              		.loc 1 478 0
 1049 000e 3B68     		ldr	r3, [r7]
 1050 0010 5B68     		ldr	r3, [r3, #4]
 1051 0012 1800     		movs	r0, r3
 1052 0014 FFF7FEFF 		bl	CyBle_Get16ByPtr
 1053 0018 0300     		movs	r3, r0
ARM GAS  C:\Users\Intern\AppData\Local\Temp\ccVSLPFx.s 			page 28


 1054 001a 1A00     		movs	r2, r3
 1055 001c 0123     		movs	r3, #1
 1056 001e 1340     		ands	r3, r2
 1057 0020 9BB2     		uxth	r3, r3
 1058 0022 002B     		cmp	r3, #0
 1059 0024 03D0     		beq	.L64
 479:Generated_Source\PSoC4/BLE_hids.c ****     {
 480:Generated_Source\PSoC4/BLE_hids.c ****         eventCode = (uint32)CYBLE_EVT_HIDSS_NOTIFICATION_ENABLED;
 1060              		.loc 1 480 0
 1061 0026 9623     		movs	r3, #150
 1062 0028 FF33     		adds	r3, r3, #255
 1063 002a FB60     		str	r3, [r7, #12]
 1064 002c 02E0     		b	.L65
 1065              	.L64:
 481:Generated_Source\PSoC4/BLE_hids.c ****     }
 482:Generated_Source\PSoC4/BLE_hids.c ****     else
 483:Generated_Source\PSoC4/BLE_hids.c ****     {
 484:Generated_Source\PSoC4/BLE_hids.c ****         eventCode = (uint32)CYBLE_EVT_HIDSS_NOTIFICATION_DISABLED;
 1066              		.loc 1 484 0
 1067 002e CB23     		movs	r3, #203
 1068 0030 5B00     		lsls	r3, r3, #1
 1069 0032 FB60     		str	r3, [r7, #12]
 1070              	.L65:
 485:Generated_Source\PSoC4/BLE_hids.c ****     }
 486:Generated_Source\PSoC4/BLE_hids.c ****     cyBle_eventHandlerFlag &= (uint8)~CYBLE_CALLBACK;
 1071              		.loc 1 486 0
 1072 0034 0B4B     		ldr	r3, .L68
 1073 0036 1B78     		ldrb	r3, [r3]
 1074 0038 DBB2     		uxtb	r3, r3
 1075 003a 0122     		movs	r2, #1
 1076 003c 9343     		bics	r3, r2
 1077 003e DAB2     		uxtb	r2, r3
 1078 0040 084B     		ldr	r3, .L68
 1079 0042 1A70     		strb	r2, [r3]
 487:Generated_Source\PSoC4/BLE_hids.c ****     
 488:Generated_Source\PSoC4/BLE_hids.c **** #if((CYBLE_GAP_ROLE_PERIPHERAL || CYBLE_GAP_ROLE_CENTRAL) && (CYBLE_BONDING_REQUIREMENT == CYBLE_BO
 489:Generated_Source\PSoC4/BLE_hids.c ****     /* Set flag to store bonding data to flash */
 490:Generated_Source\PSoC4/BLE_hids.c ****     if(cyBle_peerBonding == CYBLE_GAP_BONDING)
 1080              		.loc 1 490 0
 1081 0044 084B     		ldr	r3, .L68+4
 1082 0046 1B78     		ldrb	r3, [r3]
 1083 0048 012B     		cmp	r3, #1
 1084 004a 06D1     		bne	.L66
 491:Generated_Source\PSoC4/BLE_hids.c ****     {
 492:Generated_Source\PSoC4/BLE_hids.c ****         cyBle_pendingFlashWrite |= CYBLE_PENDING_CCCD_FLASH_WRITE_BIT;
 1085              		.loc 1 492 0
 1086 004c 074B     		ldr	r3, .L68+8
 1087 004e 1B78     		ldrb	r3, [r3]
 1088 0050 0222     		movs	r2, #2
 1089 0052 1343     		orrs	r3, r2
 1090 0054 DAB2     		uxtb	r2, r3
 1091 0056 054B     		ldr	r3, .L68+8
 1092 0058 1A70     		strb	r2, [r3]
 1093              	.L66:
 493:Generated_Source\PSoC4/BLE_hids.c ****     }
 494:Generated_Source\PSoC4/BLE_hids.c **** #endif /* (CYBLE_BONDING_REQUIREMENT == CYBLE_BONDING_YES) */
 495:Generated_Source\PSoC4/BLE_hids.c **** 
ARM GAS  C:\Users\Intern\AppData\Local\Temp\ccVSLPFx.s 			page 29


 496:Generated_Source\PSoC4/BLE_hids.c ****     return(eventCode);
 1094              		.loc 1 496 0
 1095 005a FB68     		ldr	r3, [r7, #12]
 497:Generated_Source\PSoC4/BLE_hids.c **** }
 1096              		.loc 1 497 0
 1097 005c 1800     		movs	r0, r3
 1098 005e BD46     		mov	sp, r7
 1099 0060 04B0     		add	sp, sp, #16
 1100              		@ sp needed
 1101 0062 80BD     		pop	{r7, pc}
 1102              	.L69:
 1103              		.align	2
 1104              	.L68:
 1105 0064 00000000 		.word	cyBle_eventHandlerFlag
 1106 0068 00000000 		.word	cyBle_peerBonding
 1107 006c 00000000 		.word	cyBle_pendingFlashWrite
 1108              		.cfi_endproc
 1109              	.LFE7:
 1110              		.size	CyBle_HidssCccdWriteEventHandler, .-CyBle_HidssCccdWriteEventHandler
 1111              		.section	.text.CyBle_HidssWriteEventHandler,"ax",%progbits
 1112              		.align	2
 1113              		.global	CyBle_HidssWriteEventHandler
 1114              		.code	16
 1115              		.thumb_func
 1116              		.type	CyBle_HidssWriteEventHandler, %function
 1117              	CyBle_HidssWriteEventHandler:
 1118              	.LFB8:
 498:Generated_Source\PSoC4/BLE_hids.c **** 
 499:Generated_Source\PSoC4/BLE_hids.c **** 
 500:Generated_Source\PSoC4/BLE_hids.c **** /****************************************************************************** 
 501:Generated_Source\PSoC4/BLE_hids.c **** * Function Name: CyBle_HidssWriteEventHandler
 502:Generated_Source\PSoC4/BLE_hids.c **** ***************************************************************************//**
 503:Generated_Source\PSoC4/BLE_hids.c **** * 
 504:Generated_Source\PSoC4/BLE_hids.c **** *  Handles the Write Request Event.
 505:Generated_Source\PSoC4/BLE_hids.c **** * 
 506:Generated_Source\PSoC4/BLE_hids.c **** *  \param eventParam: The pointer to the data structure specified by the event.
 507:Generated_Source\PSoC4/BLE_hids.c **** * 
 508:Generated_Source\PSoC4/BLE_hids.c **** * \return
 509:Generated_Source\PSoC4/BLE_hids.c **** *  Return value is of type CYBLE_GATT_ERR_CODE_T.
 510:Generated_Source\PSoC4/BLE_hids.c **** *   * CYBLE_GATT_ERR_NONE - Write is successful.
 511:Generated_Source\PSoC4/BLE_hids.c **** * 
 512:Generated_Source\PSoC4/BLE_hids.c **** ******************************************************************************/
 513:Generated_Source\PSoC4/BLE_hids.c **** CYBLE_GATT_ERR_CODE_T CyBle_HidssWriteEventHandler(CYBLE_GATTS_WRITE_REQ_PARAM_T *eventParam)
 514:Generated_Source\PSoC4/BLE_hids.c **** {
 1119              		.loc 1 514 0
 1120              		.cfi_startproc
 1121              		@ args = 0, pretend = 0, frame = 32
 1122              		@ frame_needed = 1, uses_anonymous_args = 0
 1123 0000 90B5     		push	{r4, r7, lr}
 1124              		.cfi_def_cfa_offset 12
 1125              		.cfi_offset 4, -12
 1126              		.cfi_offset 7, -8
 1127              		.cfi_offset 14, -4
 1128 0002 89B0     		sub	sp, sp, #36
 1129              		.cfi_def_cfa_offset 48
 1130 0004 00AF     		add	r7, sp, #0
 1131              		.cfi_def_cfa_register 7
ARM GAS  C:\Users\Intern\AppData\Local\Temp\ccVSLPFx.s 			page 30


 1132 0006 7860     		str	r0, [r7, #4]
 515:Generated_Source\PSoC4/BLE_hids.c ****     CYBLE_GATT_ERR_CODE_T gattErr = CYBLE_GATT_ERR_NONE;
 1133              		.loc 1 515 0
 1134 0008 1F23     		movs	r3, #31
 1135 000a FB18     		adds	r3, r7, r3
 1136 000c 0022     		movs	r2, #0
 1137 000e 1A70     		strb	r2, [r3]
 516:Generated_Source\PSoC4/BLE_hids.c ****     uint8 locServIndex = 0u;
 1138              		.loc 1 516 0
 1139 0010 1E23     		movs	r3, #30
 1140 0012 FB18     		adds	r3, r7, r3
 1141 0014 0022     		movs	r2, #0
 1142 0016 1A70     		strb	r2, [r3]
 517:Generated_Source\PSoC4/BLE_hids.c ****     uint8 reportIndex;
 518:Generated_Source\PSoC4/BLE_hids.c ****     CYBLE_HIDS_CHAR_INDEX_T locCharIndex;
 519:Generated_Source\PSoC4/BLE_hids.c ****     CYBLE_HIDS_CHAR_VALUE_T locCharValue;
 520:Generated_Source\PSoC4/BLE_hids.c ****     uint32 eventCode = 0u;
 1143              		.loc 1 520 0
 1144 0018 0023     		movs	r3, #0
 1145 001a BB61     		str	r3, [r7, #24]
 521:Generated_Source\PSoC4/BLE_hids.c **** 
 522:Generated_Source\PSoC4/BLE_hids.c ****     if(NULL != CyBle_HidsApplCallback)
 1146              		.loc 1 522 0
 1147 001c 9C4B     		ldr	r3, .L97
 1148 001e 1B68     		ldr	r3, [r3]
 1149 0020 002B     		cmp	r3, #0
 1150 0022 00D1     		bne	.LCB1010
 1151 0024 EAE1     		b	.L71	@long jump
 1152              	.LCB1010:
 523:Generated_Source\PSoC4/BLE_hids.c ****     {
 524:Generated_Source\PSoC4/BLE_hids.c ****         locCharValue.connHandle = eventParam->connHandle;
 1153              		.loc 1 524 0
 1154 0026 0C23     		movs	r3, #12
 1155 0028 FB18     		adds	r3, r7, r3
 1156 002a 7A68     		ldr	r2, [r7, #4]
 1157 002c 1288     		ldrh	r2, [r2]
 1158 002e 1A80     		strh	r2, [r3]
 525:Generated_Source\PSoC4/BLE_hids.c ****         locCharValue.value = NULL;
 1159              		.loc 1 525 0
 1160 0030 0C23     		movs	r3, #12
 1161 0032 FB18     		adds	r3, r7, r3
 1162 0034 0022     		movs	r2, #0
 1163 0036 5A60     		str	r2, [r3, #4]
 1164              	.L94:
 526:Generated_Source\PSoC4/BLE_hids.c ****         do
 527:Generated_Source\PSoC4/BLE_hids.c ****         {
 528:Generated_Source\PSoC4/BLE_hids.c ****             locCharValue.serviceIndex = locServIndex;
 1165              		.loc 1 528 0
 1166 0038 0C23     		movs	r3, #12
 1167 003a FB18     		adds	r3, r7, r3
 1168 003c 1E22     		movs	r2, #30
 1169 003e BA18     		adds	r2, r7, r2
 1170 0040 1278     		ldrb	r2, [r2]
 1171 0042 9A70     		strb	r2, [r3, #2]
 529:Generated_Source\PSoC4/BLE_hids.c ****             /* Protocol Mode characteristic write request */
 530:Generated_Source\PSoC4/BLE_hids.c ****             if(eventParam->handleValPair.attrHandle == cyBle_hidss[locServIndex].protocolModeHandle
 1172              		.loc 1 530 0
ARM GAS  C:\Users\Intern\AppData\Local\Temp\ccVSLPFx.s 			page 31


 1173 0044 7B68     		ldr	r3, [r7, #4]
 1174 0046 9989     		ldrh	r1, [r3, #12]
 1175 0048 1E23     		movs	r3, #30
 1176 004a FB18     		adds	r3, r7, r3
 1177 004c 1A78     		ldrb	r2, [r3]
 1178 004e 9148     		ldr	r0, .L97+4
 1179 0050 1300     		movs	r3, r2
 1180 0052 9B00     		lsls	r3, r3, #2
 1181 0054 9B18     		adds	r3, r3, r2
 1182 0056 DB00     		lsls	r3, r3, #3
 1183 0058 C318     		adds	r3, r0, r3
 1184 005a 0233     		adds	r3, r3, #2
 1185 005c 1B88     		ldrh	r3, [r3]
 1186 005e 9942     		cmp	r1, r3
 1187 0060 28D1     		bne	.L72
 531:Generated_Source\PSoC4/BLE_hids.c ****             {
 532:Generated_Source\PSoC4/BLE_hids.c ****                 locCharValue.charIndex = CYBLE_HIDS_PROTOCOL_MODE;
 1188              		.loc 1 532 0
 1189 0062 0C23     		movs	r3, #12
 1190 0064 FB18     		adds	r3, r7, r3
 1191 0066 0022     		movs	r2, #0
 1192 0068 DA70     		strb	r2, [r3, #3]
 533:Generated_Source\PSoC4/BLE_hids.c ****                 if(eventParam->handleValPair.value.len == CYBLE_HIDS_PM_CHAR_LEN)
 1193              		.loc 1 533 0
 1194 006a 7B68     		ldr	r3, [r7, #4]
 1195 006c 1B89     		ldrh	r3, [r3, #8]
 1196 006e 012B     		cmp	r3, #1
 1197 0070 00D0     		beq	.LCB1050
 1198 0072 95E1     		b	.L77	@long jump
 1199              	.LCB1050:
 534:Generated_Source\PSoC4/BLE_hids.c ****                 {
 535:Generated_Source\PSoC4/BLE_hids.c ****                     switch(eventParam->handleValPair.value.val[0u])
 1200              		.loc 1 535 0
 1201 0074 7B68     		ldr	r3, [r7, #4]
 1202 0076 5B68     		ldr	r3, [r3, #4]
 1203 0078 1B78     		ldrb	r3, [r3]
 1204 007a 002B     		cmp	r3, #0
 1205 007c 02D0     		beq	.L75
 1206 007e 012B     		cmp	r3, #1
 1207 0080 0CD0     		beq	.L76
 536:Generated_Source\PSoC4/BLE_hids.c ****                     {
 537:Generated_Source\PSoC4/BLE_hids.c ****                         case CYBLE_HIDS_PROTOCOL_MODE_BOOT:
 538:Generated_Source\PSoC4/BLE_hids.c ****                             eventCode = (uint32)CYBLE_EVT_HIDSS_BOOT_MODE_ENTER;
 539:Generated_Source\PSoC4/BLE_hids.c ****                             cyBle_eventHandlerFlag &= (uint8)~CYBLE_CALLBACK;
 540:Generated_Source\PSoC4/BLE_hids.c ****                             break;
 541:Generated_Source\PSoC4/BLE_hids.c ****                         case CYBLE_HIDS_PROTOCOL_MODE_REPORT:
 542:Generated_Source\PSoC4/BLE_hids.c ****                             eventCode = (uint32)CYBLE_EVT_HIDSS_REPORT_MODE_ENTER;
 543:Generated_Source\PSoC4/BLE_hids.c ****                             cyBle_eventHandlerFlag &= (uint8)~CYBLE_CALLBACK;
 544:Generated_Source\PSoC4/BLE_hids.c ****                             break;
 545:Generated_Source\PSoC4/BLE_hids.c ****                         default:    /* Reserved for Future Use. */
 546:Generated_Source\PSoC4/BLE_hids.c ****                             break;
 1208              		.loc 1 546 0
 1209 0082 8DE1     		b	.L77
 1210              	.L75:
 538:Generated_Source\PSoC4/BLE_hids.c ****                             cyBle_eventHandlerFlag &= (uint8)~CYBLE_CALLBACK;
 1211              		.loc 1 538 0
 1212 0084 9823     		movs	r3, #152
ARM GAS  C:\Users\Intern\AppData\Local\Temp\ccVSLPFx.s 			page 32


 1213 0086 FF33     		adds	r3, r3, #255
 1214 0088 BB61     		str	r3, [r7, #24]
 539:Generated_Source\PSoC4/BLE_hids.c ****                             break;
 1215              		.loc 1 539 0
 1216 008a 834B     		ldr	r3, .L97+8
 1217 008c 1B78     		ldrb	r3, [r3]
 1218 008e DBB2     		uxtb	r3, r3
 1219 0090 0122     		movs	r2, #1
 1220 0092 9343     		bics	r3, r2
 1221 0094 DAB2     		uxtb	r2, r3
 1222 0096 804B     		ldr	r3, .L97+8
 1223 0098 1A70     		strb	r2, [r3]
 540:Generated_Source\PSoC4/BLE_hids.c ****                         case CYBLE_HIDS_PROTOCOL_MODE_REPORT:
 1224              		.loc 1 540 0
 1225 009a 81E1     		b	.L77
 1226              	.L76:
 542:Generated_Source\PSoC4/BLE_hids.c ****                             cyBle_eventHandlerFlag &= (uint8)~CYBLE_CALLBACK;
 1227              		.loc 1 542 0
 1228 009c CC23     		movs	r3, #204
 1229 009e 5B00     		lsls	r3, r3, #1
 1230 00a0 BB61     		str	r3, [r7, #24]
 543:Generated_Source\PSoC4/BLE_hids.c ****                             break;
 1231              		.loc 1 543 0
 1232 00a2 7D4B     		ldr	r3, .L97+8
 1233 00a4 1B78     		ldrb	r3, [r3]
 1234 00a6 DBB2     		uxtb	r3, r3
 1235 00a8 0122     		movs	r2, #1
 1236 00aa 9343     		bics	r3, r2
 1237 00ac DAB2     		uxtb	r2, r3
 1238 00ae 7A4B     		ldr	r3, .L97+8
 1239 00b0 1A70     		strb	r2, [r3]
 544:Generated_Source\PSoC4/BLE_hids.c ****                         default:    /* Reserved for Future Use. */
 1240              		.loc 1 544 0
 1241 00b2 75E1     		b	.L77
 1242              	.L72:
 547:Generated_Source\PSoC4/BLE_hids.c ****                     }
 548:Generated_Source\PSoC4/BLE_hids.c ****                 }
 549:Generated_Source\PSoC4/BLE_hids.c ****             }
 550:Generated_Source\PSoC4/BLE_hids.c ****             /* Control Point characteristic write request */
 551:Generated_Source\PSoC4/BLE_hids.c ****             else if(eventParam->handleValPair.attrHandle == cyBle_hidss[locServIndex].controlPointH
 1243              		.loc 1 551 0
 1244 00b4 7B68     		ldr	r3, [r7, #4]
 1245 00b6 9989     		ldrh	r1, [r3, #12]
 1246 00b8 1E23     		movs	r3, #30
 1247 00ba FB18     		adds	r3, r7, r3
 1248 00bc 1A78     		ldrb	r2, [r3]
 1249 00be 7548     		ldr	r0, .L97+4
 1250 00c0 1300     		movs	r3, r2
 1251 00c2 9B00     		lsls	r3, r3, #2
 1252 00c4 9B18     		adds	r3, r3, r2
 1253 00c6 DB00     		lsls	r3, r3, #3
 1254 00c8 C318     		adds	r3, r0, r3
 1255 00ca 2433     		adds	r3, r3, #36
 1256 00cc 1B88     		ldrh	r3, [r3]
 1257 00ce 9942     		cmp	r1, r3
 1258 00d0 28D1     		bne	.L78
 552:Generated_Source\PSoC4/BLE_hids.c ****             {
ARM GAS  C:\Users\Intern\AppData\Local\Temp\ccVSLPFx.s 			page 33


 553:Generated_Source\PSoC4/BLE_hids.c ****                 locCharValue.charIndex = CYBLE_HIDS_CONTROL_POINT;
 1259              		.loc 1 553 0
 1260 00d2 0C23     		movs	r3, #12
 1261 00d4 FB18     		adds	r3, r7, r3
 1262 00d6 0222     		movs	r2, #2
 1263 00d8 DA70     		strb	r2, [r3, #3]
 554:Generated_Source\PSoC4/BLE_hids.c ****                 if(eventParam->handleValPair.value.len == CYBLE_HIDS_CP_CHAR_LEN)
 1264              		.loc 1 554 0
 1265 00da 7B68     		ldr	r3, [r7, #4]
 1266 00dc 1B89     		ldrh	r3, [r3, #8]
 1267 00de 012B     		cmp	r3, #1
 1268 00e0 00D0     		beq	.LCB1114
 1269 00e2 5DE1     		b	.L77	@long jump
 1270              	.LCB1114:
 555:Generated_Source\PSoC4/BLE_hids.c ****                 {
 556:Generated_Source\PSoC4/BLE_hids.c ****                     switch(eventParam->handleValPair.value.val[0u])
 1271              		.loc 1 556 0
 1272 00e4 7B68     		ldr	r3, [r7, #4]
 1273 00e6 5B68     		ldr	r3, [r3, #4]
 1274 00e8 1B78     		ldrb	r3, [r3]
 1275 00ea 002B     		cmp	r3, #0
 1276 00ec 02D0     		beq	.L81
 1277 00ee 012B     		cmp	r3, #1
 1278 00f0 0CD0     		beq	.L82
 557:Generated_Source\PSoC4/BLE_hids.c ****                     {
 558:Generated_Source\PSoC4/BLE_hids.c ****                         case CYBLE_HIDS_CP_SUSPEND:
 559:Generated_Source\PSoC4/BLE_hids.c ****                             eventCode = (uint32)CYBLE_EVT_HIDSS_SUSPEND;
 560:Generated_Source\PSoC4/BLE_hids.c ****                             cyBle_eventHandlerFlag &= (uint8)~CYBLE_CALLBACK;
 561:Generated_Source\PSoC4/BLE_hids.c ****                             break;
 562:Generated_Source\PSoC4/BLE_hids.c ****                         case CYBLE_HIDS_CP_EXIT_SUSPEND:
 563:Generated_Source\PSoC4/BLE_hids.c ****                             eventCode = (uint32)CYBLE_EVT_HIDSS_EXIT_SUSPEND;
 564:Generated_Source\PSoC4/BLE_hids.c ****                             cyBle_eventHandlerFlag &= (uint8)~CYBLE_CALLBACK;
 565:Generated_Source\PSoC4/BLE_hids.c ****                             break;
 566:Generated_Source\PSoC4/BLE_hids.c ****                         default:    /* Reserved for Future Use. */
 567:Generated_Source\PSoC4/BLE_hids.c ****                             break;
 1279              		.loc 1 567 0
 1280 00f2 55E1     		b	.L77
 1281              	.L81:
 559:Generated_Source\PSoC4/BLE_hids.c ****                             cyBle_eventHandlerFlag &= (uint8)~CYBLE_CALLBACK;
 1282              		.loc 1 559 0
 1283 00f4 9A23     		movs	r3, #154
 1284 00f6 FF33     		adds	r3, r3, #255
 1285 00f8 BB61     		str	r3, [r7, #24]
 560:Generated_Source\PSoC4/BLE_hids.c ****                             break;
 1286              		.loc 1 560 0
 1287 00fa 674B     		ldr	r3, .L97+8
 1288 00fc 1B78     		ldrb	r3, [r3]
 1289 00fe DBB2     		uxtb	r3, r3
 1290 0100 0122     		movs	r2, #1
 1291 0102 9343     		bics	r3, r2
 1292 0104 DAB2     		uxtb	r2, r3
 1293 0106 644B     		ldr	r3, .L97+8
 1294 0108 1A70     		strb	r2, [r3]
 561:Generated_Source\PSoC4/BLE_hids.c ****                         case CYBLE_HIDS_CP_EXIT_SUSPEND:
 1295              		.loc 1 561 0
 1296 010a 49E1     		b	.L77
 1297              	.L82:
ARM GAS  C:\Users\Intern\AppData\Local\Temp\ccVSLPFx.s 			page 34


 563:Generated_Source\PSoC4/BLE_hids.c ****                             cyBle_eventHandlerFlag &= (uint8)~CYBLE_CALLBACK;
 1298              		.loc 1 563 0
 1299 010c CD23     		movs	r3, #205
 1300 010e 5B00     		lsls	r3, r3, #1
 1301 0110 BB61     		str	r3, [r7, #24]
 564:Generated_Source\PSoC4/BLE_hids.c ****                             break;
 1302              		.loc 1 564 0
 1303 0112 614B     		ldr	r3, .L97+8
 1304 0114 1B78     		ldrb	r3, [r3]
 1305 0116 DBB2     		uxtb	r3, r3
 1306 0118 0122     		movs	r2, #1
 1307 011a 9343     		bics	r3, r2
 1308 011c DAB2     		uxtb	r2, r3
 1309 011e 5E4B     		ldr	r3, .L97+8
 1310 0120 1A70     		strb	r2, [r3]
 565:Generated_Source\PSoC4/BLE_hids.c ****                         default:    /* Reserved for Future Use. */
 1311              		.loc 1 565 0
 1312 0122 3DE1     		b	.L77
 1313              	.L78:
 568:Generated_Source\PSoC4/BLE_hids.c ****                     }
 569:Generated_Source\PSoC4/BLE_hids.c ****                 }
 570:Generated_Source\PSoC4/BLE_hids.c ****             }
 571:Generated_Source\PSoC4/BLE_hids.c ****             else if(eventParam->handleValPair.attrHandle ==
 1314              		.loc 1 571 0
 1315 0124 7B68     		ldr	r3, [r7, #4]
 1316 0126 9989     		ldrh	r1, [r3, #12]
 572:Generated_Source\PSoC4/BLE_hids.c ****                         cyBle_hidss[locServIndex].bootReportArray[CYBLE_HIDS_BOOT_KYBRD_IN_REP_INDX
 1317              		.loc 1 572 0
 1318 0128 1E23     		movs	r3, #30
 1319 012a FB18     		adds	r3, r7, r3
 1320 012c 1A78     		ldrb	r2, [r3]
 1321 012e 5948     		ldr	r0, .L97+4
 1322 0130 1300     		movs	r3, r2
 1323 0132 9B00     		lsls	r3, r3, #2
 1324 0134 9B18     		adds	r3, r3, r2
 1325 0136 DB00     		lsls	r3, r3, #3
 1326 0138 C318     		adds	r3, r0, r3
 1327 013a 0C33     		adds	r3, r3, #12
 1328 013c 1B88     		ldrh	r3, [r3]
 571:Generated_Source\PSoC4/BLE_hids.c ****                         cyBle_hidss[locServIndex].bootReportArray[CYBLE_HIDS_BOOT_KYBRD_IN_REP_INDX
 1329              		.loc 1 571 0
 1330 013e 9942     		cmp	r1, r3
 1331 0140 14D1     		bne	.L83
 573:Generated_Source\PSoC4/BLE_hids.c ****             {
 574:Generated_Source\PSoC4/BLE_hids.c ****                 locCharValue.charIndex = CYBLE_HIDS_BOOT_KYBRD_IN_REP;
 1332              		.loc 1 574 0
 1333 0142 0C23     		movs	r3, #12
 1334 0144 FB18     		adds	r3, r7, r3
 1335 0146 0422     		movs	r2, #4
 1336 0148 DA70     		strb	r2, [r3, #3]
 575:Generated_Source\PSoC4/BLE_hids.c ****                 locCharValue.value = &eventParam->handleValPair.value;
 1337              		.loc 1 575 0
 1338 014a 7B68     		ldr	r3, [r7, #4]
 1339 014c 1A1D     		adds	r2, r3, #4
 1340 014e 0C23     		movs	r3, #12
 1341 0150 FB18     		adds	r3, r7, r3
 1342 0152 5A60     		str	r2, [r3, #4]
ARM GAS  C:\Users\Intern\AppData\Local\Temp\ccVSLPFx.s 			page 35


 576:Generated_Source\PSoC4/BLE_hids.c ****                 eventCode = (uint32)CYBLE_EVT_HIDSS_REPORT_CHAR_WRITE;
 1343              		.loc 1 576 0
 1344 0154 9C23     		movs	r3, #156
 1345 0156 FF33     		adds	r3, r3, #255
 1346 0158 BB61     		str	r3, [r7, #24]
 577:Generated_Source\PSoC4/BLE_hids.c ****                 cyBle_eventHandlerFlag &= (uint8)~CYBLE_CALLBACK;
 1347              		.loc 1 577 0
 1348 015a 4F4B     		ldr	r3, .L97+8
 1349 015c 1B78     		ldrb	r3, [r3]
 1350 015e DBB2     		uxtb	r3, r3
 1351 0160 0122     		movs	r2, #1
 1352 0162 9343     		bics	r3, r2
 1353 0164 DAB2     		uxtb	r2, r3
 1354 0166 4C4B     		ldr	r3, .L97+8
 1355 0168 1A70     		strb	r2, [r3]
 1356 016a 19E1     		b	.L77
 1357              	.L83:
 578:Generated_Source\PSoC4/BLE_hids.c ****             }
 579:Generated_Source\PSoC4/BLE_hids.c ****             else if(eventParam->handleValPair.attrHandle ==
 1358              		.loc 1 579 0
 1359 016c 7B68     		ldr	r3, [r7, #4]
 1360 016e 9989     		ldrh	r1, [r3, #12]
 580:Generated_Source\PSoC4/BLE_hids.c ****                         cyBle_hidss[locServIndex].bootReportArray[CYBLE_HIDS_BOOT_KYBRD_IN_REP_INDX
 1361              		.loc 1 580 0
 1362 0170 1E23     		movs	r3, #30
 1363 0172 FB18     		adds	r3, r7, r3
 1364 0174 1A78     		ldrb	r2, [r3]
 1365 0176 4748     		ldr	r0, .L97+4
 1366 0178 1300     		movs	r3, r2
 1367 017a 9B00     		lsls	r3, r3, #2
 1368 017c 9B18     		adds	r3, r3, r2
 1369 017e DB00     		lsls	r3, r3, #3
 1370 0180 C318     		adds	r3, r0, r3
 1371 0182 0E33     		adds	r3, r3, #14
 1372 0184 1B88     		ldrh	r3, [r3]
 579:Generated_Source\PSoC4/BLE_hids.c ****                         cyBle_hidss[locServIndex].bootReportArray[CYBLE_HIDS_BOOT_KYBRD_IN_REP_INDX
 1373              		.loc 1 579 0
 1374 0186 9942     		cmp	r1, r3
 1375 0188 0ED1     		bne	.L84
 581:Generated_Source\PSoC4/BLE_hids.c ****             {
 582:Generated_Source\PSoC4/BLE_hids.c ****                 locCharValue.charIndex = CYBLE_HIDS_BOOT_KYBRD_IN_REP;
 1376              		.loc 1 582 0
 1377 018a 0C23     		movs	r3, #12
 1378 018c FB18     		adds	r3, r7, r3
 1379 018e 0422     		movs	r2, #4
 1380 0190 DA70     		strb	r2, [r3, #3]
 583:Generated_Source\PSoC4/BLE_hids.c ****                 eventCode = CyBle_HidssCccdWriteEventHandler(locServIndex, eventParam);
 1381              		.loc 1 583 0
 1382 0192 7A68     		ldr	r2, [r7, #4]
 1383 0194 1E23     		movs	r3, #30
 1384 0196 FB18     		adds	r3, r7, r3
 1385 0198 1B78     		ldrb	r3, [r3]
 1386 019a 1100     		movs	r1, r2
 1387 019c 1800     		movs	r0, r3
 1388 019e FFF7FEFF 		bl	CyBle_HidssCccdWriteEventHandler
 1389 01a2 0300     		movs	r3, r0
 1390 01a4 BB61     		str	r3, [r7, #24]
ARM GAS  C:\Users\Intern\AppData\Local\Temp\ccVSLPFx.s 			page 36


 1391 01a6 FBE0     		b	.L77
 1392              	.L84:
 584:Generated_Source\PSoC4/BLE_hids.c ****             }
 585:Generated_Source\PSoC4/BLE_hids.c ****             else if(eventParam->handleValPair.attrHandle ==
 1393              		.loc 1 585 0
 1394 01a8 7B68     		ldr	r3, [r7, #4]
 1395 01aa 9989     		ldrh	r1, [r3, #12]
 586:Generated_Source\PSoC4/BLE_hids.c ****                         cyBle_hidss[locServIndex].bootReportArray[CYBLE_HIDS_BOOT_KYBRD_OUT_REP_IND
 1396              		.loc 1 586 0
 1397 01ac 1E23     		movs	r3, #30
 1398 01ae FB18     		adds	r3, r7, r3
 1399 01b0 1A78     		ldrb	r2, [r3]
 1400 01b2 3848     		ldr	r0, .L97+4
 1401 01b4 1300     		movs	r3, r2
 1402 01b6 9B00     		lsls	r3, r3, #2
 1403 01b8 9B18     		adds	r3, r3, r2
 1404 01ba DB00     		lsls	r3, r3, #3
 1405 01bc C318     		adds	r3, r0, r3
 1406 01be 1233     		adds	r3, r3, #18
 1407 01c0 1B88     		ldrh	r3, [r3]
 585:Generated_Source\PSoC4/BLE_hids.c ****                         cyBle_hidss[locServIndex].bootReportArray[CYBLE_HIDS_BOOT_KYBRD_OUT_REP_IND
 1408              		.loc 1 585 0
 1409 01c2 9942     		cmp	r1, r3
 1410 01c4 14D1     		bne	.L85
 587:Generated_Source\PSoC4/BLE_hids.c ****             {
 588:Generated_Source\PSoC4/BLE_hids.c ****                 locCharValue.charIndex = CYBLE_HIDS_BOOT_KYBRD_OUT_REP;
 1411              		.loc 1 588 0
 1412 01c6 0C23     		movs	r3, #12
 1413 01c8 FB18     		adds	r3, r7, r3
 1414 01ca 0522     		movs	r2, #5
 1415 01cc DA70     		strb	r2, [r3, #3]
 589:Generated_Source\PSoC4/BLE_hids.c ****                 locCharValue.value = &eventParam->handleValPair.value;
 1416              		.loc 1 589 0
 1417 01ce 7B68     		ldr	r3, [r7, #4]
 1418 01d0 1A1D     		adds	r2, r3, #4
 1419 01d2 0C23     		movs	r3, #12
 1420 01d4 FB18     		adds	r3, r7, r3
 1421 01d6 5A60     		str	r2, [r3, #4]
 590:Generated_Source\PSoC4/BLE_hids.c ****                 eventCode = (uint32)CYBLE_EVT_HIDSS_REPORT_CHAR_WRITE;
 1422              		.loc 1 590 0
 1423 01d8 9C23     		movs	r3, #156
 1424 01da FF33     		adds	r3, r3, #255
 1425 01dc BB61     		str	r3, [r7, #24]
 591:Generated_Source\PSoC4/BLE_hids.c ****                 cyBle_eventHandlerFlag &= (uint8)~CYBLE_CALLBACK;
 1426              		.loc 1 591 0
 1427 01de 2E4B     		ldr	r3, .L97+8
 1428 01e0 1B78     		ldrb	r3, [r3]
 1429 01e2 DBB2     		uxtb	r3, r3
 1430 01e4 0122     		movs	r2, #1
 1431 01e6 9343     		bics	r3, r2
 1432 01e8 DAB2     		uxtb	r2, r3
 1433 01ea 2B4B     		ldr	r3, .L97+8
 1434 01ec 1A70     		strb	r2, [r3]
 1435 01ee D7E0     		b	.L77
 1436              	.L85:
 592:Generated_Source\PSoC4/BLE_hids.c ****             }
 593:Generated_Source\PSoC4/BLE_hids.c ****             else if(eventParam->handleValPair.attrHandle ==
ARM GAS  C:\Users\Intern\AppData\Local\Temp\ccVSLPFx.s 			page 37


 1437              		.loc 1 593 0
 1438 01f0 7B68     		ldr	r3, [r7, #4]
 1439 01f2 9989     		ldrh	r1, [r3, #12]
 594:Generated_Source\PSoC4/BLE_hids.c ****                         cyBle_hidss[locServIndex].bootReportArray[CYBLE_HIDS_BOOT_MOUSE_IN_REP_INDX
 1440              		.loc 1 594 0
 1441 01f4 1E23     		movs	r3, #30
 1442 01f6 FB18     		adds	r3, r7, r3
 1443 01f8 1A78     		ldrb	r2, [r3]
 1444 01fa 2648     		ldr	r0, .L97+4
 1445 01fc 1300     		movs	r3, r2
 1446 01fe 9B00     		lsls	r3, r3, #2
 1447 0200 9B18     		adds	r3, r3, r2
 1448 0202 DB00     		lsls	r3, r3, #3
 1449 0204 C318     		adds	r3, r0, r3
 1450 0206 1833     		adds	r3, r3, #24
 1451 0208 1B88     		ldrh	r3, [r3]
 593:Generated_Source\PSoC4/BLE_hids.c ****                         cyBle_hidss[locServIndex].bootReportArray[CYBLE_HIDS_BOOT_MOUSE_IN_REP_INDX
 1452              		.loc 1 593 0
 1453 020a 9942     		cmp	r1, r3
 1454 020c 14D1     		bne	.L86
 595:Generated_Source\PSoC4/BLE_hids.c ****             {
 596:Generated_Source\PSoC4/BLE_hids.c ****                 locCharValue.charIndex = CYBLE_HIDS_BOOT_MOUSE_IN_REP;
 1455              		.loc 1 596 0
 1456 020e 0C23     		movs	r3, #12
 1457 0210 FB18     		adds	r3, r7, r3
 1458 0212 0622     		movs	r2, #6
 1459 0214 DA70     		strb	r2, [r3, #3]
 597:Generated_Source\PSoC4/BLE_hids.c ****                 locCharValue.value = &eventParam->handleValPair.value;
 1460              		.loc 1 597 0
 1461 0216 7B68     		ldr	r3, [r7, #4]
 1462 0218 1A1D     		adds	r2, r3, #4
 1463 021a 0C23     		movs	r3, #12
 1464 021c FB18     		adds	r3, r7, r3
 1465 021e 5A60     		str	r2, [r3, #4]
 598:Generated_Source\PSoC4/BLE_hids.c ****                 eventCode = (uint32)CYBLE_EVT_HIDSS_REPORT_CHAR_WRITE;
 1466              		.loc 1 598 0
 1467 0220 9C23     		movs	r3, #156
 1468 0222 FF33     		adds	r3, r3, #255
 1469 0224 BB61     		str	r3, [r7, #24]
 599:Generated_Source\PSoC4/BLE_hids.c ****                 cyBle_eventHandlerFlag &= (uint8)~CYBLE_CALLBACK;
 1470              		.loc 1 599 0
 1471 0226 1C4B     		ldr	r3, .L97+8
 1472 0228 1B78     		ldrb	r3, [r3]
 1473 022a DBB2     		uxtb	r3, r3
 1474 022c 0122     		movs	r2, #1
 1475 022e 9343     		bics	r3, r2
 1476 0230 DAB2     		uxtb	r2, r3
 1477 0232 194B     		ldr	r3, .L97+8
 1478 0234 1A70     		strb	r2, [r3]
 1479 0236 B3E0     		b	.L77
 1480              	.L86:
 600:Generated_Source\PSoC4/BLE_hids.c ****             }
 601:Generated_Source\PSoC4/BLE_hids.c ****             else if(eventParam->handleValPair.attrHandle ==
 1481              		.loc 1 601 0
 1482 0238 7B68     		ldr	r3, [r7, #4]
 1483 023a 9989     		ldrh	r1, [r3, #12]
 602:Generated_Source\PSoC4/BLE_hids.c ****                         cyBle_hidss[locServIndex].bootReportArray[CYBLE_HIDS_BOOT_MOUSE_IN_REP_INDX
ARM GAS  C:\Users\Intern\AppData\Local\Temp\ccVSLPFx.s 			page 38


 1484              		.loc 1 602 0
 1485 023c 1E23     		movs	r3, #30
 1486 023e FB18     		adds	r3, r7, r3
 1487 0240 1A78     		ldrb	r2, [r3]
 1488 0242 1448     		ldr	r0, .L97+4
 1489 0244 1300     		movs	r3, r2
 1490 0246 9B00     		lsls	r3, r3, #2
 1491 0248 9B18     		adds	r3, r3, r2
 1492 024a DB00     		lsls	r3, r3, #3
 1493 024c C318     		adds	r3, r0, r3
 1494 024e 1A33     		adds	r3, r3, #26
 1495 0250 1B88     		ldrh	r3, [r3]
 601:Generated_Source\PSoC4/BLE_hids.c ****                         cyBle_hidss[locServIndex].bootReportArray[CYBLE_HIDS_BOOT_MOUSE_IN_REP_INDX
 1496              		.loc 1 601 0
 1497 0252 9942     		cmp	r1, r3
 1498 0254 0ED1     		bne	.L87
 603:Generated_Source\PSoC4/BLE_hids.c ****             {
 604:Generated_Source\PSoC4/BLE_hids.c ****                 locCharValue.charIndex = CYBLE_HIDS_BOOT_MOUSE_IN_REP;
 1499              		.loc 1 604 0
 1500 0256 0C23     		movs	r3, #12
 1501 0258 FB18     		adds	r3, r7, r3
 1502 025a 0622     		movs	r2, #6
 1503 025c DA70     		strb	r2, [r3, #3]
 605:Generated_Source\PSoC4/BLE_hids.c ****                 eventCode = CyBle_HidssCccdWriteEventHandler(locServIndex, eventParam);
 1504              		.loc 1 605 0
 1505 025e 7A68     		ldr	r2, [r7, #4]
 1506 0260 1E23     		movs	r3, #30
 1507 0262 FB18     		adds	r3, r7, r3
 1508 0264 1B78     		ldrb	r3, [r3]
 1509 0266 1100     		movs	r1, r2
 1510 0268 1800     		movs	r0, r3
 1511 026a FFF7FEFF 		bl	CyBle_HidssCccdWriteEventHandler
 1512 026e 0300     		movs	r3, r0
 1513 0270 BB61     		str	r3, [r7, #24]
 1514 0272 95E0     		b	.L77
 1515              	.L87:
 1516              	.LBB2:
 606:Generated_Source\PSoC4/BLE_hids.c ****             }
 607:Generated_Source\PSoC4/BLE_hids.c ****             else
 608:Generated_Source\PSoC4/BLE_hids.c ****             {
 609:Generated_Source\PSoC4/BLE_hids.c ****                 uint8 locReqHandle = 0u;
 1517              		.loc 1 609 0
 1518 0274 1723     		movs	r3, #23
 1519 0276 FB18     		adds	r3, r7, r3
 1520 0278 0022     		movs	r2, #0
 1521 027a 1A70     		strb	r2, [r3]
 610:Generated_Source\PSoC4/BLE_hids.c ****                 
 611:Generated_Source\PSoC4/BLE_hids.c ****                 locCharIndex = CYBLE_HIDS_REPORT;
 1522              		.loc 1 611 0
 1523 027c 1C23     		movs	r3, #28
 1524 027e FB18     		adds	r3, r7, r3
 1525 0280 0722     		movs	r2, #7
 1526 0282 1A70     		strb	r2, [r3]
 612:Generated_Source\PSoC4/BLE_hids.c ****                 for(reportIndex = 0u; (reportIndex < cyBle_hidss[locServIndex].reportCount) && (loc
 1527              		.loc 1 612 0
 1528 0284 1D23     		movs	r3, #29
 1529 0286 FB18     		adds	r3, r7, r3
ARM GAS  C:\Users\Intern\AppData\Local\Temp\ccVSLPFx.s 			page 39


 1530 0288 0022     		movs	r2, #0
 1531 028a 1A70     		strb	r2, [r3]
 1532 028c 72E0     		b	.L88
 1533              	.L98:
 1534 028e C046     		.align	2
 1535              	.L97:
 1536 0290 00000000 		.word	CyBle_HidsApplCallback
 1537 0294 00000000 		.word	cyBle_hidss
 1538 0298 00000000 		.word	cyBle_eventHandlerFlag
 1539              	.L91:
 613:Generated_Source\PSoC4/BLE_hids.c ****                         reportIndex++)
 614:Generated_Source\PSoC4/BLE_hids.c ****                 {
 615:Generated_Source\PSoC4/BLE_hids.c ****                     if(eventParam->handleValPair.attrHandle == 
 1540              		.loc 1 615 0
 1541 029c 7B68     		ldr	r3, [r7, #4]
 1542 029e 9989     		ldrh	r1, [r3, #12]
 616:Generated_Source\PSoC4/BLE_hids.c ****                         cyBle_hidss[locServIndex].reportArray[reportIndex].reportHandle)
 1543              		.loc 1 616 0
 1544 02a0 1E23     		movs	r3, #30
 1545 02a2 FB18     		adds	r3, r7, r3
 1546 02a4 1A78     		ldrb	r2, [r3]
 1547 02a6 5948     		ldr	r0, .L99
 1548 02a8 1300     		movs	r3, r2
 1549 02aa 9B00     		lsls	r3, r3, #2
 1550 02ac 9B18     		adds	r3, r3, r2
 1551 02ae DB00     		lsls	r3, r3, #3
 1552 02b0 C318     		adds	r3, r0, r3
 1553 02b2 0833     		adds	r3, r3, #8
 1554 02b4 1868     		ldr	r0, [r3]
 1555 02b6 1D23     		movs	r3, #29
 1556 02b8 FB18     		adds	r3, r7, r3
 1557 02ba 1A78     		ldrb	r2, [r3]
 1558 02bc 1300     		movs	r3, r2
 1559 02be 5B00     		lsls	r3, r3, #1
 1560 02c0 9B18     		adds	r3, r3, r2
 1561 02c2 5B00     		lsls	r3, r3, #1
 1562 02c4 C318     		adds	r3, r0, r3
 1563 02c6 1B88     		ldrh	r3, [r3]
 615:Generated_Source\PSoC4/BLE_hids.c ****                         cyBle_hidss[locServIndex].reportArray[reportIndex].reportHandle)
 1564              		.loc 1 615 0
 1565 02c8 9942     		cmp	r1, r3
 1566 02ca 19D1     		bne	.L89
 617:Generated_Source\PSoC4/BLE_hids.c ****                     {
 618:Generated_Source\PSoC4/BLE_hids.c ****                         locCharValue.charIndex = locCharIndex;
 1567              		.loc 1 618 0
 1568 02cc 0C23     		movs	r3, #12
 1569 02ce FB18     		adds	r3, r7, r3
 1570 02d0 1C22     		movs	r2, #28
 1571 02d2 BA18     		adds	r2, r7, r2
 1572 02d4 1278     		ldrb	r2, [r2]
 1573 02d6 DA70     		strb	r2, [r3, #3]
 619:Generated_Source\PSoC4/BLE_hids.c ****                         locCharValue.value = &eventParam->handleValPair.value;
 1574              		.loc 1 619 0
 1575 02d8 7B68     		ldr	r3, [r7, #4]
 1576 02da 1A1D     		adds	r2, r3, #4
 1577 02dc 0C23     		movs	r3, #12
 1578 02de FB18     		adds	r3, r7, r3
ARM GAS  C:\Users\Intern\AppData\Local\Temp\ccVSLPFx.s 			page 40


 1579 02e0 5A60     		str	r2, [r3, #4]
 620:Generated_Source\PSoC4/BLE_hids.c ****                         eventCode = (uint32)CYBLE_EVT_HIDSS_REPORT_CHAR_WRITE;
 1580              		.loc 1 620 0
 1581 02e2 9C23     		movs	r3, #156
 1582 02e4 FF33     		adds	r3, r3, #255
 1583 02e6 BB61     		str	r3, [r7, #24]
 621:Generated_Source\PSoC4/BLE_hids.c ****                         cyBle_eventHandlerFlag &= (uint8)~CYBLE_CALLBACK;
 1584              		.loc 1 621 0
 1585 02e8 494B     		ldr	r3, .L99+4
 1586 02ea 1B78     		ldrb	r3, [r3]
 1587 02ec DBB2     		uxtb	r3, r3
 1588 02ee 0122     		movs	r2, #1
 1589 02f0 9343     		bics	r3, r2
 1590 02f2 DAB2     		uxtb	r2, r3
 1591 02f4 464B     		ldr	r3, .L99+4
 1592 02f6 1A70     		strb	r2, [r3]
 622:Generated_Source\PSoC4/BLE_hids.c ****                         locReqHandle = 1u;
 1593              		.loc 1 622 0
 1594 02f8 1723     		movs	r3, #23
 1595 02fa FB18     		adds	r3, r7, r3
 1596 02fc 0122     		movs	r2, #1
 1597 02fe 1A70     		strb	r2, [r3]
 1598              	.L89:
 623:Generated_Source\PSoC4/BLE_hids.c ****                     }
 624:Generated_Source\PSoC4/BLE_hids.c ****                     if(eventParam->handleValPair.attrHandle == 
 1599              		.loc 1 624 0
 1600 0300 7B68     		ldr	r3, [r7, #4]
 1601 0302 9989     		ldrh	r1, [r3, #12]
 625:Generated_Source\PSoC4/BLE_hids.c ****                         cyBle_hidss[locServIndex].reportArray[reportIndex].cccdHandle)
 1602              		.loc 1 625 0
 1603 0304 1E23     		movs	r3, #30
 1604 0306 FB18     		adds	r3, r7, r3
 1605 0308 1A78     		ldrb	r2, [r3]
 1606 030a 4048     		ldr	r0, .L99
 1607 030c 1300     		movs	r3, r2
 1608 030e 9B00     		lsls	r3, r3, #2
 1609 0310 9B18     		adds	r3, r3, r2
 1610 0312 DB00     		lsls	r3, r3, #3
 1611 0314 C318     		adds	r3, r0, r3
 1612 0316 0833     		adds	r3, r3, #8
 1613 0318 1868     		ldr	r0, [r3]
 1614 031a 1D23     		movs	r3, #29
 1615 031c FB18     		adds	r3, r7, r3
 1616 031e 1A78     		ldrb	r2, [r3]
 1617 0320 1300     		movs	r3, r2
 1618 0322 5B00     		lsls	r3, r3, #1
 1619 0324 9B18     		adds	r3, r3, r2
 1620 0326 5B00     		lsls	r3, r3, #1
 1621 0328 C318     		adds	r3, r0, r3
 1622 032a 5B88     		ldrh	r3, [r3, #2]
 624:Generated_Source\PSoC4/BLE_hids.c ****                         cyBle_hidss[locServIndex].reportArray[reportIndex].cccdHandle)
 1623              		.loc 1 624 0
 1624 032c 9942     		cmp	r1, r3
 1625 032e 13D1     		bne	.L90
 626:Generated_Source\PSoC4/BLE_hids.c ****                     {
 627:Generated_Source\PSoC4/BLE_hids.c ****                         locCharValue.charIndex = locCharIndex;
 1626              		.loc 1 627 0
ARM GAS  C:\Users\Intern\AppData\Local\Temp\ccVSLPFx.s 			page 41


 1627 0330 0C23     		movs	r3, #12
 1628 0332 FB18     		adds	r3, r7, r3
 1629 0334 1C22     		movs	r2, #28
 1630 0336 BA18     		adds	r2, r7, r2
 1631 0338 1278     		ldrb	r2, [r2]
 1632 033a DA70     		strb	r2, [r3, #3]
 628:Generated_Source\PSoC4/BLE_hids.c ****                         eventCode = CyBle_HidssCccdWriteEventHandler(locServIndex, eventParam);
 1633              		.loc 1 628 0
 1634 033c 7A68     		ldr	r2, [r7, #4]
 1635 033e 1E23     		movs	r3, #30
 1636 0340 FB18     		adds	r3, r7, r3
 1637 0342 1B78     		ldrb	r3, [r3]
 1638 0344 1100     		movs	r1, r2
 1639 0346 1800     		movs	r0, r3
 1640 0348 FFF7FEFF 		bl	CyBle_HidssCccdWriteEventHandler
 1641 034c 0300     		movs	r3, r0
 1642 034e BB61     		str	r3, [r7, #24]
 629:Generated_Source\PSoC4/BLE_hids.c ****                         locReqHandle = 1u;
 1643              		.loc 1 629 0
 1644 0350 1723     		movs	r3, #23
 1645 0352 FB18     		adds	r3, r7, r3
 1646 0354 0122     		movs	r2, #1
 1647 0356 1A70     		strb	r2, [r3]
 1648              	.L90:
 630:Generated_Source\PSoC4/BLE_hids.c ****                     }
 631:Generated_Source\PSoC4/BLE_hids.c ****                     locCharIndex++;
 1649              		.loc 1 631 0
 1650 0358 1C23     		movs	r3, #28
 1651 035a FB18     		adds	r3, r7, r3
 1652 035c 1A78     		ldrb	r2, [r3]
 1653 035e 1C23     		movs	r3, #28
 1654 0360 FB18     		adds	r3, r7, r3
 1655 0362 0132     		adds	r2, r2, #1
 1656 0364 1A70     		strb	r2, [r3]
 613:Generated_Source\PSoC4/BLE_hids.c ****                 {
 1657              		.loc 1 613 0
 1658 0366 1D23     		movs	r3, #29
 1659 0368 FB18     		adds	r3, r7, r3
 1660 036a 1A78     		ldrb	r2, [r3]
 1661 036c 1D23     		movs	r3, #29
 1662 036e FB18     		adds	r3, r7, r3
 1663 0370 0132     		adds	r2, r2, #1
 1664 0372 1A70     		strb	r2, [r3]
 1665              	.L88:
 612:Generated_Source\PSoC4/BLE_hids.c ****                         reportIndex++)
 1666              		.loc 1 612 0 discriminator 1
 1667 0374 1E23     		movs	r3, #30
 1668 0376 FB18     		adds	r3, r7, r3
 1669 0378 1A78     		ldrb	r2, [r3]
 1670 037a 2449     		ldr	r1, .L99
 1671 037c 1300     		movs	r3, r2
 1672 037e 9B00     		lsls	r3, r3, #2
 1673 0380 9B18     		adds	r3, r3, r2
 1674 0382 DB00     		lsls	r3, r3, #3
 1675 0384 CB18     		adds	r3, r1, r3
 1676 0386 0433     		adds	r3, r3, #4
 1677 0388 1B78     		ldrb	r3, [r3]
ARM GAS  C:\Users\Intern\AppData\Local\Temp\ccVSLPFx.s 			page 42


 1678 038a 1D22     		movs	r2, #29
 1679 038c BA18     		adds	r2, r7, r2
 1680 038e 1278     		ldrb	r2, [r2]
 1681 0390 9A42     		cmp	r2, r3
 1682 0392 05D2     		bcs	.L77
 612:Generated_Source\PSoC4/BLE_hids.c ****                         reportIndex++)
 1683              		.loc 1 612 0 is_stmt 0 discriminator 2
 1684 0394 1723     		movs	r3, #23
 1685 0396 FB18     		adds	r3, r7, r3
 1686 0398 1B78     		ldrb	r3, [r3]
 1687 039a 002B     		cmp	r3, #0
 1688 039c 00D1     		bne	.LCB1495
 1689 039e 7DE7     		b	.L91	@long jump
 1690              	.LCB1495:
 1691              	.L77:
 1692              	.LBE2:
 632:Generated_Source\PSoC4/BLE_hids.c ****                 }
 633:Generated_Source\PSoC4/BLE_hids.c ****             }
 634:Generated_Source\PSoC4/BLE_hids.c ****             locServIndex++;
 1693              		.loc 1 634 0 is_stmt 1
 1694 03a0 1E23     		movs	r3, #30
 1695 03a2 FB18     		adds	r3, r7, r3
 1696 03a4 1A78     		ldrb	r2, [r3]
 1697 03a6 1E23     		movs	r3, #30
 1698 03a8 FB18     		adds	r3, r7, r3
 1699 03aa 0132     		adds	r2, r2, #1
 1700 03ac 1A70     		strb	r2, [r3]
 635:Generated_Source\PSoC4/BLE_hids.c ****             /* Store data to database if event is handled */
 636:Generated_Source\PSoC4/BLE_hids.c ****             if((cyBle_eventHandlerFlag & CYBLE_CALLBACK) == 0u)
 1701              		.loc 1 636 0
 1702 03ae 184B     		ldr	r3, .L99+4
 1703 03b0 1B78     		ldrb	r3, [r3]
 1704 03b2 DBB2     		uxtb	r3, r3
 1705 03b4 1A00     		movs	r2, r3
 1706 03b6 0123     		movs	r3, #1
 1707 03b8 1340     		ands	r3, r2
 1708 03ba 17D1     		bne	.L92
 637:Generated_Source\PSoC4/BLE_hids.c ****             {
 638:Generated_Source\PSoC4/BLE_hids.c ****                 gattErr = CyBle_GattsWriteAttributeValue(&eventParam->handleValPair, 0u, 
 1709              		.loc 1 638 0
 1710 03bc 7B68     		ldr	r3, [r7, #4]
 1711 03be 181D     		adds	r0, r3, #4
 1712 03c0 7A68     		ldr	r2, [r7, #4]
 1713 03c2 1F23     		movs	r3, #31
 1714 03c4 FC18     		adds	r4, r7, r3
 1715 03c6 4023     		movs	r3, #64
 1716 03c8 0021     		movs	r1, #0
 1717 03ca FFF7FEFF 		bl	CyBle_GattsWriteAttributeValue
 1718 03ce 0300     		movs	r3, r0
 1719 03d0 2370     		strb	r3, [r4]
 639:Generated_Source\PSoC4/BLE_hids.c ****                     &eventParam->connHandle, CYBLE_GATT_DB_PEER_INITIATED);
 640:Generated_Source\PSoC4/BLE_hids.c ****                 if(gattErr == CYBLE_GATT_ERR_NONE)
 1720              		.loc 1 640 0
 1721 03d2 1F23     		movs	r3, #31
 1722 03d4 FB18     		adds	r3, r7, r3
 1723 03d6 1B78     		ldrb	r3, [r3]
 1724 03d8 002B     		cmp	r3, #0
ARM GAS  C:\Users\Intern\AppData\Local\Temp\ccVSLPFx.s 			page 43


 1725 03da 0ED1     		bne	.L96
 641:Generated_Source\PSoC4/BLE_hids.c ****                 {                
 642:Generated_Source\PSoC4/BLE_hids.c ****                     CyBle_HidsApplCallback(eventCode, &locCharValue);
 1726              		.loc 1 642 0
 1727 03dc 0D4B     		ldr	r3, .L99+8
 1728 03de 1B68     		ldr	r3, [r3]
 1729 03e0 0C22     		movs	r2, #12
 1730 03e2 B918     		adds	r1, r7, r2
 1731 03e4 BA69     		ldr	r2, [r7, #24]
 1732 03e6 1000     		movs	r0, r2
 1733 03e8 9847     		blx	r3
 643:Generated_Source\PSoC4/BLE_hids.c ****                 }
 644:Generated_Source\PSoC4/BLE_hids.c ****                 break;
 1734              		.loc 1 644 0
 1735 03ea 06E0     		b	.L96
 1736              	.L92:
 645:Generated_Source\PSoC4/BLE_hids.c ****             }
 646:Generated_Source\PSoC4/BLE_hids.c ****         }while(locServIndex < CYBLE_HIDSS_SERVICE_COUNT);
 1737              		.loc 1 646 0
 1738 03ec 1E23     		movs	r3, #30
 1739 03ee FB18     		adds	r3, r7, r3
 1740 03f0 1B78     		ldrb	r3, [r3]
 1741 03f2 002B     		cmp	r3, #0
 1742 03f4 00D1     		bne	.LCB1543
 1743 03f6 1FE6     		b	.L94	@long jump
 1744              	.LCB1543:
 1745 03f8 00E0     		b	.L71
 1746              	.L96:
 644:Generated_Source\PSoC4/BLE_hids.c ****             }
 1747              		.loc 1 644 0
 1748 03fa C046     		nop
 1749              	.L71:
 647:Generated_Source\PSoC4/BLE_hids.c ****     }
 648:Generated_Source\PSoC4/BLE_hids.c ****     return (gattErr);
 1750              		.loc 1 648 0
 1751 03fc 1F23     		movs	r3, #31
 1752 03fe FB18     		adds	r3, r7, r3
 1753 0400 1B78     		ldrb	r3, [r3]
 649:Generated_Source\PSoC4/BLE_hids.c **** }
 1754              		.loc 1 649 0
 1755 0402 1800     		movs	r0, r3
 1756 0404 BD46     		mov	sp, r7
 1757 0406 09B0     		add	sp, sp, #36
 1758              		@ sp needed
 1759 0408 90BD     		pop	{r4, r7, pc}
 1760              	.L100:
 1761 040a C046     		.align	2
 1762              	.L99:
 1763 040c 00000000 		.word	cyBle_hidss
 1764 0410 00000000 		.word	cyBle_eventHandlerFlag
 1765 0414 00000000 		.word	CyBle_HidsApplCallback
 1766              		.cfi_endproc
 1767              	.LFE8:
 1768              		.size	CyBle_HidssWriteEventHandler, .-CyBle_HidssWriteEventHandler
 1769              		.section	.text.CyBle_HidssSendNotification,"ax",%progbits
 1770              		.align	2
 1771              		.global	CyBle_HidssSendNotification
ARM GAS  C:\Users\Intern\AppData\Local\Temp\ccVSLPFx.s 			page 44


 1772              		.code	16
 1773              		.thumb_func
 1774              		.type	CyBle_HidssSendNotification, %function
 1775              	CyBle_HidssSendNotification:
 1776              	.LFB9:
 650:Generated_Source\PSoC4/BLE_hids.c **** 
 651:Generated_Source\PSoC4/BLE_hids.c **** 
 652:Generated_Source\PSoC4/BLE_hids.c **** /****************************************************************************** 
 653:Generated_Source\PSoC4/BLE_hids.c **** * Function Name: CyBle_HidssSendNotification
 654:Generated_Source\PSoC4/BLE_hids.c **** ***************************************************************************//**
 655:Generated_Source\PSoC4/BLE_hids.c **** * 
 656:Generated_Source\PSoC4/BLE_hids.c **** *  Sends specified HID Service characteristic notification to the Client device.
 657:Generated_Source\PSoC4/BLE_hids.c **** * 
 658:Generated_Source\PSoC4/BLE_hids.c **** *  CYBLE_EVT_HIDSC_NOTIFICATION event is received by the peer device, on  
 659:Generated_Source\PSoC4/BLE_hids.c **** *  invoking this function.
 660:Generated_Source\PSoC4/BLE_hids.c **** *
 661:Generated_Source\PSoC4/BLE_hids.c **** *  On enabling notification successfully for a service characteristic, it sends
 662:Generated_Source\PSoC4/BLE_hids.c **** *  out a 'Handle Value Notification' which results in 
 663:Generated_Source\PSoC4/BLE_hids.c **** *  CYBLE_EVT_HIDSC_NOTIFICATION event at the GATT Client's end.
 664:Generated_Source\PSoC4/BLE_hids.c **** * 
 665:Generated_Source\PSoC4/BLE_hids.c **** *  \param connHandle:   BLE peer device connection handle.
 666:Generated_Source\PSoC4/BLE_hids.c **** *  \param serviceIndex: The index of the HID service instance. e.g. If two HID 
 667:Generated_Source\PSoC4/BLE_hids.c **** *                       Services are supported in your design, then first 
 668:Generated_Source\PSoC4/BLE_hids.c **** *                       service will be identified by serviceIndex of 0 and the 
 669:Generated_Source\PSoC4/BLE_hids.c **** *                       second by serviceIndex of 1.
 670:Generated_Source\PSoC4/BLE_hids.c **** *  \param charIndex:    The index of the service characteristic.
 671:Generated_Source\PSoC4/BLE_hids.c **** *  \param attrSize:     The size of the characteristic value attribute.
 672:Generated_Source\PSoC4/BLE_hids.c **** *  \param attrValue:    Pointer to the characteristic value data that should be
 673:Generated_Source\PSoC4/BLE_hids.c **** *                       sent to the Client device.
 674:Generated_Source\PSoC4/BLE_hids.c **** * 
 675:Generated_Source\PSoC4/BLE_hids.c **** * \return
 676:Generated_Source\PSoC4/BLE_hids.c **** *  Return value is of type CYBLE_API_RESULT_T.
 677:Generated_Source\PSoC4/BLE_hids.c **** *   * CYBLE_ERROR_OK - The request handled successfully.
 678:Generated_Source\PSoC4/BLE_hids.c **** *   * CYBLE_ERROR_INVALID_PARAMETER - Validation of the input parameter failed.
 679:Generated_Source\PSoC4/BLE_hids.c **** *   * CYBLE_ERROR_INVALID_OPERATION - This operation is not permitted.
 680:Generated_Source\PSoC4/BLE_hids.c **** *   * CYBLE_ERROR_GATT_DB_INVALID_ATTR_HANDLE - Optional characteristic is 
 681:Generated_Source\PSoC4/BLE_hids.c **** *                                               absent.
 682:Generated_Source\PSoC4/BLE_hids.c **** *   * CYBLE_ERROR_INVALID_STATE - Connection with the client is not established.
 683:Generated_Source\PSoC4/BLE_hids.c **** *   * CYBLE_ERROR_MEMORY_ALLOCATION_FAILED - Memory allocation failed. 
 684:Generated_Source\PSoC4/BLE_hids.c **** * 
 685:Generated_Source\PSoC4/BLE_hids.c **** ******************************************************************************/
 686:Generated_Source\PSoC4/BLE_hids.c **** CYBLE_API_RESULT_T CyBle_HidssSendNotification(CYBLE_CONN_HANDLE_T connHandle,
 687:Generated_Source\PSoC4/BLE_hids.c ****     uint8 serviceIndex, CYBLE_HIDS_CHAR_INDEX_T charIndex, uint8 attrSize, uint8 *attrValue)
 688:Generated_Source\PSoC4/BLE_hids.c **** {
 1777              		.loc 1 688 0
 1778              		.cfi_startproc
 1779              		@ args = 4, pretend = 0, frame = 40
 1780              		@ frame_needed = 1, uses_anonymous_args = 0
 1781 0000 90B5     		push	{r4, r7, lr}
 1782              		.cfi_def_cfa_offset 12
 1783              		.cfi_offset 4, -12
 1784              		.cfi_offset 7, -8
 1785              		.cfi_offset 14, -4
 1786 0002 8BB0     		sub	sp, sp, #44
 1787              		.cfi_def_cfa_offset 56
 1788 0004 00AF     		add	r7, sp, #0
 1789              		.cfi_def_cfa_register 7
ARM GAS  C:\Users\Intern\AppData\Local\Temp\ccVSLPFx.s 			page 45


 1790 0006 3C1D     		adds	r4, r7, #4
 1791 0008 2080     		strh	r0, [r4]
 1792 000a 0C00     		movs	r4, r1
 1793 000c 1000     		movs	r0, r2
 1794 000e 1900     		movs	r1, r3
 1795 0010 FB1C     		adds	r3, r7, #3
 1796 0012 221C     		adds	r2, r4, #0
 1797 0014 1A70     		strb	r2, [r3]
 1798 0016 BB1C     		adds	r3, r7, #2
 1799 0018 021C     		adds	r2, r0, #0
 1800 001a 1A70     		strb	r2, [r3]
 1801 001c 7B1C     		adds	r3, r7, #1
 1802 001e 0A1C     		adds	r2, r1, #0
 1803 0020 1A70     		strb	r2, [r3]
 689:Generated_Source\PSoC4/BLE_hids.c ****     CYBLE_API_RESULT_T apiResult = CYBLE_ERROR_OK;
 1804              		.loc 1 689 0
 1805 0022 2623     		movs	r3, #38
 1806 0024 FB18     		adds	r3, r7, r3
 1807 0026 0022     		movs	r2, #0
 1808 0028 1A80     		strh	r2, [r3]
 690:Generated_Source\PSoC4/BLE_hids.c ****     const CYBLE_HIDSS_REPORT_T *locReport;
 691:Generated_Source\PSoC4/BLE_hids.c ****     CYBLE_GATTS_HANDLE_VALUE_NTF_T ntfReqParam;
 692:Generated_Source\PSoC4/BLE_hids.c ****     CYBLE_GATT_HANDLE_VALUE_PAIR_T locHandleValuePair;
 693:Generated_Source\PSoC4/BLE_hids.c **** 
 694:Generated_Source\PSoC4/BLE_hids.c ****     if((serviceIndex >= CYBLE_HIDSS_SERVICE_COUNT) || (charIndex >= CYBLE_HIDS_CHAR_COUNT))
 1809              		.loc 1 694 0
 1810 002a FB1C     		adds	r3, r7, #3
 1811 002c 1B78     		ldrb	r3, [r3]
 1812 002e 002B     		cmp	r3, #0
 1813 0030 03D1     		bne	.L102
 1814              		.loc 1 694 0 is_stmt 0 discriminator 1
 1815 0032 BB1C     		adds	r3, r7, #2
 1816 0034 1B78     		ldrb	r3, [r3]
 1817 0036 072B     		cmp	r3, #7
 1818 0038 04D9     		bls	.L103
 1819              	.L102:
 695:Generated_Source\PSoC4/BLE_hids.c ****     {
 696:Generated_Source\PSoC4/BLE_hids.c ****         apiResult = CYBLE_ERROR_INVALID_PARAMETER;
 1820              		.loc 1 696 0 is_stmt 1
 1821 003a 2623     		movs	r3, #38
 1822 003c FB18     		adds	r3, r7, r3
 1823 003e 0122     		movs	r2, #1
 1824 0040 1A80     		strh	r2, [r3]
 1825 0042 BAE0     		b	.L104
 1826              	.L103:
 697:Generated_Source\PSoC4/BLE_hids.c ****     }
 698:Generated_Source\PSoC4/BLE_hids.c ****     else
 699:Generated_Source\PSoC4/BLE_hids.c ****     {
 700:Generated_Source\PSoC4/BLE_hids.c ****         if(charIndex == CYBLE_HIDS_BOOT_KYBRD_IN_REP)
 1827              		.loc 1 700 0
 1828 0044 BB1C     		adds	r3, r7, #2
 1829 0046 1B78     		ldrb	r3, [r3]
 1830 0048 042B     		cmp	r3, #4
 1831 004a 0CD1     		bne	.L105
 701:Generated_Source\PSoC4/BLE_hids.c ****         {
 702:Generated_Source\PSoC4/BLE_hids.c ****             locReport = &cyBle_hidss[serviceIndex].bootReportArray[CYBLE_HIDS_BOOT_KYBRD_IN_REP_IND
 1832              		.loc 1 702 0
ARM GAS  C:\Users\Intern\AppData\Local\Temp\ccVSLPFx.s 			page 46


 1833 004c FB1C     		adds	r3, r7, #3
 1834 004e 1A78     		ldrb	r2, [r3]
 1835 0050 1300     		movs	r3, r2
 1836 0052 9B00     		lsls	r3, r3, #2
 1837 0054 9B18     		adds	r3, r3, r2
 1838 0056 DB00     		lsls	r3, r3, #3
 1839 0058 0833     		adds	r3, r3, #8
 1840 005a 1A00     		movs	r2, r3
 1841 005c 5A4B     		ldr	r3, .L116
 1842 005e D318     		adds	r3, r2, r3
 1843 0060 0433     		adds	r3, r3, #4
 1844 0062 3B62     		str	r3, [r7, #32]
 1845 0064 44E0     		b	.L106
 1846              	.L105:
 703:Generated_Source\PSoC4/BLE_hids.c ****         }
 704:Generated_Source\PSoC4/BLE_hids.c ****         else if(charIndex == CYBLE_HIDS_BOOT_MOUSE_IN_REP)
 1847              		.loc 1 704 0
 1848 0066 BB1C     		adds	r3, r7, #2
 1849 0068 1B78     		ldrb	r3, [r3]
 1850 006a 062B     		cmp	r3, #6
 1851 006c 0CD1     		bne	.L107
 705:Generated_Source\PSoC4/BLE_hids.c ****         {
 706:Generated_Source\PSoC4/BLE_hids.c ****             locReport = &cyBle_hidss[serviceIndex].bootReportArray[CYBLE_HIDS_BOOT_MOUSE_IN_REP_IND
 1852              		.loc 1 706 0
 1853 006e FB1C     		adds	r3, r7, #3
 1854 0070 1A78     		ldrb	r2, [r3]
 1855 0072 1300     		movs	r3, r2
 1856 0074 9B00     		lsls	r3, r3, #2
 1857 0076 9B18     		adds	r3, r3, r2
 1858 0078 DB00     		lsls	r3, r3, #3
 1859 007a 1433     		adds	r3, r3, #20
 1860 007c 1A00     		movs	r2, r3
 1861 007e 524B     		ldr	r3, .L116
 1862 0080 D318     		adds	r3, r2, r3
 1863 0082 0433     		adds	r3, r3, #4
 1864 0084 3B62     		str	r3, [r7, #32]
 1865 0086 33E0     		b	.L106
 1866              	.L107:
 707:Generated_Source\PSoC4/BLE_hids.c ****         }
 708:Generated_Source\PSoC4/BLE_hids.c ****         else if((charIndex >= CYBLE_HIDS_REPORT) && (charIndex <= CYBLE_HIDS_REPORT_END))
 1867              		.loc 1 708 0
 1868 0088 BB1C     		adds	r3, r7, #2
 1869 008a 1B78     		ldrb	r3, [r3]
 1870 008c 062B     		cmp	r3, #6
 1871 008e 2BD9     		bls	.L108
 1872              		.loc 1 708 0 is_stmt 0 discriminator 1
 1873 0090 BB1C     		adds	r3, r7, #2
 1874 0092 1B78     		ldrb	r3, [r3]
 1875 0094 072B     		cmp	r3, #7
 1876 0096 27D8     		bhi	.L108
 709:Generated_Source\PSoC4/BLE_hids.c ****         {
 710:Generated_Source\PSoC4/BLE_hids.c ****             /* Verify that requested report exists in particular service */
 711:Generated_Source\PSoC4/BLE_hids.c ****             if((charIndex - CYBLE_HIDS_REPORT) < cyBle_hidss[serviceIndex].reportCount)
 1877              		.loc 1 711 0 is_stmt 1
 1878 0098 BB1C     		adds	r3, r7, #2
 1879 009a 1B78     		ldrb	r3, [r3]
 1880 009c D91F     		subs	r1, r3, #7
ARM GAS  C:\Users\Intern\AppData\Local\Temp\ccVSLPFx.s 			page 47


 1881 009e FB1C     		adds	r3, r7, #3
 1882 00a0 1A78     		ldrb	r2, [r3]
 1883 00a2 4948     		ldr	r0, .L116
 1884 00a4 1300     		movs	r3, r2
 1885 00a6 9B00     		lsls	r3, r3, #2
 1886 00a8 9B18     		adds	r3, r3, r2
 1887 00aa DB00     		lsls	r3, r3, #3
 1888 00ac C318     		adds	r3, r0, r3
 1889 00ae 0433     		adds	r3, r3, #4
 1890 00b0 1B78     		ldrb	r3, [r3]
 1891 00b2 9942     		cmp	r1, r3
 1892 00b4 13DA     		bge	.L109
 712:Generated_Source\PSoC4/BLE_hids.c ****             {
 713:Generated_Source\PSoC4/BLE_hids.c ****                 locReport = &cyBle_hidss[serviceIndex].reportArray[charIndex - CYBLE_HIDS_REPORT];
 1893              		.loc 1 713 0
 1894 00b6 FB1C     		adds	r3, r7, #3
 1895 00b8 1A78     		ldrb	r2, [r3]
 1896 00ba 4349     		ldr	r1, .L116
 1897 00bc 1300     		movs	r3, r2
 1898 00be 9B00     		lsls	r3, r3, #2
 1899 00c0 9B18     		adds	r3, r3, r2
 1900 00c2 DB00     		lsls	r3, r3, #3
 1901 00c4 CB18     		adds	r3, r1, r3
 1902 00c6 0833     		adds	r3, r3, #8
 1903 00c8 1968     		ldr	r1, [r3]
 1904 00ca BB1C     		adds	r3, r7, #2
 1905 00cc 1A78     		ldrb	r2, [r3]
 1906 00ce 1300     		movs	r3, r2
 1907 00d0 5B00     		lsls	r3, r3, #1
 1908 00d2 9B18     		adds	r3, r3, r2
 1909 00d4 5B00     		lsls	r3, r3, #1
 1910 00d6 2A3B     		subs	r3, r3, #42
 1911 00d8 CB18     		adds	r3, r1, r3
 1912 00da 3B62     		str	r3, [r7, #32]
 711:Generated_Source\PSoC4/BLE_hids.c ****             {
 1913              		.loc 1 711 0
 1914 00dc 08E0     		b	.L106
 1915              	.L109:
 714:Generated_Source\PSoC4/BLE_hids.c ****             }
 715:Generated_Source\PSoC4/BLE_hids.c ****             else
 716:Generated_Source\PSoC4/BLE_hids.c ****             {
 717:Generated_Source\PSoC4/BLE_hids.c ****                 apiResult = CYBLE_ERROR_INVALID_PARAMETER;
 1916              		.loc 1 717 0
 1917 00de 2623     		movs	r3, #38
 1918 00e0 FB18     		adds	r3, r7, r3
 1919 00e2 0122     		movs	r2, #1
 1920 00e4 1A80     		strh	r2, [r3]
 711:Generated_Source\PSoC4/BLE_hids.c ****             {
 1921              		.loc 1 711 0
 1922 00e6 03E0     		b	.L106
 1923              	.L108:
 718:Generated_Source\PSoC4/BLE_hids.c ****             }
 719:Generated_Source\PSoC4/BLE_hids.c ****         }
 720:Generated_Source\PSoC4/BLE_hids.c ****         else
 721:Generated_Source\PSoC4/BLE_hids.c ****         {
 722:Generated_Source\PSoC4/BLE_hids.c ****             apiResult = CYBLE_ERROR_INVALID_PARAMETER;
 1924              		.loc 1 722 0
ARM GAS  C:\Users\Intern\AppData\Local\Temp\ccVSLPFx.s 			page 48


 1925 00e8 2623     		movs	r3, #38
 1926 00ea FB18     		adds	r3, r7, r3
 1927 00ec 0122     		movs	r2, #1
 1928 00ee 1A80     		strh	r2, [r3]
 1929              	.L106:
 723:Generated_Source\PSoC4/BLE_hids.c ****         }
 724:Generated_Source\PSoC4/BLE_hids.c ****         if(apiResult == CYBLE_ERROR_OK)
 1930              		.loc 1 724 0
 1931 00f0 2623     		movs	r3, #38
 1932 00f2 FB18     		adds	r3, r7, r3
 1933 00f4 1B88     		ldrh	r3, [r3]
 1934 00f6 002B     		cmp	r3, #0
 1935 00f8 5FD1     		bne	.L104
 725:Generated_Source\PSoC4/BLE_hids.c ****         {
 726:Generated_Source\PSoC4/BLE_hids.c ****             if(locReport->reportHandle == CYBLE_GATT_INVALID_ATTR_HANDLE_VALUE)
 1936              		.loc 1 726 0
 1937 00fa 3B6A     		ldr	r3, [r7, #32]
 1938 00fc 1B88     		ldrh	r3, [r3]
 1939 00fe 002B     		cmp	r3, #0
 1940 0100 04D1     		bne	.L111
 727:Generated_Source\PSoC4/BLE_hids.c ****             {
 728:Generated_Source\PSoC4/BLE_hids.c ****                 apiResult = CYBLE_ERROR_GATT_DB_INVALID_ATTR_HANDLE;
 1941              		.loc 1 728 0
 1942 0102 2623     		movs	r3, #38
 1943 0104 FB18     		adds	r3, r7, r3
 1944 0106 1322     		movs	r2, #19
 1945 0108 1A80     		strh	r2, [r3]
 1946 010a 56E0     		b	.L104
 1947              	.L111:
 729:Generated_Source\PSoC4/BLE_hids.c ****             }
 730:Generated_Source\PSoC4/BLE_hids.c ****             else
 731:Generated_Source\PSoC4/BLE_hids.c ****             {
 732:Generated_Source\PSoC4/BLE_hids.c ****                 /* Send Notification if it is enabled and connected */
 733:Generated_Source\PSoC4/BLE_hids.c ****                 if(CYBLE_IS_NOTIFICATION_ENABLED(locReport->cccdHandle))
 1948              		.loc 1 733 0
 1949 010c 3B6A     		ldr	r3, [r7, #32]
 1950 010e 5B88     		ldrh	r3, [r3, #2]
 1951 0110 5A1E     		subs	r2, r3, #1
 1952 0112 2E49     		ldr	r1, .L116+4
 1953 0114 1300     		movs	r3, r2
 1954 0116 9B00     		lsls	r3, r3, #2
 1955 0118 9B18     		adds	r3, r3, r2
 1956 011a 9B00     		lsls	r3, r3, #2
 1957 011c CB18     		adds	r3, r1, r3
 1958 011e 1033     		adds	r3, r3, #16
 1959 0120 1B68     		ldr	r3, [r3]
 1960 0122 5B68     		ldr	r3, [r3, #4]
 1961 0124 1800     		movs	r0, r3
 1962 0126 FFF7FEFF 		bl	CyBle_Get16ByPtr
 1963 012a 0300     		movs	r3, r0
 1964 012c 1A00     		movs	r2, r3
 1965 012e 0123     		movs	r3, #1
 1966 0130 1340     		ands	r3, r2
 1967 0132 9BB2     		uxth	r3, r3
 1968 0134 002B     		cmp	r3, #0
 1969 0136 24D0     		beq	.L112
 734:Generated_Source\PSoC4/BLE_hids.c ****                 {
ARM GAS  C:\Users\Intern\AppData\Local\Temp\ccVSLPFx.s 			page 49


 735:Generated_Source\PSoC4/BLE_hids.c ****                     if(cyBle_state == CYBLE_STATE_CONNECTED)
 1970              		.loc 1 735 0
 1971 0138 254B     		ldr	r3, .L116+8
 1972 013a 1B78     		ldrb	r3, [r3]
 1973 013c 022B     		cmp	r3, #2
 1974 013e 1AD1     		bne	.L113
 736:Generated_Source\PSoC4/BLE_hids.c ****                     {
 737:Generated_Source\PSoC4/BLE_hids.c ****                         /* Fill all fields of write request structure ... */
 738:Generated_Source\PSoC4/BLE_hids.c ****                         ntfReqParam.attrHandle = locReport->reportHandle;
 1975              		.loc 1 738 0
 1976 0140 3B6A     		ldr	r3, [r7, #32]
 1977 0142 1A88     		ldrh	r2, [r3]
 1978 0144 1423     		movs	r3, #20
 1979 0146 FB18     		adds	r3, r7, r3
 1980 0148 1A81     		strh	r2, [r3, #8]
 739:Generated_Source\PSoC4/BLE_hids.c ****                         ntfReqParam.value.val = attrValue;
 1981              		.loc 1 739 0
 1982 014a 1423     		movs	r3, #20
 1983 014c FB18     		adds	r3, r7, r3
 1984 014e BA6B     		ldr	r2, [r7, #56]
 1985 0150 1A60     		str	r2, [r3]
 740:Generated_Source\PSoC4/BLE_hids.c ****                         ntfReqParam.value.len = attrSize;
 1986              		.loc 1 740 0
 1987 0152 7B1C     		adds	r3, r7, #1
 1988 0154 1B78     		ldrb	r3, [r3]
 1989 0156 9AB2     		uxth	r2, r3
 1990 0158 1423     		movs	r3, #20
 1991 015a FB18     		adds	r3, r7, r3
 1992 015c 9A80     		strh	r2, [r3, #4]
 741:Generated_Source\PSoC4/BLE_hids.c **** 
 742:Generated_Source\PSoC4/BLE_hids.c ****                         /* Send notification to client using previously filled structure */
 743:Generated_Source\PSoC4/BLE_hids.c ****                         apiResult = CyBle_GattsNotification(connHandle, &ntfReqParam);
 1993              		.loc 1 743 0
 1994 015e 2623     		movs	r3, #38
 1995 0160 FC18     		adds	r4, r7, r3
 1996 0162 1423     		movs	r3, #20
 1997 0164 FA18     		adds	r2, r7, r3
 1998 0166 3B1D     		adds	r3, r7, #4
 1999 0168 1100     		movs	r1, r2
 2000 016a 1868     		ldr	r0, [r3]
 2001 016c FFF7FEFF 		bl	CyBle_GattsNotification
 2002 0170 0300     		movs	r3, r0
 2003 0172 2380     		strh	r3, [r4]
 2004 0174 21E0     		b	.L104
 2005              	.L113:
 744:Generated_Source\PSoC4/BLE_hids.c ****                     }
 745:Generated_Source\PSoC4/BLE_hids.c ****                     else
 746:Generated_Source\PSoC4/BLE_hids.c ****                     {
 747:Generated_Source\PSoC4/BLE_hids.c ****                         apiResult = CYBLE_ERROR_INVALID_STATE;
 2006              		.loc 1 747 0
 2007 0176 2623     		movs	r3, #38
 2008 0178 FB18     		adds	r3, r7, r3
 2009 017a 0422     		movs	r2, #4
 2010 017c FF32     		adds	r2, r2, #255
 2011 017e 1A80     		strh	r2, [r3]
 2012 0180 1BE0     		b	.L104
 2013              	.L112:
ARM GAS  C:\Users\Intern\AppData\Local\Temp\ccVSLPFx.s 			page 50


 748:Generated_Source\PSoC4/BLE_hids.c ****                     }
 749:Generated_Source\PSoC4/BLE_hids.c ****                 }
 750:Generated_Source\PSoC4/BLE_hids.c ****                 else    /* Store data in database */
 751:Generated_Source\PSoC4/BLE_hids.c ****                 {
 752:Generated_Source\PSoC4/BLE_hids.c ****                     locHandleValuePair.attrHandle = locReport->reportHandle;
 2014              		.loc 1 752 0
 2015 0182 3B6A     		ldr	r3, [r7, #32]
 2016 0184 1A88     		ldrh	r2, [r3]
 2017 0186 0823     		movs	r3, #8
 2018 0188 FB18     		adds	r3, r7, r3
 2019 018a 1A81     		strh	r2, [r3, #8]
 753:Generated_Source\PSoC4/BLE_hids.c ****                     locHandleValuePair.value.len = attrSize;
 2020              		.loc 1 753 0
 2021 018c 7B1C     		adds	r3, r7, #1
 2022 018e 1B78     		ldrb	r3, [r3]
 2023 0190 9AB2     		uxth	r2, r3
 2024 0192 0823     		movs	r3, #8
 2025 0194 FB18     		adds	r3, r7, r3
 2026 0196 9A80     		strh	r2, [r3, #4]
 754:Generated_Source\PSoC4/BLE_hids.c ****                     locHandleValuePair.value.val = attrValue;
 2027              		.loc 1 754 0
 2028 0198 0823     		movs	r3, #8
 2029 019a FB18     		adds	r3, r7, r3
 2030 019c BA6B     		ldr	r2, [r7, #56]
 2031 019e 1A60     		str	r2, [r3]
 755:Generated_Source\PSoC4/BLE_hids.c ****                     if(CYBLE_GATT_ERR_NONE !=
 756:Generated_Source\PSoC4/BLE_hids.c ****                         CyBle_GattsWriteAttributeValue(&locHandleValuePair, 0u, NULL, CYBLE_GATT_DB
 2032              		.loc 1 756 0
 2033 01a0 0823     		movs	r3, #8
 2034 01a2 F818     		adds	r0, r7, r3
 2035 01a4 0023     		movs	r3, #0
 2036 01a6 0022     		movs	r2, #0
 2037 01a8 0021     		movs	r1, #0
 2038 01aa FFF7FEFF 		bl	CyBle_GattsWriteAttributeValue
 2039 01ae 031E     		subs	r3, r0, #0
 755:Generated_Source\PSoC4/BLE_hids.c ****                     if(CYBLE_GATT_ERR_NONE !=
 2040              		.loc 1 755 0
 2041 01b0 03D0     		beq	.L104
 757:Generated_Source\PSoC4/BLE_hids.c ****                     {
 758:Generated_Source\PSoC4/BLE_hids.c ****                         apiResult = CYBLE_ERROR_INVALID_PARAMETER;
 2042              		.loc 1 758 0
 2043 01b2 2623     		movs	r3, #38
 2044 01b4 FB18     		adds	r3, r7, r3
 2045 01b6 0122     		movs	r2, #1
 2046 01b8 1A80     		strh	r2, [r3]
 2047              	.L104:
 759:Generated_Source\PSoC4/BLE_hids.c ****                     }
 760:Generated_Source\PSoC4/BLE_hids.c ****                 }
 761:Generated_Source\PSoC4/BLE_hids.c ****             }
 762:Generated_Source\PSoC4/BLE_hids.c ****         }
 763:Generated_Source\PSoC4/BLE_hids.c ****     }
 764:Generated_Source\PSoC4/BLE_hids.c ****     return (apiResult);
 2048              		.loc 1 764 0
 2049 01ba 2623     		movs	r3, #38
 2050 01bc FB18     		adds	r3, r7, r3
 2051 01be 1B88     		ldrh	r3, [r3]
 765:Generated_Source\PSoC4/BLE_hids.c **** }
ARM GAS  C:\Users\Intern\AppData\Local\Temp\ccVSLPFx.s 			page 51


 2052              		.loc 1 765 0
 2053 01c0 1800     		movs	r0, r3
 2054 01c2 BD46     		mov	sp, r7
 2055 01c4 0BB0     		add	sp, sp, #44
 2056              		@ sp needed
 2057 01c6 90BD     		pop	{r4, r7, pc}
 2058              	.L117:
 2059              		.align	2
 2060              	.L116:
 2061 01c8 00000000 		.word	cyBle_hidss
 2062 01cc 00000000 		.word	cyBle_gattDB
 2063 01d0 00000000 		.word	cyBle_state
 2064              		.cfi_endproc
 2065              	.LFE9:
 2066              		.size	CyBle_HidssSendNotification, .-CyBle_HidssSendNotification
 2067              		.section	.text.CyBle_HidssOnDeviceConnected,"ax",%progbits
 2068              		.align	2
 2069              		.global	CyBle_HidssOnDeviceConnected
 2070              		.code	16
 2071              		.thumb_func
 2072              		.type	CyBle_HidssOnDeviceConnected, %function
 2073              	CyBle_HidssOnDeviceConnected:
 2074              	.LFB10:
 766:Generated_Source\PSoC4/BLE_hids.c **** 
 767:Generated_Source\PSoC4/BLE_hids.c **** 
 768:Generated_Source\PSoC4/BLE_hids.c **** /****************************************************************************** 
 769:Generated_Source\PSoC4/BLE_hids.c **** * Function Name: CyBle_HidssOnDeviceConnected
 770:Generated_Source\PSoC4/BLE_hids.c **** ***************************************************************************//**
 771:Generated_Source\PSoC4/BLE_hids.c **** * 
 772:Generated_Source\PSoC4/BLE_hids.c **** *  Handles the connection establishment request.
 773:Generated_Source\PSoC4/BLE_hids.c **** * 
 774:Generated_Source\PSoC4/BLE_hids.c **** ******************************************************************************/
 775:Generated_Source\PSoC4/BLE_hids.c **** void CyBle_HidssOnDeviceConnected(void)
 776:Generated_Source\PSoC4/BLE_hids.c **** {
 2075              		.loc 1 776 0
 2076              		.cfi_startproc
 2077              		@ args = 0, pretend = 0, frame = 8
 2078              		@ frame_needed = 1, uses_anonymous_args = 0
 2079 0000 80B5     		push	{r7, lr}
 2080              		.cfi_def_cfa_offset 8
 2081              		.cfi_offset 7, -8
 2082              		.cfi_offset 14, -4
 2083 0002 82B0     		sub	sp, sp, #8
 2084              		.cfi_def_cfa_offset 16
 2085 0004 00AF     		add	r7, sp, #0
 2086              		.cfi_def_cfa_register 7
 777:Generated_Source\PSoC4/BLE_hids.c ****     /* The Protocol Mode characteristic value shall be reset to the default value
 778:Generated_Source\PSoC4/BLE_hids.c ****        following a connection establishment */
 779:Generated_Source\PSoC4/BLE_hids.c ****     uint8 defaultProtocol = CYBLE_HIDS_PROTOCOL_DEFAULT;
 2087              		.loc 1 779 0
 2088 0006 BB1D     		adds	r3, r7, #6
 2089 0008 0122     		movs	r2, #1
 2090 000a 1A70     		strb	r2, [r3]
 780:Generated_Source\PSoC4/BLE_hids.c ****     uint8 locServIndex = 0u;
 2091              		.loc 1 780 0
 2092 000c FB1D     		adds	r3, r7, #7
 2093 000e 0022     		movs	r2, #0
ARM GAS  C:\Users\Intern\AppData\Local\Temp\ccVSLPFx.s 			page 52


 2094 0010 1A70     		strb	r2, [r3]
 2095              	.L120:
 781:Generated_Source\PSoC4/BLE_hids.c ****     do
 782:Generated_Source\PSoC4/BLE_hids.c ****     {
 783:Generated_Source\PSoC4/BLE_hids.c ****         if(cyBle_hidss[locServIndex].protocolModeHandle !=
 2096              		.loc 1 783 0
 2097 0012 FB1D     		adds	r3, r7, #7
 2098 0014 1A78     		ldrb	r2, [r3]
 2099 0016 1749     		ldr	r1, .L121
 2100 0018 1300     		movs	r3, r2
 2101 001a 9B00     		lsls	r3, r3, #2
 2102 001c 9B18     		adds	r3, r3, r2
 2103 001e DB00     		lsls	r3, r3, #3
 2104 0020 CB18     		adds	r3, r1, r3
 2105 0022 0233     		adds	r3, r3, #2
 2106 0024 1B88     		ldrh	r3, [r3]
 2107 0026 002B     		cmp	r3, #0
 2108 0028 16D0     		beq	.L119
 784:Generated_Source\PSoC4/BLE_hids.c ****            CYBLE_GATT_INVALID_ATTR_HANDLE_VALUE)
 785:Generated_Source\PSoC4/BLE_hids.c ****         {
 786:Generated_Source\PSoC4/BLE_hids.c ****             /* Store default protocol value in database */
 787:Generated_Source\PSoC4/BLE_hids.c ****             CYBLE_GATT_DB_ATTR_SET_GEN_VALUE(cyBle_hidss[locServIndex].protocolModeHandle,
 2109              		.loc 1 787 0
 2110 002a FB1D     		adds	r3, r7, #7
 2111 002c 1A78     		ldrb	r2, [r3]
 2112 002e 1149     		ldr	r1, .L121
 2113 0030 1300     		movs	r3, r2
 2114 0032 9B00     		lsls	r3, r3, #2
 2115 0034 9B18     		adds	r3, r3, r2
 2116 0036 DB00     		lsls	r3, r3, #3
 2117 0038 CB18     		adds	r3, r1, r3
 2118 003a 0233     		adds	r3, r3, #2
 2119 003c 1B88     		ldrh	r3, [r3]
 2120 003e 5A1E     		subs	r2, r3, #1
 2121 0040 0D49     		ldr	r1, .L121+4
 2122 0042 1300     		movs	r3, r2
 2123 0044 9B00     		lsls	r3, r3, #2
 2124 0046 9B18     		adds	r3, r3, r2
 2125 0048 9B00     		lsls	r3, r3, #2
 2126 004a CB18     		adds	r3, r1, r3
 2127 004c 1033     		adds	r3, r3, #16
 2128 004e 1B68     		ldr	r3, [r3]
 2129 0050 5B68     		ldr	r3, [r3, #4]
 2130 0052 BA1D     		adds	r2, r7, #6
 2131 0054 1278     		ldrb	r2, [r2]
 2132 0056 1A70     		strb	r2, [r3]
 2133              	.L119:
 788:Generated_Source\PSoC4/BLE_hids.c ****                                                     &defaultProtocol, sizeof(defaultProtocol));
 789:Generated_Source\PSoC4/BLE_hids.c ****         }
 790:Generated_Source\PSoC4/BLE_hids.c ****         ++locServIndex;
 2134              		.loc 1 790 0
 2135 0058 FB1D     		adds	r3, r7, #7
 2136 005a FA1D     		adds	r2, r7, #7
 2137 005c 1278     		ldrb	r2, [r2]
 2138 005e 0132     		adds	r2, r2, #1
 2139 0060 1A70     		strb	r2, [r3]
 791:Generated_Source\PSoC4/BLE_hids.c ****     }while(locServIndex < CYBLE_HIDSS_SERVICE_COUNT);
ARM GAS  C:\Users\Intern\AppData\Local\Temp\ccVSLPFx.s 			page 53


 2140              		.loc 1 791 0
 2141 0062 FB1D     		adds	r3, r7, #7
 2142 0064 1B78     		ldrb	r3, [r3]
 2143 0066 002B     		cmp	r3, #0
 2144 0068 D3D0     		beq	.L120
 792:Generated_Source\PSoC4/BLE_hids.c **** }
 2145              		.loc 1 792 0
 2146 006a C046     		nop
 2147 006c BD46     		mov	sp, r7
 2148 006e 02B0     		add	sp, sp, #8
 2149              		@ sp needed
 2150 0070 80BD     		pop	{r7, pc}
 2151              	.L122:
 2152 0072 C046     		.align	2
 2153              	.L121:
 2154 0074 00000000 		.word	cyBle_hidss
 2155 0078 00000000 		.word	cyBle_gattDB
 2156              		.cfi_endproc
 2157              	.LFE10:
 2158              		.size	CyBle_HidssOnDeviceConnected, .-CyBle_HidssOnDeviceConnected
 2159              		.text
 2160              	.Letext0:
 2161              		.file 2 "Generated_Source\\PSoC4\\cytypes.h"
 2162              		.file 3 "Generated_Source\\PSoC4\\BLE_Stack.h"
 2163              		.file 4 "Generated_Source\\PSoC4\\BLE_StackGatt.h"
 2164              		.file 5 "Generated_Source\\PSoC4\\BLE_StackGattServer.h"
 2165              		.file 6 "Generated_Source\\PSoC4\\BLE_StackGattDb.h"
 2166              		.file 7 "Generated_Source\\PSoC4\\BLE.h"
 2167              		.file 8 "Generated_Source\\PSoC4\\BLE_dis.h"
 2168              		.file 9 "Generated_Source\\PSoC4\\BLE_hids.h"
 2169              		.file 10 "Generated_Source\\PSoC4\\BLE_eventHandler.h"
 2170              		.file 11 "Generated_Source\\PSoC4\\BLE_gatt.h"
 2171              		.section	.debug_info,"",%progbits
 2172              	.Ldebug_info0:
 2173 0000 E1140000 		.4byte	0x14e1
 2174 0004 0400     		.2byte	0x4
 2175 0006 00000000 		.4byte	.Ldebug_abbrev0
 2176 000a 04       		.byte	0x4
 2177 000b 01       		.uleb128 0x1
 2178 000c CA190000 		.4byte	.LASF571
 2179 0010 0C       		.byte	0xc
 2180 0011 30180000 		.4byte	.LASF572
 2181 0015 111E0000 		.4byte	.LASF573
 2182 0019 00000000 		.4byte	.Ldebug_ranges0+0
 2183 001d 00000000 		.4byte	0
 2184 0021 00000000 		.4byte	.Ldebug_line0
 2185 0025 02       		.uleb128 0x2
 2186 0026 01       		.byte	0x1
 2187 0027 06       		.byte	0x6
 2188 0028 AE0E0000 		.4byte	.LASF0
 2189 002c 02       		.uleb128 0x2
 2190 002d 01       		.byte	0x1
 2191 002e 08       		.byte	0x8
 2192 002f B70F0000 		.4byte	.LASF1
 2193 0033 02       		.uleb128 0x2
 2194 0034 02       		.byte	0x2
 2195 0035 05       		.byte	0x5
ARM GAS  C:\Users\Intern\AppData\Local\Temp\ccVSLPFx.s 			page 54


 2196 0036 74370000 		.4byte	.LASF2
 2197 003a 02       		.uleb128 0x2
 2198 003b 02       		.byte	0x2
 2199 003c 07       		.byte	0x7
 2200 003d 3F3F0000 		.4byte	.LASF3
 2201 0041 02       		.uleb128 0x2
 2202 0042 04       		.byte	0x4
 2203 0043 05       		.byte	0x5
 2204 0044 610B0000 		.4byte	.LASF4
 2205 0048 02       		.uleb128 0x2
 2206 0049 04       		.byte	0x4
 2207 004a 07       		.byte	0x7
 2208 004b 781C0000 		.4byte	.LASF5
 2209 004f 02       		.uleb128 0x2
 2210 0050 08       		.byte	0x8
 2211 0051 05       		.byte	0x5
 2212 0052 92210000 		.4byte	.LASF6
 2213 0056 02       		.uleb128 0x2
 2214 0057 08       		.byte	0x8
 2215 0058 07       		.byte	0x7
 2216 0059 702F0000 		.4byte	.LASF7
 2217 005d 03       		.uleb128 0x3
 2218 005e 04       		.byte	0x4
 2219 005f 05       		.byte	0x5
 2220 0060 696E7400 		.ascii	"int\000"
 2221 0064 02       		.uleb128 0x2
 2222 0065 04       		.byte	0x4
 2223 0066 07       		.byte	0x7
 2224 0067 B8260000 		.4byte	.LASF8
 2225 006b 04       		.uleb128 0x4
 2226 006c DC360000 		.4byte	.LASF9
 2227 0070 02       		.byte	0x2
 2228 0071 E401     		.2byte	0x1e4
 2229 0073 2C000000 		.4byte	0x2c
 2230 0077 04       		.uleb128 0x4
 2231 0078 63420000 		.4byte	.LASF10
 2232 007c 02       		.byte	0x2
 2233 007d E501     		.2byte	0x1e5
 2234 007f 3A000000 		.4byte	0x3a
 2235 0083 04       		.uleb128 0x4
 2236 0084 87030000 		.4byte	.LASF11
 2237 0088 02       		.byte	0x2
 2238 0089 E601     		.2byte	0x1e6
 2239 008b 48000000 		.4byte	0x48
 2240 008f 02       		.uleb128 0x2
 2241 0090 04       		.byte	0x4
 2242 0091 04       		.byte	0x4
 2243 0092 21250000 		.4byte	.LASF12
 2244 0096 02       		.uleb128 0x2
 2245 0097 08       		.byte	0x8
 2246 0098 04       		.byte	0x4
 2247 0099 07230000 		.4byte	.LASF13
 2248 009d 02       		.uleb128 0x2
 2249 009e 01       		.byte	0x1
 2250 009f 08       		.byte	0x8
 2251 00a0 1D120000 		.4byte	.LASF14
 2252 00a4 05       		.uleb128 0x5
ARM GAS  C:\Users\Intern\AppData\Local\Temp\ccVSLPFx.s 			page 55


 2253 00a5 6B000000 		.4byte	0x6b
 2254 00a9 02       		.uleb128 0x2
 2255 00aa 08       		.byte	0x8
 2256 00ab 04       		.byte	0x4
 2257 00ac 132C0000 		.4byte	.LASF15
 2258 00b0 02       		.uleb128 0x2
 2259 00b1 04       		.byte	0x4
 2260 00b2 07       		.byte	0x7
 2261 00b3 A6000000 		.4byte	.LASF16
 2262 00b7 06       		.uleb128 0x6
 2263 00b8 04       		.byte	0x4
 2264 00b9 07       		.uleb128 0x7
 2265 00ba 04       		.byte	0x4
 2266 00bb BF000000 		.4byte	0xbf
 2267 00bf 08       		.uleb128 0x8
 2268 00c0 CF000000 		.4byte	0xcf
 2269 00c4 09       		.uleb128 0x9
 2270 00c5 83000000 		.4byte	0x83
 2271 00c9 09       		.uleb128 0x9
 2272 00ca B7000000 		.4byte	0xb7
 2273 00ce 00       		.byte	0
 2274 00cf 0A       		.uleb128 0xa
 2275 00d0 01       		.byte	0x1
 2276 00d1 2C000000 		.4byte	0x2c
 2277 00d5 03       		.byte	0x3
 2278 00d6 3501     		.2byte	0x135
 2279 00d8 8D020000 		.4byte	0x28d
 2280 00dc 0B       		.uleb128 0xb
 2281 00dd E2120000 		.4byte	.LASF17
 2282 00e1 00       		.byte	0
 2283 00e2 0B       		.uleb128 0xb
 2284 00e3 F90B0000 		.4byte	.LASF18
 2285 00e7 01       		.byte	0x1
 2286 00e8 0B       		.uleb128 0xb
 2287 00e9 A52F0000 		.4byte	.LASF19
 2288 00ed 02       		.byte	0x2
 2289 00ee 0B       		.uleb128 0xb
 2290 00ef 240F0000 		.4byte	.LASF20
 2291 00f3 03       		.byte	0x3
 2292 00f4 0B       		.uleb128 0xb
 2293 00f5 77400000 		.4byte	.LASF21
 2294 00f9 04       		.byte	0x4
 2295 00fa 0B       		.uleb128 0xb
 2296 00fb C93D0000 		.4byte	.LASF22
 2297 00ff 05       		.byte	0x5
 2298 0100 0B       		.uleb128 0xb
 2299 0101 602C0000 		.4byte	.LASF23
 2300 0105 06       		.byte	0x6
 2301 0106 0B       		.uleb128 0xb
 2302 0107 A9390000 		.4byte	.LASF24
 2303 010b 20       		.byte	0x20
 2304 010c 0B       		.uleb128 0xb
 2305 010d 53080000 		.4byte	.LASF25
 2306 0111 21       		.byte	0x21
 2307 0112 0B       		.uleb128 0xb
 2308 0113 70200000 		.4byte	.LASF26
 2309 0117 22       		.byte	0x22
ARM GAS  C:\Users\Intern\AppData\Local\Temp\ccVSLPFx.s 			page 56


 2310 0118 0B       		.uleb128 0xb
 2311 0119 5C2A0000 		.4byte	.LASF27
 2312 011d 23       		.byte	0x23
 2313 011e 0B       		.uleb128 0xb
 2314 011f 0B1B0000 		.4byte	.LASF28
 2315 0123 24       		.byte	0x24
 2316 0124 0B       		.uleb128 0xb
 2317 0125 6E1B0000 		.4byte	.LASF29
 2318 0129 25       		.byte	0x25
 2319 012a 0B       		.uleb128 0xb
 2320 012b 05360000 		.4byte	.LASF30
 2321 012f 26       		.byte	0x26
 2322 0130 0B       		.uleb128 0xb
 2323 0131 FE020000 		.4byte	.LASF31
 2324 0135 27       		.byte	0x27
 2325 0136 0B       		.uleb128 0xb
 2326 0137 B1410000 		.4byte	.LASF32
 2327 013b 28       		.byte	0x28
 2328 013c 0B       		.uleb128 0xb
 2329 013d 3F2D0000 		.4byte	.LASF33
 2330 0141 29       		.byte	0x29
 2331 0142 0B       		.uleb128 0xb
 2332 0143 4B1F0000 		.4byte	.LASF34
 2333 0147 2A       		.byte	0x2a
 2334 0148 0B       		.uleb128 0xb
 2335 0149 AA290000 		.4byte	.LASF35
 2336 014d 2B       		.byte	0x2b
 2337 014e 0B       		.uleb128 0xb
 2338 014f 273E0000 		.4byte	.LASF36
 2339 0153 2C       		.byte	0x2c
 2340 0154 0B       		.uleb128 0xb
 2341 0155 DA010000 		.4byte	.LASF37
 2342 0159 2D       		.byte	0x2d
 2343 015a 0B       		.uleb128 0xb
 2344 015b 04370000 		.4byte	.LASF38
 2345 015f 2E       		.byte	0x2e
 2346 0160 0B       		.uleb128 0xb
 2347 0161 AB090000 		.4byte	.LASF39
 2348 0165 2F       		.byte	0x2f
 2349 0166 0B       		.uleb128 0xb
 2350 0167 D7110000 		.4byte	.LASF40
 2351 016b 30       		.byte	0x30
 2352 016c 0B       		.uleb128 0xb
 2353 016d 10240000 		.4byte	.LASF41
 2354 0171 31       		.byte	0x31
 2355 0172 0B       		.uleb128 0xb
 2356 0173 17130000 		.4byte	.LASF42
 2357 0177 32       		.byte	0x32
 2358 0178 0B       		.uleb128 0xb
 2359 0179 8E100000 		.4byte	.LASF43
 2360 017d 33       		.byte	0x33
 2361 017e 0B       		.uleb128 0xb
 2362 017f B5100000 		.4byte	.LASF44
 2363 0183 34       		.byte	0x34
 2364 0184 0B       		.uleb128 0xb
 2365 0185 FB3A0000 		.4byte	.LASF45
 2366 0189 35       		.byte	0x35
ARM GAS  C:\Users\Intern\AppData\Local\Temp\ccVSLPFx.s 			page 57


 2367 018a 0B       		.uleb128 0xb
 2368 018b 50090000 		.4byte	.LASF46
 2369 018f 36       		.byte	0x36
 2370 0190 0B       		.uleb128 0xb
 2371 0191 842E0000 		.4byte	.LASF47
 2372 0195 37       		.byte	0x37
 2373 0196 0B       		.uleb128 0xb
 2374 0197 80380000 		.4byte	.LASF48
 2375 019b 40       		.byte	0x40
 2376 019c 0B       		.uleb128 0xb
 2377 019d 40030000 		.4byte	.LASF49
 2378 01a1 41       		.byte	0x41
 2379 01a2 0B       		.uleb128 0xb
 2380 01a3 8C400000 		.4byte	.LASF50
 2381 01a7 42       		.byte	0x42
 2382 01a8 0B       		.uleb128 0xb
 2383 01a9 BE2D0000 		.4byte	.LASF51
 2384 01ad 43       		.byte	0x43
 2385 01ae 0B       		.uleb128 0xb
 2386 01af C50F0000 		.4byte	.LASF52
 2387 01b3 44       		.byte	0x44
 2388 01b4 0B       		.uleb128 0xb
 2389 01b5 590F0000 		.4byte	.LASF53
 2390 01b9 45       		.byte	0x45
 2391 01ba 0B       		.uleb128 0xb
 2392 01bb 65330000 		.4byte	.LASF54
 2393 01bf 46       		.byte	0x46
 2394 01c0 0B       		.uleb128 0xb
 2395 01c1 47330000 		.4byte	.LASF55
 2396 01c5 47       		.byte	0x47
 2397 01c6 0B       		.uleb128 0xb
 2398 01c7 8B110000 		.4byte	.LASF56
 2399 01cb 48       		.byte	0x48
 2400 01cc 0B       		.uleb128 0xb
 2401 01cd C12A0000 		.4byte	.LASF57
 2402 01d1 49       		.byte	0x49
 2403 01d2 0B       		.uleb128 0xb
 2404 01d3 78130000 		.4byte	.LASF58
 2405 01d7 4A       		.byte	0x4a
 2406 01d8 0B       		.uleb128 0xb
 2407 01d9 89120000 		.4byte	.LASF59
 2408 01dd 4B       		.byte	0x4b
 2409 01de 0B       		.uleb128 0xb
 2410 01df 042A0000 		.4byte	.LASF60
 2411 01e3 4C       		.byte	0x4c
 2412 01e4 0B       		.uleb128 0xb
 2413 01e5 21350000 		.4byte	.LASF61
 2414 01e9 4D       		.byte	0x4d
 2415 01ea 0B       		.uleb128 0xb
 2416 01eb FC0A0000 		.4byte	.LASF62
 2417 01ef 4E       		.byte	0x4e
 2418 01f0 0B       		.uleb128 0xb
 2419 01f1 C5260000 		.4byte	.LASF63
 2420 01f5 4F       		.byte	0x4f
 2421 01f6 0B       		.uleb128 0xb
 2422 01f7 8A390000 		.4byte	.LASF64
 2423 01fb 50       		.byte	0x50
ARM GAS  C:\Users\Intern\AppData\Local\Temp\ccVSLPFx.s 			page 58


 2424 01fc 0B       		.uleb128 0xb
 2425 01fd DC130000 		.4byte	.LASF65
 2426 0201 51       		.byte	0x51
 2427 0202 0B       		.uleb128 0xb
 2428 0203 32080000 		.4byte	.LASF66
 2429 0207 52       		.byte	0x52
 2430 0208 0B       		.uleb128 0xb
 2431 0209 263D0000 		.4byte	.LASF67
 2432 020d 53       		.byte	0x53
 2433 020e 0B       		.uleb128 0xb
 2434 020f F3410000 		.4byte	.LASF68
 2435 0213 54       		.byte	0x54
 2436 0214 0B       		.uleb128 0xb
 2437 0215 A0060000 		.4byte	.LASF69
 2438 0219 55       		.byte	0x55
 2439 021a 0B       		.uleb128 0xb
 2440 021b D5140000 		.4byte	.LASF70
 2441 021f 56       		.byte	0x56
 2442 0220 0B       		.uleb128 0xb
 2443 0221 CD250000 		.4byte	.LASF71
 2444 0225 57       		.byte	0x57
 2445 0226 0B       		.uleb128 0xb
 2446 0227 72410000 		.4byte	.LASF72
 2447 022b 58       		.byte	0x58
 2448 022c 0B       		.uleb128 0xb
 2449 022d 703E0000 		.4byte	.LASF73
 2450 0231 70       		.byte	0x70
 2451 0232 0B       		.uleb128 0xb
 2452 0233 48190000 		.4byte	.LASF74
 2453 0237 71       		.byte	0x71
 2454 0238 0B       		.uleb128 0xb
 2455 0239 0D0E0000 		.4byte	.LASF75
 2456 023d 72       		.byte	0x72
 2457 023e 0B       		.uleb128 0xb
 2458 023f 6C390000 		.4byte	.LASF76
 2459 0243 73       		.byte	0x73
 2460 0244 0B       		.uleb128 0xb
 2461 0245 342B0000 		.4byte	.LASF77
 2462 0249 74       		.byte	0x74
 2463 024a 0B       		.uleb128 0xb
 2464 024b D41F0000 		.4byte	.LASF78
 2465 024f 75       		.byte	0x75
 2466 0250 0B       		.uleb128 0xb
 2467 0251 6A110000 		.4byte	.LASF79
 2468 0255 76       		.byte	0x76
 2469 0256 0B       		.uleb128 0xb
 2470 0257 66300000 		.4byte	.LASF80
 2471 025b 77       		.byte	0x77
 2472 025c 0B       		.uleb128 0xb
 2473 025d C4060000 		.4byte	.LASF81
 2474 0261 78       		.byte	0x78
 2475 0262 0B       		.uleb128 0xb
 2476 0263 3E0B0000 		.4byte	.LASF82
 2477 0267 79       		.byte	0x79
 2478 0268 0B       		.uleb128 0xb
 2479 0269 D0400000 		.4byte	.LASF83
 2480 026d 7A       		.byte	0x7a
ARM GAS  C:\Users\Intern\AppData\Local\Temp\ccVSLPFx.s 			page 59


 2481 026e 0B       		.uleb128 0xb
 2482 026f 53230000 		.4byte	.LASF84
 2483 0273 FA       		.byte	0xfa
 2484 0274 0B       		.uleb128 0xb
 2485 0275 3A3C0000 		.4byte	.LASF85
 2486 0279 FB       		.byte	0xfb
 2487 027a 0B       		.uleb128 0xb
 2488 027b 6E190000 		.4byte	.LASF86
 2489 027f FC       		.byte	0xfc
 2490 0280 0B       		.uleb128 0xb
 2491 0281 FB2B0000 		.4byte	.LASF87
 2492 0285 FD       		.byte	0xfd
 2493 0286 0B       		.uleb128 0xb
 2494 0287 9C290000 		.4byte	.LASF88
 2495 028b FF       		.byte	0xff
 2496 028c 00       		.byte	0
 2497 028d 0A       		.uleb128 0xa
 2498 028e 02       		.byte	0x2
 2499 028f 3A000000 		.4byte	0x3a
 2500 0293 03       		.byte	0x3
 2501 0294 EA03     		.2byte	0x3ea
 2502 0296 6C030000 		.4byte	0x36c
 2503 029a 0B       		.uleb128 0xb
 2504 029b 3D0F0000 		.4byte	.LASF89
 2505 029f 00       		.byte	0
 2506 02a0 0B       		.uleb128 0xb
 2507 02a1 6D160000 		.4byte	.LASF90
 2508 02a5 01       		.byte	0x1
 2509 02a6 0B       		.uleb128 0xb
 2510 02a7 59400000 		.4byte	.LASF91
 2511 02ab 02       		.byte	0x2
 2512 02ac 0B       		.uleb128 0xb
 2513 02ad B9170000 		.4byte	.LASF92
 2514 02b1 03       		.byte	0x3
 2515 02b2 0B       		.uleb128 0xb
 2516 02b3 E61B0000 		.4byte	.LASF93
 2517 02b7 04       		.byte	0x4
 2518 02b8 0B       		.uleb128 0xb
 2519 02b9 C6220000 		.4byte	.LASF94
 2520 02bd 05       		.byte	0x5
 2521 02be 0B       		.uleb128 0xb
 2522 02bf FD3B0000 		.4byte	.LASF95
 2523 02c3 06       		.byte	0x6
 2524 02c4 0B       		.uleb128 0xb
 2525 02c5 5B130000 		.4byte	.LASF96
 2526 02c9 07       		.byte	0x7
 2527 02ca 0B       		.uleb128 0xb
 2528 02cb C6240000 		.4byte	.LASF97
 2529 02cf 08       		.byte	0x8
 2530 02d0 0B       		.uleb128 0xb
 2531 02d1 853A0000 		.4byte	.LASF98
 2532 02d5 09       		.byte	0x9
 2533 02d6 0B       		.uleb128 0xb
 2534 02d7 8E420000 		.4byte	.LASF99
 2535 02db 0A       		.byte	0xa
 2536 02dc 0B       		.uleb128 0xb
 2537 02dd C9080000 		.4byte	.LASF100
ARM GAS  C:\Users\Intern\AppData\Local\Temp\ccVSLPFx.s 			page 60


 2538 02e1 0B       		.byte	0xb
 2539 02e2 0B       		.uleb128 0xb
 2540 02e3 993D0000 		.4byte	.LASF101
 2541 02e7 0C       		.byte	0xc
 2542 02e8 0B       		.uleb128 0xb
 2543 02e9 BC280000 		.4byte	.LASF102
 2544 02ed 0D       		.byte	0xd
 2545 02ee 0B       		.uleb128 0xb
 2546 02ef BE1D0000 		.4byte	.LASF103
 2547 02f3 0E       		.byte	0xe
 2548 02f4 0B       		.uleb128 0xb
 2549 02f5 A1220000 		.4byte	.LASF104
 2550 02f9 0F       		.byte	0xf
 2551 02fa 0B       		.uleb128 0xb
 2552 02fb EA050000 		.4byte	.LASF105
 2553 02ff 10       		.byte	0x10
 2554 0300 0B       		.uleb128 0xb
 2555 0301 7E240000 		.4byte	.LASF106
 2556 0305 11       		.byte	0x11
 2557 0306 0B       		.uleb128 0xb
 2558 0307 0C0C0000 		.4byte	.LASF107
 2559 030b 12       		.byte	0x12
 2560 030c 0B       		.uleb128 0xb
 2561 030d 860E0000 		.4byte	.LASF108
 2562 0311 13       		.byte	0x13
 2563 0312 0B       		.uleb128 0xb
 2564 0313 0E230000 		.4byte	.LASF109
 2565 0317 27       		.byte	0x27
 2566 0318 0B       		.uleb128 0xb
 2567 0319 82250000 		.4byte	.LASF110
 2568 031d 28       		.byte	0x28
 2569 031e 0B       		.uleb128 0xb
 2570 031f 47060000 		.4byte	.LASF111
 2571 0323 29       		.byte	0x29
 2572 0324 0B       		.uleb128 0xb
 2573 0325 EA370000 		.4byte	.LASF112
 2574 0329 2A       		.byte	0x2a
 2575 032a 0B       		.uleb128 0xb
 2576 032b 201D0000 		.4byte	.LASF113
 2577 032f 2B       		.byte	0x2b
 2578 0330 0B       		.uleb128 0xb
 2579 0331 36310000 		.4byte	.LASF114
 2580 0335 2C       		.byte	0x2c
 2581 0336 0B       		.uleb128 0xb
 2582 0337 C3340000 		.4byte	.LASF115
 2583 033b 2D       		.byte	0x2d
 2584 033c 0B       		.uleb128 0xb
 2585 033d 51160000 		.4byte	.LASF116
 2586 0341 FE       		.byte	0xfe
 2587 0342 0B       		.uleb128 0xb
 2588 0343 15190000 		.4byte	.LASF117
 2589 0347 FF       		.byte	0xff
 2590 0348 0C       		.uleb128 0xc
 2591 0349 9B2A0000 		.4byte	.LASF118
 2592 034d 0001     		.2byte	0x100
 2593 034f 0C       		.uleb128 0xc
 2594 0350 822A0000 		.4byte	.LASF119
ARM GAS  C:\Users\Intern\AppData\Local\Temp\ccVSLPFx.s 			page 61


 2595 0354 0101     		.2byte	0x101
 2596 0356 0C       		.uleb128 0xc
 2597 0357 3A0D0000 		.4byte	.LASF120
 2598 035b 0201     		.2byte	0x102
 2599 035d 0C       		.uleb128 0xc
 2600 035e 0D300000 		.4byte	.LASF121
 2601 0362 0301     		.2byte	0x103
 2602 0364 0C       		.uleb128 0xc
 2603 0365 A51B0000 		.4byte	.LASF122
 2604 0369 0401     		.2byte	0x104
 2605 036b 00       		.byte	0
 2606 036c 04       		.uleb128 0x4
 2607 036d 593C0000 		.4byte	.LASF123
 2608 0371 03       		.byte	0x3
 2609 0372 5C04     		.2byte	0x45c
 2610 0374 8D020000 		.4byte	0x28d
 2611 0378 07       		.uleb128 0x7
 2612 0379 04       		.byte	0x4
 2613 037a 6B000000 		.4byte	0x6b
 2614 037e 0D       		.uleb128 0xd
 2615 037f 01       		.byte	0x1
 2616 0380 2C000000 		.4byte	0x2c
 2617 0384 04       		.byte	0x4
 2618 0385 A5       		.byte	0xa5
 2619 0386 75040000 		.4byte	0x475
 2620 038a 0B       		.uleb128 0xb
 2621 038b 85300000 		.4byte	.LASF124
 2622 038f 00       		.byte	0
 2623 0390 0B       		.uleb128 0xb
 2624 0391 872F0000 		.4byte	.LASF125
 2625 0395 01       		.byte	0x1
 2626 0396 0B       		.uleb128 0xb
 2627 0397 68050000 		.4byte	.LASF126
 2628 039b 02       		.byte	0x2
 2629 039c 0B       		.uleb128 0xb
 2630 039d 1C3F0000 		.4byte	.LASF127
 2631 03a1 03       		.byte	0x3
 2632 03a2 0B       		.uleb128 0xb
 2633 03a3 130D0000 		.4byte	.LASF128
 2634 03a7 04       		.byte	0x4
 2635 03a8 0B       		.uleb128 0xb
 2636 03a9 F1260000 		.4byte	.LASF129
 2637 03ad 05       		.byte	0x5
 2638 03ae 0B       		.uleb128 0xb
 2639 03af 5B380000 		.4byte	.LASF130
 2640 03b3 06       		.byte	0x6
 2641 03b4 0B       		.uleb128 0xb
 2642 03b5 F42A0000 		.4byte	.LASF131
 2643 03b9 07       		.byte	0x7
 2644 03ba 0B       		.uleb128 0xb
 2645 03bb 1A260000 		.4byte	.LASF132
 2646 03bf 08       		.byte	0x8
 2647 03c0 0B       		.uleb128 0xb
 2648 03c1 57220000 		.4byte	.LASF133
 2649 03c5 09       		.byte	0x9
 2650 03c6 0B       		.uleb128 0xb
 2651 03c7 06290000 		.4byte	.LASF134
ARM GAS  C:\Users\Intern\AppData\Local\Temp\ccVSLPFx.s 			page 62


 2652 03cb 0A       		.byte	0xa
 2653 03cc 0B       		.uleb128 0xb
 2654 03cd 55140000 		.4byte	.LASF135
 2655 03d1 0B       		.byte	0xb
 2656 03d2 0B       		.uleb128 0xb
 2657 03d3 71230000 		.4byte	.LASF136
 2658 03d7 0C       		.byte	0xc
 2659 03d8 0B       		.uleb128 0xb
 2660 03d9 4E0E0000 		.4byte	.LASF137
 2661 03dd 0D       		.byte	0xd
 2662 03de 0B       		.uleb128 0xb
 2663 03df F9120000 		.4byte	.LASF138
 2664 03e3 0E       		.byte	0xe
 2665 03e4 0B       		.uleb128 0xb
 2666 03e5 523F0000 		.4byte	.LASF139
 2667 03e9 0F       		.byte	0xf
 2668 03ea 0B       		.uleb128 0xb
 2669 03eb C4050000 		.4byte	.LASF140
 2670 03ef 10       		.byte	0x10
 2671 03f0 0B       		.uleb128 0xb
 2672 03f1 8A050000 		.4byte	.LASF141
 2673 03f5 11       		.byte	0x11
 2674 03f6 0B       		.uleb128 0xb
 2675 03f7 42070000 		.4byte	.LASF142
 2676 03fb 80       		.byte	0x80
 2677 03fc 0B       		.uleb128 0xb
 2678 03fd FB130000 		.4byte	.LASF143
 2679 0401 80       		.byte	0x80
 2680 0402 0B       		.uleb128 0xb
 2681 0403 DD1A0000 		.4byte	.LASF144
 2682 0407 80       		.byte	0x80
 2683 0408 0B       		.uleb128 0xb
 2684 0409 07380000 		.4byte	.LASF145
 2685 040d 80       		.byte	0x80
 2686 040e 0B       		.uleb128 0xb
 2687 040f 71310000 		.4byte	.LASF146
 2688 0413 80       		.byte	0x80
 2689 0414 0B       		.uleb128 0xb
 2690 0415 46280000 		.4byte	.LASF147
 2691 0419 80       		.byte	0x80
 2692 041a 0B       		.uleb128 0xb
 2693 041b 2F1C0000 		.4byte	.LASF148
 2694 041f 80       		.byte	0x80
 2695 0420 0B       		.uleb128 0xb
 2696 0421 F22F0000 		.4byte	.LASF149
 2697 0425 80       		.byte	0x80
 2698 0426 0B       		.uleb128 0xb
 2699 0427 B0180000 		.4byte	.LASF150
 2700 042b 81       		.byte	0x81
 2701 042c 0B       		.uleb128 0xb
 2702 042d F3330000 		.4byte	.LASF151
 2703 0431 81       		.byte	0x81
 2704 0432 0B       		.uleb128 0xb
 2705 0433 76000000 		.4byte	.LASF152
 2706 0437 81       		.byte	0x81
 2707 0438 0B       		.uleb128 0xb
 2708 0439 9A0C0000 		.4byte	.LASF153
ARM GAS  C:\Users\Intern\AppData\Local\Temp\ccVSLPFx.s 			page 63


 2709 043d 81       		.byte	0x81
 2710 043e 0B       		.uleb128 0xb
 2711 043f DD090000 		.4byte	.LASF154
 2712 0443 82       		.byte	0x82
 2713 0444 0B       		.uleb128 0xb
 2714 0445 563B0000 		.4byte	.LASF155
 2715 0449 A0       		.byte	0xa0
 2716 044a 0B       		.uleb128 0xb
 2717 044b 761E0000 		.4byte	.LASF156
 2718 044f A0       		.byte	0xa0
 2719 0450 0B       		.uleb128 0xb
 2720 0451 280A0000 		.4byte	.LASF157
 2721 0455 A1       		.byte	0xa1
 2722 0456 0B       		.uleb128 0xb
 2723 0457 5F3A0000 		.4byte	.LASF158
 2724 045b A2       		.byte	0xa2
 2725 045c 0B       		.uleb128 0xb
 2726 045d 36150000 		.4byte	.LASF159
 2727 0461 A3       		.byte	0xa3
 2728 0462 0B       		.uleb128 0xb
 2729 0463 BC1B0000 		.4byte	.LASF160
 2730 0467 FD       		.byte	0xfd
 2731 0468 0B       		.uleb128 0xb
 2732 0469 BF230000 		.4byte	.LASF161
 2733 046d FE       		.byte	0xfe
 2734 046e 0B       		.uleb128 0xb
 2735 046f C52B0000 		.4byte	.LASF162
 2736 0473 FF       		.byte	0xff
 2737 0474 00       		.byte	0
 2738 0475 04       		.uleb128 0x4
 2739 0476 493A0000 		.4byte	.LASF163
 2740 047a 04       		.byte	0x4
 2741 047b 5F01     		.2byte	0x15f
 2742 047d 7E030000 		.4byte	0x37e
 2743 0481 04       		.uleb128 0x4
 2744 0482 27300000 		.4byte	.LASF164
 2745 0486 04       		.byte	0x4
 2746 0487 8901     		.2byte	0x189
 2747 0489 77000000 		.4byte	0x77
 2748 048d 0E       		.uleb128 0xe
 2749 048e 02       		.byte	0x2
 2750 048f 04       		.byte	0x4
 2751 0490 9301     		.2byte	0x193
 2752 0492 B1040000 		.4byte	0x4b1
 2753 0496 0F       		.uleb128 0xf
 2754 0497 D4090000 		.4byte	.LASF165
 2755 049b 04       		.byte	0x4
 2756 049c 9A01     		.2byte	0x19a
 2757 049e 6B000000 		.4byte	0x6b
 2758 04a2 00       		.byte	0
 2759 04a3 0F       		.uleb128 0xf
 2760 04a4 53400000 		.4byte	.LASF166
 2761 04a8 04       		.byte	0x4
 2762 04a9 A001     		.2byte	0x1a0
 2763 04ab 6B000000 		.4byte	0x6b
 2764 04af 01       		.byte	0x1
 2765 04b0 00       		.byte	0
ARM GAS  C:\Users\Intern\AppData\Local\Temp\ccVSLPFx.s 			page 64


 2766 04b1 04       		.uleb128 0x4
 2767 04b2 92080000 		.4byte	.LASF167
 2768 04b6 04       		.byte	0x4
 2769 04b7 A201     		.2byte	0x1a2
 2770 04b9 8D040000 		.4byte	0x48d
 2771 04bd 0E       		.uleb128 0xe
 2772 04be 08       		.byte	0x8
 2773 04bf 04       		.byte	0x4
 2774 04c0 BE01     		.2byte	0x1be
 2775 04c2 EE040000 		.4byte	0x4ee
 2776 04c6 10       		.uleb128 0x10
 2777 04c7 76616C00 		.ascii	"val\000"
 2778 04cb 04       		.byte	0x4
 2779 04cc C101     		.2byte	0x1c1
 2780 04ce 78030000 		.4byte	0x378
 2781 04d2 00       		.byte	0
 2782 04d3 10       		.uleb128 0x10
 2783 04d4 6C656E00 		.ascii	"len\000"
 2784 04d8 04       		.byte	0x4
 2785 04d9 C401     		.2byte	0x1c4
 2786 04db 77000000 		.4byte	0x77
 2787 04df 04       		.byte	0x4
 2788 04e0 0F       		.uleb128 0xf
 2789 04e1 C23F0000 		.4byte	.LASF168
 2790 04e5 04       		.byte	0x4
 2791 04e6 CB01     		.2byte	0x1cb
 2792 04e8 77000000 		.4byte	0x77
 2793 04ec 06       		.byte	0x6
 2794 04ed 00       		.byte	0
 2795 04ee 04       		.uleb128 0x4
 2796 04ef E7060000 		.4byte	.LASF169
 2797 04f3 04       		.byte	0x4
 2798 04f4 CD01     		.2byte	0x1cd
 2799 04f6 BD040000 		.4byte	0x4bd
 2800 04fa 0E       		.uleb128 0xe
 2801 04fb 0C       		.byte	0xc
 2802 04fc 04       		.byte	0x4
 2803 04fd D001     		.2byte	0x1d0
 2804 04ff 1E050000 		.4byte	0x51e
 2805 0503 0F       		.uleb128 0xf
 2806 0504 99300000 		.4byte	.LASF170
 2807 0508 04       		.byte	0x4
 2808 0509 D301     		.2byte	0x1d3
 2809 050b EE040000 		.4byte	0x4ee
 2810 050f 00       		.byte	0
 2811 0510 0F       		.uleb128 0xf
 2812 0511 4F260000 		.4byte	.LASF171
 2813 0515 04       		.byte	0x4
 2814 0516 D601     		.2byte	0x1d6
 2815 0518 81040000 		.4byte	0x481
 2816 051c 08       		.byte	0x8
 2817 051d 00       		.byte	0
 2818 051e 04       		.uleb128 0x4
 2819 051f 9A0D0000 		.4byte	.LASF172
 2820 0523 04       		.byte	0x4
 2821 0524 D801     		.2byte	0x1d8
 2822 0526 FA040000 		.4byte	0x4fa
ARM GAS  C:\Users\Intern\AppData\Local\Temp\ccVSLPFx.s 			page 65


 2823 052a 11       		.uleb128 0x11
 2824 052b D1000000 		.4byte	.LASF173
 2825 052f 05       		.byte	0x5
 2826 0530 34       		.byte	0x34
 2827 0531 1E050000 		.4byte	0x51e
 2828 0535 12       		.uleb128 0x12
 2829 0536 10       		.byte	0x10
 2830 0537 05       		.byte	0x5
 2831 0538 8A       		.byte	0x8a
 2832 0539 56050000 		.4byte	0x556
 2833 053d 13       		.uleb128 0x13
 2834 053e 63320000 		.4byte	.LASF174
 2835 0542 05       		.byte	0x5
 2836 0543 8D       		.byte	0x8d
 2837 0544 B1040000 		.4byte	0x4b1
 2838 0548 00       		.byte	0
 2839 0549 13       		.uleb128 0x13
 2840 054a 7E370000 		.4byte	.LASF175
 2841 054e 05       		.byte	0x5
 2842 054f 90       		.byte	0x90
 2843 0550 1E050000 		.4byte	0x51e
 2844 0554 04       		.byte	0x4
 2845 0555 00       		.byte	0
 2846 0556 11       		.uleb128 0x11
 2847 0557 9A260000 		.4byte	.LASF176
 2848 055b 05       		.byte	0x5
 2849 055c 92       		.byte	0x92
 2850 055d 35050000 		.4byte	0x535
 2851 0561 12       		.uleb128 0x12
 2852 0562 08       		.byte	0x8
 2853 0563 06       		.byte	0x6
 2854 0564 CE       		.byte	0xce
 2855 0565 82050000 		.4byte	0x582
 2856 0569 13       		.uleb128 0x13
 2857 056a 6E320000 		.4byte	.LASF177
 2858 056e 06       		.byte	0x6
 2859 056f D1       		.byte	0xd1
 2860 0570 77000000 		.4byte	0x77
 2861 0574 00       		.byte	0
 2862 0575 13       		.uleb128 0x13
 2863 0576 92360000 		.4byte	.LASF178
 2864 057a 06       		.byte	0x6
 2865 057b D6       		.byte	0xd6
 2866 057c B7000000 		.4byte	0xb7
 2867 0580 04       		.byte	0x4
 2868 0581 00       		.byte	0
 2869 0582 11       		.uleb128 0x11
 2870 0583 6A2B0000 		.4byte	.LASF179
 2871 0587 06       		.byte	0x6
 2872 0588 D8       		.byte	0xd8
 2873 0589 61050000 		.4byte	0x561
 2874 058d 12       		.uleb128 0x12
 2875 058e 08       		.byte	0x8
 2876 058f 06       		.byte	0x6
 2877 0590 DB       		.byte	0xdb
 2878 0591 AE050000 		.4byte	0x5ae
 2879 0595 13       		.uleb128 0x13
ARM GAS  C:\Users\Intern\AppData\Local\Temp\ccVSLPFx.s 			page 66


 2880 0596 22120000 		.4byte	.LASF180
 2881 059a 06       		.byte	0x6
 2882 059b DE       		.byte	0xde
 2883 059c 77000000 		.4byte	0x77
 2884 05a0 00       		.byte	0
 2885 05a1 13       		.uleb128 0x13
 2886 05a2 A6370000 		.4byte	.LASF181
 2887 05a6 06       		.byte	0x6
 2888 05a7 E3       		.byte	0xe3
 2889 05a8 AE050000 		.4byte	0x5ae
 2890 05ac 04       		.byte	0x4
 2891 05ad 00       		.byte	0
 2892 05ae 07       		.uleb128 0x7
 2893 05af 04       		.byte	0x4
 2894 05b0 82050000 		.4byte	0x582
 2895 05b4 11       		.uleb128 0x11
 2896 05b5 E6350000 		.4byte	.LASF182
 2897 05b9 06       		.byte	0x6
 2898 05ba E5       		.byte	0xe5
 2899 05bb 8D050000 		.4byte	0x58d
 2900 05bf 14       		.uleb128 0x14
 2901 05c0 08       		.byte	0x8
 2902 05c1 06       		.byte	0x6
 2903 05c2 E8       		.byte	0xe8
 2904 05c3 DE050000 		.4byte	0x5de
 2905 05c7 15       		.uleb128 0x15
 2906 05c8 B7370000 		.4byte	.LASF183
 2907 05cc 06       		.byte	0x6
 2908 05cd EF       		.byte	0xef
 2909 05ce B4050000 		.4byte	0x5b4
 2910 05d2 15       		.uleb128 0x15
 2911 05d3 691E0000 		.4byte	.LASF184
 2912 05d7 06       		.byte	0x6
 2913 05d8 F2       		.byte	0xf2
 2914 05d9 77000000 		.4byte	0x77
 2915 05dd 00       		.byte	0
 2916 05de 11       		.uleb128 0x11
 2917 05df 94350000 		.4byte	.LASF185
 2918 05e3 06       		.byte	0x6
 2919 05e4 F4       		.byte	0xf4
 2920 05e5 BF050000 		.4byte	0x5bf
 2921 05e9 12       		.uleb128 0x12
 2922 05ea 14       		.byte	0x14
 2923 05eb 06       		.byte	0x6
 2924 05ec F7       		.byte	0xf7
 2925 05ed 32060000 		.4byte	0x632
 2926 05f1 13       		.uleb128 0x13
 2927 05f2 CD100000 		.4byte	.LASF186
 2928 05f6 06       		.byte	0x6
 2929 05f7 FA       		.byte	0xfa
 2930 05f8 77000000 		.4byte	0x77
 2931 05fc 00       		.byte	0
 2932 05fd 0F       		.uleb128 0xf
 2933 05fe B90D0000 		.4byte	.LASF187
 2934 0602 06       		.byte	0x6
 2935 0603 0001     		.2byte	0x100
 2936 0605 77000000 		.4byte	0x77
ARM GAS  C:\Users\Intern\AppData\Local\Temp\ccVSLPFx.s 			page 67


 2937 0609 02       		.byte	0x2
 2938 060a 0F       		.uleb128 0xf
 2939 060b 1D070000 		.4byte	.LASF188
 2940 060f 06       		.byte	0x6
 2941 0610 0B01     		.2byte	0x10b
 2942 0612 83000000 		.4byte	0x83
 2943 0616 04       		.byte	0x4
 2944 0617 0F       		.uleb128 0xf
 2945 0618 E4260000 		.4byte	.LASF189
 2946 061c 06       		.byte	0x6
 2947 061d 0E01     		.2byte	0x10e
 2948 061f 77000000 		.4byte	0x77
 2949 0623 08       		.byte	0x8
 2950 0624 0F       		.uleb128 0xf
 2951 0625 DF300000 		.4byte	.LASF190
 2952 0629 06       		.byte	0x6
 2953 062a 1701     		.2byte	0x117
 2954 062c DE050000 		.4byte	0x5de
 2955 0630 0C       		.byte	0xc
 2956 0631 00       		.byte	0
 2957 0632 04       		.uleb128 0x4
 2958 0633 94150000 		.4byte	.LASF191
 2959 0637 06       		.byte	0x6
 2960 0638 1801     		.2byte	0x118
 2961 063a E9050000 		.4byte	0x5e9
 2962 063e 04       		.uleb128 0x4
 2963 063f D7070000 		.4byte	.LASF192
 2964 0643 07       		.byte	0x7
 2965 0644 0102     		.2byte	0x201
 2966 0646 B9000000 		.4byte	0xb9
 2967 064a 07       		.uleb128 0x7
 2968 064b 04       		.byte	0x4
 2969 064c EE040000 		.4byte	0x4ee
 2970 0650 0D       		.uleb128 0xd
 2971 0651 01       		.byte	0x1
 2972 0652 2C000000 		.4byte	0x2c
 2973 0656 08       		.byte	0x8
 2974 0657 22       		.byte	0x22
 2975 0658 99060000 		.4byte	0x699
 2976 065c 0B       		.uleb128 0xb
 2977 065d FF2E0000 		.4byte	.LASF193
 2978 0661 00       		.byte	0
 2979 0662 0B       		.uleb128 0xb
 2980 0663 58150000 		.4byte	.LASF194
 2981 0667 01       		.byte	0x1
 2982 0668 0B       		.uleb128 0xb
 2983 0669 331F0000 		.4byte	.LASF195
 2984 066d 02       		.byte	0x2
 2985 066e 0B       		.uleb128 0xb
 2986 066f 2F0C0000 		.4byte	.LASF196
 2987 0673 03       		.byte	0x3
 2988 0674 0B       		.uleb128 0xb
 2989 0675 1B080000 		.4byte	.LASF197
 2990 0679 04       		.byte	0x4
 2991 067a 0B       		.uleb128 0xb
 2992 067b BE140000 		.4byte	.LASF198
 2993 067f 05       		.byte	0x5
ARM GAS  C:\Users\Intern\AppData\Local\Temp\ccVSLPFx.s 			page 68


 2994 0680 0B       		.uleb128 0xb
 2995 0681 FF150000 		.4byte	.LASF199
 2996 0685 06       		.byte	0x6
 2997 0686 0B       		.uleb128 0xb
 2998 0687 87270000 		.4byte	.LASF200
 2999 068b 07       		.byte	0x7
 3000 068c 0B       		.uleb128 0xb
 3001 068d 01220000 		.4byte	.LASF201
 3002 0691 08       		.byte	0x8
 3003 0692 0B       		.uleb128 0xb
 3004 0693 91000000 		.4byte	.LASF202
 3005 0697 09       		.byte	0x9
 3006 0698 00       		.byte	0
 3007 0699 0D       		.uleb128 0xd
 3008 069a 01       		.byte	0x1
 3009 069b 2C000000 		.4byte	0x2c
 3010 069f 09       		.byte	0x9
 3011 06a0 4E       		.byte	0x4e
 3012 06a1 E8060000 		.4byte	0x6e8
 3013 06a5 0B       		.uleb128 0xb
 3014 06a6 B03D0000 		.4byte	.LASF203
 3015 06aa 00       		.byte	0
 3016 06ab 0B       		.uleb128 0xb
 3017 06ac 94200000 		.4byte	.LASF204
 3018 06b0 01       		.byte	0x1
 3019 06b1 0B       		.uleb128 0xb
 3020 06b2 10200000 		.4byte	.LASF205
 3021 06b6 02       		.byte	0x2
 3022 06b7 0B       		.uleb128 0xb
 3023 06b8 3A090000 		.4byte	.LASF206
 3024 06bc 03       		.byte	0x3
 3025 06bd 0B       		.uleb128 0xb
 3026 06be 5C2D0000 		.4byte	.LASF207
 3027 06c2 04       		.byte	0x4
 3028 06c3 0B       		.uleb128 0xb
 3029 06c4 45320000 		.4byte	.LASF208
 3030 06c8 05       		.byte	0x5
 3031 06c9 0B       		.uleb128 0xb
 3032 06ca AC350000 		.4byte	.LASF209
 3033 06ce 06       		.byte	0x6
 3034 06cf 0B       		.uleb128 0xb
 3035 06d0 6C3C0000 		.4byte	.LASF210
 3036 06d4 07       		.byte	0x7
 3037 06d5 0B       		.uleb128 0xb
 3038 06d6 BB210000 		.4byte	.LASF211
 3039 06da 07       		.byte	0x7
 3040 06db 0B       		.uleb128 0xb
 3041 06dc BC3E0000 		.4byte	.LASF212
 3042 06e0 07       		.byte	0x7
 3043 06e1 0B       		.uleb128 0xb
 3044 06e2 5C410000 		.4byte	.LASF213
 3045 06e6 08       		.byte	0x8
 3046 06e7 00       		.byte	0
 3047 06e8 11       		.uleb128 0x11
 3048 06e9 4C120000 		.4byte	.LASF214
 3049 06ed 09       		.byte	0x9
 3050 06ee 5B       		.byte	0x5b
ARM GAS  C:\Users\Intern\AppData\Local\Temp\ccVSLPFx.s 			page 69


 3051 06ef 99060000 		.4byte	0x699
 3052 06f3 0D       		.uleb128 0xd
 3053 06f4 01       		.byte	0x1
 3054 06f5 2C000000 		.4byte	0x2c
 3055 06f9 09       		.byte	0x9
 3056 06fa 5F       		.byte	0x5f
 3057 06fb 18070000 		.4byte	0x718
 3058 06ff 0B       		.uleb128 0xb
 3059 0700 AF240000 		.4byte	.LASF215
 3060 0704 00       		.byte	0
 3061 0705 0B       		.uleb128 0xb
 3062 0706 012E0000 		.4byte	.LASF216
 3063 070a 01       		.byte	0x1
 3064 070b 0B       		.uleb128 0xb
 3065 070c E23B0000 		.4byte	.LASF217
 3066 0710 02       		.byte	0x2
 3067 0711 0B       		.uleb128 0xb
 3068 0712 FE180000 		.4byte	.LASF218
 3069 0716 03       		.byte	0x3
 3070 0717 00       		.byte	0
 3071 0718 11       		.uleb128 0x11
 3072 0719 55430000 		.4byte	.LASF219
 3073 071d 09       		.byte	0x9
 3074 071e 64       		.byte	0x64
 3075 071f F3060000 		.4byte	0x6f3
 3076 0723 12       		.uleb128 0x12
 3077 0724 06       		.byte	0x6
 3078 0725 09       		.byte	0x9
 3079 0726 7E       		.byte	0x7e
 3080 0727 50070000 		.4byte	0x750
 3081 072b 13       		.uleb128 0x13
 3082 072c B42A0000 		.4byte	.LASF220
 3083 0730 09       		.byte	0x9
 3084 0731 80       		.byte	0x80
 3085 0732 81040000 		.4byte	0x481
 3086 0736 00       		.byte	0
 3087 0737 13       		.uleb128 0x13
 3088 0738 CC3F0000 		.4byte	.LASF221
 3089 073c 09       		.byte	0x9
 3090 073d 81       		.byte	0x81
 3091 073e 81040000 		.4byte	0x481
 3092 0742 02       		.byte	0x2
 3093 0743 13       		.uleb128 0x13
 3094 0744 92290000 		.4byte	.LASF222
 3095 0748 09       		.byte	0x9
 3096 0749 82       		.byte	0x82
 3097 074a 81040000 		.4byte	0x481
 3098 074e 04       		.byte	0x4
 3099 074f 00       		.byte	0
 3100 0750 11       		.uleb128 0x11
 3101 0751 AF050000 		.4byte	.LASF223
 3102 0755 09       		.byte	0x9
 3103 0756 83       		.byte	0x83
 3104 0757 23070000 		.4byte	0x723
 3105 075b 12       		.uleb128 0x12
 3106 075c 28       		.byte	0x28
 3107 075d 09       		.byte	0x9
ARM GAS  C:\Users\Intern\AppData\Local\Temp\ccVSLPFx.s 			page 70


 3108 075e 86       		.byte	0x86
 3109 075f D0070000 		.4byte	0x7d0
 3110 0763 13       		.uleb128 0x13
 3111 0764 E10C0000 		.4byte	.LASF224
 3112 0768 09       		.byte	0x9
 3113 0769 88       		.byte	0x88
 3114 076a 81040000 		.4byte	0x481
 3115 076e 00       		.byte	0
 3116 076f 13       		.uleb128 0x13
 3117 0770 730E0000 		.4byte	.LASF225
 3118 0774 09       		.byte	0x9
 3119 0775 89       		.byte	0x89
 3120 0776 81040000 		.4byte	0x481
 3121 077a 02       		.byte	0x2
 3122 077b 13       		.uleb128 0x13
 3123 077c E62F0000 		.4byte	.LASF226
 3124 0780 09       		.byte	0x9
 3125 0781 8A       		.byte	0x8a
 3126 0782 6B000000 		.4byte	0x6b
 3127 0786 04       		.byte	0x4
 3128 0787 13       		.uleb128 0x13
 3129 0788 A0210000 		.4byte	.LASF227
 3130 078c 09       		.byte	0x9
 3131 078d 8B       		.byte	0x8b
 3132 078e D0070000 		.4byte	0x7d0
 3133 0792 08       		.byte	0x8
 3134 0793 13       		.uleb128 0x13
 3135 0794 26310000 		.4byte	.LASF228
 3136 0798 09       		.byte	0x9
 3137 0799 8C       		.byte	0x8c
 3138 079a DB070000 		.4byte	0x7db
 3139 079e 0C       		.byte	0xc
 3140 079f 13       		.uleb128 0x13
 3141 07a0 793F0000 		.4byte	.LASF229
 3142 07a4 09       		.byte	0x9
 3143 07a5 8D       		.byte	0x8d
 3144 07a6 81040000 		.4byte	0x481
 3145 07aa 1E       		.byte	0x1e
 3146 07ab 13       		.uleb128 0x13
 3147 07ac BE1E0000 		.4byte	.LASF230
 3148 07b0 09       		.byte	0x9
 3149 07b1 8E       		.byte	0x8e
 3150 07b2 81040000 		.4byte	0x481
 3151 07b6 20       		.byte	0x20
 3152 07b7 13       		.uleb128 0x13
 3153 07b8 9F270000 		.4byte	.LASF231
 3154 07bc 09       		.byte	0x9
 3155 07bd 8F       		.byte	0x8f
 3156 07be 81040000 		.4byte	0x481
 3157 07c2 22       		.byte	0x22
 3158 07c3 13       		.uleb128 0x13
 3159 07c4 32320000 		.4byte	.LASF232
 3160 07c8 09       		.byte	0x9
 3161 07c9 90       		.byte	0x90
 3162 07ca 81040000 		.4byte	0x481
 3163 07ce 24       		.byte	0x24
 3164 07cf 00       		.byte	0
ARM GAS  C:\Users\Intern\AppData\Local\Temp\ccVSLPFx.s 			page 71


 3165 07d0 07       		.uleb128 0x7
 3166 07d1 04       		.byte	0x4
 3167 07d2 D6070000 		.4byte	0x7d6
 3168 07d6 16       		.uleb128 0x16
 3169 07d7 50070000 		.4byte	0x750
 3170 07db 17       		.uleb128 0x17
 3171 07dc 50070000 		.4byte	0x750
 3172 07e0 EB070000 		.4byte	0x7eb
 3173 07e4 18       		.uleb128 0x18
 3174 07e5 B0000000 		.4byte	0xb0
 3175 07e9 02       		.byte	0x2
 3176 07ea 00       		.byte	0
 3177 07eb 11       		.uleb128 0x11
 3178 07ec 18060000 		.4byte	.LASF233
 3179 07f0 09       		.byte	0x9
 3180 07f1 91       		.byte	0x91
 3181 07f2 5B070000 		.4byte	0x75b
 3182 07f6 12       		.uleb128 0x12
 3183 07f7 08       		.byte	0x8
 3184 07f8 09       		.byte	0x9
 3185 07f9 C9       		.byte	0xc9
 3186 07fa 2F080000 		.4byte	0x82f
 3187 07fe 13       		.uleb128 0x13
 3188 07ff 63320000 		.4byte	.LASF174
 3189 0803 09       		.byte	0x9
 3190 0804 CB       		.byte	0xcb
 3191 0805 B1040000 		.4byte	0x4b1
 3192 0809 00       		.byte	0
 3193 080a 13       		.uleb128 0x13
 3194 080b C10D0000 		.4byte	.LASF234
 3195 080f 09       		.byte	0x9
 3196 0810 CC       		.byte	0xcc
 3197 0811 6B000000 		.4byte	0x6b
 3198 0815 02       		.byte	0x2
 3199 0816 13       		.uleb128 0x13
 3200 0817 8B010000 		.4byte	.LASF235
 3201 081b 09       		.byte	0x9
 3202 081c CD       		.byte	0xcd
 3203 081d E8060000 		.4byte	0x6e8
 3204 0821 03       		.byte	0x3
 3205 0822 13       		.uleb128 0x13
 3206 0823 99300000 		.4byte	.LASF170
 3207 0827 09       		.byte	0x9
 3208 0828 CE       		.byte	0xce
 3209 0829 4A060000 		.4byte	0x64a
 3210 082d 04       		.byte	0x4
 3211 082e 00       		.byte	0
 3212 082f 11       		.uleb128 0x11
 3213 0830 522B0000 		.4byte	.LASF236
 3214 0834 09       		.byte	0x9
 3215 0835 CF       		.byte	0xcf
 3216 0836 F6070000 		.4byte	0x7f6
 3217 083a 0D       		.uleb128 0xd
 3218 083b 02       		.byte	0x2
 3219 083c 3A000000 		.4byte	0x3a
 3220 0840 0A       		.byte	0xa
 3221 0841 B1       		.byte	0xb1
ARM GAS  C:\Users\Intern\AppData\Local\Temp\ccVSLPFx.s 			page 72


 3222 0842 51100000 		.4byte	0x1051
 3223 0846 0C       		.uleb128 0xc
 3224 0847 99280000 		.4byte	.LASF237
 3225 084b 0001     		.2byte	0x100
 3226 084d 0C       		.uleb128 0xc
 3227 084e F4400000 		.4byte	.LASF238
 3228 0852 0101     		.2byte	0x101
 3229 0854 0C       		.uleb128 0xc
 3230 0855 D70B0000 		.4byte	.LASF239
 3231 0859 0201     		.2byte	0x102
 3232 085b 0C       		.uleb128 0xc
 3233 085c AA400000 		.4byte	.LASF240
 3234 0860 0301     		.2byte	0x103
 3235 0862 0C       		.uleb128 0xc
 3236 0863 4D2F0000 		.4byte	.LASF241
 3237 0867 0401     		.2byte	0x104
 3238 0869 0C       		.uleb128 0xc
 3239 086a BE3B0000 		.4byte	.LASF242
 3240 086e 0501     		.2byte	0x105
 3241 0870 0C       		.uleb128 0xc
 3242 0871 D7100000 		.4byte	.LASF243
 3243 0875 0601     		.2byte	0x106
 3244 0877 0C       		.uleb128 0xc
 3245 0878 00390000 		.4byte	.LASF244
 3246 087c 0701     		.2byte	0x107
 3247 087e 0C       		.uleb128 0xc
 3248 087f F63E0000 		.4byte	.LASF245
 3249 0883 0801     		.2byte	0x108
 3250 0885 0C       		.uleb128 0xc
 3251 0886 63060000 		.4byte	.LASF246
 3252 088a 0901     		.2byte	0x109
 3253 088c 0C       		.uleb128 0xc
 3254 088d 8E030000 		.4byte	.LASF247
 3255 0891 0A01     		.2byte	0x10a
 3256 0893 0C       		.uleb128 0xc
 3257 0894 AC310000 		.4byte	.LASF248
 3258 0898 0B01     		.2byte	0x10b
 3259 089a 0C       		.uleb128 0xc
 3260 089b 12220000 		.4byte	.LASF249
 3261 089f 0C01     		.2byte	0x10c
 3262 08a1 0C       		.uleb128 0xc
 3263 08a2 9C2D0000 		.4byte	.LASF250
 3264 08a6 0D01     		.2byte	0x10d
 3265 08a8 0C       		.uleb128 0xc
 3266 08a9 5D040000 		.4byte	.LASF251
 3267 08ad 0E01     		.2byte	0x10e
 3268 08af 0C       		.uleb128 0xc
 3269 08b0 B2010000 		.4byte	.LASF252
 3270 08b4 0F01     		.2byte	0x10f
 3271 08b6 0C       		.uleb128 0xc
 3272 08b7 6A080000 		.4byte	.LASF253
 3273 08bb 1001     		.2byte	0x110
 3274 08bd 0C       		.uleb128 0xc
 3275 08be F23F0000 		.4byte	.LASF254
 3276 08c2 1101     		.2byte	0x111
 3277 08c4 0C       		.uleb128 0xc
 3278 08c5 C43C0000 		.4byte	.LASF255
ARM GAS  C:\Users\Intern\AppData\Local\Temp\ccVSLPFx.s 			page 73


 3279 08c9 1201     		.2byte	0x112
 3280 08cb 0C       		.uleb128 0xc
 3281 08cc 290E0000 		.4byte	.LASF256
 3282 08d0 1301     		.2byte	0x113
 3283 08d2 0C       		.uleb128 0xc
 3284 08d3 68430000 		.4byte	.LASF257
 3285 08d7 1401     		.2byte	0x114
 3286 08d9 0C       		.uleb128 0xc
 3287 08da 43300000 		.4byte	.LASF258
 3288 08de 1501     		.2byte	0x115
 3289 08e0 0C       		.uleb128 0xc
 3290 08e1 760D0000 		.4byte	.LASF259
 3291 08e5 1601     		.2byte	0x116
 3292 08e7 0C       		.uleb128 0xc
 3293 08e8 3B2E0000 		.4byte	.LASF260
 3294 08ec 1701     		.2byte	0x117
 3295 08ee 0C       		.uleb128 0xc
 3296 08ef 91310000 		.4byte	.LASF261
 3297 08f3 1801     		.2byte	0x118
 3298 08f5 0C       		.uleb128 0xc
 3299 08f6 DF3A0000 		.4byte	.LASF262
 3300 08fa 1901     		.2byte	0x119
 3301 08fc 0C       		.uleb128 0xc
 3302 08fd 03020000 		.4byte	.LASF263
 3303 0901 1A01     		.2byte	0x11a
 3304 0903 0C       		.uleb128 0xc
 3305 0904 C7120000 		.4byte	.LASF264
 3306 0908 1B01     		.2byte	0x11b
 3307 090a 0C       		.uleb128 0xc
 3308 090b 792C0000 		.4byte	.LASF265
 3309 090f 1C01     		.2byte	0x11c
 3310 0911 0C       		.uleb128 0xc
 3311 0912 C6370000 		.4byte	.LASF266
 3312 0916 1D01     		.2byte	0x11d
 3313 0918 0C       		.uleb128 0xc
 3314 0919 951A0000 		.4byte	.LASF267
 3315 091d 1E01     		.2byte	0x11e
 3316 091f 0C       		.uleb128 0xc
 3317 0920 74280000 		.4byte	.LASF268
 3318 0924 1F01     		.2byte	0x11f
 3319 0926 0C       		.uleb128 0xc
 3320 0927 A8120000 		.4byte	.LASF269
 3321 092b 2001     		.2byte	0x120
 3322 092d 0C       		.uleb128 0xc
 3323 092e B2110000 		.4byte	.LASF270
 3324 0932 2101     		.2byte	0x121
 3325 0934 0C       		.uleb128 0xc
 3326 0935 0C320000 		.4byte	.LASF271
 3327 0939 2201     		.2byte	0x122
 3328 093b 0C       		.uleb128 0xc
 3329 093c D73F0000 		.4byte	.LASF272
 3330 0940 2301     		.2byte	0x123
 3331 0942 0C       		.uleb128 0xc
 3332 0943 75360000 		.4byte	.LASF273
 3333 0947 2401     		.2byte	0x124
 3334 0949 0C       		.uleb128 0xc
 3335 094a 6A420000 		.4byte	.LASF274
ARM GAS  C:\Users\Intern\AppData\Local\Temp\ccVSLPFx.s 			page 74


 3336 094e 2501     		.2byte	0x125
 3337 0950 0C       		.uleb128 0xc
 3338 0951 F6250000 		.4byte	.LASF275
 3339 0955 2601     		.2byte	0x126
 3340 0957 0C       		.uleb128 0xc
 3341 0958 A5160000 		.4byte	.LASF276
 3342 095c 2701     		.2byte	0x127
 3343 095e 0C       		.uleb128 0xc
 3344 095f BD380000 		.4byte	.LASF277
 3345 0963 2801     		.2byte	0x128
 3346 0965 0C       		.uleb128 0xc
 3347 0966 C9290000 		.4byte	.LASF278
 3348 096a 2901     		.2byte	0x129
 3349 096c 0C       		.uleb128 0xc
 3350 096d CD420000 		.4byte	.LASF279
 3351 0971 2A01     		.2byte	0x12a
 3352 0973 0C       		.uleb128 0xc
 3353 0974 48390000 		.4byte	.LASF280
 3354 0978 2B01     		.2byte	0x12b
 3355 097a 0C       		.uleb128 0xc
 3356 097b 95410000 		.4byte	.LASF281
 3357 097f 2C01     		.2byte	0x12c
 3358 0981 0C       		.uleb128 0xc
 3359 0982 9C1D0000 		.4byte	.LASF282
 3360 0986 2D01     		.2byte	0x12d
 3361 0988 0C       		.uleb128 0xc
 3362 0989 2E210000 		.4byte	.LASF283
 3363 098d 2E01     		.2byte	0x12e
 3364 098f 0C       		.uleb128 0xc
 3365 0990 45050000 		.4byte	.LASF284
 3366 0994 2F01     		.2byte	0x12f
 3367 0996 0C       		.uleb128 0xc
 3368 0997 B92E0000 		.4byte	.LASF285
 3369 099b 3001     		.2byte	0x130
 3370 099d 0C       		.uleb128 0xc
 3371 099e 9A1E0000 		.4byte	.LASF286
 3372 09a2 3101     		.2byte	0x131
 3373 09a4 0C       		.uleb128 0xc
 3374 09a5 7B320000 		.4byte	.LASF287
 3375 09a9 3201     		.2byte	0x132
 3376 09ab 0C       		.uleb128 0xc
 3377 09ac 232D0000 		.4byte	.LASF288
 3378 09b0 3301     		.2byte	0x133
 3379 09b2 0C       		.uleb128 0xc
 3380 09b3 183B0000 		.4byte	.LASF289
 3381 09b7 3401     		.2byte	0x134
 3382 09b9 0C       		.uleb128 0xc
 3383 09ba 010F0000 		.4byte	.LASF290
 3384 09be 3501     		.2byte	0x135
 3385 09c0 0C       		.uleb128 0xc
 3386 09c1 DC380000 		.4byte	.LASF291
 3387 09c5 3601     		.2byte	0x136
 3388 09c7 0C       		.uleb128 0xc
 3389 09c8 8E180000 		.4byte	.LASF292
 3390 09cc 3701     		.2byte	0x137
 3391 09ce 0C       		.uleb128 0xc
 3392 09cf 460C0000 		.4byte	.LASF293
ARM GAS  C:\Users\Intern\AppData\Local\Temp\ccVSLPFx.s 			page 75


 3393 09d3 3801     		.2byte	0x138
 3394 09d5 0C       		.uleb128 0xc
 3395 09d6 DA030000 		.4byte	.LASF294
 3396 09da 3901     		.2byte	0x139
 3397 09dc 0C       		.uleb128 0xc
 3398 09dd FE030000 		.4byte	.LASF295
 3399 09e1 3A01     		.2byte	0x13a
 3400 09e3 0C       		.uleb128 0xc
 3401 09e4 AF000000 		.4byte	.LASF296
 3402 09e8 3B01     		.2byte	0x13b
 3403 09ea 0C       		.uleb128 0xc
 3404 09eb BA0E0000 		.4byte	.LASF297
 3405 09ef 3C01     		.2byte	0x13c
 3406 09f1 0C       		.uleb128 0xc
 3407 09f2 16410000 		.4byte	.LASF298
 3408 09f6 3D01     		.2byte	0x13d
 3409 09f8 0C       		.uleb128 0xc
 3410 09f9 99070000 		.4byte	.LASF299
 3411 09fd 3E01     		.2byte	0x13e
 3412 09ff 0C       		.uleb128 0xc
 3413 0a00 64270000 		.4byte	.LASF300
 3414 0a04 3F01     		.2byte	0x13f
 3415 0a06 0C       		.uleb128 0xc
 3416 0a07 2D360000 		.4byte	.LASF301
 3417 0a0b 4001     		.2byte	0x140
 3418 0a0d 0C       		.uleb128 0xc
 3419 0a0e DB150000 		.4byte	.LASF302
 3420 0a12 4101     		.2byte	0x141
 3421 0a14 0C       		.uleb128 0xc
 3422 0a15 E1280000 		.4byte	.LASF303
 3423 0a19 4201     		.2byte	0x142
 3424 0a1b 0C       		.uleb128 0xc
 3425 0a1c F0000000 		.4byte	.LASF304
 3426 0a20 4301     		.2byte	0x143
 3427 0a22 0C       		.uleb128 0xc
 3428 0a23 BB070000 		.4byte	.LASF305
 3429 0a27 4401     		.2byte	0x144
 3430 0a29 0C       		.uleb128 0xc
 3431 0a2a DC020000 		.4byte	.LASF306
 3432 0a2e 4501     		.2byte	0x145
 3433 0a30 0C       		.uleb128 0xc
 3434 0a31 4C0A0000 		.4byte	.LASF307
 3435 0a35 4601     		.2byte	0x146
 3436 0a37 0C       		.uleb128 0xc
 3437 0a38 BB300000 		.4byte	.LASF308
 3438 0a3c 4701     		.2byte	0x147
 3439 0a3e 0C       		.uleb128 0xc
 3440 0a3f 8C370000 		.4byte	.LASF309
 3441 0a43 4801     		.2byte	0x148
 3442 0a45 0C       		.uleb128 0xc
 3443 0a46 71090000 		.4byte	.LASF310
 3444 0a4a 4901     		.2byte	0x149
 3445 0a4c 0C       		.uleb128 0xc
 3446 0a4d 1C270000 		.4byte	.LASF311
 3447 0a51 4A01     		.2byte	0x14a
 3448 0a53 0C       		.uleb128 0xc
 3449 0a54 173C0000 		.4byte	.LASF312
ARM GAS  C:\Users\Intern\AppData\Local\Temp\ccVSLPFx.s 			page 76


 3450 0a58 4B01     		.2byte	0x14b
 3451 0a5a 0C       		.uleb128 0xc
 3452 0a5b E4220000 		.4byte	.LASF313
 3453 0a5f 4C01     		.2byte	0x14c
 3454 0a61 0C       		.uleb128 0xc
 3455 0a62 7E3C0000 		.4byte	.LASF314
 3456 0a66 4D01     		.2byte	0x14d
 3457 0a68 0C       		.uleb128 0xc
 3458 0a69 030A0000 		.4byte	.LASF315
 3459 0a6d 4E01     		.2byte	0x14e
 3460 0a6f 0C       		.uleb128 0xc
 3461 0a70 1F2C0000 		.4byte	.LASF316
 3462 0a74 4F01     		.2byte	0x14f
 3463 0a76 0C       		.uleb128 0xc
 3464 0a77 963E0000 		.4byte	.LASF317
 3465 0a7b 5001     		.2byte	0x150
 3466 0a7d 0C       		.uleb128 0xc
 3467 0a7e E73C0000 		.4byte	.LASF318
 3468 0a82 5101     		.2byte	0x151
 3469 0a84 0C       		.uleb128 0xc
 3470 0a85 0A010000 		.4byte	.LASF319
 3471 0a89 5201     		.2byte	0x152
 3472 0a8b 0C       		.uleb128 0xc
 3473 0a8c 3E380000 		.4byte	.LASF320
 3474 0a90 5301     		.2byte	0x153
 3475 0a92 0C       		.uleb128 0xc
 3476 0a93 741F0000 		.4byte	.LASF321
 3477 0a97 5401     		.2byte	0x154
 3478 0a99 0C       		.uleb128 0xc
 3479 0a9a B8360000 		.4byte	.LASF322
 3480 0a9e 5501     		.2byte	0x155
 3481 0aa0 0C       		.uleb128 0xc
 3482 0aa1 AC330000 		.4byte	.LASF323
 3483 0aa5 5601     		.2byte	0x156
 3484 0aa7 0C       		.uleb128 0xc
 3485 0aa8 87020000 		.4byte	.LASF324
 3486 0aac 5701     		.2byte	0x157
 3487 0aae 0C       		.uleb128 0xc
 3488 0aaf BB320000 		.4byte	.LASF325
 3489 0ab3 5801     		.2byte	0x158
 3490 0ab5 0C       		.uleb128 0xc
 3491 0ab6 07100000 		.4byte	.LASF326
 3492 0aba 5901     		.2byte	0x159
 3493 0abc 0C       		.uleb128 0xc
 3494 0abd B60A0000 		.4byte	.LASF327
 3495 0ac1 5A01     		.2byte	0x15a
 3496 0ac3 0C       		.uleb128 0xc
 3497 0ac4 930A0000 		.4byte	.LASF328
 3498 0ac8 5B01     		.2byte	0x15b
 3499 0aca 0C       		.uleb128 0xc
 3500 0acb E30F0000 		.4byte	.LASF329
 3501 0acf 5C01     		.2byte	0x15c
 3502 0ad1 0C       		.uleb128 0xc
 3503 0ad2 C7200000 		.4byte	.LASF330
 3504 0ad6 5D01     		.2byte	0x15d
 3505 0ad8 0C       		.uleb128 0xc
 3506 0ad9 31400000 		.4byte	.LASF331
ARM GAS  C:\Users\Intern\AppData\Local\Temp\ccVSLPFx.s 			page 77


 3507 0add 5E01     		.2byte	0x15e
 3508 0adf 0C       		.uleb128 0xc
 3509 0ae0 F7140000 		.4byte	.LASF332
 3510 0ae4 5F01     		.2byte	0x15f
 3511 0ae6 0C       		.uleb128 0xc
 3512 0ae7 9F300000 		.4byte	.LASF333
 3513 0aeb 6001     		.2byte	0x160
 3514 0aed 0C       		.uleb128 0xc
 3515 0aee DA2A0000 		.4byte	.LASF334
 3516 0af2 6101     		.2byte	0x161
 3517 0af4 0C       		.uleb128 0xc
 3518 0af5 42020000 		.4byte	.LASF335
 3519 0af9 6201     		.2byte	0x162
 3520 0afb 0C       		.uleb128 0xc
 3521 0afc 101F0000 		.4byte	.LASF336
 3522 0b00 6301     		.2byte	0x163
 3523 0b02 0C       		.uleb128 0xc
 3524 0b03 25010000 		.4byte	.LASF337
 3525 0b07 6401     		.2byte	0x164
 3526 0b09 0C       		.uleb128 0xc
 3527 0b0a 1A0B0000 		.4byte	.LASF338
 3528 0b0e 6501     		.2byte	0x165
 3529 0b10 0C       		.uleb128 0xc
 3530 0b11 473D0000 		.4byte	.LASF339
 3531 0b15 6601     		.2byte	0x166
 3532 0b17 0C       		.uleb128 0xc
 3533 0b18 01180000 		.4byte	.LASF340
 3534 0b1c 6701     		.2byte	0x167
 3535 0b1e 0C       		.uleb128 0xc
 3536 0b1f 12170000 		.4byte	.LASF341
 3537 0b23 6801     		.2byte	0x168
 3538 0b25 0C       		.uleb128 0xc
 3539 0b26 FA060000 		.4byte	.LASF342
 3540 0b2a 6901     		.2byte	0x169
 3541 0b2c 0C       		.uleb128 0xc
 3542 0b2d 8F0B0000 		.4byte	.LASF343
 3543 0b31 6A01     		.2byte	0x16a
 3544 0b33 0C       		.uleb128 0xc
 3545 0b34 56240000 		.4byte	.LASF344
 3546 0b38 6B01     		.2byte	0x16b
 3547 0b3a 0C       		.uleb128 0xc
 3548 0b3b F51F0000 		.4byte	.LASF345
 3549 0b3f 6C01     		.2byte	0x16c
 3550 0b41 0C       		.uleb128 0xc
 3551 0b42 E9080000 		.4byte	.LASF346
 3552 0b46 6D01     		.2byte	0x16d
 3553 0b48 0C       		.uleb128 0xc
 3554 0b49 E8070000 		.4byte	.LASF347
 3555 0b4d 6E01     		.2byte	0x16e
 3556 0b4f 0C       		.uleb128 0xc
 3557 0b50 64020000 		.4byte	.LASF348
 3558 0b54 6F01     		.2byte	0x16f
 3559 0b56 0C       		.uleb128 0xc
 3560 0b57 B01F0000 		.4byte	.LASF349
 3561 0b5b 7001     		.2byte	0x170
 3562 0b5d 0C       		.uleb128 0xc
 3563 0b5e 3F420000 		.4byte	.LASF350
ARM GAS  C:\Users\Intern\AppData\Local\Temp\ccVSLPFx.s 			page 78


 3564 0b62 7101     		.2byte	0x171
 3565 0b64 0C       		.uleb128 0xc
 3566 0b65 A5190000 		.4byte	.LASF351
 3567 0b69 7201     		.2byte	0x172
 3568 0b6b 0C       		.uleb128 0xc
 3569 0b6c 38170000 		.4byte	.LASF352
 3570 0b70 7301     		.2byte	0x173
 3571 0b72 0C       		.uleb128 0xc
 3572 0b73 3F270000 		.4byte	.LASF353
 3573 0b77 7401     		.2byte	0x174
 3574 0b79 0C       		.uleb128 0xc
 3575 0b7a F0390000 		.4byte	.LASF354
 3576 0b7e 7501     		.2byte	0x175
 3577 0b80 0C       		.uleb128 0xc
 3578 0b81 D23E0000 		.4byte	.LASF355
 3579 0b85 7601     		.2byte	0x176
 3580 0b87 0C       		.uleb128 0xc
 3581 0b88 3B040000 		.4byte	.LASF356
 3582 0b8c 7701     		.2byte	0x177
 3583 0b8e 0C       		.uleb128 0xc
 3584 0b8f B72F0000 		.4byte	.LASF357
 3585 0b93 7801     		.2byte	0x178
 3586 0b95 0C       		.uleb128 0xc
 3587 0b96 77140000 		.4byte	.LASF358
 3588 0b9a 7901     		.2byte	0x179
 3589 0b9c 0C       		.uleb128 0xc
 3590 0b9d D21E0000 		.4byte	.LASF359
 3591 0ba1 7A01     		.2byte	0x17a
 3592 0ba3 0C       		.uleb128 0xc
 3593 0ba4 122B0000 		.4byte	.LASF360
 3594 0ba8 7B01     		.2byte	0x17b
 3595 0baa 0C       		.uleb128 0xc
 3596 0bab 3B350000 		.4byte	.LASF361
 3597 0baf 7C01     		.2byte	0x17c
 3598 0bb1 0C       		.uleb128 0xc
 3599 0bb2 6F150000 		.4byte	.LASF362
 3600 0bb6 7D01     		.2byte	0x17d
 3601 0bb8 0C       		.uleb128 0xc
 3602 0bb9 FF240000 		.4byte	.LASF363
 3603 0bbd 7E01     		.2byte	0x17e
 3604 0bbf 0C       		.uleb128 0xc
 3605 0bc0 30230000 		.4byte	.LASF364
 3606 0bc4 7F01     		.2byte	0x17f
 3607 0bc6 0C       		.uleb128 0xc
 3608 0bc7 FC270000 		.4byte	.LASF365
 3609 0bcb 8001     		.2byte	0x180
 3610 0bcd 0C       		.uleb128 0xc
 3611 0bce 07350000 		.4byte	.LASF366
 3612 0bd2 8101     		.2byte	0x181
 3613 0bd4 0C       		.uleb128 0xc
 3614 0bd5 E4240000 		.4byte	.LASF367
 3615 0bd9 8201     		.2byte	0x182
 3616 0bdb 0C       		.uleb128 0xc
 3617 0bdc 66250000 		.4byte	.LASF368
 3618 0be0 8301     		.2byte	0x183
 3619 0be2 0C       		.uleb128 0xc
 3620 0be3 8B160000 		.4byte	.LASF369
ARM GAS  C:\Users\Intern\AppData\Local\Temp\ccVSLPFx.s 			page 79


 3621 0be7 8401     		.2byte	0x184
 3622 0be9 0C       		.uleb128 0xc
 3623 0bea CE0D0000 		.4byte	.LASF370
 3624 0bee 8501     		.2byte	0x185
 3625 0bf0 0C       		.uleb128 0xc
 3626 0bf1 9A380000 		.4byte	.LASF371
 3627 0bf5 8601     		.2byte	0x186
 3628 0bf7 0C       		.uleb128 0xc
 3629 0bf8 4B1B0000 		.4byte	.LASF372
 3630 0bfc 8701     		.2byte	0x187
 3631 0bfe 0C       		.uleb128 0xc
 3632 0bff 760C0000 		.4byte	.LASF373
 3633 0c03 8801     		.2byte	0x188
 3634 0c05 0C       		.uleb128 0xc
 3635 0c06 26390000 		.4byte	.LASF374
 3636 0c0a 8901     		.2byte	0x189
 3637 0c0c 0C       		.uleb128 0xc
 3638 0c0d 4E310000 		.4byte	.LASF375
 3639 0c11 8A01     		.2byte	0x18a
 3640 0c13 0C       		.uleb128 0xc
 3641 0c14 1B2F0000 		.4byte	.LASF376
 3642 0c18 8B01     		.2byte	0x18b
 3643 0c1a 0C       		.uleb128 0xc
 3644 0c1b 33220000 		.4byte	.LASF377
 3645 0c1f 8C01     		.2byte	0x18c
 3646 0c21 0C       		.uleb128 0xc
 3647 0c22 AC020000 		.4byte	.LASF378
 3648 0c26 8D01     		.2byte	0x18d
 3649 0c28 0C       		.uleb128 0xc
 3650 0c29 E12B0000 		.4byte	.LASF379
 3651 0c2d 8E01     		.2byte	0x18e
 3652 0c2f 0C       		.uleb128 0xc
 3653 0c30 17400000 		.4byte	.LASF380
 3654 0c34 8F01     		.2byte	0x18f
 3655 0c36 0C       		.uleb128 0xc
 3656 0c37 3A3B0000 		.4byte	.LASF381
 3657 0c3b 9001     		.2byte	0x190
 3658 0c3d 0C       		.uleb128 0xc
 3659 0c3e 0C210000 		.4byte	.LASF382
 3660 0c42 9101     		.2byte	0x191
 3661 0c44 0C       		.uleb128 0xc
 3662 0c45 64030000 		.4byte	.LASF383
 3663 0c49 9201     		.2byte	0x192
 3664 0c4b 0C       		.uleb128 0xc
 3665 0c4c 38130000 		.4byte	.LASF384
 3666 0c50 9301     		.2byte	0x193
 3667 0c52 0C       		.uleb128 0xc
 3668 0c53 023D0000 		.4byte	.LASF385
 3669 0c57 9401     		.2byte	0x194
 3670 0c59 0C       		.uleb128 0xc
 3671 0c5a 0C430000 		.4byte	.LASF386
 3672 0c5e 9501     		.2byte	0x195
 3673 0c60 0C       		.uleb128 0xc
 3674 0c61 A7250000 		.4byte	.LASF387
 3675 0c65 9601     		.2byte	0x196
 3676 0c67 0C       		.uleb128 0xc
 3677 0c68 D3410000 		.4byte	.LASF388
ARM GAS  C:\Users\Intern\AppData\Local\Temp\ccVSLPFx.s 			page 80


 3678 0c6c 9701     		.2byte	0x197
 3679 0c6e 0C       		.uleb128 0xc
 3680 0c6f 44250000 		.4byte	.LASF389
 3681 0c73 9801     		.2byte	0x198
 3682 0c75 0C       		.uleb128 0xc
 3683 0c76 03080000 		.4byte	.LASF390
 3684 0c7a 9901     		.2byte	0x199
 3685 0c7c 0C       		.uleb128 0xc
 3686 0c7d 881B0000 		.4byte	.LASF391
 3687 0c81 9A01     		.2byte	0x19a
 3688 0c83 0C       		.uleb128 0xc
 3689 0c84 6C180000 		.4byte	.LASF392
 3690 0c88 9B01     		.2byte	0x19b
 3691 0c8a 0C       		.uleb128 0xc
 3692 0c8b F00D0000 		.4byte	.LASF393
 3693 0c8f 9C01     		.2byte	0x19c
 3694 0c91 0C       		.uleb128 0xc
 3695 0c92 D0330000 		.4byte	.LASF394
 3696 0c96 9D01     		.2byte	0x19d
 3697 0c98 0C       		.uleb128 0xc
 3698 0c99 541C0000 		.4byte	.LASF395
 3699 0c9d 9E01     		.2byte	0x19e
 3700 0c9f 0C       		.uleb128 0xc
 3701 0ca0 D12C0000 		.4byte	.LASF396
 3702 0ca4 9F01     		.2byte	0x19f
 3703 0ca6 0C       		.uleb128 0xc
 3704 0ca7 DF040000 		.4byte	.LASF397
 3705 0cab A001     		.2byte	0x1a0
 3706 0cad 0C       		.uleb128 0xc
 3707 0cae F2100000 		.4byte	.LASF398
 3708 0cb2 A101     		.2byte	0x1a1
 3709 0cb4 0C       		.uleb128 0xc
 3710 0cb5 DC2D0000 		.4byte	.LASF399
 3711 0cb9 A201     		.2byte	0x1a2
 3712 0cbb 0C       		.uleb128 0xc
 3713 0cbc 52180000 		.4byte	.LASF400
 3714 0cc0 A301     		.2byte	0x1a3
 3715 0cc2 0C       		.uleb128 0xc
 3716 0cc3 AB200000 		.4byte	.LASF401
 3717 0cc7 A401     		.2byte	0x1a4
 3718 0cc9 0C       		.uleb128 0xc
 3719 0cca 7F220000 		.4byte	.LASF402
 3720 0cce A501     		.2byte	0x1a5
 3721 0cd0 0C       		.uleb128 0xc
 3722 0cd1 CD390000 		.4byte	.LASF403
 3723 0cd5 A601     		.2byte	0x1a6
 3724 0cd7 0C       		.uleb128 0xc
 3725 0cd8 13160000 		.4byte	.LASF404
 3726 0cdc A701     		.2byte	0x1a7
 3727 0cde 0C       		.uleb128 0xc
 3728 0cdf 6F290000 		.4byte	.LASF405
 3729 0ce3 A801     		.2byte	0x1a8
 3730 0ce5 0C       		.uleb128 0xc
 3731 0ce6 11150000 		.4byte	.LASF406
 3732 0cea A901     		.2byte	0x1a9
 3733 0cec 0C       		.uleb128 0xc
 3734 0ced B91A0000 		.4byte	.LASF407
ARM GAS  C:\Users\Intern\AppData\Local\Temp\ccVSLPFx.s 			page 81


 3735 0cf1 AA01     		.2byte	0x1aa
 3736 0cf3 0C       		.uleb128 0xc
 3737 0cf4 B3430000 		.4byte	.LASF408
 3738 0cf8 AB01     		.2byte	0x1ab
 3739 0cfa 0C       		.uleb128 0xc
 3740 0cfb 442C0000 		.4byte	.LASF409
 3741 0cff AC01     		.2byte	0x1ac
 3742 0d01 0C       		.uleb128 0xc
 3743 0d02 012D0000 		.4byte	.LASF410
 3744 0d06 AD01     		.2byte	0x1ad
 3745 0d08 0C       		.uleb128 0xc
 3746 0d09 A6080000 		.4byte	.LASF411
 3747 0d0d AE01     		.2byte	0x1ae
 3748 0d0f 0C       		.uleb128 0xc
 3749 0d10 DE170000 		.4byte	.LASF412
 3750 0d14 AF01     		.2byte	0x1af
 3751 0d16 0C       		.uleb128 0xc
 3752 0d17 9F340000 		.4byte	.LASF413
 3753 0d1b B001     		.2byte	0x1b0
 3754 0d1d 0C       		.uleb128 0xc
 3755 0d1e EF0C0000 		.4byte	.LASF414
 3756 0d22 B101     		.2byte	0x1b1
 3757 0d24 0C       		.uleb128 0xc
 3758 0d25 51000000 		.4byte	.LASF415
 3759 0d29 B201     		.2byte	0x1b2
 3760 0d2b 0C       		.uleb128 0xc
 3761 0d2c 9A3A0000 		.4byte	.LASF416
 3762 0d30 B301     		.2byte	0x1b3
 3763 0d32 0C       		.uleb128 0xc
 3764 0d33 96130000 		.4byte	.LASF417
 3765 0d37 B401     		.2byte	0x1b4
 3766 0d39 0C       		.uleb128 0xc
 3767 0d3a 31430000 		.4byte	.LASF418
 3768 0d3e B501     		.2byte	0x1b5
 3769 0d40 0C       		.uleb128 0xc
 3770 0d41 F71D0000 		.4byte	.LASF419
 3771 0d45 B601     		.2byte	0x1b6
 3772 0d47 0C       		.uleb128 0xc
 3773 0d48 76210000 		.4byte	.LASF420
 3774 0d4c B701     		.2byte	0x1b7
 3775 0d4e 0C       		.uleb128 0xc
 3776 0d4f F2420000 		.4byte	.LASF421
 3777 0d53 B801     		.2byte	0x1b8
 3778 0d55 0C       		.uleb128 0xc
 3779 0d56 E2360000 		.4byte	.LASF422
 3780 0d5a B901     		.2byte	0x1b9
 3781 0d5c 0C       		.uleb128 0xc
 3782 0d5d 29290000 		.4byte	.LASF423
 3783 0d61 BA01     		.2byte	0x1ba
 3784 0d63 0C       		.uleb128 0xc
 3785 0d64 882B0000 		.4byte	.LASF424
 3786 0d68 BB01     		.2byte	0x1bb
 3787 0d6a 0C       		.uleb128 0xc
 3788 0d6b 033E0000 		.4byte	.LASF425
 3789 0d6f BC01     		.2byte	0x1bc
 3790 0d71 0C       		.uleb128 0xc
 3791 0d72 AD1C0000 		.4byte	.LASF426
ARM GAS  C:\Users\Intern\AppData\Local\Temp\ccVSLPFx.s 			page 82


 3792 0d76 BD01     		.2byte	0x1bd
 3793 0d78 0C       		.uleb128 0xc
 3794 0d79 20090000 		.4byte	.LASF427
 3795 0d7d BE01     		.2byte	0x1be
 3796 0d7f 0C       		.uleb128 0xc
 3797 0d80 3B110000 		.4byte	.LASF428
 3798 0d84 BF01     		.2byte	0x1bf
 3799 0d86 0C       		.uleb128 0xc
 3800 0d87 14420000 		.4byte	.LASF429
 3801 0d8b C001     		.2byte	0x1c0
 3802 0d8d 0C       		.uleb128 0xc
 3803 0d8e BE0C0000 		.4byte	.LASF430
 3804 0d92 C101     		.2byte	0x1c1
 3805 0d94 0C       		.uleb128 0xc
 3806 0d95 8A1C0000 		.4byte	.LASF431
 3807 0d99 C201     		.2byte	0x1c2
 3808 0d9b 0C       		.uleb128 0xc
 3809 0d9c E8200000 		.4byte	.LASF432
 3810 0da0 C301     		.2byte	0x1c3
 3811 0da2 0C       		.uleb128 0xc
 3812 0da3 E53D0000 		.4byte	.LASF433
 3813 0da7 C401     		.2byte	0x1c4
 3814 0da9 0C       		.uleb128 0xc
 3815 0daa 2C3A0000 		.4byte	.LASF434
 3816 0dae C501     		.2byte	0x1c5
 3817 0db0 0C       		.uleb128 0xc
 3818 0db1 9B170000 		.4byte	.LASF435
 3819 0db5 C601     		.2byte	0x1c6
 3820 0db7 0C       		.uleb128 0xc
 3821 0db8 34240000 		.4byte	.LASF436
 3822 0dbc C701     		.2byte	0x1c7
 3823 0dbe 0C       		.uleb128 0xc
 3824 0dbf 1D030000 		.4byte	.LASF437
 3825 0dc3 C801     		.2byte	0x1c8
 3826 0dc5 0C       		.uleb128 0xc
 3827 0dc6 CD310000 		.4byte	.LASF438
 3828 0dca C901     		.2byte	0x1c9
 3829 0dcc 0C       		.uleb128 0xc
 3830 0dcd 18040000 		.4byte	.LASF439
 3831 0dd1 CA01     		.2byte	0x1ca
 3832 0dd3 0C       		.uleb128 0xc
 3833 0dd4 602E0000 		.4byte	.LASF440
 3834 0dd8 CB01     		.2byte	0x1cb
 3835 0dda 0C       		.uleb128 0xc
 3836 0ddb D80A0000 		.4byte	.LASF441
 3837 0ddf CC01     		.2byte	0x1cc
 3838 0de1 0C       		.uleb128 0xc
 3839 0de2 6A0B0000 		.4byte	.LASF442
 3840 0de6 CD01     		.2byte	0x1cd
 3841 0de8 0C       		.uleb128 0xc
 3842 0de9 ED340000 		.4byte	.LASF443
 3843 0ded CE01     		.2byte	0x1ce
 3844 0def 0C       		.uleb128 0xc
 3845 0df0 28070000 		.4byte	.LASF444
 3846 0df4 CF01     		.2byte	0x1cf
 3847 0df6 0C       		.uleb128 0xc
 3848 0df7 E8300000 		.4byte	.LASF445
ARM GAS  C:\Users\Intern\AppData\Local\Temp\ccVSLPFx.s 			page 83


 3849 0dfb D001     		.2byte	0x1d0
 3850 0dfd 0C       		.uleb128 0xc
 3851 0dfe DD2E0000 		.4byte	.LASF446
 3852 0e02 D101     		.2byte	0x1d1
 3853 0e04 0C       		.uleb128 0xc
 3854 0e05 25190000 		.4byte	.LASF447
 3855 0e09 D201     		.2byte	0x1d2
 3856 0e0b 0C       		.uleb128 0xc
 3857 0e0c 893F0000 		.4byte	.LASF448
 3858 0e10 D301     		.2byte	0x1d3
 3859 0e12 0C       		.uleb128 0xc
 3860 0e13 EC230000 		.4byte	.LASF449
 3861 0e17 D401     		.2byte	0x1d4
 3862 0e19 0C       		.uleb128 0xc
 3863 0e1a 792D0000 		.4byte	.LASF450
 3864 0e1e D501     		.2byte	0x1d5
 3865 0e20 0C       		.uleb128 0xc
 3866 0e21 DE1C0000 		.4byte	.LASF451
 3867 0e25 D601     		.2byte	0x1d6
 3868 0e27 0C       		.uleb128 0xc
 3869 0e28 86330000 		.4byte	.LASF452
 3870 0e2c D701     		.2byte	0x1d7
 3871 0e2e 0C       		.uleb128 0xc
 3872 0e2f F51E0000 		.4byte	.LASF453
 3873 0e33 D801     		.2byte	0x1d8
 3874 0e35 0C       		.uleb128 0xc
 3875 0e36 031D0000 		.4byte	.LASF454
 3876 0e3a D901     		.2byte	0x1d9
 3877 0e3c 0C       		.uleb128 0xc
 3878 0e3d 76070000 		.4byte	.LASF455
 3879 0e41 DA01     		.2byte	0x1da
 3880 0e43 0C       		.uleb128 0xc
 3881 0e44 271B0000 		.4byte	.LASF456
 3882 0e48 DB01     		.2byte	0x1db
 3883 0e4a 0C       		.uleb128 0xc
 3884 0e4b 28370000 		.4byte	.LASF457
 3885 0e4f DC01     		.2byte	0x1dc
 3886 0e51 0C       		.uleb128 0xc
 3887 0e52 A0320000 		.4byte	.LASF458
 3888 0e56 DD01     		.2byte	0x1dd
 3889 0e58 0C       		.uleb128 0xc
 3890 0e59 64120000 		.4byte	.LASF459
 3891 0e5d DE01     		.2byte	0x1de
 3892 0e5f 0C       		.uleb128 0xc
 3893 0e60 761D0000 		.4byte	.LASF460
 3894 0e64 DF01     		.2byte	0x1df
 3895 0e66 0C       		.uleb128 0xc
 3896 0e67 23280000 		.4byte	.LASF461
 3897 0e6b E001     		.2byte	0x1e0
 3898 0e6d 0C       		.uleb128 0xc
 3899 0e6e 29200000 		.4byte	.LASF462
 3900 0e72 E101     		.2byte	0x1e1
 3901 0e74 0C       		.uleb128 0xc
 3902 0e75 B1270000 		.4byte	.LASF463
 3903 0e79 E201     		.2byte	0x1e2
 3904 0e7b 0C       		.uleb128 0xc
 3905 0e7c 34000000 		.4byte	.LASF464
ARM GAS  C:\Users\Intern\AppData\Local\Temp\ccVSLPFx.s 			page 84


 3906 0e80 E301     		.2byte	0x1e3
 3907 0e82 0C       		.uleb128 0xc
 3908 0e83 A0040000 		.4byte	.LASF465
 3909 0e87 E401     		.2byte	0x1e4
 3910 0e89 0C       		.uleb128 0xc
 3911 0e8a 721A0000 		.4byte	.LASF466
 3912 0e8e E501     		.2byte	0x1e5
 3913 0e90 0C       		.uleb128 0xc
 3914 0e91 6F0A0000 		.4byte	.LASF467
 3915 0e95 E601     		.2byte	0x1e6
 3916 0e97 0C       		.uleb128 0xc
 3917 0e98 48010000 		.4byte	.LASF468
 3918 0e9c E701     		.2byte	0x1e7
 3919 0e9e 0C       		.uleb128 0xc
 3920 0e9f 51210000 		.4byte	.LASF469
 3921 0ea3 E801     		.2byte	0x1e8
 3922 0ea5 0C       		.uleb128 0xc
 3923 0ea6 A0360000 		.4byte	.LASF470
 3924 0eaa E901     		.2byte	0x1e9
 3925 0eac 0C       		.uleb128 0xc
 3926 0ead A8420000 		.4byte	.LASF471
 3927 0eb1 EA01     		.2byte	0x1ea
 3928 0eb3 0C       		.uleb128 0xc
 3929 0eb4 091C0000 		.4byte	.LASF472
 3930 0eb8 EB01     		.2byte	0x1eb
 3931 0eba 0C       		.uleb128 0xc
 3932 0ebb 940F0000 		.4byte	.LASF473
 3933 0ebf EC01     		.2byte	0x1ec
 3934 0ec1 0C       		.uleb128 0xc
 3935 0ec2 5C170000 		.4byte	.LASF474
 3936 0ec6 ED01     		.2byte	0x1ed
 3937 0ec8 0C       		.uleb128 0xc
 3938 0ec9 A92C0000 		.4byte	.LASF475
 3939 0ecd EE01     		.2byte	0x1ee
 3940 0ecf 0C       		.uleb128 0xc
 3941 0ed0 85040000 		.4byte	.LASF476
 3942 0ed4 EF01     		.2byte	0x1ef
 3943 0ed6 0C       		.uleb128 0xc
 3944 0ed7 C9350000 		.4byte	.LASF477
 3945 0edb F001     		.2byte	0x1f0
 3946 0edd 0C       		.uleb128 0xc
 3947 0ede 2C100000 		.4byte	.LASF478
 3948 0ee2 F101     		.2byte	0x1f1
 3949 0ee4 0C       		.uleb128 0xc
 3950 0ee5 4D200000 		.4byte	.LASF479
 3951 0ee9 F201     		.2byte	0x1f2
 3952 0eeb 0C       		.uleb128 0xc
 3953 0eec CA160000 		.4byte	.LASF480
 3954 0ef0 F301     		.2byte	0x1f3
 3955 0ef2 0C       		.uleb128 0xc
 3956 0ef3 6B3D0000 		.4byte	.LASF481
 3957 0ef7 F401     		.2byte	0x1f4
 3958 0ef9 0C       		.uleb128 0xc
 3959 0efa B5030000 		.4byte	.LASF482
 3960 0efe F501     		.2byte	0x1f5
 3961 0f00 0C       		.uleb128 0xc
 3962 0f01 6C010000 		.4byte	.LASF483
ARM GAS  C:\Users\Intern\AppData\Local\Temp\ccVSLPFx.s 			page 85


 3963 0f05 F601     		.2byte	0x1f6
 3964 0f07 0C       		.uleb128 0xc
 3965 0f08 B9130000 		.4byte	.LASF484
 3966 0f0c F701     		.2byte	0x1f7
 3967 0f0e 0C       		.uleb128 0xc
 3968 0f0f 16110000 		.4byte	.LASF485
 3969 0f13 F801     		.2byte	0x1f8
 3970 0f15 0C       		.uleb128 0xc
 3971 0f16 D6270000 		.4byte	.LASF486
 3972 0f1a F901     		.2byte	0x1f9
 3973 0f1c 0C       		.uleb128 0xc
 3974 0f1d 7F3B0000 		.4byte	.LASF487
 3975 0f21 FA01     		.2byte	0x1fa
 3976 0f23 0C       		.uleb128 0xc
 3977 0f24 27250000 		.4byte	.LASF488
 3978 0f28 FB01     		.2byte	0x1fb
 3979 0f2a 0C       		.uleb128 0xc
 3980 0f2b 7B340000 		.4byte	.LASF489
 3981 0f2f FC01     		.2byte	0x1fc
 3982 0f31 0C       		.uleb128 0xc
 3983 0f32 F8110000 		.4byte	.LASF490
 3984 0f36 FD01     		.2byte	0x1fd
 3985 0f38 0C       		.uleb128 0xc
 3986 0f39 21050000 		.4byte	.LASF491
 3987 0f3d FE01     		.2byte	0x1fe
 3988 0f3f 0C       		.uleb128 0xc
 3989 0f40 56340000 		.4byte	.LASF492
 3990 0f44 FF01     		.2byte	0x1ff
 3991 0f46 0C       		.uleb128 0xc
 3992 0f47 30120000 		.4byte	.LASF493
 3993 0f4b 0002     		.2byte	0x200
 3994 0f4d 0C       		.uleb128 0xc
 3995 0f4e DF210000 		.4byte	.LASF494
 3996 0f52 0102     		.2byte	0x201
 3997 0f54 0C       		.uleb128 0xc
 3998 0f55 DF320000 		.4byte	.LASF495
 3999 0f59 0202     		.2byte	0x202
 4000 0f5b 0C       		.uleb128 0xc
 4001 0f5c EE160000 		.4byte	.LASF496
 4002 0f60 0302     		.2byte	0x203
 4003 0f62 0C       		.uleb128 0xc
 4004 0f63 0A3A0000 		.4byte	.LASF497
 4005 0f67 0402     		.2byte	0x204
 4006 0f69 0C       		.uleb128 0xc
 4007 0f6a 9B140000 		.4byte	.LASF498
 4008 0f6e 0502     		.2byte	0x205
 4009 0f70 0C       		.uleb128 0xc
 4010 0f71 B30B0000 		.4byte	.LASF499
 4011 0f75 0602     		.2byte	0x206
 4012 0f77 0C       		.uleb128 0xc
 4013 0f78 172E0000 		.4byte	.LASF500
 4014 0f7c 0702     		.2byte	0x207
 4015 0f7e 0C       		.uleb128 0xc
 4016 0f7f 80190000 		.4byte	.LASF501
 4017 0f83 0802     		.2byte	0x208
 4018 0f85 0C       		.uleb128 0xc
 4019 0f86 5D0D0000 		.4byte	.LASF502
ARM GAS  C:\Users\Intern\AppData\Local\Temp\ccVSLPFx.s 			page 86


 4020 0f8a 0902     		.2byte	0x209
 4021 0f8c 0C       		.uleb128 0xc
 4022 0f8d 581A0000 		.4byte	.LASF503
 4023 0f91 0A02     		.2byte	0x20a
 4024 0f93 0C       		.uleb128 0xc
 4025 0f94 06090000 		.4byte	.LASF504
 4026 0f98 0B02     		.2byte	0x20b
 4027 0f9a 0C       		.uleb128 0xc
 4028 0f9b 5A260000 		.4byte	.LASF505
 4029 0f9f 0C02     		.2byte	0x20c
 4030 0fa1 0C       		.uleb128 0xc
 4031 0fa2 12000000 		.4byte	.LASF506
 4032 0fa6 0D02     		.2byte	0x20d
 4033 0fa8 0C       		.uleb128 0xc
 4034 0fa9 1E2A0000 		.4byte	.LASF507
 4035 0fad 0E02     		.2byte	0x20e
 4036 0faf 0C       		.uleb128 0xc
 4037 0fb0 BC3A0000 		.4byte	.LASF508
 4038 0fb4 0F02     		.2byte	0x20f
 4039 0fb6 0C       		.uleb128 0xc
 4040 0fb7 BB040000 		.4byte	.LASF509
 4041 0fbb 1002     		.2byte	0x210
 4042 0fbd 0C       		.uleb128 0xc
 4043 0fbe 29330000 		.4byte	.LASF510
 4044 0fc2 1102     		.2byte	0x211
 4045 0fc4 0C       		.uleb128 0xc
 4046 0fc5 9A230000 		.4byte	.LASF511
 4047 0fc9 1202     		.2byte	0x212
 4048 0fcb 0C       		.uleb128 0xc
 4049 0fcc A5150000 		.4byte	.LASF512
 4050 0fd0 1302     		.2byte	0x213
 4051 0fd2 0C       		.uleb128 0xc
 4052 0fd3 531D0000 		.4byte	.LASF513
 4053 0fd7 1402     		.2byte	0x214
 4054 0fd9 0C       		.uleb128 0xc
 4055 0fda 6A100000 		.4byte	.LASF514
 4056 0fde 1502     		.2byte	0x215
 4057 0fe0 0C       		.uleb128 0xc
 4058 0fe1 8E430000 		.4byte	.LASF515
 4059 0fe5 1602     		.2byte	0x216
 4060 0fe7 0C       		.uleb128 0xc
 4061 0fe8 80170000 		.4byte	.LASF516
 4062 0fec 1702     		.2byte	0x217
 4063 0fee 0C       		.uleb128 0xc
 4064 0fef 95010000 		.4byte	.LASF517
 4065 0ff3 1802     		.2byte	0x218
 4066 0ff5 0C       		.uleb128 0xc
 4067 0ff6 412A0000 		.4byte	.LASF518
 4068 0ffa 1902     		.2byte	0x219
 4069 0ffc 0C       		.uleb128 0xc
 4070 0ffd 76260000 		.4byte	.LASF519
 4071 1001 1A02     		.2byte	0x21a
 4072 1003 0C       		.uleb128 0xc
 4073 1004 DB180000 		.4byte	.LASF520
 4074 1008 1B02     		.2byte	0x21b
 4075 100a 0C       		.uleb128 0xc
 4076 100b 51360000 		.4byte	.LASF521
ARM GAS  C:\Users\Intern\AppData\Local\Temp\ccVSLPFx.s 			page 87


 4077 100f 1C02     		.2byte	0x21c
 4078 1011 0C       		.uleb128 0xc
 4079 1012 4B3E0000 		.4byte	.LASF522
 4080 1016 1D02     		.2byte	0x21d
 4081 1018 0C       		.uleb128 0xc
 4082 1019 20020000 		.4byte	.LASF523
 4083 101d 1E02     		.2byte	0x21e
 4084 101f 0C       		.uleb128 0xc
 4085 1020 4C290000 		.4byte	.LASF524
 4086 1024 1F02     		.2byte	0x21f
 4087 1026 0C       		.uleb128 0xc
 4088 1027 31140000 		.4byte	.LASF525
 4089 102b 2002     		.2byte	0x220
 4090 102d 0C       		.uleb128 0xc
 4091 102e 37160000 		.4byte	.LASF526
 4092 1032 2102     		.2byte	0x221
 4093 1034 0C       		.uleb128 0xc
 4094 1035 3A410000 		.4byte	.LASF527
 4095 1039 2202     		.2byte	0x222
 4096 103b 0C       		.uleb128 0xc
 4097 103c 47100000 		.4byte	.LASF528
 4098 1040 2302     		.2byte	0x223
 4099 1042 0C       		.uleb128 0xc
 4100 1043 DD0E0000 		.4byte	.LASF529
 4101 1047 2402     		.2byte	0x224
 4102 1049 0C       		.uleb128 0xc
 4103 104a AB2B0000 		.4byte	.LASF530
 4104 104e 00E0     		.2byte	0xe000
 4105 1050 00       		.byte	0
 4106 1051 0A       		.uleb128 0xa
 4107 1052 01       		.byte	0x1
 4108 1053 2C000000 		.4byte	0x2c
 4109 1057 0A       		.byte	0xa
 4110 1058 5A08     		.2byte	0x85a
 4111 105a 7D100000 		.4byte	0x107d
 4112 105e 0B       		.uleb128 0xb
 4113 105f 800F0000 		.4byte	.LASF531
 4114 1063 00       		.byte	0
 4115 1064 0B       		.uleb128 0xb
 4116 1065 971F0000 		.4byte	.LASF532
 4117 1069 01       		.byte	0x1
 4118 106a 0B       		.uleb128 0xb
 4119 106b AC3F0000 		.4byte	.LASF533
 4120 106f 02       		.byte	0x2
 4121 1070 0B       		.uleb128 0xb
 4122 1071 93090000 		.4byte	.LASF534
 4123 1075 03       		.byte	0x3
 4124 1076 0B       		.uleb128 0xb
 4125 1077 7B350000 		.4byte	.LASF535
 4126 107b 04       		.byte	0x4
 4127 107c 00       		.byte	0
 4128 107d 04       		.uleb128 0x4
 4129 107e 3F2F0000 		.4byte	.LASF536
 4130 1082 0A       		.byte	0xa
 4131 1083 6808     		.2byte	0x868
 4132 1085 51100000 		.4byte	0x1051
 4133 1089 19       		.uleb128 0x19
ARM GAS  C:\Users\Intern\AppData\Local\Temp\ccVSLPFx.s 			page 88


 4134 108a AC210000 		.4byte	.LASF574
 4135 108e 01       		.byte	0x1
 4136 108f 52       		.byte	0x52
 4137 1090 00000000 		.4byte	.LFB2
 4138 1094 0A000000 		.4byte	.LFE2-.LFB2
 4139 1098 01       		.uleb128 0x1
 4140 1099 9C       		.byte	0x9c
 4141 109a 1A       		.uleb128 0x1a
 4142 109b 1E340000 		.4byte	.LASF560
 4143 109f 01       		.byte	0x1
 4144 10a0 80       		.byte	0x80
 4145 10a1 00000000 		.4byte	.LFB3
 4146 10a5 1C000000 		.4byte	.LFE3-.LFB3
 4147 10a9 01       		.uleb128 0x1
 4148 10aa 9C       		.byte	0x9c
 4149 10ab BE100000 		.4byte	0x10be
 4150 10af 1B       		.uleb128 0x1b
 4151 10b0 690C0000 		.4byte	.LASF537
 4152 10b4 01       		.byte	0x1
 4153 10b5 80       		.byte	0x80
 4154 10b6 3E060000 		.4byte	0x63e
 4155 10ba 02       		.uleb128 0x2
 4156 10bb 91       		.byte	0x91
 4157 10bc 74       		.sleb128 -12
 4158 10bd 00       		.byte	0
 4159 10be 1C       		.uleb128 0x1c
 4160 10bf A23C0000 		.4byte	.LASF543
 4161 10c3 01       		.byte	0x1
 4162 10c4 A8       		.byte	0xa8
 4163 10c5 6C030000 		.4byte	0x36c
 4164 10c9 00000000 		.4byte	.LFB4
 4165 10cd D4010000 		.4byte	.LFE4-.LFB4
 4166 10d1 01       		.uleb128 0x1
 4167 10d2 9C       		.byte	0x9c
 4168 10d3 3A110000 		.4byte	0x113a
 4169 10d7 1B       		.uleb128 0x1b
 4170 10d8 C10D0000 		.4byte	.LASF234
 4171 10dc 01       		.byte	0x1
 4172 10dd A8       		.byte	0xa8
 4173 10de 6B000000 		.4byte	0x6b
 4174 10e2 02       		.uleb128 0x2
 4175 10e3 91       		.byte	0x91
 4176 10e4 5F       		.sleb128 -33
 4177 10e5 1B       		.uleb128 0x1b
 4178 10e6 8B010000 		.4byte	.LASF235
 4179 10ea 01       		.byte	0x1
 4180 10eb A8       		.byte	0xa8
 4181 10ec E8060000 		.4byte	0x6e8
 4182 10f0 02       		.uleb128 0x2
 4183 10f1 91       		.byte	0x91
 4184 10f2 5E       		.sleb128 -34
 4185 10f3 1B       		.uleb128 0x1b
 4186 10f4 5B030000 		.4byte	.LASF538
 4187 10f8 01       		.byte	0x1
 4188 10f9 A9       		.byte	0xa9
 4189 10fa 6B000000 		.4byte	0x6b
 4190 10fe 02       		.uleb128 0x2
ARM GAS  C:\Users\Intern\AppData\Local\Temp\ccVSLPFx.s 			page 89


 4191 10ff 91       		.byte	0x91
 4192 1100 5D       		.sleb128 -35
 4193 1101 1B       		.uleb128 0x1b
 4194 1102 26180000 		.4byte	.LASF539
 4195 1106 01       		.byte	0x1
 4196 1107 A9       		.byte	0xa9
 4197 1108 78030000 		.4byte	0x378
 4198 110c 02       		.uleb128 0x2
 4199 110d 91       		.byte	0x91
 4200 110e 58       		.sleb128 -40
 4201 110f 1D       		.uleb128 0x1d
 4202 1110 14340000 		.4byte	.LASF540
 4203 1114 01       		.byte	0x1
 4204 1115 AB       		.byte	0xab
 4205 1116 6C030000 		.4byte	0x36c
 4206 111a 02       		.uleb128 0x2
 4207 111b 91       		.byte	0x91
 4208 111c 6E       		.sleb128 -18
 4209 111d 1D       		.uleb128 0x1d
 4210 111e CB150000 		.4byte	.LASF541
 4211 1122 01       		.byte	0x1
 4212 1123 AC       		.byte	0xac
 4213 1124 81040000 		.4byte	0x481
 4214 1128 02       		.uleb128 0x2
 4215 1129 91       		.byte	0x91
 4216 112a 6C       		.sleb128 -20
 4217 112b 1D       		.uleb128 0x1d
 4218 112c CB1C0000 		.4byte	.LASF542
 4219 1130 01       		.byte	0x1
 4220 1131 AD       		.byte	0xad
 4221 1132 1E050000 		.4byte	0x51e
 4222 1136 02       		.uleb128 0x2
 4223 1137 91       		.byte	0x91
 4224 1138 60       		.sleb128 -32
 4225 1139 00       		.byte	0
 4226 113a 1E       		.uleb128 0x1e
 4227 113b 04310000 		.4byte	.LASF544
 4228 113f 01       		.byte	0x1
 4229 1140 1201     		.2byte	0x112
 4230 1142 6C030000 		.4byte	0x36c
 4231 1146 00000000 		.4byte	.LFB5
 4232 114a D4010000 		.4byte	.LFE5-.LFB5
 4233 114e 01       		.uleb128 0x1
 4234 114f 9C       		.byte	0x9c
 4235 1150 BE110000 		.4byte	0x11be
 4236 1154 1F       		.uleb128 0x1f
 4237 1155 C10D0000 		.4byte	.LASF234
 4238 1159 01       		.byte	0x1
 4239 115a 1201     		.2byte	0x112
 4240 115c 6B000000 		.4byte	0x6b
 4241 1160 02       		.uleb128 0x2
 4242 1161 91       		.byte	0x91
 4243 1162 5F       		.sleb128 -33
 4244 1163 1F       		.uleb128 0x1f
 4245 1164 8B010000 		.4byte	.LASF235
 4246 1168 01       		.byte	0x1
 4247 1169 1201     		.2byte	0x112
ARM GAS  C:\Users\Intern\AppData\Local\Temp\ccVSLPFx.s 			page 90


 4248 116b E8060000 		.4byte	0x6e8
 4249 116f 02       		.uleb128 0x2
 4250 1170 91       		.byte	0x91
 4251 1171 5E       		.sleb128 -34
 4252 1172 1F       		.uleb128 0x1f
 4253 1173 5B030000 		.4byte	.LASF538
 4254 1177 01       		.byte	0x1
 4255 1178 1301     		.2byte	0x113
 4256 117a 6B000000 		.4byte	0x6b
 4257 117e 02       		.uleb128 0x2
 4258 117f 91       		.byte	0x91
 4259 1180 5D       		.sleb128 -35
 4260 1181 1F       		.uleb128 0x1f
 4261 1182 26180000 		.4byte	.LASF539
 4262 1186 01       		.byte	0x1
 4263 1187 1301     		.2byte	0x113
 4264 1189 78030000 		.4byte	0x378
 4265 118d 02       		.uleb128 0x2
 4266 118e 91       		.byte	0x91
 4267 118f 58       		.sleb128 -40
 4268 1190 20       		.uleb128 0x20
 4269 1191 14340000 		.4byte	.LASF540
 4270 1195 01       		.byte	0x1
 4271 1196 1501     		.2byte	0x115
 4272 1198 6C030000 		.4byte	0x36c
 4273 119c 02       		.uleb128 0x2
 4274 119d 91       		.byte	0x91
 4275 119e 6E       		.sleb128 -18
 4276 119f 20       		.uleb128 0x20
 4277 11a0 CB150000 		.4byte	.LASF541
 4278 11a4 01       		.byte	0x1
 4279 11a5 1601     		.2byte	0x116
 4280 11a7 81040000 		.4byte	0x481
 4281 11ab 02       		.uleb128 0x2
 4282 11ac 91       		.byte	0x91
 4283 11ad 6C       		.sleb128 -20
 4284 11ae 20       		.uleb128 0x20
 4285 11af CB1C0000 		.4byte	.LASF542
 4286 11b3 01       		.byte	0x1
 4287 11b4 1701     		.2byte	0x117
 4288 11b6 1E050000 		.4byte	0x51e
 4289 11ba 02       		.uleb128 0x2
 4290 11bb 91       		.byte	0x91
 4291 11bc 60       		.sleb128 -32
 4292 11bd 00       		.byte	0
 4293 11be 1E       		.uleb128 0x1e
 4294 11bf 4D370000 		.4byte	.LASF545
 4295 11c3 01       		.byte	0x1
 4296 11c4 7F01     		.2byte	0x17f
 4297 11c6 6C030000 		.4byte	0x36c
 4298 11ca 00000000 		.4byte	.LFB6
 4299 11ce 9C010000 		.4byte	.LFE6-.LFB6
 4300 11d2 01       		.uleb128 0x1
 4301 11d3 9C       		.byte	0x9c
 4302 11d4 60120000 		.4byte	0x1260
 4303 11d8 1F       		.uleb128 0x1f
 4304 11d9 C10D0000 		.4byte	.LASF234
ARM GAS  C:\Users\Intern\AppData\Local\Temp\ccVSLPFx.s 			page 91


 4305 11dd 01       		.byte	0x1
 4306 11de 7F01     		.2byte	0x17f
 4307 11e0 6B000000 		.4byte	0x6b
 4308 11e4 02       		.uleb128 0x2
 4309 11e5 91       		.byte	0x91
 4310 11e6 57       		.sleb128 -41
 4311 11e7 1F       		.uleb128 0x1f
 4312 11e8 8B010000 		.4byte	.LASF235
 4313 11ec 01       		.byte	0x1
 4314 11ed 7F01     		.2byte	0x17f
 4315 11ef E8060000 		.4byte	0x6e8
 4316 11f3 02       		.uleb128 0x2
 4317 11f4 91       		.byte	0x91
 4318 11f5 56       		.sleb128 -42
 4319 11f6 1F       		.uleb128 0x1f
 4320 11f7 44260000 		.4byte	.LASF546
 4321 11fb 01       		.byte	0x1
 4322 11fc 8001     		.2byte	0x180
 4323 11fe 18070000 		.4byte	0x718
 4324 1202 02       		.uleb128 0x2
 4325 1203 91       		.byte	0x91
 4326 1204 55       		.sleb128 -43
 4327 1205 1F       		.uleb128 0x1f
 4328 1206 5B030000 		.4byte	.LASF538
 4329 120a 01       		.byte	0x1
 4330 120b 8001     		.2byte	0x180
 4331 120d 6B000000 		.4byte	0x6b
 4332 1211 02       		.uleb128 0x2
 4333 1212 91       		.byte	0x91
 4334 1213 54       		.sleb128 -44
 4335 1214 1F       		.uleb128 0x1f
 4336 1215 26180000 		.4byte	.LASF539
 4337 1219 01       		.byte	0x1
 4338 121a 8001     		.2byte	0x180
 4339 121c 78030000 		.4byte	0x378
 4340 1220 02       		.uleb128 0x2
 4341 1221 91       		.byte	0x91
 4342 1222 00       		.sleb128 0
 4343 1223 20       		.uleb128 0x20
 4344 1224 14340000 		.4byte	.LASF540
 4345 1228 01       		.byte	0x1
 4346 1229 8201     		.2byte	0x182
 4347 122b 6C030000 		.4byte	0x36c
 4348 122f 02       		.uleb128 0x2
 4349 1230 91       		.byte	0x91
 4350 1231 6E       		.sleb128 -18
 4351 1232 20       		.uleb128 0x20
 4352 1233 02330000 		.4byte	.LASF547
 4353 1237 01       		.byte	0x1
 4354 1238 8301     		.2byte	0x183
 4355 123a 81040000 		.4byte	0x481
 4356 123e 02       		.uleb128 0x2
 4357 123f 91       		.byte	0x91
 4358 1240 6C       		.sleb128 -20
 4359 1241 20       		.uleb128 0x20
 4360 1242 62390000 		.4byte	.LASF548
 4361 1246 01       		.byte	0x1
ARM GAS  C:\Users\Intern\AppData\Local\Temp\ccVSLPFx.s 			page 92


 4362 1247 8401     		.2byte	0x184
 4363 1249 D0070000 		.4byte	0x7d0
 4364 124d 02       		.uleb128 0x2
 4365 124e 91       		.byte	0x91
 4366 124f 68       		.sleb128 -24
 4367 1250 20       		.uleb128 0x20
 4368 1251 CB1C0000 		.4byte	.LASF542
 4369 1255 01       		.byte	0x1
 4370 1256 8501     		.2byte	0x185
 4371 1258 1E050000 		.4byte	0x51e
 4372 125c 02       		.uleb128 0x2
 4373 125d 91       		.byte	0x91
 4374 125e 5C       		.sleb128 -36
 4375 125f 00       		.byte	0
 4376 1260 21       		.uleb128 0x21
 4377 1261 26060000 		.4byte	.LASF575
 4378 1265 01       		.byte	0x1
 4379 1266 DA01     		.2byte	0x1da
 4380 1268 83000000 		.4byte	0x83
 4381 126c 00000000 		.4byte	.LFB7
 4382 1270 70000000 		.4byte	.LFE7-.LFB7
 4383 1274 01       		.uleb128 0x1
 4384 1275 9C       		.byte	0x9c
 4385 1276 A8120000 		.4byte	0x12a8
 4386 127a 1F       		.uleb128 0x1f
 4387 127b C10D0000 		.4byte	.LASF234
 4388 127f 01       		.byte	0x1
 4389 1280 DA01     		.2byte	0x1da
 4390 1282 6B000000 		.4byte	0x6b
 4391 1286 02       		.uleb128 0x2
 4392 1287 91       		.byte	0x91
 4393 1288 6F       		.sleb128 -17
 4394 1289 1F       		.uleb128 0x1f
 4395 128a D1020000 		.4byte	.LASF549
 4396 128e 01       		.byte	0x1
 4397 128f DA01     		.2byte	0x1da
 4398 1291 A8120000 		.4byte	0x12a8
 4399 1295 02       		.uleb128 0x2
 4400 1296 91       		.byte	0x91
 4401 1297 68       		.sleb128 -24
 4402 1298 20       		.uleb128 0x20
 4403 1299 8F3D0000 		.4byte	.LASF550
 4404 129d 01       		.byte	0x1
 4405 129e DC01     		.2byte	0x1dc
 4406 12a0 83000000 		.4byte	0x83
 4407 12a4 02       		.uleb128 0x2
 4408 12a5 91       		.byte	0x91
 4409 12a6 74       		.sleb128 -12
 4410 12a7 00       		.byte	0
 4411 12a8 07       		.uleb128 0x7
 4412 12a9 04       		.byte	0x4
 4413 12aa AE120000 		.4byte	0x12ae
 4414 12ae 16       		.uleb128 0x16
 4415 12af 56050000 		.4byte	0x556
 4416 12b3 1E       		.uleb128 0x1e
 4417 12b4 EF310000 		.4byte	.LASF551
 4418 12b8 01       		.byte	0x1
ARM GAS  C:\Users\Intern\AppData\Local\Temp\ccVSLPFx.s 			page 93


 4419 12b9 0102     		.2byte	0x201
 4420 12bb 75040000 		.4byte	0x475
 4421 12bf 00000000 		.4byte	.LFB8
 4422 12c3 18040000 		.4byte	.LFE8-.LFB8
 4423 12c7 01       		.uleb128 0x1
 4424 12c8 9C       		.byte	0x9c
 4425 12c9 50130000 		.4byte	0x1350
 4426 12cd 1F       		.uleb128 0x1f
 4427 12ce D1020000 		.4byte	.LASF549
 4428 12d2 01       		.byte	0x1
 4429 12d3 0102     		.2byte	0x201
 4430 12d5 50130000 		.4byte	0x1350
 4431 12d9 02       		.uleb128 0x2
 4432 12da 91       		.byte	0x91
 4433 12db 54       		.sleb128 -44
 4434 12dc 20       		.uleb128 0x20
 4435 12dd EE3E0000 		.4byte	.LASF552
 4436 12e1 01       		.byte	0x1
 4437 12e2 0302     		.2byte	0x203
 4438 12e4 75040000 		.4byte	0x475
 4439 12e8 02       		.uleb128 0x2
 4440 12e9 91       		.byte	0x91
 4441 12ea 6F       		.sleb128 -17
 4442 12eb 20       		.uleb128 0x20
 4443 12ec 5D110000 		.4byte	.LASF553
 4444 12f0 01       		.byte	0x1
 4445 12f1 0402     		.2byte	0x204
 4446 12f3 6B000000 		.4byte	0x6b
 4447 12f7 02       		.uleb128 0x2
 4448 12f8 91       		.byte	0x91
 4449 12f9 6E       		.sleb128 -18
 4450 12fa 20       		.uleb128 0x20
 4451 12fb DA2F0000 		.4byte	.LASF554
 4452 12ff 01       		.byte	0x1
 4453 1300 0502     		.2byte	0x205
 4454 1302 6B000000 		.4byte	0x6b
 4455 1306 02       		.uleb128 0x2
 4456 1307 91       		.byte	0x91
 4457 1308 6D       		.sleb128 -19
 4458 1309 20       		.uleb128 0x20
 4459 130a 49340000 		.4byte	.LASF555
 4460 130e 01       		.byte	0x1
 4461 130f 0602     		.2byte	0x206
 4462 1311 E8060000 		.4byte	0x6e8
 4463 1315 02       		.uleb128 0x2
 4464 1316 91       		.byte	0x91
 4465 1317 6C       		.sleb128 -20
 4466 1318 20       		.uleb128 0x20
 4467 1319 4C0F0000 		.4byte	.LASF556
 4468 131d 01       		.byte	0x1
 4469 131e 0702     		.2byte	0x207
 4470 1320 2F080000 		.4byte	0x82f
 4471 1324 02       		.uleb128 0x2
 4472 1325 91       		.byte	0x91
 4473 1326 5C       		.sleb128 -36
 4474 1327 20       		.uleb128 0x20
 4475 1328 8F3D0000 		.4byte	.LASF550
ARM GAS  C:\Users\Intern\AppData\Local\Temp\ccVSLPFx.s 			page 94


 4476 132c 01       		.byte	0x1
 4477 132d 0802     		.2byte	0x208
 4478 132f 83000000 		.4byte	0x83
 4479 1333 02       		.uleb128 0x2
 4480 1334 91       		.byte	0x91
 4481 1335 68       		.sleb128 -24
 4482 1336 22       		.uleb128 0x22
 4483 1337 74020000 		.4byte	.LBB2
 4484 133b 2C010000 		.4byte	.LBE2-.LBB2
 4485 133f 20       		.uleb128 0x20
 4486 1340 9C2C0000 		.4byte	.LASF557
 4487 1344 01       		.byte	0x1
 4488 1345 6102     		.2byte	0x261
 4489 1347 6B000000 		.4byte	0x6b
 4490 134b 02       		.uleb128 0x2
 4491 134c 91       		.byte	0x91
 4492 134d 67       		.sleb128 -25
 4493 134e 00       		.byte	0
 4494 134f 00       		.byte	0
 4495 1350 07       		.uleb128 0x7
 4496 1351 04       		.byte	0x4
 4497 1352 56050000 		.4byte	0x556
 4498 1356 1E       		.uleb128 0x1e
 4499 1357 5F350000 		.4byte	.LASF558
 4500 135b 01       		.byte	0x1
 4501 135c AE02     		.2byte	0x2ae
 4502 135e 6C030000 		.4byte	0x36c
 4503 1362 00000000 		.4byte	.LFB9
 4504 1366 D4010000 		.4byte	.LFE9-.LFB9
 4505 136a 01       		.uleb128 0x1
 4506 136b 9C       		.byte	0x9c
 4507 136c F8130000 		.4byte	0x13f8
 4508 1370 1F       		.uleb128 0x1f
 4509 1371 63320000 		.4byte	.LASF174
 4510 1375 01       		.byte	0x1
 4511 1376 AE02     		.2byte	0x2ae
 4512 1378 B1040000 		.4byte	0x4b1
 4513 137c 02       		.uleb128 0x2
 4514 137d 91       		.byte	0x91
 4515 137e 4C       		.sleb128 -52
 4516 137f 1F       		.uleb128 0x1f
 4517 1380 C10D0000 		.4byte	.LASF234
 4518 1384 01       		.byte	0x1
 4519 1385 AF02     		.2byte	0x2af
 4520 1387 6B000000 		.4byte	0x6b
 4521 138b 02       		.uleb128 0x2
 4522 138c 91       		.byte	0x91
 4523 138d 4B       		.sleb128 -53
 4524 138e 1F       		.uleb128 0x1f
 4525 138f 8B010000 		.4byte	.LASF235
 4526 1393 01       		.byte	0x1
 4527 1394 AF02     		.2byte	0x2af
 4528 1396 E8060000 		.4byte	0x6e8
 4529 139a 02       		.uleb128 0x2
 4530 139b 91       		.byte	0x91
 4531 139c 4A       		.sleb128 -54
 4532 139d 1F       		.uleb128 0x1f
ARM GAS  C:\Users\Intern\AppData\Local\Temp\ccVSLPFx.s 			page 95


 4533 139e 5B030000 		.4byte	.LASF538
 4534 13a2 01       		.byte	0x1
 4535 13a3 AF02     		.2byte	0x2af
 4536 13a5 6B000000 		.4byte	0x6b
 4537 13a9 02       		.uleb128 0x2
 4538 13aa 91       		.byte	0x91
 4539 13ab 49       		.sleb128 -55
 4540 13ac 1F       		.uleb128 0x1f
 4541 13ad 26180000 		.4byte	.LASF539
 4542 13b1 01       		.byte	0x1
 4543 13b2 AF02     		.2byte	0x2af
 4544 13b4 78030000 		.4byte	0x378
 4545 13b8 02       		.uleb128 0x2
 4546 13b9 91       		.byte	0x91
 4547 13ba 00       		.sleb128 0
 4548 13bb 20       		.uleb128 0x20
 4549 13bc 14340000 		.4byte	.LASF540
 4550 13c0 01       		.byte	0x1
 4551 13c1 B102     		.2byte	0x2b1
 4552 13c3 6C030000 		.4byte	0x36c
 4553 13c7 02       		.uleb128 0x2
 4554 13c8 91       		.byte	0x91
 4555 13c9 6E       		.sleb128 -18
 4556 13ca 20       		.uleb128 0x20
 4557 13cb 62390000 		.4byte	.LASF548
 4558 13cf 01       		.byte	0x1
 4559 13d0 B202     		.2byte	0x2b2
 4560 13d2 D0070000 		.4byte	0x7d0
 4561 13d6 02       		.uleb128 0x2
 4562 13d7 91       		.byte	0x91
 4563 13d8 68       		.sleb128 -24
 4564 13d9 20       		.uleb128 0x20
 4565 13da F52C0000 		.4byte	.LASF559
 4566 13de 01       		.byte	0x1
 4567 13df B302     		.2byte	0x2b3
 4568 13e1 2A050000 		.4byte	0x52a
 4569 13e5 02       		.uleb128 0x2
 4570 13e6 91       		.byte	0x91
 4571 13e7 5C       		.sleb128 -36
 4572 13e8 20       		.uleb128 0x20
 4573 13e9 CB1C0000 		.4byte	.LASF542
 4574 13ed 01       		.byte	0x1
 4575 13ee B402     		.2byte	0x2b4
 4576 13f0 1E050000 		.4byte	0x51e
 4577 13f4 02       		.uleb128 0x2
 4578 13f5 91       		.byte	0x91
 4579 13f6 50       		.sleb128 -48
 4580 13f7 00       		.byte	0
 4581 13f8 23       		.uleb128 0x23
 4582 13f9 04050000 		.4byte	.LASF561
 4583 13fd 01       		.byte	0x1
 4584 13fe 0703     		.2byte	0x307
 4585 1400 00000000 		.4byte	.LFB10
 4586 1404 7C000000 		.4byte	.LFE10-.LFB10
 4587 1408 01       		.uleb128 0x1
 4588 1409 9C       		.byte	0x9c
 4589 140a 2D140000 		.4byte	0x142d
ARM GAS  C:\Users\Intern\AppData\Local\Temp\ccVSLPFx.s 			page 96


 4590 140e 20       		.uleb128 0x20
 4591 140f E71D0000 		.4byte	.LASF562
 4592 1413 01       		.byte	0x1
 4593 1414 0B03     		.2byte	0x30b
 4594 1416 6B000000 		.4byte	0x6b
 4595 141a 02       		.uleb128 0x2
 4596 141b 91       		.byte	0x91
 4597 141c 76       		.sleb128 -10
 4598 141d 20       		.uleb128 0x20
 4599 141e 5D110000 		.4byte	.LASF553
 4600 1422 01       		.byte	0x1
 4601 1423 0C03     		.2byte	0x30c
 4602 1425 6B000000 		.4byte	0x6b
 4603 1429 02       		.uleb128 0x2
 4604 142a 91       		.byte	0x91
 4605 142b 77       		.sleb128 -9
 4606 142c 00       		.byte	0
 4607 142d 1D       		.uleb128 0x1d
 4608 142e 89060000 		.4byte	.LASF563
 4609 1432 01       		.byte	0x1
 4610 1433 12       		.byte	0x12
 4611 1434 3E060000 		.4byte	0x63e
 4612 1438 05       		.uleb128 0x5
 4613 1439 03       		.byte	0x3
 4614 143a 00000000 		.4byte	CyBle_HidsApplCallback
 4615 143e 17       		.uleb128 0x17
 4616 143f D6070000 		.4byte	0x7d6
 4617 1443 4E140000 		.4byte	0x144e
 4618 1447 18       		.uleb128 0x18
 4619 1448 B0000000 		.4byte	0xb0
 4620 144c 00       		.byte	0
 4621 144d 00       		.byte	0
 4622 144e 1D       		.uleb128 0x1d
 4623 144f ED290000 		.4byte	.LASF564
 4624 1453 01       		.byte	0x1
 4625 1454 16       		.byte	0x16
 4626 1455 5F140000 		.4byte	0x145f
 4627 1459 05       		.uleb128 0x5
 4628 145a 03       		.byte	0x3
 4629 145b 00000000 		.4byte	cyBle_hids1ReportArray
 4630 145f 16       		.uleb128 0x16
 4631 1460 3E140000 		.4byte	0x143e
 4632 1464 24       		.uleb128 0x24
 4633 1465 A73B0000 		.4byte	.LASF565
 4634 1469 07       		.byte	0x7
 4635 146a A102     		.2byte	0x2a1
 4636 146c A4000000 		.4byte	0xa4
 4637 1470 24       		.uleb128 0x24
 4638 1471 11330000 		.4byte	.LASF566
 4639 1475 07       		.byte	0x7
 4640 1476 C002     		.2byte	0x2c0
 4641 1478 6B000000 		.4byte	0x6b
 4642 147c 24       		.uleb128 0x24
 4643 147d 00000000 		.4byte	.LASF567
 4644 1481 07       		.byte	0x7
 4645 1482 C602     		.2byte	0x2c6
 4646 1484 6B000000 		.4byte	0x6b
ARM GAS  C:\Users\Intern\AppData\Local\Temp\ccVSLPFx.s 			page 97


 4647 1488 17       		.uleb128 0x17
 4648 1489 98140000 		.4byte	0x1498
 4649 148d 98140000 		.4byte	0x1498
 4650 1491 18       		.uleb128 0x18
 4651 1492 B0000000 		.4byte	0xb0
 4652 1496 3E       		.byte	0x3e
 4653 1497 00       		.byte	0
 4654 1498 16       		.uleb128 0x16
 4655 1499 32060000 		.4byte	0x632
 4656 149d 25       		.uleb128 0x25
 4657 149e A2240000 		.4byte	.LASF568
 4658 14a2 0B       		.byte	0xb
 4659 14a3 EF       		.byte	0xef
 4660 14a4 A8140000 		.4byte	0x14a8
 4661 14a8 16       		.uleb128 0x16
 4662 14a9 88140000 		.4byte	0x1488
 4663 14ad 17       		.uleb128 0x17
 4664 14ae BD140000 		.4byte	0x14bd
 4665 14b2 BD140000 		.4byte	0x14bd
 4666 14b6 18       		.uleb128 0x18
 4667 14b7 B0000000 		.4byte	0xb0
 4668 14bb 00       		.byte	0
 4669 14bc 00       		.byte	0
 4670 14bd 16       		.uleb128 0x16
 4671 14be EB070000 		.4byte	0x7eb
 4672 14c2 26       		.uleb128 0x26
 4673 14c3 2E0D0000 		.4byte	.LASF569
 4674 14c7 01       		.byte	0x1
 4675 14c8 1E       		.byte	0x1e
 4676 14c9 D3140000 		.4byte	0x14d3
 4677 14cd 05       		.uleb128 0x5
 4678 14ce 03       		.byte	0x3
 4679 14cf 00000000 		.4byte	cyBle_hidss
 4680 14d3 16       		.uleb128 0x16
 4681 14d4 AD140000 		.4byte	0x14ad
 4682 14d8 24       		.uleb128 0x24
 4683 14d9 3D340000 		.4byte	.LASF570
 4684 14dd 0A       		.byte	0xa
 4685 14de B30A     		.2byte	0xab3
 4686 14e0 7D100000 		.4byte	0x107d
 4687 14e4 00       		.byte	0
 4688              		.section	.debug_abbrev,"",%progbits
 4689              	.Ldebug_abbrev0:
 4690 0000 01       		.uleb128 0x1
 4691 0001 11       		.uleb128 0x11
 4692 0002 01       		.byte	0x1
 4693 0003 25       		.uleb128 0x25
 4694 0004 0E       		.uleb128 0xe
 4695 0005 13       		.uleb128 0x13
 4696 0006 0B       		.uleb128 0xb
 4697 0007 03       		.uleb128 0x3
 4698 0008 0E       		.uleb128 0xe
 4699 0009 1B       		.uleb128 0x1b
 4700 000a 0E       		.uleb128 0xe
 4701 000b 55       		.uleb128 0x55
 4702 000c 17       		.uleb128 0x17
 4703 000d 11       		.uleb128 0x11
ARM GAS  C:\Users\Intern\AppData\Local\Temp\ccVSLPFx.s 			page 98


 4704 000e 01       		.uleb128 0x1
 4705 000f 10       		.uleb128 0x10
 4706 0010 17       		.uleb128 0x17
 4707 0011 00       		.byte	0
 4708 0012 00       		.byte	0
 4709 0013 02       		.uleb128 0x2
 4710 0014 24       		.uleb128 0x24
 4711 0015 00       		.byte	0
 4712 0016 0B       		.uleb128 0xb
 4713 0017 0B       		.uleb128 0xb
 4714 0018 3E       		.uleb128 0x3e
 4715 0019 0B       		.uleb128 0xb
 4716 001a 03       		.uleb128 0x3
 4717 001b 0E       		.uleb128 0xe
 4718 001c 00       		.byte	0
 4719 001d 00       		.byte	0
 4720 001e 03       		.uleb128 0x3
 4721 001f 24       		.uleb128 0x24
 4722 0020 00       		.byte	0
 4723 0021 0B       		.uleb128 0xb
 4724 0022 0B       		.uleb128 0xb
 4725 0023 3E       		.uleb128 0x3e
 4726 0024 0B       		.uleb128 0xb
 4727 0025 03       		.uleb128 0x3
 4728 0026 08       		.uleb128 0x8
 4729 0027 00       		.byte	0
 4730 0028 00       		.byte	0
 4731 0029 04       		.uleb128 0x4
 4732 002a 16       		.uleb128 0x16
 4733 002b 00       		.byte	0
 4734 002c 03       		.uleb128 0x3
 4735 002d 0E       		.uleb128 0xe
 4736 002e 3A       		.uleb128 0x3a
 4737 002f 0B       		.uleb128 0xb
 4738 0030 3B       		.uleb128 0x3b
 4739 0031 05       		.uleb128 0x5
 4740 0032 49       		.uleb128 0x49
 4741 0033 13       		.uleb128 0x13
 4742 0034 00       		.byte	0
 4743 0035 00       		.byte	0
 4744 0036 05       		.uleb128 0x5
 4745 0037 35       		.uleb128 0x35
 4746 0038 00       		.byte	0
 4747 0039 49       		.uleb128 0x49
 4748 003a 13       		.uleb128 0x13
 4749 003b 00       		.byte	0
 4750 003c 00       		.byte	0
 4751 003d 06       		.uleb128 0x6
 4752 003e 0F       		.uleb128 0xf
 4753 003f 00       		.byte	0
 4754 0040 0B       		.uleb128 0xb
 4755 0041 0B       		.uleb128 0xb
 4756 0042 00       		.byte	0
 4757 0043 00       		.byte	0
 4758 0044 07       		.uleb128 0x7
 4759 0045 0F       		.uleb128 0xf
 4760 0046 00       		.byte	0
ARM GAS  C:\Users\Intern\AppData\Local\Temp\ccVSLPFx.s 			page 99


 4761 0047 0B       		.uleb128 0xb
 4762 0048 0B       		.uleb128 0xb
 4763 0049 49       		.uleb128 0x49
 4764 004a 13       		.uleb128 0x13
 4765 004b 00       		.byte	0
 4766 004c 00       		.byte	0
 4767 004d 08       		.uleb128 0x8
 4768 004e 15       		.uleb128 0x15
 4769 004f 01       		.byte	0x1
 4770 0050 27       		.uleb128 0x27
 4771 0051 19       		.uleb128 0x19
 4772 0052 01       		.uleb128 0x1
 4773 0053 13       		.uleb128 0x13
 4774 0054 00       		.byte	0
 4775 0055 00       		.byte	0
 4776 0056 09       		.uleb128 0x9
 4777 0057 05       		.uleb128 0x5
 4778 0058 00       		.byte	0
 4779 0059 49       		.uleb128 0x49
 4780 005a 13       		.uleb128 0x13
 4781 005b 00       		.byte	0
 4782 005c 00       		.byte	0
 4783 005d 0A       		.uleb128 0xa
 4784 005e 04       		.uleb128 0x4
 4785 005f 01       		.byte	0x1
 4786 0060 0B       		.uleb128 0xb
 4787 0061 0B       		.uleb128 0xb
 4788 0062 49       		.uleb128 0x49
 4789 0063 13       		.uleb128 0x13
 4790 0064 3A       		.uleb128 0x3a
 4791 0065 0B       		.uleb128 0xb
 4792 0066 3B       		.uleb128 0x3b
 4793 0067 05       		.uleb128 0x5
 4794 0068 01       		.uleb128 0x1
 4795 0069 13       		.uleb128 0x13
 4796 006a 00       		.byte	0
 4797 006b 00       		.byte	0
 4798 006c 0B       		.uleb128 0xb
 4799 006d 28       		.uleb128 0x28
 4800 006e 00       		.byte	0
 4801 006f 03       		.uleb128 0x3
 4802 0070 0E       		.uleb128 0xe
 4803 0071 1C       		.uleb128 0x1c
 4804 0072 0B       		.uleb128 0xb
 4805 0073 00       		.byte	0
 4806 0074 00       		.byte	0
 4807 0075 0C       		.uleb128 0xc
 4808 0076 28       		.uleb128 0x28
 4809 0077 00       		.byte	0
 4810 0078 03       		.uleb128 0x3
 4811 0079 0E       		.uleb128 0xe
 4812 007a 1C       		.uleb128 0x1c
 4813 007b 05       		.uleb128 0x5
 4814 007c 00       		.byte	0
 4815 007d 00       		.byte	0
 4816 007e 0D       		.uleb128 0xd
 4817 007f 04       		.uleb128 0x4
ARM GAS  C:\Users\Intern\AppData\Local\Temp\ccVSLPFx.s 			page 100


 4818 0080 01       		.byte	0x1
 4819 0081 0B       		.uleb128 0xb
 4820 0082 0B       		.uleb128 0xb
 4821 0083 49       		.uleb128 0x49
 4822 0084 13       		.uleb128 0x13
 4823 0085 3A       		.uleb128 0x3a
 4824 0086 0B       		.uleb128 0xb
 4825 0087 3B       		.uleb128 0x3b
 4826 0088 0B       		.uleb128 0xb
 4827 0089 01       		.uleb128 0x1
 4828 008a 13       		.uleb128 0x13
 4829 008b 00       		.byte	0
 4830 008c 00       		.byte	0
 4831 008d 0E       		.uleb128 0xe
 4832 008e 13       		.uleb128 0x13
 4833 008f 01       		.byte	0x1
 4834 0090 0B       		.uleb128 0xb
 4835 0091 0B       		.uleb128 0xb
 4836 0092 3A       		.uleb128 0x3a
 4837 0093 0B       		.uleb128 0xb
 4838 0094 3B       		.uleb128 0x3b
 4839 0095 05       		.uleb128 0x5
 4840 0096 01       		.uleb128 0x1
 4841 0097 13       		.uleb128 0x13
 4842 0098 00       		.byte	0
 4843 0099 00       		.byte	0
 4844 009a 0F       		.uleb128 0xf
 4845 009b 0D       		.uleb128 0xd
 4846 009c 00       		.byte	0
 4847 009d 03       		.uleb128 0x3
 4848 009e 0E       		.uleb128 0xe
 4849 009f 3A       		.uleb128 0x3a
 4850 00a0 0B       		.uleb128 0xb
 4851 00a1 3B       		.uleb128 0x3b
 4852 00a2 05       		.uleb128 0x5
 4853 00a3 49       		.uleb128 0x49
 4854 00a4 13       		.uleb128 0x13
 4855 00a5 38       		.uleb128 0x38
 4856 00a6 0B       		.uleb128 0xb
 4857 00a7 00       		.byte	0
 4858 00a8 00       		.byte	0
 4859 00a9 10       		.uleb128 0x10
 4860 00aa 0D       		.uleb128 0xd
 4861 00ab 00       		.byte	0
 4862 00ac 03       		.uleb128 0x3
 4863 00ad 08       		.uleb128 0x8
 4864 00ae 3A       		.uleb128 0x3a
 4865 00af 0B       		.uleb128 0xb
 4866 00b0 3B       		.uleb128 0x3b
 4867 00b1 05       		.uleb128 0x5
 4868 00b2 49       		.uleb128 0x49
 4869 00b3 13       		.uleb128 0x13
 4870 00b4 38       		.uleb128 0x38
 4871 00b5 0B       		.uleb128 0xb
 4872 00b6 00       		.byte	0
 4873 00b7 00       		.byte	0
 4874 00b8 11       		.uleb128 0x11
ARM GAS  C:\Users\Intern\AppData\Local\Temp\ccVSLPFx.s 			page 101


 4875 00b9 16       		.uleb128 0x16
 4876 00ba 00       		.byte	0
 4877 00bb 03       		.uleb128 0x3
 4878 00bc 0E       		.uleb128 0xe
 4879 00bd 3A       		.uleb128 0x3a
 4880 00be 0B       		.uleb128 0xb
 4881 00bf 3B       		.uleb128 0x3b
 4882 00c0 0B       		.uleb128 0xb
 4883 00c1 49       		.uleb128 0x49
 4884 00c2 13       		.uleb128 0x13
 4885 00c3 00       		.byte	0
 4886 00c4 00       		.byte	0
 4887 00c5 12       		.uleb128 0x12
 4888 00c6 13       		.uleb128 0x13
 4889 00c7 01       		.byte	0x1
 4890 00c8 0B       		.uleb128 0xb
 4891 00c9 0B       		.uleb128 0xb
 4892 00ca 3A       		.uleb128 0x3a
 4893 00cb 0B       		.uleb128 0xb
 4894 00cc 3B       		.uleb128 0x3b
 4895 00cd 0B       		.uleb128 0xb
 4896 00ce 01       		.uleb128 0x1
 4897 00cf 13       		.uleb128 0x13
 4898 00d0 00       		.byte	0
 4899 00d1 00       		.byte	0
 4900 00d2 13       		.uleb128 0x13
 4901 00d3 0D       		.uleb128 0xd
 4902 00d4 00       		.byte	0
 4903 00d5 03       		.uleb128 0x3
 4904 00d6 0E       		.uleb128 0xe
 4905 00d7 3A       		.uleb128 0x3a
 4906 00d8 0B       		.uleb128 0xb
 4907 00d9 3B       		.uleb128 0x3b
 4908 00da 0B       		.uleb128 0xb
 4909 00db 49       		.uleb128 0x49
 4910 00dc 13       		.uleb128 0x13
 4911 00dd 38       		.uleb128 0x38
 4912 00de 0B       		.uleb128 0xb
 4913 00df 00       		.byte	0
 4914 00e0 00       		.byte	0
 4915 00e1 14       		.uleb128 0x14
 4916 00e2 17       		.uleb128 0x17
 4917 00e3 01       		.byte	0x1
 4918 00e4 0B       		.uleb128 0xb
 4919 00e5 0B       		.uleb128 0xb
 4920 00e6 3A       		.uleb128 0x3a
 4921 00e7 0B       		.uleb128 0xb
 4922 00e8 3B       		.uleb128 0x3b
 4923 00e9 0B       		.uleb128 0xb
 4924 00ea 01       		.uleb128 0x1
 4925 00eb 13       		.uleb128 0x13
 4926 00ec 00       		.byte	0
 4927 00ed 00       		.byte	0
 4928 00ee 15       		.uleb128 0x15
 4929 00ef 0D       		.uleb128 0xd
 4930 00f0 00       		.byte	0
 4931 00f1 03       		.uleb128 0x3
ARM GAS  C:\Users\Intern\AppData\Local\Temp\ccVSLPFx.s 			page 102


 4932 00f2 0E       		.uleb128 0xe
 4933 00f3 3A       		.uleb128 0x3a
 4934 00f4 0B       		.uleb128 0xb
 4935 00f5 3B       		.uleb128 0x3b
 4936 00f6 0B       		.uleb128 0xb
 4937 00f7 49       		.uleb128 0x49
 4938 00f8 13       		.uleb128 0x13
 4939 00f9 00       		.byte	0
 4940 00fa 00       		.byte	0
 4941 00fb 16       		.uleb128 0x16
 4942 00fc 26       		.uleb128 0x26
 4943 00fd 00       		.byte	0
 4944 00fe 49       		.uleb128 0x49
 4945 00ff 13       		.uleb128 0x13
 4946 0100 00       		.byte	0
 4947 0101 00       		.byte	0
 4948 0102 17       		.uleb128 0x17
 4949 0103 01       		.uleb128 0x1
 4950 0104 01       		.byte	0x1
 4951 0105 49       		.uleb128 0x49
 4952 0106 13       		.uleb128 0x13
 4953 0107 01       		.uleb128 0x1
 4954 0108 13       		.uleb128 0x13
 4955 0109 00       		.byte	0
 4956 010a 00       		.byte	0
 4957 010b 18       		.uleb128 0x18
 4958 010c 21       		.uleb128 0x21
 4959 010d 00       		.byte	0
 4960 010e 49       		.uleb128 0x49
 4961 010f 13       		.uleb128 0x13
 4962 0110 2F       		.uleb128 0x2f
 4963 0111 0B       		.uleb128 0xb
 4964 0112 00       		.byte	0
 4965 0113 00       		.byte	0
 4966 0114 19       		.uleb128 0x19
 4967 0115 2E       		.uleb128 0x2e
 4968 0116 00       		.byte	0
 4969 0117 3F       		.uleb128 0x3f
 4970 0118 19       		.uleb128 0x19
 4971 0119 03       		.uleb128 0x3
 4972 011a 0E       		.uleb128 0xe
 4973 011b 3A       		.uleb128 0x3a
 4974 011c 0B       		.uleb128 0xb
 4975 011d 3B       		.uleb128 0x3b
 4976 011e 0B       		.uleb128 0xb
 4977 011f 27       		.uleb128 0x27
 4978 0120 19       		.uleb128 0x19
 4979 0121 11       		.uleb128 0x11
 4980 0122 01       		.uleb128 0x1
 4981 0123 12       		.uleb128 0x12
 4982 0124 06       		.uleb128 0x6
 4983 0125 40       		.uleb128 0x40
 4984 0126 18       		.uleb128 0x18
 4985 0127 9742     		.uleb128 0x2117
 4986 0129 19       		.uleb128 0x19
 4987 012a 00       		.byte	0
 4988 012b 00       		.byte	0
ARM GAS  C:\Users\Intern\AppData\Local\Temp\ccVSLPFx.s 			page 103


 4989 012c 1A       		.uleb128 0x1a
 4990 012d 2E       		.uleb128 0x2e
 4991 012e 01       		.byte	0x1
 4992 012f 3F       		.uleb128 0x3f
 4993 0130 19       		.uleb128 0x19
 4994 0131 03       		.uleb128 0x3
 4995 0132 0E       		.uleb128 0xe
 4996 0133 3A       		.uleb128 0x3a
 4997 0134 0B       		.uleb128 0xb
 4998 0135 3B       		.uleb128 0x3b
 4999 0136 0B       		.uleb128 0xb
 5000 0137 27       		.uleb128 0x27
 5001 0138 19       		.uleb128 0x19
 5002 0139 11       		.uleb128 0x11
 5003 013a 01       		.uleb128 0x1
 5004 013b 12       		.uleb128 0x12
 5005 013c 06       		.uleb128 0x6
 5006 013d 40       		.uleb128 0x40
 5007 013e 18       		.uleb128 0x18
 5008 013f 9742     		.uleb128 0x2117
 5009 0141 19       		.uleb128 0x19
 5010 0142 01       		.uleb128 0x1
 5011 0143 13       		.uleb128 0x13
 5012 0144 00       		.byte	0
 5013 0145 00       		.byte	0
 5014 0146 1B       		.uleb128 0x1b
 5015 0147 05       		.uleb128 0x5
 5016 0148 00       		.byte	0
 5017 0149 03       		.uleb128 0x3
 5018 014a 0E       		.uleb128 0xe
 5019 014b 3A       		.uleb128 0x3a
 5020 014c 0B       		.uleb128 0xb
 5021 014d 3B       		.uleb128 0x3b
 5022 014e 0B       		.uleb128 0xb
 5023 014f 49       		.uleb128 0x49
 5024 0150 13       		.uleb128 0x13
 5025 0151 02       		.uleb128 0x2
 5026 0152 18       		.uleb128 0x18
 5027 0153 00       		.byte	0
 5028 0154 00       		.byte	0
 5029 0155 1C       		.uleb128 0x1c
 5030 0156 2E       		.uleb128 0x2e
 5031 0157 01       		.byte	0x1
 5032 0158 3F       		.uleb128 0x3f
 5033 0159 19       		.uleb128 0x19
 5034 015a 03       		.uleb128 0x3
 5035 015b 0E       		.uleb128 0xe
 5036 015c 3A       		.uleb128 0x3a
 5037 015d 0B       		.uleb128 0xb
 5038 015e 3B       		.uleb128 0x3b
 5039 015f 0B       		.uleb128 0xb
 5040 0160 27       		.uleb128 0x27
 5041 0161 19       		.uleb128 0x19
 5042 0162 49       		.uleb128 0x49
 5043 0163 13       		.uleb128 0x13
 5044 0164 11       		.uleb128 0x11
 5045 0165 01       		.uleb128 0x1
ARM GAS  C:\Users\Intern\AppData\Local\Temp\ccVSLPFx.s 			page 104


 5046 0166 12       		.uleb128 0x12
 5047 0167 06       		.uleb128 0x6
 5048 0168 40       		.uleb128 0x40
 5049 0169 18       		.uleb128 0x18
 5050 016a 9642     		.uleb128 0x2116
 5051 016c 19       		.uleb128 0x19
 5052 016d 01       		.uleb128 0x1
 5053 016e 13       		.uleb128 0x13
 5054 016f 00       		.byte	0
 5055 0170 00       		.byte	0
 5056 0171 1D       		.uleb128 0x1d
 5057 0172 34       		.uleb128 0x34
 5058 0173 00       		.byte	0
 5059 0174 03       		.uleb128 0x3
 5060 0175 0E       		.uleb128 0xe
 5061 0176 3A       		.uleb128 0x3a
 5062 0177 0B       		.uleb128 0xb
 5063 0178 3B       		.uleb128 0x3b
 5064 0179 0B       		.uleb128 0xb
 5065 017a 49       		.uleb128 0x49
 5066 017b 13       		.uleb128 0x13
 5067 017c 02       		.uleb128 0x2
 5068 017d 18       		.uleb128 0x18
 5069 017e 00       		.byte	0
 5070 017f 00       		.byte	0
 5071 0180 1E       		.uleb128 0x1e
 5072 0181 2E       		.uleb128 0x2e
 5073 0182 01       		.byte	0x1
 5074 0183 3F       		.uleb128 0x3f
 5075 0184 19       		.uleb128 0x19
 5076 0185 03       		.uleb128 0x3
 5077 0186 0E       		.uleb128 0xe
 5078 0187 3A       		.uleb128 0x3a
 5079 0188 0B       		.uleb128 0xb
 5080 0189 3B       		.uleb128 0x3b
 5081 018a 05       		.uleb128 0x5
 5082 018b 27       		.uleb128 0x27
 5083 018c 19       		.uleb128 0x19
 5084 018d 49       		.uleb128 0x49
 5085 018e 13       		.uleb128 0x13
 5086 018f 11       		.uleb128 0x11
 5087 0190 01       		.uleb128 0x1
 5088 0191 12       		.uleb128 0x12
 5089 0192 06       		.uleb128 0x6
 5090 0193 40       		.uleb128 0x40
 5091 0194 18       		.uleb128 0x18
 5092 0195 9642     		.uleb128 0x2116
 5093 0197 19       		.uleb128 0x19
 5094 0198 01       		.uleb128 0x1
 5095 0199 13       		.uleb128 0x13
 5096 019a 00       		.byte	0
 5097 019b 00       		.byte	0
 5098 019c 1F       		.uleb128 0x1f
 5099 019d 05       		.uleb128 0x5
 5100 019e 00       		.byte	0
 5101 019f 03       		.uleb128 0x3
 5102 01a0 0E       		.uleb128 0xe
ARM GAS  C:\Users\Intern\AppData\Local\Temp\ccVSLPFx.s 			page 105


 5103 01a1 3A       		.uleb128 0x3a
 5104 01a2 0B       		.uleb128 0xb
 5105 01a3 3B       		.uleb128 0x3b
 5106 01a4 05       		.uleb128 0x5
 5107 01a5 49       		.uleb128 0x49
 5108 01a6 13       		.uleb128 0x13
 5109 01a7 02       		.uleb128 0x2
 5110 01a8 18       		.uleb128 0x18
 5111 01a9 00       		.byte	0
 5112 01aa 00       		.byte	0
 5113 01ab 20       		.uleb128 0x20
 5114 01ac 34       		.uleb128 0x34
 5115 01ad 00       		.byte	0
 5116 01ae 03       		.uleb128 0x3
 5117 01af 0E       		.uleb128 0xe
 5118 01b0 3A       		.uleb128 0x3a
 5119 01b1 0B       		.uleb128 0xb
 5120 01b2 3B       		.uleb128 0x3b
 5121 01b3 05       		.uleb128 0x5
 5122 01b4 49       		.uleb128 0x49
 5123 01b5 13       		.uleb128 0x13
 5124 01b6 02       		.uleb128 0x2
 5125 01b7 18       		.uleb128 0x18
 5126 01b8 00       		.byte	0
 5127 01b9 00       		.byte	0
 5128 01ba 21       		.uleb128 0x21
 5129 01bb 2E       		.uleb128 0x2e
 5130 01bc 01       		.byte	0x1
 5131 01bd 03       		.uleb128 0x3
 5132 01be 0E       		.uleb128 0xe
 5133 01bf 3A       		.uleb128 0x3a
 5134 01c0 0B       		.uleb128 0xb
 5135 01c1 3B       		.uleb128 0x3b
 5136 01c2 05       		.uleb128 0x5
 5137 01c3 27       		.uleb128 0x27
 5138 01c4 19       		.uleb128 0x19
 5139 01c5 49       		.uleb128 0x49
 5140 01c6 13       		.uleb128 0x13
 5141 01c7 11       		.uleb128 0x11
 5142 01c8 01       		.uleb128 0x1
 5143 01c9 12       		.uleb128 0x12
 5144 01ca 06       		.uleb128 0x6
 5145 01cb 40       		.uleb128 0x40
 5146 01cc 18       		.uleb128 0x18
 5147 01cd 9642     		.uleb128 0x2116
 5148 01cf 19       		.uleb128 0x19
 5149 01d0 01       		.uleb128 0x1
 5150 01d1 13       		.uleb128 0x13
 5151 01d2 00       		.byte	0
 5152 01d3 00       		.byte	0
 5153 01d4 22       		.uleb128 0x22
 5154 01d5 0B       		.uleb128 0xb
 5155 01d6 01       		.byte	0x1
 5156 01d7 11       		.uleb128 0x11
 5157 01d8 01       		.uleb128 0x1
 5158 01d9 12       		.uleb128 0x12
 5159 01da 06       		.uleb128 0x6
ARM GAS  C:\Users\Intern\AppData\Local\Temp\ccVSLPFx.s 			page 106


 5160 01db 00       		.byte	0
 5161 01dc 00       		.byte	0
 5162 01dd 23       		.uleb128 0x23
 5163 01de 2E       		.uleb128 0x2e
 5164 01df 01       		.byte	0x1
 5165 01e0 3F       		.uleb128 0x3f
 5166 01e1 19       		.uleb128 0x19
 5167 01e2 03       		.uleb128 0x3
 5168 01e3 0E       		.uleb128 0xe
 5169 01e4 3A       		.uleb128 0x3a
 5170 01e5 0B       		.uleb128 0xb
 5171 01e6 3B       		.uleb128 0x3b
 5172 01e7 05       		.uleb128 0x5
 5173 01e8 27       		.uleb128 0x27
 5174 01e9 19       		.uleb128 0x19
 5175 01ea 11       		.uleb128 0x11
 5176 01eb 01       		.uleb128 0x1
 5177 01ec 12       		.uleb128 0x12
 5178 01ed 06       		.uleb128 0x6
 5179 01ee 40       		.uleb128 0x40
 5180 01ef 18       		.uleb128 0x18
 5181 01f0 9742     		.uleb128 0x2117
 5182 01f2 19       		.uleb128 0x19
 5183 01f3 01       		.uleb128 0x1
 5184 01f4 13       		.uleb128 0x13
 5185 01f5 00       		.byte	0
 5186 01f6 00       		.byte	0
 5187 01f7 24       		.uleb128 0x24
 5188 01f8 34       		.uleb128 0x34
 5189 01f9 00       		.byte	0
 5190 01fa 03       		.uleb128 0x3
 5191 01fb 0E       		.uleb128 0xe
 5192 01fc 3A       		.uleb128 0x3a
 5193 01fd 0B       		.uleb128 0xb
 5194 01fe 3B       		.uleb128 0x3b
 5195 01ff 05       		.uleb128 0x5
 5196 0200 49       		.uleb128 0x49
 5197 0201 13       		.uleb128 0x13
 5198 0202 3F       		.uleb128 0x3f
 5199 0203 19       		.uleb128 0x19
 5200 0204 3C       		.uleb128 0x3c
 5201 0205 19       		.uleb128 0x19
 5202 0206 00       		.byte	0
 5203 0207 00       		.byte	0
 5204 0208 25       		.uleb128 0x25
 5205 0209 34       		.uleb128 0x34
 5206 020a 00       		.byte	0
 5207 020b 03       		.uleb128 0x3
 5208 020c 0E       		.uleb128 0xe
 5209 020d 3A       		.uleb128 0x3a
 5210 020e 0B       		.uleb128 0xb
 5211 020f 3B       		.uleb128 0x3b
 5212 0210 0B       		.uleb128 0xb
 5213 0211 49       		.uleb128 0x49
 5214 0212 13       		.uleb128 0x13
 5215 0213 3F       		.uleb128 0x3f
 5216 0214 19       		.uleb128 0x19
ARM GAS  C:\Users\Intern\AppData\Local\Temp\ccVSLPFx.s 			page 107


 5217 0215 3C       		.uleb128 0x3c
 5218 0216 19       		.uleb128 0x19
 5219 0217 00       		.byte	0
 5220 0218 00       		.byte	0
 5221 0219 26       		.uleb128 0x26
 5222 021a 34       		.uleb128 0x34
 5223 021b 00       		.byte	0
 5224 021c 03       		.uleb128 0x3
 5225 021d 0E       		.uleb128 0xe
 5226 021e 3A       		.uleb128 0x3a
 5227 021f 0B       		.uleb128 0xb
 5228 0220 3B       		.uleb128 0x3b
 5229 0221 0B       		.uleb128 0xb
 5230 0222 49       		.uleb128 0x49
 5231 0223 13       		.uleb128 0x13
 5232 0224 3F       		.uleb128 0x3f
 5233 0225 19       		.uleb128 0x19
 5234 0226 02       		.uleb128 0x2
 5235 0227 18       		.uleb128 0x18
 5236 0228 00       		.byte	0
 5237 0229 00       		.byte	0
 5238 022a 00       		.byte	0
 5239              		.section	.debug_aranges,"",%progbits
 5240 0000 5C000000 		.4byte	0x5c
 5241 0004 0200     		.2byte	0x2
 5242 0006 00000000 		.4byte	.Ldebug_info0
 5243 000a 04       		.byte	0x4
 5244 000b 00       		.byte	0
 5245 000c 0000     		.2byte	0
 5246 000e 0000     		.2byte	0
 5247 0010 00000000 		.4byte	.LFB2
 5248 0014 0A000000 		.4byte	.LFE2-.LFB2
 5249 0018 00000000 		.4byte	.LFB3
 5250 001c 1C000000 		.4byte	.LFE3-.LFB3
 5251 0020 00000000 		.4byte	.LFB4
 5252 0024 D4010000 		.4byte	.LFE4-.LFB4
 5253 0028 00000000 		.4byte	.LFB5
 5254 002c D4010000 		.4byte	.LFE5-.LFB5
 5255 0030 00000000 		.4byte	.LFB6
 5256 0034 9C010000 		.4byte	.LFE6-.LFB6
 5257 0038 00000000 		.4byte	.LFB7
 5258 003c 70000000 		.4byte	.LFE7-.LFB7
 5259 0040 00000000 		.4byte	.LFB8
 5260 0044 18040000 		.4byte	.LFE8-.LFB8
 5261 0048 00000000 		.4byte	.LFB9
 5262 004c D4010000 		.4byte	.LFE9-.LFB9
 5263 0050 00000000 		.4byte	.LFB10
 5264 0054 7C000000 		.4byte	.LFE10-.LFB10
 5265 0058 00000000 		.4byte	0
 5266 005c 00000000 		.4byte	0
 5267              		.section	.debug_ranges,"",%progbits
 5268              	.Ldebug_ranges0:
 5269 0000 00000000 		.4byte	.LFB2
 5270 0004 0A000000 		.4byte	.LFE2
 5271 0008 00000000 		.4byte	.LFB3
 5272 000c 1C000000 		.4byte	.LFE3
 5273 0010 00000000 		.4byte	.LFB4
ARM GAS  C:\Users\Intern\AppData\Local\Temp\ccVSLPFx.s 			page 108


 5274 0014 D4010000 		.4byte	.LFE4
 5275 0018 00000000 		.4byte	.LFB5
 5276 001c D4010000 		.4byte	.LFE5
 5277 0020 00000000 		.4byte	.LFB6
 5278 0024 9C010000 		.4byte	.LFE6
 5279 0028 00000000 		.4byte	.LFB7
 5280 002c 70000000 		.4byte	.LFE7
 5281 0030 00000000 		.4byte	.LFB8
 5282 0034 18040000 		.4byte	.LFE8
 5283 0038 00000000 		.4byte	.LFB9
 5284 003c D4010000 		.4byte	.LFE9
 5285 0040 00000000 		.4byte	.LFB10
 5286 0044 7C000000 		.4byte	.LFE10
 5287 0048 00000000 		.4byte	0
 5288 004c 00000000 		.4byte	0
 5289              		.section	.debug_line,"",%progbits
 5290              	.Ldebug_line0:
 5291 0000 BE020000 		.section	.debug_str,"MS",%progbits,1
 5291      0200DD00 
 5291      00000201 
 5291      FB0E0D00 
 5291      01010101 
 5292              	.LASF567:
 5293 0000 6379426C 		.ascii	"cyBle_peerBonding\000"
 5293      655F7065 
 5293      6572426F 
 5293      6E64696E 
 5293      6700
 5294              	.LASF506:
 5295 0012 4359424C 		.ascii	"CYBLE_EVT_UDSC_READ_CHAR_RESPONSE\000"
 5295      455F4556 
 5295      545F5544 
 5295      53435F52 
 5295      4541445F 
 5296              	.LASF464:
 5297 0034 4359424C 		.ascii	"CYBLE_EVT_PLXSC_NOTIFICATION\000"
 5297      455F4556 
 5297      545F504C 
 5297      5853435F 
 5297      4E4F5449 
 5298              	.LASF415:
 5299 0051 4359424C 		.ascii	"CYBLE_EVT_HTSS_NOTIFICATION_DISABLED\000"
 5299      455F4556 
 5299      545F4854 
 5299      53535F4E 
 5299      4F544946 
 5300              	.LASF152:
 5301 0076 4359424C 		.ascii	"CYBLE_GATT_ERR_INVALID_CRC\000"
 5301      455F4741 
 5301      54545F45 
 5301      52525F49 
 5301      4E56414C 
 5302              	.LASF202:
 5303 0091 4359424C 		.ascii	"CYBLE_DIS_CHAR_COUNT\000"
 5303      455F4449 
 5303      535F4348 
 5303      41525F43 
ARM GAS  C:\Users\Intern\AppData\Local\Temp\ccVSLPFx.s 			page 109


 5303      4F554E54 
 5304              	.LASF16:
 5305 00a6 73697A65 		.ascii	"sizetype\000"
 5305      74797065 
 5305      00
 5306              	.LASF296:
 5307 00af 4359424C 		.ascii	"CYBLE_EVT_BCSC_READ_CHAR_RESPONSE\000"
 5307      455F4556 
 5307      545F4243 
 5307      53435F52 
 5307      4541445F 
 5308              	.LASF173:
 5309 00d1 4359424C 		.ascii	"CYBLE_GATTS_HANDLE_VALUE_NTF_T\000"
 5309      455F4741 
 5309      5454535F 
 5309      48414E44 
 5309      4C455F56 
 5310              	.LASF304:
 5311 00f0 4359424C 		.ascii	"CYBLE_EVT_BLSC_INDICATION\000"
 5311      455F4556 
 5311      545F424C 
 5311      53435F49 
 5311      4E444943 
 5312              	.LASF319:
 5313 010a 4359424C 		.ascii	"CYBLE_EVT_CGMSC_INDICATION\000"
 5313      455F4556 
 5313      545F4347 
 5313      4D53435F 
 5313      494E4449 
 5314              	.LASF337:
 5315 0125 4359424C 		.ascii	"CYBLE_EVT_CPSC_READ_DESCR_RESPONSE\000"
 5315      455F4556 
 5315      545F4350 
 5315      53435F52 
 5315      4541445F 
 5316              	.LASF468:
 5317 0148 4359424C 		.ascii	"CYBLE_EVT_PLXSC_READ_DESCR_RESPONSE\000"
 5317      455F4556 
 5317      545F504C 
 5317      5853435F 
 5317      52454144 
 5318              	.LASF483:
 5319 016c 4359424C 		.ascii	"CYBLE_EVT_RTUSS_WRITE_CHAR_CMD\000"
 5319      455F4556 
 5319      545F5254 
 5319      5553535F 
 5319      57524954 
 5320              	.LASF235:
 5321 018b 63686172 		.ascii	"charIndex\000"
 5321      496E6465 
 5321      7800
 5322              	.LASF517:
 5323 0195 4359424C 		.ascii	"CYBLE_EVT_WPTSC_NOTIFICATION\000"
 5323      455F4556 
 5323      545F5750 
 5323      5453435F 
 5323      4E4F5449 
ARM GAS  C:\Users\Intern\AppData\Local\Temp\ccVSLPFx.s 			page 110


 5324              	.LASF252:
 5325 01b2 4359424C 		.ascii	"CYBLE_EVT_GATTC_INCL_DISCOVERY_COMPLETE\000"
 5325      455F4556 
 5325      545F4741 
 5325      5454435F 
 5325      494E434C 
 5326              	.LASF37:
 5327 01da 4359424C 		.ascii	"CYBLE_EVT_GAP_NUMERIC_COMPARISON_REQUEST\000"
 5327      455F4556 
 5327      545F4741 
 5327      505F4E55 
 5327      4D455249 
 5328              	.LASF263:
 5329 0203 4359424C 		.ascii	"CYBLE_EVT_AIOSC_NOTIFICATION\000"
 5329      455F4556 
 5329      545F4149 
 5329      4F53435F 
 5329      4E4F5449 
 5330              	.LASF523:
 5331 0220 4359424C 		.ascii	"CYBLE_EVT_WSSS_INDICATION_ENABLED\000"
 5331      455F4556 
 5331      545F5753 
 5331      53535F49 
 5331      4E444943 
 5332              	.LASF335:
 5333 0242 4359424C 		.ascii	"CYBLE_EVT_CPSC_READ_CHAR_RESPONSE\000"
 5333      455F4556 
 5333      545F4350 
 5333      53435F52 
 5333      4541445F 
 5334              	.LASF348:
 5335 0264 4359424C 		.ascii	"CYBLE_EVT_CSCSC_READ_CHAR_RESPONSE\000"
 5335      455F4556 
 5335      545F4353 
 5335      4353435F 
 5335      52454144 
 5336              	.LASF324:
 5337 0287 4359424C 		.ascii	"CYBLE_EVT_CGMSC_WRITE_DESCR_RESPONSE\000"
 5337      455F4556 
 5337      545F4347 
 5337      4D53435F 
 5337      57524954 
 5338              	.LASF378:
 5339 02ac 4359424C 		.ascii	"CYBLE_EVT_GLSS_NOTIFICATION_DISABLED\000"
 5339      455F4556 
 5339      545F474C 
 5339      53535F4E 
 5339      4F544946 
 5340              	.LASF549:
 5341 02d1 6576656E 		.ascii	"eventParam\000"
 5341      74506172 
 5341      616D00
 5342              	.LASF306:
 5343 02dc 4359424C 		.ascii	"CYBLE_EVT_BLSC_READ_CHAR_RESPONSE\000"
 5343      455F4556 
 5343      545F424C 
 5343      53435F52 
ARM GAS  C:\Users\Intern\AppData\Local\Temp\ccVSLPFx.s 			page 111


 5343      4541445F 
 5344              	.LASF31:
 5345 02fe 4359424C 		.ascii	"CYBLE_EVT_GAP_DEVICE_CONNECTED\000"
 5345      455F4556 
 5345      545F4741 
 5345      505F4445 
 5345      56494345 
 5346              	.LASF437:
 5347 031d 4359424C 		.ascii	"CYBLE_EVT_LLSC_WRITE_CHAR_RESPONSE\000"
 5347      455F4556 
 5347      545F4C4C 
 5347      53435F57 
 5347      52495445 
 5348              	.LASF49:
 5349 0340 4359424C 		.ascii	"CYBLE_EVT_GATT_CONNECT_IND\000"
 5349      455F4556 
 5349      545F4741 
 5349      54545F43 
 5349      4F4E4E45 
 5350              	.LASF538:
 5351 035b 61747472 		.ascii	"attrSize\000"
 5351      53697A65 
 5351      00
 5352              	.LASF383:
 5353 0364 4359424C 		.ascii	"CYBLE_EVT_GLSC_WRITE_CHAR_RESPONSE\000"
 5353      455F4556 
 5353      545F474C 
 5353      53435F57 
 5353      52495445 
 5354              	.LASF11:
 5355 0387 75696E74 		.ascii	"uint32\000"
 5355      333200
 5356              	.LASF247:
 5357 038e 4359424C 		.ascii	"CYBLE_EVT_GATTC_DESCR_DISCOVERY_FAILED\000"
 5357      455F4556 
 5357      545F4741 
 5357      5454435F 
 5357      44455343 
 5358              	.LASF482:
 5359 03b5 4359424C 		.ascii	"CYBLE_EVT_RSCSC_WRITE_DESCR_RESPONSE\000"
 5359      455F4556 
 5359      545F5253 
 5359      4353435F 
 5359      57524954 
 5360              	.LASF294:
 5361 03da 4359424C 		.ascii	"CYBLE_EVT_BCSS_INDICATION_CONFIRMED\000"
 5361      455F4556 
 5361      545F4243 
 5361      53535F49 
 5361      4E444943 
 5362              	.LASF295:
 5363 03fe 4359424C 		.ascii	"CYBLE_EVT_BCSC_INDICATION\000"
 5363      455F4556 
 5363      545F4243 
 5363      53435F49 
 5363      4E444943 
 5364              	.LASF439:
ARM GAS  C:\Users\Intern\AppData\Local\Temp\ccVSLPFx.s 			page 112


 5365 0418 4359424C 		.ascii	"CYBLE_EVT_LNSS_INDICATION_DISABLED\000"
 5365      455F4556 
 5365      545F4C4E 
 5365      53535F49 
 5365      4E444943 
 5366              	.LASF356:
 5367 043b 4359424C 		.ascii	"CYBLE_EVT_CTSC_READ_CHAR_RESPONSE\000"
 5367      455F4556 
 5367      545F4354 
 5367      53435F52 
 5367      4541445F 
 5368              	.LASF251:
 5369 045d 4359424C 		.ascii	"CYBLE_EVT_GATTC_SRVC_DISCOVERY_COMPLETE\000"
 5369      455F4556 
 5369      545F4741 
 5369      5454435F 
 5369      53525643 
 5370              	.LASF476:
 5371 0485 4359424C 		.ascii	"CYBLE_EVT_RSCSS_CHAR_WRITE\000"
 5371      455F4556 
 5371      545F5253 
 5371      4353535F 
 5371      43484152 
 5372              	.LASF465:
 5373 04a0 4359424C 		.ascii	"CYBLE_EVT_PLXSC_INDICATION\000"
 5373      455F4556 
 5373      545F504C 
 5373      5853435F 
 5373      494E4449 
 5374              	.LASF509:
 5375 04bb 4359424C 		.ascii	"CYBLE_EVT_UDSC_WRITE_DESCR_RESPONSE\000"
 5375      455F4556 
 5375      545F5544 
 5375      53435F57 
 5375      52495445 
 5376              	.LASF397:
 5377 04df 4359424C 		.ascii	"CYBLE_EVT_HIDSC_WRITE_DESCR_RESPONSE\000"
 5377      455F4556 
 5377      545F4849 
 5377      4453435F 
 5377      57524954 
 5378              	.LASF561:
 5379 0504 4379426C 		.ascii	"CyBle_HidssOnDeviceConnected\000"
 5379      655F4869 
 5379      6473734F 
 5379      6E446576 
 5379      69636543 
 5380              	.LASF491:
 5381 0521 4359424C 		.ascii	"CYBLE_EVT_TPSS_NOTIFICATION_ENABLED\000"
 5381      455F4556 
 5381      545F5450 
 5381      53535F4E 
 5381      4F544946 
 5382              	.LASF284:
 5383 0545 4359424C 		.ascii	"CYBLE_EVT_ANSC_READ_DESCR_RESPONSE\000"
 5383      455F4556 
 5383      545F414E 
ARM GAS  C:\Users\Intern\AppData\Local\Temp\ccVSLPFx.s 			page 113


 5383      53435F52 
 5383      4541445F 
 5384              	.LASF126:
 5385 0568 4359424C 		.ascii	"CYBLE_GATT_ERR_READ_NOT_PERMITTED\000"
 5385      455F4741 
 5385      54545F45 
 5385      52525F52 
 5385      4541445F 
 5386              	.LASF141:
 5387 058a 4359424C 		.ascii	"CYBLE_GATT_ERR_INSUFFICIENT_RESOURCE\000"
 5387      455F4741 
 5387      54545F45 
 5387      52525F49 
 5387      4E535546 
 5388              	.LASF223:
 5389 05af 4359424C 		.ascii	"CYBLE_HIDSS_REPORT_T\000"
 5389      455F4849 
 5389      4453535F 
 5389      5245504F 
 5389      52545F54 
 5390              	.LASF140:
 5391 05c4 4359424C 		.ascii	"CYBLE_GATT_ERR_UNSUPPORTED_GROUP_TYPE\000"
 5391      455F4741 
 5391      54545F45 
 5391      52525F55 
 5391      4E535550 
 5392              	.LASF105:
 5393 05ea 4359424C 		.ascii	"CYBLE_ERROR_L2CAP_CONNECTION_ENTITY_NOT_FOUND\000"
 5393      455F4552 
 5393      524F525F 
 5393      4C324341 
 5393      505F434F 
 5394              	.LASF233:
 5395 0618 4359424C 		.ascii	"CYBLE_HIDSS_T\000"
 5395      455F4849 
 5395      4453535F 
 5395      5400
 5396              	.LASF575:
 5397 0626 4379426C 		.ascii	"CyBle_HidssCccdWriteEventHandler\000"
 5397      655F4869 
 5397      64737343 
 5397      63636457 
 5397      72697465 
 5398              	.LASF111:
 5399 0647 4359424C 		.ascii	"CYBLE_ERROR_MIC_AUTH_FAILED\000"
 5399      455F4552 
 5399      524F525F 
 5399      4D49435F 
 5399      41555448 
 5400              	.LASF246:
 5401 0663 4359424C 		.ascii	"CYBLE_EVT_GATTC_CHAR_DISCOVERY_FAILED\000"
 5401      455F4556 
 5401      545F4741 
 5401      5454435F 
 5401      43484152 
 5402              	.LASF563:
 5403 0689 4379426C 		.ascii	"CyBle_HidsApplCallback\000"
ARM GAS  C:\Users\Intern\AppData\Local\Temp\ccVSLPFx.s 			page 114


 5403      655F4869 
 5403      64734170 
 5403      706C4361 
 5403      6C6C6261 
 5404              	.LASF69:
 5405 06a0 4359424C 		.ascii	"CYBLE_EVT_GATTS_DATA_SIGNED_CMD_REQ\000"
 5405      455F4556 
 5405      545F4741 
 5405      5454535F 
 5405      44415441 
 5406              	.LASF81:
 5407 06c4 4359424C 		.ascii	"CYBLE_EVT_L2CAP_CBFC_RX_CREDIT_IND\000"
 5407      455F4556 
 5407      545F4C32 
 5407      4341505F 
 5407      43424643 
 5408              	.LASF169:
 5409 06e7 4359424C 		.ascii	"CYBLE_GATT_VALUE_T\000"
 5409      455F4741 
 5409      54545F56 
 5409      414C5545 
 5409      5F5400
 5410              	.LASF342:
 5411 06fa 4359424C 		.ascii	"CYBLE_EVT_CSCSS_INDICATION_ENABLED\000"
 5411      455F4556 
 5411      545F4353 
 5411      4353535F 
 5411      494E4449 
 5412              	.LASF188:
 5413 071d 7065726D 		.ascii	"permission\000"
 5413      69737369 
 5413      6F6E00
 5414              	.LASF444:
 5415 0728 4359424C 		.ascii	"CYBLE_EVT_LNSC_INDICATION\000"
 5415      455F4556 
 5415      545F4C4E 
 5415      53435F49 
 5415      4E444943 
 5416              	.LASF142:
 5417 0742 4359424C 		.ascii	"CYBLE_GATT_ERR_TRIGGER_CODITION_VALUE_NOT_SUPPORTED"
 5417      455F4741 
 5417      54545F45 
 5417      52525F54 
 5417      52494747 
 5418 0775 00       		.ascii	"\000"
 5419              	.LASF455:
 5420 0776 4359424C 		.ascii	"CYBLE_EVT_PASSC_READ_CHAR_RESPONSE\000"
 5420      455F4556 
 5420      545F5041 
 5420      5353435F 
 5420      52454144 
 5421              	.LASF299:
 5422 0799 4359424C 		.ascii	"CYBLE_EVT_BLSS_INDICATION_ENABLED\000"
 5422      455F4556 
 5422      545F424C 
 5422      53535F49 
 5422      4E444943 
ARM GAS  C:\Users\Intern\AppData\Local\Temp\ccVSLPFx.s 			page 115


 5423              	.LASF305:
 5424 07bb 4359424C 		.ascii	"CYBLE_EVT_BLSC_NOTIFICATION\000"
 5424      455F4556 
 5424      545F424C 
 5424      53435F4E 
 5424      4F544946 
 5425              	.LASF192:
 5426 07d7 4359424C 		.ascii	"CYBLE_CALLBACK_T\000"
 5426      455F4341 
 5426      4C4C4241 
 5426      434B5F54 
 5426      00
 5427              	.LASF347:
 5428 07e8 4359424C 		.ascii	"CYBLE_EVT_CSCSC_INDICATION\000"
 5428      455F4556 
 5428      545F4353 
 5428      4353435F 
 5428      494E4449 
 5429              	.LASF390:
 5430 0803 4359424C 		.ascii	"CYBLE_EVT_HIDSS_SUSPEND\000"
 5430      455F4556 
 5430      545F4849 
 5430      4453535F 
 5430      53555350 
 5431              	.LASF197:
 5432 081b 4359424C 		.ascii	"CYBLE_DIS_FIRMWARE_REV\000"
 5432      455F4449 
 5432      535F4649 
 5432      524D5741 
 5432      52455F52 
 5433              	.LASF66:
 5434 0832 4359424C 		.ascii	"CYBLE_EVT_GATTC_HANDLE_VALUE_NTF\000"
 5434      455F4556 
 5434      545F4741 
 5434      5454435F 
 5434      48414E44 
 5435              	.LASF25:
 5436 0853 4359424C 		.ascii	"CYBLE_EVT_GAP_AUTH_REQ\000"
 5436      455F4556 
 5436      545F4741 
 5436      505F4155 
 5436      54485F52 
 5437              	.LASF253:
 5438 086a 4359424C 		.ascii	"CYBLE_EVT_GATTC_CHAR_DISCOVERY_COMPLETE\000"
 5438      455F4556 
 5438      545F4741 
 5438      5454435F 
 5438      43484152 
 5439              	.LASF167:
 5440 0892 4359424C 		.ascii	"CYBLE_CONN_HANDLE_T\000"
 5440      455F434F 
 5440      4E4E5F48 
 5440      414E444C 
 5440      455F5400 
 5441              	.LASF411:
 5442 08a6 4359424C 		.ascii	"CYBLE_EVT_HRSC_WRITE_CHAR_RESPONSE\000"
 5442      455F4556 
ARM GAS  C:\Users\Intern\AppData\Local\Temp\ccVSLPFx.s 			page 116


 5442      545F4852 
 5442      53435F57 
 5442      52495445 
 5443              	.LASF100:
 5444 08c9 4359424C 		.ascii	"CYBLE_ERROR_BT_ON_NOT_COMPLETED\000"
 5444      455F4552 
 5444      524F525F 
 5444      42545F4F 
 5444      4E5F4E4F 
 5445              	.LASF346:
 5446 08e9 4359424C 		.ascii	"CYBLE_EVT_CSCSC_NOTIFICATION\000"
 5446      455F4556 
 5446      545F4353 
 5446      4353435F 
 5446      4E4F5449 
 5447              	.LASF504:
 5448 0906 4359424C 		.ascii	"CYBLE_EVT_UDSC_INDICATION\000"
 5448      455F4556 
 5448      545F5544 
 5448      53435F49 
 5448      4E444943 
 5449              	.LASF427:
 5450 0920 4359424C 		.ascii	"CYBLE_EVT_IPSS_WRITE_CHAR\000"
 5450      455F4556 
 5450      545F4950 
 5450      53535F57 
 5450      52495445 
 5451              	.LASF206:
 5452 093a 4359424C 		.ascii	"CYBLE_HIDS_REPORT_MAP\000"
 5452      455F4849 
 5452      44535F52 
 5452      45504F52 
 5452      545F4D41 
 5453              	.LASF46:
 5454 0950 4359424C 		.ascii	"CYBLE_EVT_GAP_AUTH_REQ_REPLY_ERR\000"
 5454      455F4556 
 5454      545F4741 
 5454      505F4155 
 5454      54485F52 
 5455              	.LASF310:
 5456 0971 4359424C 		.ascii	"CYBLE_EVT_BMSC_READ_CHAR_RESPONSE\000"
 5456      455F4556 
 5456      545F424D 
 5456      53435F52 
 5456      4541445F 
 5457              	.LASF534:
 5458 0993 4359424C 		.ascii	"CYBLE_STATE_ADVERTISING\000"
 5458      455F5354 
 5458      4154455F 
 5458      41445645 
 5458      52544953 
 5459              	.LASF39:
 5460 09ab 4359424C 		.ascii	"CYBLE_EVT_GAP_OOB_GENERATED_NOTIFICATION\000"
 5460      455F4556 
 5460      545F4741 
 5460      505F4F4F 
 5460      425F4745 
ARM GAS  C:\Users\Intern\AppData\Local\Temp\ccVSLPFx.s 			page 117


 5461              	.LASF165:
 5462 09d4 62644861 		.ascii	"bdHandle\000"
 5462      6E646C65 
 5462      00
 5463              	.LASF154:
 5464 09dd 4359424C 		.ascii	"CYBLE_GATTS_ERR_NETWORK_NOT_AVAILABLE\000"
 5464      455F4741 
 5464      5454535F 
 5464      4552525F 
 5464      4E455457 
 5465              	.LASF315:
 5466 0a03 4359424C 		.ascii	"CYBLE_EVT_CGMSS_INDICATION_CONFIRMED\000"
 5466      455F4556 
 5466      545F4347 
 5466      4D53535F 
 5466      494E4449 
 5467              	.LASF157:
 5468 0a28 4359424C 		.ascii	"CYBLE_GATT_ERR_ANCS_INVALID_COMMAND\000"
 5468      455F4741 
 5468      54545F45 
 5468      52525F41 
 5468      4E43535F 
 5469              	.LASF307:
 5470 0a4c 4359424C 		.ascii	"CYBLE_EVT_BLSC_READ_DESCR_RESPONSE\000"
 5470      455F4556 
 5470      545F424C 
 5470      53435F52 
 5470      4541445F 
 5471              	.LASF467:
 5472 0a6f 4359424C 		.ascii	"CYBLE_EVT_PLXSC_WRITE_CHAR_RESPONSE\000"
 5472      455F4556 
 5472      545F504C 
 5472      5853435F 
 5472      57524954 
 5473              	.LASF328:
 5474 0a93 4359424C 		.ascii	"CYBLE_EVT_CPSS_INDICATION_DISABLED\000"
 5474      455F4556 
 5474      545F4350 
 5474      53535F49 
 5474      4E444943 
 5475              	.LASF327:
 5476 0ab6 4359424C 		.ascii	"CYBLE_EVT_CPSS_INDICATION_ENABLED\000"
 5476      455F4556 
 5476      545F4350 
 5476      53535F49 
 5476      4E444943 
 5477              	.LASF441:
 5478 0ad8 4359424C 		.ascii	"CYBLE_EVT_LNSS_NOTIFICATION_ENABLED\000"
 5478      455F4556 
 5478      545F4C4E 
 5478      53535F4E 
 5478      4F544946 
 5479              	.LASF62:
 5480 0afc 4359424C 		.ascii	"CYBLE_EVT_GATTS_WRITE_CMD_REQ\000"
 5480      455F4556 
 5480      545F4741 
 5480      5454535F 
ARM GAS  C:\Users\Intern\AppData\Local\Temp\ccVSLPFx.s 			page 118


 5480      57524954 
 5481              	.LASF338:
 5482 0b1a 4359424C 		.ascii	"CYBLE_EVT_CPSC_WRITE_DESCR_RESPONSE\000"
 5482      455F4556 
 5482      545F4350 
 5482      53435F57 
 5482      52495445 
 5483              	.LASF82:
 5484 0b3e 4359424C 		.ascii	"CYBLE_EVT_L2CAP_CBFC_TX_CREDIT_IND\000"
 5484      455F4556 
 5484      545F4C32 
 5484      4341505F 
 5484      43424643 
 5485              	.LASF4:
 5486 0b61 6C6F6E67 		.ascii	"long int\000"
 5486      20696E74 
 5486      00
 5487              	.LASF442:
 5488 0b6a 4359424C 		.ascii	"CYBLE_EVT_LNSS_NOTIFICATION_DISABLED\000"
 5488      455F4556 
 5488      545F4C4E 
 5488      53535F4E 
 5488      4F544946 
 5489              	.LASF343:
 5490 0b8f 4359424C 		.ascii	"CYBLE_EVT_CSCSS_INDICATION_DISABLED\000"
 5490      455F4556 
 5490      545F4353 
 5490      4353535F 
 5490      494E4449 
 5491              	.LASF499:
 5492 0bb3 4359424C 		.ascii	"CYBLE_EVT_UDSS_INDICATION_CONFIRMED\000"
 5492      455F4556 
 5492      545F5544 
 5492      53535F49 
 5492      4E444943 
 5493              	.LASF239:
 5494 0bd7 4359424C 		.ascii	"CYBLE_LONG_TERM_KEY_REQUEST_REPLY\000"
 5494      455F4C4F 
 5494      4E475F54 
 5494      45524D5F 
 5494      4B45595F 
 5495              	.LASF18:
 5496 0bf9 4359424C 		.ascii	"CYBLE_EVT_STACK_ON\000"
 5496      455F4556 
 5496      545F5354 
 5496      41434B5F 
 5496      4F4E00
 5497              	.LASF107:
 5498 0c0c 4359424C 		.ascii	"CYBLE_ERROR_L2CAP_PSM_NOT_IN_RANGE\000"
 5498      455F4552 
 5498      524F525F 
 5498      4C324341 
 5498      505F5053 
 5499              	.LASF196:
 5500 0c2f 4359424C 		.ascii	"CYBLE_DIS_HARDWARE_REV\000"
 5500      455F4449 
 5500      535F4841 
ARM GAS  C:\Users\Intern\AppData\Local\Temp\ccVSLPFx.s 			page 119


 5500      52445741 
 5500      52455F52 
 5501              	.LASF293:
 5502 0c46 4359424C 		.ascii	"CYBLE_EVT_BCSS_INDICATION_DISABLED\000"
 5502      455F4556 
 5502      545F4243 
 5502      53535F49 
 5502      4E444943 
 5503              	.LASF537:
 5504 0c69 63616C6C 		.ascii	"callbackFunc\000"
 5504      6261636B 
 5504      46756E63 
 5504      00
 5505              	.LASF373:
 5506 0c76 4359424C 		.ascii	"CYBLE_EVT_ESSC_WRITE_DESCR_RESPONSE\000"
 5506      455F4556 
 5506      545F4553 
 5506      53435F57 
 5506      52495445 
 5507              	.LASF153:
 5508 0c9a 4359424C 		.ascii	"CYBLE_GATTS_ERR_HPS_INVALID_REQUEST\000"
 5508      455F4741 
 5508      5454535F 
 5508      4552525F 
 5508      4850535F 
 5509              	.LASF430:
 5510 0cbe 4359424C 		.ascii	"CYBLE_EVT_IPSC_WRITE_CHAR_RESPONSE\000"
 5510      455F4556 
 5510      545F4950 
 5510      53435F57 
 5510      52495445 
 5511              	.LASF224:
 5512 0ce1 73657276 		.ascii	"serviceHandle\000"
 5512      69636548 
 5512      616E646C 
 5512      6500
 5513              	.LASF414:
 5514 0cef 4359424C 		.ascii	"CYBLE_EVT_HTSS_NOTIFICATION_ENABLED\000"
 5514      455F4556 
 5514      545F4854 
 5514      53535F4E 
 5514      4F544946 
 5515              	.LASF128:
 5516 0d13 4359424C 		.ascii	"CYBLE_GATT_ERR_INVALID_PDU\000"
 5516      455F4741 
 5516      54545F45 
 5516      52525F49 
 5516      4E56414C 
 5517              	.LASF569:
 5518 0d2e 6379426C 		.ascii	"cyBle_hidss\000"
 5518      655F6869 
 5518      64737300 
 5519              	.LASF120:
 5520 0d3a 4359424C 		.ascii	"CYBLE_ERROR_CHAR_IS_NOT_DISCOVERED\000"
 5520      455F4552 
 5520      524F525F 
 5520      43484152 
ARM GAS  C:\Users\Intern\AppData\Local\Temp\ccVSLPFx.s 			page 120


 5520      5F49535F 
 5521              	.LASF502:
 5522 0d5d 4359424C 		.ascii	"CYBLE_EVT_UDSS_READ_CHAR\000"
 5522      455F4556 
 5522      545F5544 
 5522      53535F52 
 5522      4541445F 
 5523              	.LASF259:
 5524 0d76 4359424C 		.ascii	"CYBLE_EVT_AIOSS_INDICATION_DISABLED\000"
 5524      455F4556 
 5524      545F4149 
 5524      4F53535F 
 5524      494E4449 
 5525              	.LASF172:
 5526 0d9a 4359424C 		.ascii	"CYBLE_GATT_HANDLE_VALUE_PAIR_T\000"
 5526      455F4741 
 5526      54545F48 
 5526      414E444C 
 5526      455F5641 
 5527              	.LASF187:
 5528 0db9 61747454 		.ascii	"attType\000"
 5528      79706500 
 5529              	.LASF234:
 5530 0dc1 73657276 		.ascii	"serviceIndex\000"
 5530      69636549 
 5530      6E646578 
 5530      00
 5531              	.LASF370:
 5532 0dce 4359424C 		.ascii	"CYBLE_EVT_ESSC_READ_CHAR_RESPONSE\000"
 5532      455F4556 
 5532      545F4553 
 5532      53435F52 
 5532      4541445F 
 5533              	.LASF393:
 5534 0df0 4359424C 		.ascii	"CYBLE_EVT_HIDSC_NOTIFICATION\000"
 5534      455F4556 
 5534      545F4849 
 5534      4453435F 
 5534      4E4F5449 
 5535              	.LASF75:
 5536 0e0d 4359424C 		.ascii	"CYBLE_EVT_L2CAP_COMMAND_REJ\000"
 5536      455F4556 
 5536      545F4C32 
 5536      4341505F 
 5536      434F4D4D 
 5537              	.LASF256:
 5538 0e29 4359424C 		.ascii	"CYBLE_EVT_AIOSS_NOTIFICATION_ENABLED\000"
 5538      455F4556 
 5538      545F4149 
 5538      4F53535F 
 5538      4E4F5449 
 5539              	.LASF137:
 5540 0e4e 4359424C 		.ascii	"CYBLE_GATT_ERR_INVALID_ATTRIBUTE_LEN\000"
 5540      455F4741 
 5540      54545F45 
 5540      52525F49 
 5540      4E56414C 
ARM GAS  C:\Users\Intern\AppData\Local\Temp\ccVSLPFx.s 			page 121


 5541              	.LASF225:
 5542 0e73 70726F74 		.ascii	"protocolModeHandle\000"
 5542      6F636F6C 
 5542      4D6F6465 
 5542      48616E64 
 5542      6C6500
 5543              	.LASF108:
 5544 0e86 4359424C 		.ascii	"CYBLE_ERROR_GATT_DB_INVALID_ATTR_HANDLE\000"
 5544      455F4552 
 5544      524F525F 
 5544      47415454 
 5544      5F44425F 
 5545              	.LASF0:
 5546 0eae 7369676E 		.ascii	"signed char\000"
 5546      65642063 
 5546      68617200 
 5547              	.LASF297:
 5548 0eba 4359424C 		.ascii	"CYBLE_EVT_BCSC_READ_DESCR_RESPONSE\000"
 5548      455F4556 
 5548      545F4243 
 5548      53435F52 
 5548      4541445F 
 5549              	.LASF529:
 5550 0edd 4359424C 		.ascii	"CYBLE_EVT_WSSC_WRITE_DESCR_RESPONSE\000"
 5550      455F4556 
 5550      545F5753 
 5550      53435F57 
 5550      52495445 
 5551              	.LASF290:
 5552 0f01 4359424C 		.ascii	"CYBLE_EVT_BASC_READ_DESCR_RESPONSE\000"
 5552      455F4556 
 5552      545F4241 
 5552      53435F52 
 5552      4541445F 
 5553              	.LASF20:
 5554 0f24 4359424C 		.ascii	"CYBLE_EVT_HARDWARE_ERROR\000"
 5554      455F4556 
 5554      545F4841 
 5554      52445741 
 5554      52455F45 
 5555              	.LASF89:
 5556 0f3d 4359424C 		.ascii	"CYBLE_ERROR_OK\000"
 5556      455F4552 
 5556      524F525F 
 5556      4F4B00
 5557              	.LASF556:
 5558 0f4c 6C6F6343 		.ascii	"locCharValue\000"
 5558      68617256 
 5558      616C7565 
 5558      00
 5559              	.LASF53:
 5560 0f59 4359424C 		.ascii	"CYBLE_EVT_GATTC_READ_BY_GROUP_TYPE_RSP\000"
 5560      455F4556 
 5560      545F4741 
 5560      5454435F 
 5560      52454144 
 5561              	.LASF531:
ARM GAS  C:\Users\Intern\AppData\Local\Temp\ccVSLPFx.s 			page 122


 5562 0f80 4359424C 		.ascii	"CYBLE_STATE_STOPPED\000"
 5562      455F5354 
 5562      4154455F 
 5562      53544F50 
 5562      50454400 
 5563              	.LASF473:
 5564 0f94 4359424C 		.ascii	"CYBLE_EVT_RSCSS_INDICATION_ENABLED\000"
 5564      455F4556 
 5564      545F5253 
 5564      4353535F 
 5564      494E4449 
 5565              	.LASF1:
 5566 0fb7 756E7369 		.ascii	"unsigned char\000"
 5566      676E6564 
 5566      20636861 
 5566      7200
 5567              	.LASF52:
 5568 0fc5 4359424C 		.ascii	"CYBLE_EVT_GATTC_XCHNG_MTU_RSP\000"
 5568      455F4556 
 5568      545F4741 
 5568      5454435F 
 5568      5843484E 
 5569              	.LASF329:
 5570 0fe3 4359424C 		.ascii	"CYBLE_EVT_CPSS_INDICATION_CONFIRMED\000"
 5570      455F4556 
 5570      545F4350 
 5570      53535F49 
 5570      4E444943 
 5571              	.LASF326:
 5572 1007 4359424C 		.ascii	"CYBLE_EVT_CPSS_NOTIFICATION_DISABLED\000"
 5572      455F4556 
 5572      545F4350 
 5572      53535F4E 
 5572      4F544946 
 5573              	.LASF478:
 5574 102c 4359424C 		.ascii	"CYBLE_EVT_RSCSC_INDICATION\000"
 5574      455F4556 
 5574      545F5253 
 5574      4353435F 
 5574      494E4449 
 5575              	.LASF528:
 5576 1047 4359424C 		.ascii	"CYBLE_EVT_WSSC_READ_DESCR_RESPONSE\000"
 5576      455F4556 
 5576      545F5753 
 5576      53435F52 
 5576      4541445F 
 5577              	.LASF514:
 5578 106a 4359424C 		.ascii	"CYBLE_EVT_WPTSS_INDICATION_DISABLED\000"
 5578      455F4556 
 5578      545F5750 
 5578      5453535F 
 5578      494E4449 
 5579              	.LASF43:
 5580 108e 4359424C 		.ascii	"CYBLE_EVT_GAP_SMP_NEGOTIATED_AUTH_INFO\000"
 5580      455F4556 
 5580      545F4741 
 5580      505F534D 
ARM GAS  C:\Users\Intern\AppData\Local\Temp\ccVSLPFx.s 			page 123


 5580      505F4E45 
 5581              	.LASF44:
 5582 10b5 4359424C 		.ascii	"CYBLE_EVT_GAP_CONN_ESTB\000"
 5582      455F4556 
 5582      545F4741 
 5582      505F434F 
 5582      4E4E5F45 
 5583              	.LASF186:
 5584 10cd 61747448 		.ascii	"attHandle\000"
 5584      616E646C 
 5584      6500
 5585              	.LASF243:
 5586 10d7 4359424C 		.ascii	"CYBLE_EVT_GATTC_INDICATION\000"
 5586      455F4556 
 5586      545F4741 
 5586      5454435F 
 5586      494E4449 
 5587              	.LASF398:
 5588 10f2 4359424C 		.ascii	"CYBLE_EVT_HPSS_NOTIFICATION_ENABLED\000"
 5588      455F4556 
 5588      545F4850 
 5588      53535F4E 
 5588      4F544946 
 5589              	.LASF485:
 5590 1116 4359424C 		.ascii	"CYBLE_EVT_SCPSS_NOTIFICATION_ENABLED\000"
 5590      455F4556 
 5590      545F5343 
 5590      5053535F 
 5590      4E4F5449 
 5591              	.LASF428:
 5592 113b 4359424C 		.ascii	"CYBLE_EVT_IPSC_READ_CHAR_RESPONSE\000"
 5592      455F4556 
 5592      545F4950 
 5592      53435F52 
 5592      4541445F 
 5593              	.LASF553:
 5594 115d 6C6F6353 		.ascii	"locServIndex\000"
 5594      65727649 
 5594      6E646578 
 5594      00
 5595              	.LASF79:
 5596 116a 4359424C 		.ascii	"CYBLE_EVT_L2CAP_CBFC_DISCONN_CNF\000"
 5596      455F4556 
 5596      545F4C32 
 5596      4341505F 
 5596      43424643 
 5597              	.LASF56:
 5598 118b 4359424C 		.ascii	"CYBLE_EVT_GATTC_FIND_BY_TYPE_VALUE_RSP\000"
 5598      455F4556 
 5598      545F4741 
 5598      5454435F 
 5598      46494E44 
 5599              	.LASF270:
 5600 11b2 4359424C 		.ascii	"CYBLE_EVT_ANCSS_NOTIFICATION_ENABLED\000"
 5600      455F4556 
 5600      545F414E 
 5600      4353535F 
ARM GAS  C:\Users\Intern\AppData\Local\Temp\ccVSLPFx.s 			page 124


 5600      4E4F5449 
 5601              	.LASF40:
 5602 11d7 4359424C 		.ascii	"CYBLE_EVT_GAP_DATA_LENGTH_CHANGE\000"
 5602      455F4556 
 5602      545F4741 
 5602      505F4441 
 5602      54415F4C 
 5603              	.LASF490:
 5604 11f8 4359424C 		.ascii	"CYBLE_EVT_SCPSC_WRITE_DESCR_RESPONSE\000"
 5604      455F4556 
 5604      545F5343 
 5604      5053435F 
 5604      57524954 
 5605              	.LASF14:
 5606 121d 63686172 		.ascii	"char\000"
 5606      00
 5607              	.LASF180:
 5608 1222 6D617841 		.ascii	"maxAttrLength\000"
 5608      7474724C 
 5608      656E6774 
 5608      6800
 5609              	.LASF493:
 5610 1230 4359424C 		.ascii	"CYBLE_EVT_TPSC_NOTIFICATION\000"
 5610      455F4556 
 5610      545F5450 
 5610      53435F4E 
 5610      4F544946 
 5611              	.LASF214:
 5612 124c 4359424C 		.ascii	"CYBLE_HIDS_CHAR_INDEX_T\000"
 5612      455F4849 
 5612      44535F43 
 5612      4841525F 
 5612      494E4445 
 5613              	.LASF459:
 5614 1264 4359424C 		.ascii	"CYBLE_EVT_PLXSS_NOTIFICATION_ENABLED\000"
 5614      455F4556 
 5614      545F504C 
 5614      5853535F 
 5614      4E4F5449 
 5615              	.LASF59:
 5616 1289 4359424C 		.ascii	"CYBLE_EVT_GATTC_READ_MULTI_RSP\000"
 5616      455F4556 
 5616      545F4741 
 5616      5454435F 
 5616      52454144 
 5617              	.LASF269:
 5618 12a8 4359424C 		.ascii	"CYBLE_EVT_AIOSC_ERROR_RESPONSE\000"
 5618      455F4556 
 5618      545F4149 
 5618      4F53435F 
 5618      4552524F 
 5619              	.LASF264:
 5620 12c7 4359424C 		.ascii	"CYBLE_EVT_AIOSC_INDICATION\000"
 5620      455F4556 
 5620      545F4149 
 5620      4F53435F 
 5620      494E4449 
ARM GAS  C:\Users\Intern\AppData\Local\Temp\ccVSLPFx.s 			page 125


 5621              	.LASF17:
 5622 12e2 4359424C 		.ascii	"CYBLE_EVT_HOST_INVALID\000"
 5622      455F4556 
 5622      545F484F 
 5622      53545F49 
 5622      4E56414C 
 5623              	.LASF138:
 5624 12f9 4359424C 		.ascii	"CYBLE_GATT_ERR_UNLIKELY_ERROR\000"
 5624      455F4741 
 5624      54545F45 
 5624      52525F55 
 5624      4E4C494B 
 5625              	.LASF42:
 5626 1317 4359424C 		.ascii	"CYBLE_EVT_GAPC_DIRECT_ADV_REPORT\000"
 5626      455F4556 
 5626      545F4741 
 5626      50435F44 
 5626      49524543 
 5627              	.LASF384:
 5628 1338 4359424C 		.ascii	"CYBLE_EVT_GLSC_READ_DESCR_RESPONSE\000"
 5628      455F4556 
 5628      545F474C 
 5628      53435F52 
 5628      4541445F 
 5629              	.LASF96:
 5630 135b 4359424C 		.ascii	"CYBLE_ERROR_NO_DEVICE_ENTITY\000"
 5630      455F4552 
 5630      524F525F 
 5630      4E4F5F44 
 5630      45564943 
 5631              	.LASF58:
 5632 1378 4359424C 		.ascii	"CYBLE_EVT_GATTC_READ_BLOB_RSP\000"
 5632      455F4556 
 5632      545F4741 
 5632      5454435F 
 5632      52454144 
 5633              	.LASF417:
 5634 1396 4359424C 		.ascii	"CYBLE_EVT_HTSS_INDICATION_DISABLED\000"
 5634      455F4556 
 5634      545F4854 
 5634      53535F49 
 5634      4E444943 
 5635              	.LASF484:
 5636 13b9 4359424C 		.ascii	"CYBLE_EVT_RTUSC_READ_CHAR_RESPONSE\000"
 5636      455F4556 
 5636      545F5254 
 5636      5553435F 
 5636      52454144 
 5637              	.LASF65:
 5638 13dc 4359424C 		.ascii	"CYBLE_EVT_GATTC_EXEC_WRITE_RSP\000"
 5638      455F4556 
 5638      545F4741 
 5638      5454435F 
 5638      45584543 
 5639              	.LASF143:
 5640 13fb 4359424C 		.ascii	"CYBLE_GATT_ERR_HEART_RATE_CONTROL_POINT_NOT_SUPPORT"
 5640      455F4741 
ARM GAS  C:\Users\Intern\AppData\Local\Temp\ccVSLPFx.s 			page 126


 5640      54545F45 
 5640      52525F48 
 5640      45415254 
 5641 142e 454400   		.ascii	"ED\000"
 5642              	.LASF525:
 5643 1431 4359424C 		.ascii	"CYBLE_EVT_WSSS_INDICATION_CONFIRMED\000"
 5643      455F4556 
 5643      545F5753 
 5643      53535F49 
 5643      4E444943 
 5644              	.LASF135:
 5645 1455 4359424C 		.ascii	"CYBLE_GATT_ERR_ATTRIBUTE_NOT_LONG\000"
 5645      455F4741 
 5645      54545F45 
 5645      52525F41 
 5645      54545249 
 5646              	.LASF358:
 5647 1477 4359424C 		.ascii	"CYBLE_EVT_CTSC_WRITE_DESCR_RESPONSE\000"
 5647      455F4556 
 5647      545F4354 
 5647      53435F57 
 5647      52495445 
 5648              	.LASF498:
 5649 149b 4359424C 		.ascii	"CYBLE_EVT_UDSS_INDICATION_DISABLED\000"
 5649      455F4556 
 5649      545F5544 
 5649      53535F49 
 5649      4E444943 
 5650              	.LASF198:
 5651 14be 4359424C 		.ascii	"CYBLE_DIS_SOFTWARE_REV\000"
 5651      455F4449 
 5651      535F534F 
 5651      46545741 
 5651      52455F52 
 5652              	.LASF70:
 5653 14d5 4359424C 		.ascii	"CYBLE_EVT_GATTC_STOP_CMD_COMPLETE\000"
 5653      455F4556 
 5653      545F4741 
 5653      5454435F 
 5653      53544F50 
 5654              	.LASF332:
 5655 14f7 4359424C 		.ascii	"CYBLE_EVT_CPSS_CHAR_WRITE\000"
 5655      455F4556 
 5655      545F4350 
 5655      53535F43 
 5655      4841525F 
 5656              	.LASF406:
 5657 1511 4359424C 		.ascii	"CYBLE_EVT_HRSS_ENERGY_EXPENDED_RESET\000"
 5657      455F4556 
 5657      545F4852 
 5657      53535F45 
 5657      4E455247 
 5658              	.LASF159:
 5659 1536 4359424C 		.ascii	"CYBLE_GATT_ERR_ANCS_ACTION_FAILED\000"
 5659      455F4741 
 5659      54545F45 
 5659      52525F41 
ARM GAS  C:\Users\Intern\AppData\Local\Temp\ccVSLPFx.s 			page 127


 5659      4E43535F 
 5660              	.LASF194:
 5661 1558 4359424C 		.ascii	"CYBLE_DIS_MODEL_NUMBER\000"
 5661      455F4449 
 5661      535F4D4F 
 5661      44454C5F 
 5661      4E554D42 
 5662              	.LASF362:
 5663 156f 4359424C 		.ascii	"CYBLE_EVT_ESSS_NOTIFICATION_DISABLED\000"
 5663      455F4556 
 5663      545F4553 
 5663      53535F4E 
 5663      4F544946 
 5664              	.LASF191:
 5665 1594 4359424C 		.ascii	"CYBLE_GATTS_DB_T\000"
 5665      455F4741 
 5665      5454535F 
 5665      44425F54 
 5665      00
 5666              	.LASF512:
 5667 15a5 4359424C 		.ascii	"CYBLE_EVT_WPTSS_NOTIFICATION_DISABLED\000"
 5667      455F4556 
 5667      545F5750 
 5667      5453535F 
 5667      4E4F5449 
 5668              	.LASF541:
 5669 15cb 63686172 		.ascii	"charValueHandle\000"
 5669      56616C75 
 5669      6548616E 
 5669      646C6500 
 5670              	.LASF302:
 5671 15db 4359424C 		.ascii	"CYBLE_EVT_BLSS_NOTIFICATION_ENABLED\000"
 5671      455F4556 
 5671      545F424C 
 5671      53535F4E 
 5671      4F544946 
 5672              	.LASF199:
 5673 15ff 4359424C 		.ascii	"CYBLE_DIS_SYSTEM_ID\000"
 5673      455F4449 
 5673      535F5359 
 5673      5354454D 
 5673      5F494400 
 5674              	.LASF404:
 5675 1613 4359424C 		.ascii	"CYBLE_EVT_HPSC_WRITE_DESCR_RESPONSE\000"
 5675      455F4556 
 5675      545F4850 
 5675      53435F57 
 5675      52495445 
 5676              	.LASF526:
 5677 1637 4359424C 		.ascii	"CYBLE_EVT_WSSC_INDICATION\000"
 5677      455F4556 
 5677      545F5753 
 5677      53435F49 
 5677      4E444943 
 5678              	.LASF116:
 5679 1651 4359424C 		.ascii	"CYBLE_ERROR_CONTROLLER_BUSY\000"
 5679      455F4552 
ARM GAS  C:\Users\Intern\AppData\Local\Temp\ccVSLPFx.s 			page 128


 5679      524F525F 
 5679      434F4E54 
 5679      524F4C4C 
 5680              	.LASF90:
 5681 166d 4359424C 		.ascii	"CYBLE_ERROR_INVALID_PARAMETER\000"
 5681      455F4552 
 5681      524F525F 
 5681      494E5641 
 5681      4C49445F 
 5682              	.LASF369:
 5683 168b 4359424C 		.ascii	"CYBLE_EVT_ESSC_INDICATION\000"
 5683      455F4556 
 5683      545F4553 
 5683      53435F49 
 5683      4E444943 
 5684              	.LASF276:
 5685 16a5 4359424C 		.ascii	"CYBLE_EVT_ANCSC_WRITE_DESCR_RESPONSE\000"
 5685      455F4556 
 5685      545F414E 
 5685      4353435F 
 5685      57524954 
 5686              	.LASF480:
 5687 16ca 4359424C 		.ascii	"CYBLE_EVT_RSCSC_WRITE_CHAR_RESPONSE\000"
 5687      455F4556 
 5687      545F5253 
 5687      4353435F 
 5687      57524954 
 5688              	.LASF496:
 5689 16ee 4359424C 		.ascii	"CYBLE_EVT_TPSC_WRITE_DESCR_RESPONSE\000"
 5689      455F4556 
 5689      545F5450 
 5689      53435F57 
 5689      52495445 
 5690              	.LASF341:
 5691 1712 4359424C 		.ascii	"CYBLE_EVT_CSCSS_NOTIFICATION_DISABLED\000"
 5691      455F4556 
 5691      545F4353 
 5691      4353535F 
 5691      4E4F5449 
 5692              	.LASF352:
 5693 1738 4359424C 		.ascii	"CYBLE_EVT_CTSS_NOTIFICATION_ENABLED\000"
 5693      455F4556 
 5693      545F4354 
 5693      53535F4E 
 5693      4F544946 
 5694              	.LASF474:
 5695 175c 4359424C 		.ascii	"CYBLE_EVT_RSCSS_INDICATION_DISABLED\000"
 5695      455F4556 
 5695      545F5253 
 5695      4353535F 
 5695      494E4449 
 5696              	.LASF516:
 5697 1780 4359424C 		.ascii	"CYBLE_EVT_WPTSS_WRITE_CHAR\000"
 5697      455F4556 
 5697      545F5750 
 5697      5453535F 
 5697      57524954 
ARM GAS  C:\Users\Intern\AppData\Local\Temp\ccVSLPFx.s 			page 129


 5698              	.LASF435:
 5699 179b 4359424C 		.ascii	"CYBLE_EVT_LLSS_WRITE_CHAR_REQ\000"
 5699      455F4556 
 5699      545F4C4C 
 5699      53535F57 
 5699      52495445 
 5700              	.LASF92:
 5701 17b9 4359424C 		.ascii	"CYBLE_ERROR_MEMORY_ALLOCATION_FAILED\000"
 5701      455F4552 
 5701      524F525F 
 5701      4D454D4F 
 5701      52595F41 
 5702              	.LASF412:
 5703 17de 4359424C 		.ascii	"CYBLE_EVT_HRSC_READ_DESCR_RESPONSE\000"
 5703      455F4556 
 5703      545F4852 
 5703      53435F52 
 5703      4541445F 
 5704              	.LASF340:
 5705 1801 4359424C 		.ascii	"CYBLE_EVT_CSCSS_NOTIFICATION_ENABLED\000"
 5705      455F4556 
 5705      545F4353 
 5705      4353535F 
 5705      4E4F5449 
 5706              	.LASF539:
 5707 1826 61747472 		.ascii	"attrValue\000"
 5707      56616C75 
 5707      6500
 5708              	.LASF572:
 5709 1830 47656E65 		.ascii	"Generated_Source\\PSoC4\\BLE_hids.c\000"
 5709      72617465 
 5709      645F536F 
 5709      75726365 
 5709      5C50536F 
 5710              	.LASF400:
 5711 1852 4359424C 		.ascii	"CYBLE_EVT_HPSS_CHAR_WRITE\000"
 5711      455F4556 
 5711      545F4850 
 5711      53535F43 
 5711      4841525F 
 5712              	.LASF392:
 5713 186c 4359424C 		.ascii	"CYBLE_EVT_HIDSS_REPORT_CHAR_WRITE\000"
 5713      455F4556 
 5713      545F4849 
 5713      4453535F 
 5713      5245504F 
 5714              	.LASF292:
 5715 188e 4359424C 		.ascii	"CYBLE_EVT_BCSS_INDICATION_ENABLED\000"
 5715      455F4556 
 5715      545F4243 
 5715      53535F49 
 5715      4E444943 
 5716              	.LASF150:
 5717 18b0 4359424C 		.ascii	"CYBLE_GATTS_ERR_CCCD_IMPROPERLY_CONFIGURED\000"
 5717      455F4741 
 5717      5454535F 
 5717      4552525F 
ARM GAS  C:\Users\Intern\AppData\Local\Temp\ccVSLPFx.s 			page 130


 5717      43434344 
 5718              	.LASF520:
 5719 18db 4359424C 		.ascii	"CYBLE_EVT_WPTSC_READ_CHAR_RESPONSE\000"
 5719      455F4556 
 5719      545F5750 
 5719      5453435F 
 5719      52454144 
 5720              	.LASF218:
 5721 18fe 4359424C 		.ascii	"CYBLE_HIDS_DESCR_COUNT\000"
 5721      455F4849 
 5721      44535F44 
 5721      45534352 
 5721      5F434F55 
 5722              	.LASF117:
 5723 1915 4359424C 		.ascii	"CYBLE_ERROR_MAX\000"
 5723      455F4552 
 5723      524F525F 
 5723      4D415800 
 5724              	.LASF447:
 5725 1925 4359424C 		.ascii	"CYBLE_EVT_LNSC_WRITE_CHAR_RESPONSE\000"
 5725      455F4556 
 5725      545F4C4E 
 5725      53435F57 
 5725      52495445 
 5726              	.LASF74:
 5727 1948 4359424C 		.ascii	"CYBLE_EVT_L2CAP_CONN_PARAM_UPDATE_RSP\000"
 5727      455F4556 
 5727      545F4C32 
 5727      4341505F 
 5727      434F4E4E 
 5728              	.LASF86:
 5729 196e 4359424C 		.ascii	"CYBLE_EVT_HCI_PKT\000"
 5729      455F4556 
 5729      545F4843 
 5729      495F504B 
 5729      5400
 5730              	.LASF501:
 5731 1980 4359424C 		.ascii	"CYBLE_EVT_UDSS_NOTIFICATION_DISABLED\000"
 5731      455F4556 
 5731      545F5544 
 5731      53535F4E 
 5731      4F544946 
 5732              	.LASF351:
 5733 19a5 4359424C 		.ascii	"CYBLE_EVT_CSCSC_WRITE_DESCR_RESPONSE\000"
 5733      455F4556 
 5733      545F4353 
 5733      4353435F 
 5733      57524954 
 5734              	.LASF571:
 5735 19ca 474E5520 		.ascii	"GNU C11 5.4.1 20160609 (release) [ARM/embedded-5-br"
 5735      43313120 
 5735      352E342E 
 5735      31203230 
 5735      31363036 
 5736 19fd 616E6368 		.ascii	"anch revision 237715] -mcpu=cortex-m0 -mthumb -g -O"
 5736      20726576 
 5736      6973696F 
ARM GAS  C:\Users\Intern\AppData\Local\Temp\ccVSLPFx.s 			page 131


 5736      6E203233 
 5736      37373135 
 5737 1a30 30202D66 		.ascii	"0 -ffunction-sections -ffat-lto-objects\000"
 5737      66756E63 
 5737      74696F6E 
 5737      2D736563 
 5737      74696F6E 
 5738              	.LASF503:
 5739 1a58 4359424C 		.ascii	"CYBLE_EVT_UDSS_WRITE_CHAR\000"
 5739      455F4556 
 5739      545F5544 
 5739      53535F57 
 5739      52495445 
 5740              	.LASF466:
 5741 1a72 4359424C 		.ascii	"CYBLE_EVT_PLXSC_READ_CHAR_RESPONSE\000"
 5741      455F4556 
 5741      545F504C 
 5741      5853435F 
 5741      52454144 
 5742              	.LASF267:
 5743 1a95 4359424C 		.ascii	"CYBLE_EVT_AIOSC_READ_DESCR_RESPONSE\000"
 5743      455F4556 
 5743      545F4149 
 5743      4F53435F 
 5743      52454144 
 5744              	.LASF407:
 5745 1ab9 4359424C 		.ascii	"CYBLE_EVT_HRSS_NOTIFICATION_ENABLED\000"
 5745      455F4556 
 5745      545F4852 
 5745      53535F4E 
 5745      4F544946 
 5746              	.LASF144:
 5747 1add 4359424C 		.ascii	"CYBLE_GATT_ERR_USER_DATA_ACCESS_NOT_PERMITTED\000"
 5747      455F4741 
 5747      54545F45 
 5747      52525F55 
 5747      5345525F 
 5748              	.LASF28:
 5749 1b0b 4359424C 		.ascii	"CYBLE_EVT_GAP_AUTH_COMPLETE\000"
 5749      455F4556 
 5749      545F4741 
 5749      505F4155 
 5749      54485F43 
 5750              	.LASF456:
 5751 1b27 4359424C 		.ascii	"CYBLE_EVT_PASSC_READ_DESCR_RESPONSE\000"
 5751      455F4556 
 5751      545F5041 
 5751      5353435F 
 5751      52454144 
 5752              	.LASF372:
 5753 1b4b 4359424C 		.ascii	"CYBLE_EVT_ESSC_READ_DESCR_RESPONSE\000"
 5753      455F4556 
 5753      545F4553 
 5753      53435F52 
 5753      4541445F 
 5754              	.LASF29:
 5755 1b6e 4359424C 		.ascii	"CYBLE_EVT_GAP_AUTH_FAILED\000"
ARM GAS  C:\Users\Intern\AppData\Local\Temp\ccVSLPFx.s 			page 132


 5755      455F4556 
 5755      545F4741 
 5755      505F4155 
 5755      54485F46 
 5756              	.LASF391:
 5757 1b88 4359424C 		.ascii	"CYBLE_EVT_HIDSS_EXIT_SUSPEND\000"
 5757      455F4556 
 5757      545F4849 
 5757      4453535F 
 5757      45584954 
 5758              	.LASF122:
 5759 1ba5 4359424C 		.ascii	"CYBLE_ERROR_STACK_BUSY\000"
 5759      455F4552 
 5759      524F525F 
 5759      53544143 
 5759      4B5F4255 
 5760              	.LASF160:
 5761 1bbc 4359424C 		.ascii	"CYBLE_GATT_ERR_CCCD_IMPROPERLY_CONFIGURED\000"
 5761      455F4741 
 5761      54545F45 
 5761      52525F43 
 5761      4343445F 
 5762              	.LASF93:
 5763 1be6 4359424C 		.ascii	"CYBLE_ERROR_INSUFFICIENT_RESOURCES\000"
 5763      455F4552 
 5763      524F525F 
 5763      494E5355 
 5763      46464943 
 5764              	.LASF472:
 5765 1c09 4359424C 		.ascii	"CYBLE_EVT_RSCSS_NOTIFICATION_DISABLED\000"
 5765      455F4556 
 5765      545F5253 
 5765      4353535F 
 5765      4E4F5449 
 5766              	.LASF148:
 5767 1c2f 4359424C 		.ascii	"CYBLE_GATT_ERR_OP_CODE_NOT_SUPPORTED\000"
 5767      455F4741 
 5767      54545F45 
 5767      52525F4F 
 5767      505F434F 
 5768              	.LASF395:
 5769 1c54 4359424C 		.ascii	"CYBLE_EVT_HIDSC_WRITE_CHAR_RESPONSE\000"
 5769      455F4556 
 5769      545F4849 
 5769      4453435F 
 5769      57524954 
 5770              	.LASF5:
 5771 1c78 6C6F6E67 		.ascii	"long unsigned int\000"
 5771      20756E73 
 5771      69676E65 
 5771      6420696E 
 5771      7400
 5772              	.LASF431:
 5773 1c8a 4359424C 		.ascii	"CYBLE_EVT_IPSC_READ_DESCR_RESPONSE\000"
 5773      455F4556 
 5773      545F4950 
 5773      53435F52 
ARM GAS  C:\Users\Intern\AppData\Local\Temp\ccVSLPFx.s 			page 133


 5773      4541445F 
 5774              	.LASF426:
 5775 1cad 4359424C 		.ascii	"CYBLE_EVT_IASS_WRITE_CHAR_CMD\000"
 5775      455F4556 
 5775      545F4941 
 5775      53535F57 
 5775      52495445 
 5776              	.LASF542:
 5777 1ccb 6C6F6348 		.ascii	"locHandleValuePair\000"
 5777      616E646C 
 5777      6556616C 
 5777      75655061 
 5777      697200
 5778              	.LASF451:
 5779 1cde 4359424C 		.ascii	"CYBLE_EVT_PASSS_NOTIFICATION_ENABLED\000"
 5779      455F4556 
 5779      545F5041 
 5779      5353535F 
 5779      4E4F5449 
 5780              	.LASF454:
 5781 1d03 4359424C 		.ascii	"CYBLE_EVT_PASSC_NOTIFICATION\000"
 5781      455F4556 
 5781      545F5041 
 5781      5353435F 
 5781      4E4F5449 
 5782              	.LASF113:
 5783 1d20 4359424C 		.ascii	"CYBLE_ERROR_UNSUPPORTED_FEATURE_OR_PARAMETER_VALUE\000"
 5783      455F4552 
 5783      524F525F 
 5783      554E5355 
 5783      50504F52 
 5784              	.LASF513:
 5785 1d53 4359424C 		.ascii	"CYBLE_EVT_WPTSS_INDICATION_ENABLED\000"
 5785      455F4556 
 5785      545F5750 
 5785      5453535F 
 5785      494E4449 
 5786              	.LASF460:
 5787 1d76 4359424C 		.ascii	"CYBLE_EVT_PLXSS_NOTIFICATION_DISABLED\000"
 5787      455F4556 
 5787      545F504C 
 5787      5853535F 
 5787      4E4F5449 
 5788              	.LASF282:
 5789 1d9c 4359424C 		.ascii	"CYBLE_EVT_ANSC_READ_CHAR_RESPONSE\000"
 5789      455F4556 
 5789      545F414E 
 5789      53435F52 
 5789      4541445F 
 5790              	.LASF103:
 5791 1dbe 4359424C 		.ascii	"CYBLE_ERROR_L2CAP_PSM_ALREADY_REGISTERED\000"
 5791      455F4552 
 5791      524F525F 
 5791      4C324341 
 5791      505F5053 
 5792              	.LASF562:
 5793 1de7 64656661 		.ascii	"defaultProtocol\000"
ARM GAS  C:\Users\Intern\AppData\Local\Temp\ccVSLPFx.s 			page 134


 5793      756C7450 
 5793      726F746F 
 5793      636F6C00 
 5794              	.LASF419:
 5795 1df7 4359424C 		.ascii	"CYBLE_EVT_HTSS_CHAR_WRITE\000"
 5795      455F4556 
 5795      545F4854 
 5795      53535F43 
 5795      4841525F 
 5796              	.LASF573:
 5797 1e11 433A5C55 		.ascii	"C:\\Users\\Intern\\Documents\\GitHub\\UV-Sticker\\P"
 5797      73657273 
 5797      5C496E74 
 5797      65726E5C 
 5797      446F6375 
 5798 1e3e 736F635C 		.ascii	"soc\\UV-Project\\UV-Watch_1\\UV-Watch_1.cydsn\000"
 5798      55562D50 
 5798      726F6A65 
 5798      63745C55 
 5798      562D5761 
 5799              	.LASF184:
 5800 1e69 61747456 		.ascii	"attValueUuid\000"
 5800      616C7565 
 5800      55756964 
 5800      00
 5801              	.LASF156:
 5802 1e76 4359424C 		.ascii	"CYBLE_GATT_ERR_ANCS_UNKNOWN_COMMAND\000"
 5802      455F4741 
 5802      54545F45 
 5802      52525F41 
 5802      4E43535F 
 5803              	.LASF286:
 5804 1e9a 4359424C 		.ascii	"CYBLE_EVT_BASS_NOTIFICATION_ENABLED\000"
 5804      455F4556 
 5804      545F4241 
 5804      53535F4E 
 5804      4F544946 
 5805              	.LASF230:
 5806 1ebe 7265706F 		.ascii	"reportMapErrdHandle\000"
 5806      72744D61 
 5806      70457272 
 5806      6448616E 
 5806      646C6500 
 5807              	.LASF359:
 5808 1ed2 4359424C 		.ascii	"CYBLE_EVT_CTSC_WRITE_CHAR_RESPONSE\000"
 5808      455F4556 
 5808      545F4354 
 5808      53435F57 
 5808      52495445 
 5809              	.LASF453:
 5810 1ef5 4359424C 		.ascii	"CYBLE_EVT_PASSS_WRITE_CHAR\000"
 5810      455F4556 
 5810      545F5041 
 5810      5353535F 
 5810      57524954 
 5811              	.LASF336:
 5812 1f10 4359424C 		.ascii	"CYBLE_EVT_CPSC_WRITE_CHAR_RESPONSE\000"
ARM GAS  C:\Users\Intern\AppData\Local\Temp\ccVSLPFx.s 			page 135


 5812      455F4556 
 5812      545F4350 
 5812      53435F57 
 5812      52495445 
 5813              	.LASF195:
 5814 1f33 4359424C 		.ascii	"CYBLE_DIS_SERIAL_NUMBER\000"
 5814      455F4449 
 5814      535F5345 
 5814      5249414C 
 5814      5F4E554D 
 5815              	.LASF34:
 5816 1f4b 4359424C 		.ascii	"CYBLE_EVT_GAP_CONNECTION_UPDATE_COMPLETE\000"
 5816      455F4556 
 5816      545F4741 
 5816      505F434F 
 5816      4E4E4543 
 5817              	.LASF321:
 5818 1f74 4359424C 		.ascii	"CYBLE_EVT_CGMSC_READ_CHAR_RESPONSE\000"
 5818      455F4556 
 5818      545F4347 
 5818      4D53435F 
 5818      52454144 
 5819              	.LASF532:
 5820 1f97 4359424C 		.ascii	"CYBLE_STATE_INITIALIZING\000"
 5820      455F5354 
 5820      4154455F 
 5820      494E4954 
 5820      49414C49 
 5821              	.LASF349:
 5822 1fb0 4359424C 		.ascii	"CYBLE_EVT_CSCSC_WRITE_CHAR_RESPONSE\000"
 5822      455F4556 
 5822      545F4353 
 5822      4353435F 
 5822      57524954 
 5823              	.LASF78:
 5824 1fd4 4359424C 		.ascii	"CYBLE_EVT_L2CAP_CBFC_DISCONN_IND\000"
 5824      455F4556 
 5824      545F4C32 
 5824      4341505F 
 5824      43424643 
 5825              	.LASF345:
 5826 1ff5 4359424C 		.ascii	"CYBLE_EVT_CSCSS_CHAR_WRITE\000"
 5826      455F4556 
 5826      545F4353 
 5826      4353535F 
 5826      43484152 
 5827              	.LASF205:
 5828 2010 4359424C 		.ascii	"CYBLE_HIDS_CONTROL_POINT\000"
 5828      455F4849 
 5828      44535F43 
 5828      4F4E5452 
 5828      4F4C5F50 
 5829              	.LASF462:
 5830 2029 4359424C 		.ascii	"CYBLE_EVT_PLXSS_INDICATION_DISABLED\000"
 5830      455F4556 
 5830      545F504C 
 5830      5853535F 
ARM GAS  C:\Users\Intern\AppData\Local\Temp\ccVSLPFx.s 			page 136


 5830      494E4449 
 5831              	.LASF479:
 5832 204d 4359424C 		.ascii	"CYBLE_EVT_RSCSC_READ_CHAR_RESPONSE\000"
 5832      455F4556 
 5832      545F5253 
 5832      4353435F 
 5832      52454144 
 5833              	.LASF26:
 5834 2070 4359424C 		.ascii	"CYBLE_EVT_GAP_PASSKEY_ENTRY_REQUEST\000"
 5834      455F4556 
 5834      545F4741 
 5834      505F5041 
 5834      53534B45 
 5835              	.LASF204:
 5836 2094 4359424C 		.ascii	"CYBLE_HIDS_INFORMATION\000"
 5836      455F4849 
 5836      44535F49 
 5836      4E464F52 
 5836      4D415449 
 5837              	.LASF401:
 5838 20ab 4359424C 		.ascii	"CYBLE_EVT_HPSC_NOTIFICATION\000"
 5838      455F4556 
 5838      545F4850 
 5838      53435F4E 
 5838      4F544946 
 5839              	.LASF330:
 5840 20c7 4359424C 		.ascii	"CYBLE_EVT_CPSS_BROADCAST_ENABLED\000"
 5840      455F4556 
 5840      545F4350 
 5840      53535F42 
 5840      524F4144 
 5841              	.LASF432:
 5842 20e8 4359424C 		.ascii	"CYBLE_EVT_IPSC_WRITE_DESCR_RESPONSE\000"
 5842      455F4556 
 5842      545F4950 
 5842      53435F57 
 5842      52495445 
 5843              	.LASF382:
 5844 210c 4359424C 		.ascii	"CYBLE_EVT_GLSC_READ_CHAR_RESPONSE\000"
 5844      455F4556 
 5844      545F474C 
 5844      53435F52 
 5844      4541445F 
 5845              	.LASF283:
 5846 212e 4359424C 		.ascii	"CYBLE_EVT_ANSC_WRITE_CHAR_RESPONSE\000"
 5846      455F4556 
 5846      545F414E 
 5846      53435F57 
 5846      52495445 
 5847              	.LASF469:
 5848 2151 4359424C 		.ascii	"CYBLE_EVT_PLXSC_WRITE_DESCR_RESPONSE\000"
 5848      455F4556 
 5848      545F504C 
 5848      5853435F 
 5848      57524954 
 5849              	.LASF420:
 5850 2176 4359424C 		.ascii	"CYBLE_EVT_HTSC_NOTIFICATION\000"
ARM GAS  C:\Users\Intern\AppData\Local\Temp\ccVSLPFx.s 			page 137


 5850      455F4556 
 5850      545F4854 
 5850      53435F4E 
 5850      4F544946 
 5851              	.LASF6:
 5852 2192 6C6F6E67 		.ascii	"long long int\000"
 5852      206C6F6E 
 5852      6720696E 
 5852      7400
 5853              	.LASF227:
 5854 21a0 7265706F 		.ascii	"reportArray\000"
 5854      72744172 
 5854      72617900 
 5855              	.LASF574:
 5856 21ac 4379426C 		.ascii	"CyBle_HidsInit\000"
 5856      655F4869 
 5856      6473496E 
 5856      697400
 5857              	.LASF211:
 5858 21bb 4359424C 		.ascii	"CYBLE_HUMAN_INTERFACE_DEVICE_REPORT\000"
 5858      455F4855 
 5858      4D414E5F 
 5858      494E5445 
 5858      52464143 
 5859              	.LASF494:
 5860 21df 4359424C 		.ascii	"CYBLE_EVT_TPSC_READ_CHAR_RESPONSE\000"
 5860      455F4556 
 5860      545F5450 
 5860      53435F52 
 5860      4541445F 
 5861              	.LASF201:
 5862 2201 4359424C 		.ascii	"CYBLE_DIS_PNP_ID\000"
 5862      455F4449 
 5862      535F504E 
 5862      505F4944 
 5862      00
 5863              	.LASF249:
 5864 2212 4359424C 		.ascii	"CYBLE_EVT_GATTC_CHAR_DUPLICATION\000"
 5864      455F4556 
 5864      545F4741 
 5864      5454435F 
 5864      43484152 
 5865              	.LASF377:
 5866 2233 4359424C 		.ascii	"CYBLE_EVT_GLSS_NOTIFICATION_ENABLED\000"
 5866      455F4556 
 5866      545F474C 
 5866      53535F4E 
 5866      4F544946 
 5867              	.LASF133:
 5868 2257 4359424C 		.ascii	"CYBLE_GATT_ERR_PREPARE_WRITE_QUEUE_FULL\000"
 5868      455F4741 
 5868      54545F45 
 5868      52525F50 
 5868      52455041 
 5869              	.LASF402:
 5870 227f 4359424C 		.ascii	"CYBLE_EVT_HPSC_READ_CHAR_RESPONSE\000"
 5870      455F4556 
ARM GAS  C:\Users\Intern\AppData\Local\Temp\ccVSLPFx.s 			page 138


 5870      545F4850 
 5870      53435F52 
 5870      4541445F 
 5871              	.LASF104:
 5872 22a1 4359424C 		.ascii	"CYBLE_ERROR_L2CAP_PSM_NOT_REGISTERED\000"
 5872      455F4552 
 5872      524F525F 
 5872      4C324341 
 5872      505F5053 
 5873              	.LASF94:
 5874 22c6 4359424C 		.ascii	"CYBLE_ERROR_OOB_NOT_AVAILABLE\000"
 5874      455F4552 
 5874      524F525F 
 5874      4F4F425F 
 5874      4E4F545F 
 5875              	.LASF313:
 5876 22e4 4359424C 		.ascii	"CYBLE_EVT_CGMSS_INDICATION_ENABLED\000"
 5876      455F4556 
 5876      545F4347 
 5876      4D53535F 
 5876      494E4449 
 5877              	.LASF13:
 5878 2307 646F7562 		.ascii	"double\000"
 5878      6C6500
 5879              	.LASF109:
 5880 230e 4359424C 		.ascii	"CYBLE_ERROR_DEVICE_ALREADY_EXISTS\000"
 5880      455F4552 
 5880      524F525F 
 5880      44455649 
 5880      43455F41 
 5881              	.LASF364:
 5882 2330 4359424C 		.ascii	"CYBLE_EVT_ESSS_INDICATION_DISABLED\000"
 5882      455F4556 
 5882      545F4553 
 5882      53535F49 
 5882      4E444943 
 5883              	.LASF84:
 5884 2353 4359424C 		.ascii	"CYBLE_EVT_PENDING_FLASH_WRITE\000"
 5884      455F4556 
 5884      545F5045 
 5884      4E44494E 
 5884      475F464C 
 5885              	.LASF136:
 5886 2371 4359424C 		.ascii	"CYBLE_GATT_ERR_INSUFFICIENT_ENC_KEY_SIZE\000"
 5886      455F4741 
 5886      54545F45 
 5886      52525F49 
 5886      4E535546 
 5887              	.LASF511:
 5888 239a 4359424C 		.ascii	"CYBLE_EVT_WPTSS_NOTIFICATION_ENABLED\000"
 5888      455F4556 
 5888      545F5750 
 5888      5453535F 
 5888      4E4F5449 
 5889              	.LASF161:
 5890 23bf 4359424C 		.ascii	"CYBLE_GATT_ERR_PROCEDURE_ALREADY_IN_PROGRESS\000"
 5890      455F4741 
ARM GAS  C:\Users\Intern\AppData\Local\Temp\ccVSLPFx.s 			page 139


 5890      54545F45 
 5890      52525F50 
 5890      524F4345 
 5891              	.LASF449:
 5892 23ec 4359424C 		.ascii	"CYBLE_EVT_LNSC_WRITE_DESCR_RESPONSE\000"
 5892      455F4556 
 5892      545F4C4E 
 5892      53435F57 
 5892      52495445 
 5893              	.LASF41:
 5894 2410 4359424C 		.ascii	"CYBLE_EVT_GAP_ENHANCE_CONN_COMPLETE\000"
 5894      455F4556 
 5894      545F4741 
 5894      505F454E 
 5894      48414E43 
 5895              	.LASF436:
 5896 2434 4359424C 		.ascii	"CYBLE_EVT_LLSC_READ_CHAR_RESPONSE\000"
 5896      455F4556 
 5896      545F4C4C 
 5896      53435F52 
 5896      4541445F 
 5897              	.LASF344:
 5898 2456 4359424C 		.ascii	"CYBLE_EVT_CSCSS_INDICATION_CONFIRMATION\000"
 5898      455F4556 
 5898      545F4353 
 5898      4353535F 
 5898      494E4449 
 5899              	.LASF106:
 5900 247e 4359424C 		.ascii	"CYBLE_ERROR_L2CAP_CHANNEL_NOT_FOUND\000"
 5900      455F4552 
 5900      524F525F 
 5900      4C324341 
 5900      505F4348 
 5901              	.LASF568:
 5902 24a2 6379426C 		.ascii	"cyBle_gattDB\000"
 5902      655F6761 
 5902      74744442 
 5902      00
 5903              	.LASF215:
 5904 24af 4359424C 		.ascii	"CYBLE_HIDS_REPORT_CCCD\000"
 5904      455F4849 
 5904      44535F52 
 5904      45504F52 
 5904      545F4343 
 5905              	.LASF97:
 5906 24c6 4359424C 		.ascii	"CYBLE_ERROR_REPEATED_ATTEMPTS\000"
 5906      455F4552 
 5906      524F525F 
 5906      52455045 
 5906      41544544 
 5907              	.LASF367:
 5908 24e4 4359424C 		.ascii	"CYBLE_EVT_ESSS_DESCR_WRITE\000"
 5908      455F4556 
 5908      545F4553 
 5908      53535F44 
 5908      45534352 
 5909              	.LASF363:
ARM GAS  C:\Users\Intern\AppData\Local\Temp\ccVSLPFx.s 			page 140


 5910 24ff 4359424C 		.ascii	"CYBLE_EVT_ESSS_INDICATION_ENABLED\000"
 5910      455F4556 
 5910      545F4553 
 5910      53535F49 
 5910      4E444943 
 5911              	.LASF12:
 5912 2521 666C6F61 		.ascii	"float\000"
 5912      7400
 5913              	.LASF488:
 5914 2527 4359424C 		.ascii	"CYBLE_EVT_SCPSC_NOTIFICATION\000"
 5914      455F4556 
 5914      545F5343 
 5914      5053435F 
 5914      4E4F5449 
 5915              	.LASF389:
 5916 2544 4359424C 		.ascii	"CYBLE_EVT_HIDSS_REPORT_MODE_ENTER\000"
 5916      455F4556 
 5916      545F4849 
 5916      4453535F 
 5916      5245504F 
 5917              	.LASF368:
 5918 2566 4359424C 		.ascii	"CYBLE_EVT_ESSC_NOTIFICATION\000"
 5918      455F4556 
 5918      545F4553 
 5918      53435F4E 
 5918      4F544946 
 5919              	.LASF110:
 5920 2582 4359424C 		.ascii	"CYBLE_ERROR_FLASH_WRITE_NOT_PERMITED\000"
 5920      455F4552 
 5920      524F525F 
 5920      464C4153 
 5920      485F5752 
 5921              	.LASF387:
 5922 25a7 4359424C 		.ascii	"CYBLE_EVT_HIDSS_NOTIFICATION_DISABLED\000"
 5922      455F4556 
 5922      545F4849 
 5922      4453535F 
 5922      4E4F5449 
 5923              	.LASF71:
 5924 25cd 4359424C 		.ascii	"CYBLE_EVT_GATTS_READ_CHAR_VAL_ACCESS_REQ\000"
 5924      455F4556 
 5924      545F4741 
 5924      5454535F 
 5924      52454144 
 5925              	.LASF275:
 5926 25f6 4359424C 		.ascii	"CYBLE_EVT_ANCSC_READ_DESCR_RESPONSE\000"
 5926      455F4556 
 5926      545F414E 
 5926      4353435F 
 5926      52454144 
 5927              	.LASF132:
 5928 261a 4359424C 		.ascii	"CYBLE_GATT_ERR_INSUFFICIENT_AUTHORIZATION\000"
 5928      455F4741 
 5928      54545F45 
 5928      52525F49 
 5928      4E535546 
 5929              	.LASF546:
ARM GAS  C:\Users\Intern\AppData\Local\Temp\ccVSLPFx.s 			page 141


 5930 2644 64657363 		.ascii	"descrIndex\000"
 5930      72496E64 
 5930      657800
 5931              	.LASF171:
 5932 264f 61747472 		.ascii	"attrHandle\000"
 5932      48616E64 
 5932      6C6500
 5933              	.LASF505:
 5934 265a 4359424C 		.ascii	"CYBLE_EVT_UDSC_NOTIFICATION\000"
 5934      455F4556 
 5934      545F5544 
 5934      53435F4E 
 5934      4F544946 
 5935              	.LASF519:
 5936 2676 4359424C 		.ascii	"CYBLE_EVT_WPTSC_WRITE_CHAR_RESPONSE\000"
 5936      455F4556 
 5936      545F5750 
 5936      5453435F 
 5936      57524954 
 5937              	.LASF176:
 5938 269a 4359424C 		.ascii	"CYBLE_GATTS_WRITE_REQ_PARAM_T\000"
 5938      455F4741 
 5938      5454535F 
 5938      57524954 
 5938      455F5245 
 5939              	.LASF8:
 5940 26b8 756E7369 		.ascii	"unsigned int\000"
 5940      676E6564 
 5940      20696E74 
 5940      00
 5941              	.LASF63:
 5942 26c5 4359424C 		.ascii	"CYBLE_EVT_GATTS_PREP_WRITE_REQ\000"
 5942      455F4556 
 5942      545F4741 
 5942      5454535F 
 5942      50524550 
 5943              	.LASF189:
 5944 26e4 61747445 		.ascii	"attEndHandle\000"
 5944      6E644861 
 5944      6E646C65 
 5944      00
 5945              	.LASF129:
 5946 26f1 4359424C 		.ascii	"CYBLE_GATT_ERR_INSUFFICIENT_AUTHENTICATION\000"
 5946      455F4741 
 5946      54545F45 
 5946      52525F49 
 5946      4E535546 
 5947              	.LASF311:
 5948 271c 4359424C 		.ascii	"CYBLE_EVT_BMSC_WRITE_CHAR_RESPONSE\000"
 5948      455F4556 
 5948      545F424D 
 5948      53435F57 
 5948      52495445 
 5949              	.LASF353:
 5950 273f 4359424C 		.ascii	"CYBLE_EVT_CTSS_NOTIFICATION_DISABLED\000"
 5950      455F4556 
 5950      545F4354 
ARM GAS  C:\Users\Intern\AppData\Local\Temp\ccVSLPFx.s 			page 142


 5950      53535F4E 
 5950      4F544946 
 5951              	.LASF300:
 5952 2764 4359424C 		.ascii	"CYBLE_EVT_BLSS_INDICATION_DISABLED\000"
 5952      455F4556 
 5952      545F424C 
 5952      53535F49 
 5952      4E444943 
 5953              	.LASF200:
 5954 2787 4359424C 		.ascii	"CYBLE_DIS_REG_CERT_DATA\000"
 5954      455F4449 
 5954      535F5245 
 5954      475F4345 
 5954      52545F44 
 5955              	.LASF231:
 5956 279f 696E666F 		.ascii	"informationHandle\000"
 5956      726D6174 
 5956      696F6E48 
 5956      616E646C 
 5956      6500
 5957              	.LASF463:
 5958 27b1 4359424C 		.ascii	"CYBLE_EVT_PLXSS_INDICATION_CONFIRMED\000"
 5958      455F4556 
 5958      545F504C 
 5958      5853535F 
 5958      494E4449 
 5959              	.LASF486:
 5960 27d6 4359424C 		.ascii	"CYBLE_EVT_SCPSS_NOTIFICATION_DISABLED\000"
 5960      455F4556 
 5960      545F5343 
 5960      5053535F 
 5960      4E4F5449 
 5961              	.LASF365:
 5962 27fc 4359424C 		.ascii	"CYBLE_EVT_ESSS_INDICATION_CONFIRMATION\000"
 5962      455F4556 
 5962      545F4553 
 5962      53535F49 
 5962      4E444943 
 5963              	.LASF461:
 5964 2823 4359424C 		.ascii	"CYBLE_EVT_PLXSS_INDICATION_ENABLED\000"
 5964      455F4556 
 5964      545F504C 
 5964      5853535F 
 5964      494E4449 
 5965              	.LASF147:
 5966 2846 4359424C 		.ascii	"CYBLE_GATTS_ERR_PROCEDURE_ALREADY_IN_PROGRESS\000"
 5966      455F4741 
 5966      5454535F 
 5966      4552525F 
 5966      50524F43 
 5967              	.LASF268:
 5968 2874 4359424C 		.ascii	"CYBLE_EVT_AIOSC_WRITE_DESCR_RESPONSE\000"
 5968      455F4556 
 5968      545F4149 
 5968      4F53435F 
 5968      57524954 
 5969              	.LASF237:
ARM GAS  C:\Users\Intern\AppData\Local\Temp\ccVSLPFx.s 			page 143


 5970 2899 4359424C 		.ascii	"CYBLE_AUTHENTICATION_REQUEST_REPLY\000"
 5970      455F4155 
 5970      5448454E 
 5970      54494341 
 5970      54494F4E 
 5971              	.LASF102:
 5972 28bc 4359424C 		.ascii	"CYBLE_ERROR_L2CAP_PSM_WRONG_ENCODING\000"
 5972      455F4552 
 5972      524F525F 
 5972      4C324341 
 5972      505F5053 
 5973              	.LASF303:
 5974 28e1 4359424C 		.ascii	"CYBLE_EVT_BLSS_NOTIFICATION_DISABLED\000"
 5974      455F4556 
 5974      545F424C 
 5974      53535F4E 
 5974      4F544946 
 5975              	.LASF134:
 5976 2906 4359424C 		.ascii	"CYBLE_GATT_ERR_ATTRIBUTE_NOT_FOUND\000"
 5976      455F4741 
 5976      54545F45 
 5976      52525F41 
 5976      54545249 
 5977              	.LASF423:
 5978 2929 4359424C 		.ascii	"CYBLE_EVT_HTSC_WRITE_CHAR_RESPONSE\000"
 5978      455F4556 
 5978      545F4854 
 5978      53435F57 
 5978      52495445 
 5979              	.LASF524:
 5980 294c 4359424C 		.ascii	"CYBLE_EVT_WSSS_INDICATION_DISABLED\000"
 5980      455F4556 
 5980      545F5753 
 5980      53535F49 
 5980      4E444943 
 5981              	.LASF405:
 5982 296f 4359424C 		.ascii	"CYBLE_EVT_HPSC_WRITE_CHAR_RESPONSE\000"
 5982      455F4556 
 5982      545F4850 
 5982      53435F57 
 5982      52495445 
 5983              	.LASF222:
 5984 2992 72726448 		.ascii	"rrdHandle\000"
 5984      616E646C 
 5984      6500
 5985              	.LASF88:
 5986 299c 4359424C 		.ascii	"CYBLE_EVT_MAX\000"
 5986      455F4556 
 5986      545F4D41 
 5986      5800
 5987              	.LASF35:
 5988 29aa 4359424C 		.ascii	"CYBLE_EVT_GAPC_SCAN_START_STOP\000"
 5988      455F4556 
 5988      545F4741 
 5988      50435F53 
 5988      43414E5F 
 5989              	.LASF278:
ARM GAS  C:\Users\Intern\AppData\Local\Temp\ccVSLPFx.s 			page 144


 5990 29c9 4359424C 		.ascii	"CYBLE_EVT_ANSS_NOTIFICATION_ENABLED\000"
 5990      455F4556 
 5990      545F414E 
 5990      53535F4E 
 5990      4F544946 
 5991              	.LASF564:
 5992 29ed 6379426C 		.ascii	"cyBle_hids1ReportArray\000"
 5992      655F6869 
 5992      64733152 
 5992      65706F72 
 5992      74417272 
 5993              	.LASF60:
 5994 2a04 4359424C 		.ascii	"CYBLE_EVT_GATTS_WRITE_REQ\000"
 5994      455F4556 
 5994      545F4741 
 5994      5454535F 
 5994      57524954 
 5995              	.LASF507:
 5996 2a1e 4359424C 		.ascii	"CYBLE_EVT_UDSC_WRITE_CHAR_RESPONSE\000"
 5996      455F4556 
 5996      545F5544 
 5996      53435F57 
 5996      52495445 
 5997              	.LASF518:
 5998 2a41 4359424C 		.ascii	"CYBLE_EVT_WPTSC_INDICATION\000"
 5998      455F4556 
 5998      545F5750 
 5998      5453435F 
 5998      494E4449 
 5999              	.LASF27:
 6000 2a5c 4359424C 		.ascii	"CYBLE_EVT_GAP_PASSKEY_DISPLAY_REQUEST\000"
 6000      455F4556 
 6000      545F4741 
 6000      505F5041 
 6000      53534B45 
 6001              	.LASF119:
 6002 2a82 4359424C 		.ascii	"CYBLE_ERROR_IND_DISABLED\000"
 6002      455F4552 
 6002      524F525F 
 6002      494E445F 
 6002      44495341 
 6003              	.LASF118:
 6004 2a9b 4359424C 		.ascii	"CYBLE_ERROR_NTF_DISABLED\000"
 6004      455F4552 
 6004      524F525F 
 6004      4E54465F 
 6004      44495341 
 6005              	.LASF220:
 6006 2ab4 7265706F 		.ascii	"reportHandle\000"
 6006      72744861 
 6006      6E646C65 
 6006      00
 6007              	.LASF57:
 6008 2ac1 4359424C 		.ascii	"CYBLE_EVT_GATTC_READ_RSP\000"
 6008      455F4556 
 6008      545F4741 
 6008      5454435F 
ARM GAS  C:\Users\Intern\AppData\Local\Temp\ccVSLPFx.s 			page 145


 6008      52454144 
 6009              	.LASF334:
 6010 2ada 4359424C 		.ascii	"CYBLE_EVT_CPSC_INDICATION\000"
 6010      455F4556 
 6010      545F4350 
 6010      53435F49 
 6010      4E444943 
 6011              	.LASF131:
 6012 2af4 4359424C 		.ascii	"CYBLE_GATT_ERR_INVALID_OFFSET\000"
 6012      455F4741 
 6012      54545F45 
 6012      52525F49 
 6012      4E56414C 
 6013              	.LASF360:
 6014 2b12 4359424C 		.ascii	"CYBLE_EVT_DISC_READ_CHAR_RESPONSE\000"
 6014      455F4556 
 6014      545F4449 
 6014      53435F52 
 6014      4541445F 
 6015              	.LASF77:
 6016 2b34 4359424C 		.ascii	"CYBLE_EVT_L2CAP_CBFC_CONN_CNF\000"
 6016      455F4556 
 6016      545F4C32 
 6016      4341505F 
 6016      43424643 
 6017              	.LASF236:
 6018 2b52 4359424C 		.ascii	"CYBLE_HIDS_CHAR_VALUE_T\000"
 6018      455F4849 
 6018      44535F43 
 6018      4841525F 
 6018      56414C55 
 6019              	.LASF179:
 6020 2b6a 4359424C 		.ascii	"CYBLE_GATTS_ATT_GEN_VAL_LEN_T\000"
 6020      455F4741 
 6020      5454535F 
 6020      4154545F 
 6020      47454E5F 
 6021              	.LASF424:
 6022 2b88 4359424C 		.ascii	"CYBLE_EVT_HTSC_READ_DESCR_RESPONSE\000"
 6022      455F4556 
 6022      545F4854 
 6022      53435F52 
 6022      4541445F 
 6023              	.LASF530:
 6024 2bab 4359424C 		.ascii	"CYBLE_DEBUG_EVT_BLESS_INT\000"
 6024      455F4445 
 6024      4255475F 
 6024      4556545F 
 6024      424C4553 
 6025              	.LASF162:
 6026 2bc5 4359424C 		.ascii	"CYBLE_GATT_ERR_OUT_OF_RANGE\000"
 6026      455F4741 
 6026      54545F45 
 6026      52525F4F 
 6026      55545F4F 
 6027              	.LASF379:
 6028 2be1 4359424C 		.ascii	"CYBLE_EVT_GLSS_WRITE_CHAR\000"
ARM GAS  C:\Users\Intern\AppData\Local\Temp\ccVSLPFx.s 			page 146


 6028      455F4556 
 6028      545F474C 
 6028      53535F57 
 6028      52495445 
 6029              	.LASF87:
 6030 2bfb 4359424C 		.ascii	"CYBLE_EVT_FLASH_CORRUPT\000"
 6030      455F4556 
 6030      545F464C 
 6030      4153485F 
 6030      434F5252 
 6031              	.LASF15:
 6032 2c13 6C6F6E67 		.ascii	"long double\000"
 6032      20646F75 
 6032      626C6500 
 6033              	.LASF316:
 6034 2c1f 4359424C 		.ascii	"CYBLE_EVT_CGMSS_NOTIFICATION_ENABLED\000"
 6034      455F4556 
 6034      545F4347 
 6034      4D53535F 
 6034      4E4F5449 
 6035              	.LASF409:
 6036 2c44 4359424C 		.ascii	"CYBLE_EVT_HRSC_NOTIFICATION\000"
 6036      455F4556 
 6036      545F4852 
 6036      53435F4E 
 6036      4F544946 
 6037              	.LASF23:
 6038 2c60 4359424C 		.ascii	"CYBLE_EVT_MEMORY_REQUEST\000"
 6038      455F4556 
 6038      545F4D45 
 6038      4D4F5259 
 6038      5F524551 
 6039              	.LASF265:
 6040 2c79 4359424C 		.ascii	"CYBLE_EVT_AIOSC_READ_CHAR_RESPONSE\000"
 6040      455F4556 
 6040      545F4149 
 6040      4F53435F 
 6040      52454144 
 6041              	.LASF557:
 6042 2c9c 6C6F6352 		.ascii	"locReqHandle\000"
 6042      65714861 
 6042      6E646C65 
 6042      00
 6043              	.LASF475:
 6044 2ca9 4359424C 		.ascii	"CYBLE_EVT_RSCSS_INDICATION_CONFIRMATION\000"
 6044      455F4556 
 6044      545F5253 
 6044      4353535F 
 6044      494E4449 
 6045              	.LASF396:
 6046 2cd1 4359424C 		.ascii	"CYBLE_EVT_HIDSC_READ_DESCR_RESPONSE\000"
 6046      455F4556 
 6046      545F4849 
 6046      4453435F 
 6046      52454144 
 6047              	.LASF559:
 6048 2cf5 6E746652 		.ascii	"ntfReqParam\000"
ARM GAS  C:\Users\Intern\AppData\Local\Temp\ccVSLPFx.s 			page 147


 6048      65715061 
 6048      72616D00 
 6049              	.LASF410:
 6050 2d01 4359424C 		.ascii	"CYBLE_EVT_HRSC_READ_CHAR_RESPONSE\000"
 6050      455F4556 
 6050      545F4852 
 6050      53435F52 
 6050      4541445F 
 6051              	.LASF288:
 6052 2d23 4359424C 		.ascii	"CYBLE_EVT_BASC_NOTIFICATION\000"
 6052      455F4556 
 6052      545F4241 
 6052      53435F4E 
 6052      4F544946 
 6053              	.LASF33:
 6054 2d3f 4359424C 		.ascii	"CYBLE_EVT_GAP_ENCRYPT_CHANGE\000"
 6054      455F4556 
 6054      545F4741 
 6054      505F454E 
 6054      43525950 
 6055              	.LASF207:
 6056 2d5c 4359424C 		.ascii	"CYBLE_HIDS_BOOT_KYBRD_IN_REP\000"
 6056      455F4849 
 6056      44535F42 
 6056      4F4F545F 
 6056      4B594252 
 6057              	.LASF450:
 6058 2d79 4359424C 		.ascii	"CYBLE_EVT_NDCSC_READ_CHAR_RESPONSE\000"
 6058      455F4556 
 6058      545F4E44 
 6058      4353435F 
 6058      52454144 
 6059              	.LASF250:
 6060 2d9c 4359424C 		.ascii	"CYBLE_EVT_GATTC_DESCR_DUPLICATION\000"
 6060      455F4556 
 6060      545F4741 
 6060      5454435F 
 6060      44455343 
 6061              	.LASF51:
 6062 2dbe 4359424C 		.ascii	"CYBLE_EVT_GATTS_XCNHG_MTU_REQ\000"
 6062      455F4556 
 6062      545F4741 
 6062      5454535F 
 6062      58434E48 
 6063              	.LASF399:
 6064 2ddc 4359424C 		.ascii	"CYBLE_EVT_HPSS_NOTIFICATION_DISABLED\000"
 6064      455F4556 
 6064      545F4850 
 6064      53535F4E 
 6064      4F544946 
 6065              	.LASF216:
 6066 2e01 4359424C 		.ascii	"CYBLE_HIDS_REPORT_RRD\000"
 6066      455F4849 
 6066      44535F52 
 6066      45504F52 
 6066      545F5252 
 6067              	.LASF500:
ARM GAS  C:\Users\Intern\AppData\Local\Temp\ccVSLPFx.s 			page 148


 6068 2e17 4359424C 		.ascii	"CYBLE_EVT_UDSS_NOTIFICATION_ENABLED\000"
 6068      455F4556 
 6068      545F5544 
 6068      53535F4E 
 6068      4F544946 
 6069              	.LASF260:
 6070 2e3b 4359424C 		.ascii	"CYBLE_EVT_AIOSS_INDICATION_CONFIRMED\000"
 6070      455F4556 
 6070      545F4149 
 6070      4F53535F 
 6070      494E4449 
 6071              	.LASF440:
 6072 2e60 4359424C 		.ascii	"CYBLE_EVT_LNSS_INDICATION_CONFIRMED\000"
 6072      455F4556 
 6072      545F4C4E 
 6072      53535F49 
 6072      4E444943 
 6073              	.LASF47:
 6074 2e84 4359424C 		.ascii	"CYBLE_EVT_GAP_SMP_LOC_P256_KEYS_GEN_AND_SET_COMPLET"
 6074      455F4556 
 6074      545F4741 
 6074      505F534D 
 6074      505F4C4F 
 6075 2eb7 4500     		.ascii	"E\000"
 6076              	.LASF285:
 6077 2eb9 4359424C 		.ascii	"CYBLE_EVT_ANSC_WRITE_DESCR_RESPONSE\000"
 6077      455F4556 
 6077      545F414E 
 6077      53435F57 
 6077      52495445 
 6078              	.LASF446:
 6079 2edd 4359424C 		.ascii	"CYBLE_EVT_LNSC_READ_CHAR_RESPONSE\000"
 6079      455F4556 
 6079      545F4C4E 
 6079      53435F52 
 6079      4541445F 
 6080              	.LASF193:
 6081 2eff 4359424C 		.ascii	"CYBLE_DIS_MANUFACTURER_NAME\000"
 6081      455F4449 
 6081      535F4D41 
 6081      4E554641 
 6081      43545552 
 6082              	.LASF376:
 6083 2f1b 4359424C 		.ascii	"CYBLE_EVT_GLSS_INDICATION_CONFIRMED\000"
 6083      455F4556 
 6083      545F474C 
 6083      53535F49 
 6083      4E444943 
 6084              	.LASF536:
 6085 2f3f 4359424C 		.ascii	"CYBLE_STATE_T\000"
 6085      455F5354 
 6085      4154455F 
 6085      5400
 6086              	.LASF241:
 6087 2f4d 4359424C 		.ascii	"CYBLE_EVT_GATTS_INDICATION_ENABLED\000"
 6087      455F4556 
 6087      545F4741 
ARM GAS  C:\Users\Intern\AppData\Local\Temp\ccVSLPFx.s 			page 149


 6087      5454535F 
 6087      494E4449 
 6088              	.LASF7:
 6089 2f70 6C6F6E67 		.ascii	"long long unsigned int\000"
 6089      206C6F6E 
 6089      6720756E 
 6089      7369676E 
 6089      65642069 
 6090              	.LASF125:
 6091 2f87 4359424C 		.ascii	"CYBLE_GATT_ERR_INVALID_HANDLE\000"
 6091      455F4741 
 6091      54545F45 
 6091      52525F49 
 6091      4E56414C 
 6092              	.LASF19:
 6093 2fa5 4359424C 		.ascii	"CYBLE_EVT_TIMEOUT\000"
 6093      455F4556 
 6093      545F5449 
 6093      4D454F55 
 6093      5400
 6094              	.LASF357:
 6095 2fb7 4359424C 		.ascii	"CYBLE_EVT_CTSC_READ_DESCR_RESPONSE\000"
 6095      455F4556 
 6095      545F4354 
 6095      53435F52 
 6095      4541445F 
 6096              	.LASF554:
 6097 2fda 7265706F 		.ascii	"reportIndex\000"
 6097      7274496E 
 6097      64657800 
 6098              	.LASF226:
 6099 2fe6 7265706F 		.ascii	"reportCount\000"
 6099      7274436F 
 6099      756E7400 
 6100              	.LASF149:
 6101 2ff2 4359424C 		.ascii	"CYBLE_GATT_ERR_MISSING_CRC\000"
 6101      455F4741 
 6101      54545F45 
 6101      52525F4D 
 6101      49535349 
 6102              	.LASF121:
 6103 300d 4359424C 		.ascii	"CYBLE_ERROR_INVALID_STATE\000"
 6103      455F4552 
 6103      524F525F 
 6103      494E5641 
 6103      4C49445F 
 6104              	.LASF164:
 6105 3027 4359424C 		.ascii	"CYBLE_GATT_DB_ATTR_HANDLE_T\000"
 6105      455F4741 
 6105      54545F44 
 6105      425F4154 
 6105      54525F48 
 6106              	.LASF258:
 6107 3043 4359424C 		.ascii	"CYBLE_EVT_AIOSS_INDICATION_ENABLED\000"
 6107      455F4556 
 6107      545F4149 
 6107      4F53535F 
ARM GAS  C:\Users\Intern\AppData\Local\Temp\ccVSLPFx.s 			page 150


 6107      494E4449 
 6108              	.LASF80:
 6109 3066 4359424C 		.ascii	"CYBLE_EVT_L2CAP_CBFC_DATA_READ\000"
 6109      455F4556 
 6109      545F4C32 
 6109      4341505F 
 6109      43424643 
 6110              	.LASF124:
 6111 3085 4359424C 		.ascii	"CYBLE_GATT_ERR_NONE\000"
 6111      455F4741 
 6111      54545F45 
 6111      52525F4E 
 6111      4F4E4500 
 6112              	.LASF170:
 6113 3099 76616C75 		.ascii	"value\000"
 6113      6500
 6114              	.LASF333:
 6115 309f 4359424C 		.ascii	"CYBLE_EVT_CPSC_NOTIFICATION\000"
 6115      455F4556 
 6115      545F4350 
 6115      53435F4E 
 6115      4F544946 
 6116              	.LASF308:
 6117 30bb 4359424C 		.ascii	"CYBLE_EVT_BLSC_WRITE_DESCR_RESPONSE\000"
 6117      455F4556 
 6117      545F424C 
 6117      53435F57 
 6117      52495445 
 6118              	.LASF190:
 6119 30df 61747456 		.ascii	"attValue\000"
 6119      616C7565 
 6119      00
 6120              	.LASF445:
 6121 30e8 4359424C 		.ascii	"CYBLE_EVT_LNSC_NOTIFICATION\000"
 6121      455F4556 
 6121      545F4C4E 
 6121      53435F4E 
 6121      4F544946 
 6122              	.LASF544:
 6123 3104 4379426C 		.ascii	"CyBle_HidssGetCharacteristicValue\000"
 6123      655F4869 
 6123      64737347 
 6123      65744368 
 6123      61726163 
 6124              	.LASF228:
 6125 3126 626F6F74 		.ascii	"bootReportArray\000"
 6125      5265706F 
 6125      72744172 
 6125      72617900 
 6126              	.LASF114:
 6127 3136 4359424C 		.ascii	"CYBLE_ERROR_FLASH_WRITE\000"
 6127      455F4552 
 6127      524F525F 
 6127      464C4153 
 6127      485F5752 
 6128              	.LASF375:
 6129 314e 4359424C 		.ascii	"CYBLE_EVT_GLSS_INDICATION_DISABLED\000"
ARM GAS  C:\Users\Intern\AppData\Local\Temp\ccVSLPFx.s 			page 151


 6129      455F4556 
 6129      545F474C 
 6129      53535F49 
 6129      4E444943 
 6130              	.LASF146:
 6131 3171 4359424C 		.ascii	"CYBLE_GATT_ERR_HTS_OUT_OF_RANGE\000"
 6131      455F4741 
 6131      54545F45 
 6131      52525F48 
 6131      54535F4F 
 6132              	.LASF261:
 6133 3191 4359424C 		.ascii	"CYBLE_EVT_AIOSS_CHAR_WRITE\000"
 6133      455F4556 
 6133      545F4149 
 6133      4F53535F 
 6133      43484152 
 6134              	.LASF248:
 6135 31ac 4359424C 		.ascii	"CYBLE_EVT_GATTC_SRVC_DUPLICATION\000"
 6135      455F4556 
 6135      545F4741 
 6135      5454435F 
 6135      53525643 
 6136              	.LASF438:
 6137 31cd 4359424C 		.ascii	"CYBLE_EVT_LNSS_INDICATION_ENABLED\000"
 6137      455F4556 
 6137      545F4C4E 
 6137      53535F49 
 6137      4E444943 
 6138              	.LASF551:
 6139 31ef 4379426C 		.ascii	"CyBle_HidssWriteEventHandler\000"
 6139      655F4869 
 6139      64737357 
 6139      72697465 
 6139      4576656E 
 6140              	.LASF271:
 6141 320c 4359424C 		.ascii	"CYBLE_EVT_ANCSS_NOTIFICATION_DISABLED\000"
 6141      455F4556 
 6141      545F414E 
 6141      4353535F 
 6141      4E4F5449 
 6142              	.LASF232:
 6143 3232 636F6E74 		.ascii	"controlPointHandle\000"
 6143      726F6C50 
 6143      6F696E74 
 6143      48616E64 
 6143      6C6500
 6144              	.LASF208:
 6145 3245 4359424C 		.ascii	"CYBLE_HIDS_BOOT_KYBRD_OUT_REP\000"
 6145      455F4849 
 6145      44535F42 
 6145      4F4F545F 
 6145      4B594252 
 6146              	.LASF174:
 6147 3263 636F6E6E 		.ascii	"connHandle\000"
 6147      48616E64 
 6147      6C6500
 6148              	.LASF177:
ARM GAS  C:\Users\Intern\AppData\Local\Temp\ccVSLPFx.s 			page 152


 6149 326e 61637475 		.ascii	"actualLength\000"
 6149      616C4C65 
 6149      6E677468 
 6149      00
 6150              	.LASF287:
 6151 327b 4359424C 		.ascii	"CYBLE_EVT_BASS_NOTIFICATION_DISABLED\000"
 6151      455F4556 
 6151      545F4241 
 6151      53535F4E 
 6151      4F544946 
 6152              	.LASF458:
 6153 32a0 4359424C 		.ascii	"CYBLE_EVT_PLXSS_WRITE_CHAR\000"
 6153      455F4556 
 6153      545F504C 
 6153      5853535F 
 6153      57524954 
 6154              	.LASF325:
 6155 32bb 4359424C 		.ascii	"CYBLE_EVT_CPSS_NOTIFICATION_ENABLED\000"
 6155      455F4556 
 6155      545F4350 
 6155      53535F4E 
 6155      4F544946 
 6156              	.LASF495:
 6157 32df 4359424C 		.ascii	"CYBLE_EVT_TPSC_READ_DESCR_RESPONSE\000"
 6157      455F4556 
 6157      545F5450 
 6157      53435F52 
 6157      4541445F 
 6158              	.LASF547:
 6159 3302 6C6F6344 		.ascii	"locDescrHandle\000"
 6159      65736372 
 6159      48616E64 
 6159      6C6500
 6160              	.LASF566:
 6161 3311 6379426C 		.ascii	"cyBle_pendingFlashWrite\000"
 6161      655F7065 
 6161      6E64696E 
 6161      67466C61 
 6161      73685772 
 6162              	.LASF510:
 6163 3329 4359424C 		.ascii	"CYBLE_EVT_UDSC_ERROR_RESPONSE\000"
 6163      455F4556 
 6163      545F5544 
 6163      53435F45 
 6163      52524F52 
 6164              	.LASF55:
 6165 3347 4359424C 		.ascii	"CYBLE_EVT_GATTC_FIND_INFO_RSP\000"
 6165      455F4556 
 6165      545F4741 
 6165      5454435F 
 6165      46494E44 
 6166              	.LASF54:
 6167 3365 4359424C 		.ascii	"CYBLE_EVT_GATTC_READ_BY_TYPE_RSP\000"
 6167      455F4556 
 6167      545F4741 
 6167      5454435F 
 6167      52454144 
ARM GAS  C:\Users\Intern\AppData\Local\Temp\ccVSLPFx.s 			page 153


 6168              	.LASF452:
 6169 3386 4359424C 		.ascii	"CYBLE_EVT_PASSS_NOTIFICATION_DISABLED\000"
 6169      455F4556 
 6169      545F5041 
 6169      5353535F 
 6169      4E4F5449 
 6170              	.LASF323:
 6171 33ac 4359424C 		.ascii	"CYBLE_EVT_CGMSC_READ_DESCR_RESPONSE\000"
 6171      455F4556 
 6171      545F4347 
 6171      4D53435F 
 6171      52454144 
 6172              	.LASF394:
 6173 33d0 4359424C 		.ascii	"CYBLE_EVT_HIDSC_READ_CHAR_RESPONSE\000"
 6173      455F4556 
 6173      545F4849 
 6173      4453435F 
 6173      52454144 
 6174              	.LASF151:
 6175 33f3 4359424C 		.ascii	"CYBLE_GATTS_ERR_OPERATION_FAILED\000"
 6175      455F4741 
 6175      5454535F 
 6175      4552525F 
 6175      4F504552 
 6176              	.LASF540:
 6177 3414 61706952 		.ascii	"apiResult\000"
 6177      6573756C 
 6177      7400
 6178              	.LASF560:
 6179 341e 4379426C 		.ascii	"CyBle_HidsRegisterAttrCallback\000"
 6179      655F4869 
 6179      64735265 
 6179      67697374 
 6179      65724174 
 6180              	.LASF570:
 6181 343d 6379426C 		.ascii	"cyBle_state\000"
 6181      655F7374 
 6181      61746500 
 6182              	.LASF555:
 6183 3449 6C6F6343 		.ascii	"locCharIndex\000"
 6183      68617249 
 6183      6E646578 
 6183      00
 6184              	.LASF492:
 6185 3456 4359424C 		.ascii	"CYBLE_EVT_TPSS_NOTIFICATION_DISABLED\000"
 6185      455F4556 
 6185      545F5450 
 6185      53535F4E 
 6185      4F544946 
 6186              	.LASF489:
 6187 347b 4359424C 		.ascii	"CYBLE_EVT_SCPSC_READ_DESCR_RESPONSE\000"
 6187      455F4556 
 6187      545F5343 
 6187      5053435F 
 6187      52454144 
 6188              	.LASF413:
 6189 349f 4359424C 		.ascii	"CYBLE_EVT_HRSC_WRITE_DESCR_RESPONSE\000"
ARM GAS  C:\Users\Intern\AppData\Local\Temp\ccVSLPFx.s 			page 154


 6189      455F4556 
 6189      545F4852 
 6189      53435F57 
 6189      52495445 
 6190              	.LASF115:
 6191 34c3 4359424C 		.ascii	"CYBLE_ERROR_LL_SAME_TRANSACTION_COLLISION\000"
 6191      455F4552 
 6191      524F525F 
 6191      4C4C5F53 
 6191      414D455F 
 6192              	.LASF443:
 6193 34ed 4359424C 		.ascii	"CYBLE_EVT_LNSS_WRITE_CHAR\000"
 6193      455F4556 
 6193      545F4C4E 
 6193      53535F57 
 6193      52495445 
 6194              	.LASF366:
 6195 3507 4359424C 		.ascii	"CYBLE_EVT_ESSS_CHAR_WRITE\000"
 6195      455F4556 
 6195      545F4553 
 6195      53535F43 
 6195      4841525F 
 6196              	.LASF61:
 6197 3521 4359424C 		.ascii	"CYBLE_EVT_GATTC_WRITE_RSP\000"
 6197      455F4556 
 6197      545F4741 
 6197      5454435F 
 6197      57524954 
 6198              	.LASF361:
 6199 353b 4359424C 		.ascii	"CYBLE_EVT_ESSS_NOTIFICATION_ENABLED\000"
 6199      455F4556 
 6199      545F4553 
 6199      53535F4E 
 6199      4F544946 
 6200              	.LASF558:
 6201 355f 4379426C 		.ascii	"CyBle_HidssSendNotification\000"
 6201      655F4869 
 6201      64737353 
 6201      656E644E 
 6201      6F746966 
 6202              	.LASF535:
 6203 357b 4359424C 		.ascii	"CYBLE_STATE_DISCONNECTED\000"
 6203      455F5354 
 6203      4154455F 
 6203      44495343 
 6203      4F4E4E45 
 6204              	.LASF185:
 6205 3594 4359424C 		.ascii	"CYBLE_GATTS_ATT_VALUE_T\000"
 6205      455F4741 
 6205      5454535F 
 6205      4154545F 
 6205      56414C55 
 6206              	.LASF209:
 6207 35ac 4359424C 		.ascii	"CYBLE_HIDS_BOOT_MOUSE_IN_REP\000"
 6207      455F4849 
 6207      44535F42 
 6207      4F4F545F 
ARM GAS  C:\Users\Intern\AppData\Local\Temp\ccVSLPFx.s 			page 155


 6207      4D4F5553 
 6208              	.LASF477:
 6209 35c9 4359424C 		.ascii	"CYBLE_EVT_RSCSC_NOTIFICATION\000"
 6209      455F4556 
 6209      545F5253 
 6209      4353435F 
 6209      4E4F5449 
 6210              	.LASF182:
 6211 35e6 4359424C 		.ascii	"CYBLE_GATTS_ATT_PACK_VAL_LEN_T\000"
 6211      455F4741 
 6211      5454535F 
 6211      4154545F 
 6211      5041434B 
 6212              	.LASF30:
 6213 3605 4359424C 		.ascii	"CYBLE_EVT_GAPP_ADVERTISEMENT_START_STOP\000"
 6213      455F4556 
 6213      545F4741 
 6213      50505F41 
 6213      44564552 
 6214              	.LASF301:
 6215 362d 4359424C 		.ascii	"CYBLE_EVT_BLSS_INDICATION_CONFIRMED\000"
 6215      455F4556 
 6215      545F424C 
 6215      53535F49 
 6215      4E444943 
 6216              	.LASF521:
 6217 3651 4359424C 		.ascii	"CYBLE_EVT_WPTSC_READ_DESCR_RESPONSE\000"
 6217      455F4556 
 6217      545F5750 
 6217      5453435F 
 6217      52454144 
 6218              	.LASF273:
 6219 3675 4359424C 		.ascii	"CYBLE_EVT_ANCSC_NOTIFICATION\000"
 6219      455F4556 
 6219      545F414E 
 6219      4353435F 
 6219      4E4F5449 
 6220              	.LASF178:
 6221 3692 61747447 		.ascii	"attGenericVal\000"
 6221      656E6572 
 6221      69635661 
 6221      6C00
 6222              	.LASF470:
 6223 36a0 4359424C 		.ascii	"CYBLE_EVT_PLXSC_TIMEOUT\000"
 6223      455F4556 
 6223      545F504C 
 6223      5853435F 
 6223      54494D45 
 6224              	.LASF322:
 6225 36b8 4359424C 		.ascii	"CYBLE_EVT_CGMSC_WRITE_CHAR_RESPONSE\000"
 6225      455F4556 
 6225      545F4347 
 6225      4D53435F 
 6225      57524954 
 6226              	.LASF9:
 6227 36dc 75696E74 		.ascii	"uint8\000"
 6227      3800
ARM GAS  C:\Users\Intern\AppData\Local\Temp\ccVSLPFx.s 			page 156


 6228              	.LASF422:
 6229 36e2 4359424C 		.ascii	"CYBLE_EVT_HTSC_READ_CHAR_RESPONSE\000"
 6229      455F4556 
 6229      545F4854 
 6229      53435F52 
 6229      4541445F 
 6230              	.LASF38:
 6231 3704 4359424C 		.ascii	"CYBLE_EVT_GAP_KEYPRESS_NOTIFICATION\000"
 6231      455F4556 
 6231      545F4741 
 6231      505F4B45 
 6231      59505245 
 6232              	.LASF457:
 6233 3728 4359424C 		.ascii	"CYBLE_EVT_PASSC_WRITE_DESCR_RESPONSE\000"
 6233      455F4556 
 6233      545F5041 
 6233      5353435F 
 6233      57524954 
 6234              	.LASF545:
 6235 374d 4379426C 		.ascii	"CyBle_HidssGetCharacteristicDescriptor\000"
 6235      655F4869 
 6235      64737347 
 6235      65744368 
 6235      61726163 
 6236              	.LASF2:
 6237 3774 73686F72 		.ascii	"short int\000"
 6237      7420696E 
 6237      7400
 6238              	.LASF175:
 6239 377e 68616E64 		.ascii	"handleValPair\000"
 6239      6C655661 
 6239      6C506169 
 6239      7200
 6240              	.LASF309:
 6241 378c 4359424C 		.ascii	"CYBLE_EVT_BMSS_WRITE_CHAR\000"
 6241      455F4556 
 6241      545F424D 
 6241      53535F57 
 6241      52495445 
 6242              	.LASF181:
 6243 37a6 61747447 		.ascii	"attGenericValLen\000"
 6243      656E6572 
 6243      69635661 
 6243      6C4C656E 
 6243      00
 6244              	.LASF183:
 6245 37b7 61747446 		.ascii	"attFormatValue\000"
 6245      6F726D61 
 6245      7456616C 
 6245      756500
 6246              	.LASF266:
 6247 37c6 4359424C 		.ascii	"CYBLE_EVT_AIOSC_WRITE_CHAR_RESPONSE\000"
 6247      455F4556 
 6247      545F4149 
 6247      4F53435F 
 6247      57524954 
 6248              	.LASF112:
ARM GAS  C:\Users\Intern\AppData\Local\Temp\ccVSLPFx.s 			page 157


 6249 37ea 4359424C 		.ascii	"CYBLE_ERROR_HARDWARE_FAILURE\000"
 6249      455F4552 
 6249      524F525F 
 6249      48415244 
 6249      57415245 
 6250              	.LASF145:
 6251 3807 4359424C 		.ascii	"CYBLE_GATT_ERR_CPS_INAPPROPRIATE_CONNECTION_PARAMET"
 6251      455F4741 
 6251      54545F45 
 6251      52525F43 
 6251      50535F49 
 6252 383a 45525300 		.ascii	"ERS\000"
 6253              	.LASF320:
 6254 383e 4359424C 		.ascii	"CYBLE_EVT_CGMSC_NOTIFICATION\000"
 6254      455F4556 
 6254      545F4347 
 6254      4D53435F 
 6254      4E4F5449 
 6255              	.LASF130:
 6256 385b 4359424C 		.ascii	"CYBLE_GATT_ERR_REQUEST_NOT_SUPPORTED\000"
 6256      455F4741 
 6256      54545F45 
 6256      52525F52 
 6256      45515545 
 6257              	.LASF48:
 6258 3880 4359424C 		.ascii	"CYBLE_EVT_GATTC_ERROR_RSP\000"
 6258      455F4556 
 6258      545F4741 
 6258      5454435F 
 6258      4552524F 
 6259              	.LASF371:
 6260 389a 4359424C 		.ascii	"CYBLE_EVT_ESSC_WRITE_CHAR_RESPONSE\000"
 6260      455F4556 
 6260      545F4553 
 6260      53435F57 
 6260      52495445 
 6261              	.LASF277:
 6262 38bd 4359424C 		.ascii	"CYBLE_EVT_ANCSC_ERROR_RESPONSE\000"
 6262      455F4556 
 6262      545F414E 
 6262      4353435F 
 6262      4552524F 
 6263              	.LASF291:
 6264 38dc 4359424C 		.ascii	"CYBLE_EVT_BASC_WRITE_DESCR_RESPONSE\000"
 6264      455F4556 
 6264      545F4241 
 6264      53435F57 
 6264      52495445 
 6265              	.LASF244:
 6266 3900 4359424C 		.ascii	"CYBLE_EVT_GATTC_SRVC_DISCOVERY_FAILED\000"
 6266      455F4556 
 6266      545F4741 
 6266      5454435F 
 6266      53525643 
 6267              	.LASF374:
 6268 3926 4359424C 		.ascii	"CYBLE_EVT_GLSS_INDICATION_ENABLED\000"
 6268      455F4556 
ARM GAS  C:\Users\Intern\AppData\Local\Temp\ccVSLPFx.s 			page 158


 6268      545F474C 
 6268      53535F49 
 6268      4E444943 
 6269              	.LASF280:
 6270 3948 4359424C 		.ascii	"CYBLE_EVT_ANSS_CHAR_WRITE\000"
 6270      455F4556 
 6270      545F414E 
 6270      53535F43 
 6270      4841525F 
 6271              	.LASF548:
 6272 3962 6C6F6352 		.ascii	"locReport\000"
 6272      65706F72 
 6272      7400
 6273              	.LASF76:
 6274 396c 4359424C 		.ascii	"CYBLE_EVT_L2CAP_CBFC_CONN_IND\000"
 6274      455F4556 
 6274      545F4C32 
 6274      4341505F 
 6274      43424643 
 6275              	.LASF64:
 6276 398a 4359424C 		.ascii	"CYBLE_EVT_GATTS_EXEC_WRITE_REQ\000"
 6276      455F4556 
 6276      545F4741 
 6276      5454535F 
 6276      45584543 
 6277              	.LASF24:
 6278 39a9 4359424C 		.ascii	"CYBLE_EVT_GAPC_SCAN_PROGRESS_RESULT\000"
 6278      455F4556 
 6278      545F4741 
 6278      50435F53 
 6278      43414E5F 
 6279              	.LASF403:
 6280 39cd 4359424C 		.ascii	"CYBLE_EVT_HPSC_READ_DESCR_RESPONSE\000"
 6280      455F4556 
 6280      545F4850 
 6280      53435F52 
 6280      4541445F 
 6281              	.LASF354:
 6282 39f0 4359424C 		.ascii	"CYBLE_EVT_CTSS_CHAR_WRITE\000"
 6282      455F4556 
 6282      545F4354 
 6282      53535F43 
 6282      4841525F 
 6283              	.LASF497:
 6284 3a0a 4359424C 		.ascii	"CYBLE_EVT_UDSS_INDICATION_ENABLED\000"
 6284      455F4556 
 6284      545F5544 
 6284      53535F49 
 6284      4E444943 
 6285              	.LASF434:
 6286 3a2c 4359424C 		.ascii	"CYBLE_EVT_IPSC_READ_BLOB_RSP\000"
 6286      455F4556 
 6286      545F4950 
 6286      53435F52 
 6286      4541445F 
 6287              	.LASF163:
 6288 3a49 4359424C 		.ascii	"CYBLE_GATT_ERR_CODE_T\000"
ARM GAS  C:\Users\Intern\AppData\Local\Temp\ccVSLPFx.s 			page 159


 6288      455F4741 
 6288      54545F45 
 6288      52525F43 
 6288      4F44455F 
 6289              	.LASF158:
 6290 3a5f 4359424C 		.ascii	"CYBLE_GATT_ERR_ANCS_INVALID_PARAMETER\000"
 6290      455F4741 
 6290      54545F45 
 6290      52525F41 
 6290      4E43535F 
 6291              	.LASF98:
 6292 3a85 4359424C 		.ascii	"CYBLE_ERROR_GAP_ROLE\000"
 6292      455F4552 
 6292      524F525F 
 6292      4741505F 
 6292      524F4C45 
 6293              	.LASF416:
 6294 3a9a 4359424C 		.ascii	"CYBLE_EVT_HTSS_INDICATION_ENABLED\000"
 6294      455F4556 
 6294      545F4854 
 6294      53535F49 
 6294      4E444943 
 6295              	.LASF508:
 6296 3abc 4359424C 		.ascii	"CYBLE_EVT_UDSC_READ_DESCR_RESPONSE\000"
 6296      455F4556 
 6296      545F5544 
 6296      53435F52 
 6296      4541445F 
 6297              	.LASF262:
 6298 3adf 4359424C 		.ascii	"CYBLE_EVT_AIOSS_DESCR_WRITE\000"
 6298      455F4556 
 6298      545F4149 
 6298      4F53535F 
 6298      44455343 
 6299              	.LASF45:
 6300 3afb 4359424C 		.ascii	"CYBLE_EVT_GAP_SCAN_REQ_RECVD\000"
 6300      455F4556 
 6300      545F4741 
 6300      505F5343 
 6300      414E5F52 
 6301              	.LASF289:
 6302 3b18 4359424C 		.ascii	"CYBLE_EVT_BASC_READ_CHAR_RESPONSE\000"
 6302      455F4556 
 6302      545F4241 
 6302      53435F52 
 6302      4541445F 
 6303              	.LASF381:
 6304 3b3a 4359424C 		.ascii	"CYBLE_EVT_GLSC_NOTIFICATION\000"
 6304      455F4556 
 6304      545F474C 
 6304      53435F4E 
 6304      4F544946 
 6305              	.LASF155:
 6306 3b56 4359424C 		.ascii	"CYBLE_GATT_ERR_ANS_COMMAND_NOT_SUPPORTED\000"
 6306      455F4741 
 6306      54545F45 
 6306      52525F41 
ARM GAS  C:\Users\Intern\AppData\Local\Temp\ccVSLPFx.s 			page 160


 6306      4E535F43 
 6307              	.LASF487:
 6308 3b7f 4359424C 		.ascii	"CYBLE_EVT_SCPSS_SCAN_INT_WIN_CHAR_WRITE\000"
 6308      455F4556 
 6308      545F5343 
 6308      5053535F 
 6308      5343414E 
 6309              	.LASF565:
 6310 3ba7 6379426C 		.ascii	"cyBle_eventHandlerFlag\000"
 6310      655F6576 
 6310      656E7448 
 6310      616E646C 
 6310      6572466C 
 6311              	.LASF242:
 6312 3bbe 4359424C 		.ascii	"CYBLE_EVT_GATTS_INDICATION_DISABLED\000"
 6312      455F4556 
 6312      545F4741 
 6312      5454535F 
 6312      494E4449 
 6313              	.LASF217:
 6314 3be2 4359424C 		.ascii	"CYBLE_HIDS_REPORT_MAP_ERRD\000"
 6314      455F4849 
 6314      44535F52 
 6314      45504F52 
 6314      545F4D41 
 6315              	.LASF95:
 6316 3bfd 4359424C 		.ascii	"CYBLE_ERROR_NO_CONNECTION\000"
 6316      455F4552 
 6316      524F525F 
 6316      4E4F5F43 
 6316      4F4E4E45 
 6317              	.LASF312:
 6318 3c17 4359424C 		.ascii	"CYBLE_EVT_BMSC_READ_DESCR_RESPONSE\000"
 6318      455F4556 
 6318      545F424D 
 6318      53435F52 
 6318      4541445F 
 6319              	.LASF85:
 6320 3c3a 4359424C 		.ascii	"CYBLE_EVT_LE_PING_AUTH_TIMEOUT\000"
 6320      455F4556 
 6320      545F4C45 
 6320      5F50494E 
 6320      475F4155 
 6321              	.LASF123:
 6322 3c59 4359424C 		.ascii	"CYBLE_API_RESULT_T\000"
 6322      455F4150 
 6322      495F5245 
 6322      53554C54 
 6322      5F5400
 6323              	.LASF210:
 6324 3c6c 4359424C 		.ascii	"CYBLE_HIDS_REPORT\000"
 6324      455F4849 
 6324      44535F52 
 6324      45504F52 
 6324      5400
 6325              	.LASF314:
 6326 3c7e 4359424C 		.ascii	"CYBLE_EVT_CGMSS_INDICATION_DISABLED\000"
ARM GAS  C:\Users\Intern\AppData\Local\Temp\ccVSLPFx.s 			page 161


 6326      455F4556 
 6326      545F4347 
 6326      4D53535F 
 6326      494E4449 
 6327              	.LASF543:
 6328 3ca2 4379426C 		.ascii	"CyBle_HidssSetCharacteristicValue\000"
 6328      655F4869 
 6328      64737353 
 6328      65744368 
 6328      61726163 
 6329              	.LASF255:
 6330 3cc4 4359424C 		.ascii	"CYBLE_EVT_GATTC_DISCOVERY_COMPLETE\000"
 6330      455F4556 
 6330      545F4741 
 6330      5454435F 
 6330      44495343 
 6331              	.LASF318:
 6332 3ce7 4359424C 		.ascii	"CYBLE_EVT_CGMSS_WRITE_CHAR\000"
 6332      455F4556 
 6332      545F4347 
 6332      4D53535F 
 6332      57524954 
 6333              	.LASF385:
 6334 3d02 4359424C 		.ascii	"CYBLE_EVT_GLSC_WRITE_DESCR_RESPONSE\000"
 6334      455F4556 
 6334      545F474C 
 6334      53435F57 
 6334      52495445 
 6335              	.LASF67:
 6336 3d26 4359424C 		.ascii	"CYBLE_EVT_GATTC_HANDLE_VALUE_IND\000"
 6336      455F4556 
 6336      545F4741 
 6336      5454435F 
 6336      48414E44 
 6337              	.LASF339:
 6338 3d47 4359424C 		.ascii	"CYBLE_EVT_CPSC_SCAN_PROGRESS_RESULT\000"
 6338      455F4556 
 6338      545F4350 
 6338      53435F53 
 6338      43414E5F 
 6339              	.LASF481:
 6340 3d6b 4359424C 		.ascii	"CYBLE_EVT_RSCSC_READ_DESCR_RESPONSE\000"
 6340      455F4556 
 6340      545F5253 
 6340      4353435F 
 6340      52454144 
 6341              	.LASF550:
 6342 3d8f 6576656E 		.ascii	"eventCode\000"
 6342      74436F64 
 6342      6500
 6343              	.LASF101:
 6344 3d99 4359424C 		.ascii	"CYBLE_ERROR_SEC_FAILED\000"
 6344      455F4552 
 6344      524F525F 
 6344      5345435F 
 6344      4641494C 
 6345              	.LASF203:
ARM GAS  C:\Users\Intern\AppData\Local\Temp\ccVSLPFx.s 			page 162


 6346 3db0 4359424C 		.ascii	"CYBLE_HIDS_PROTOCOL_MODE\000"
 6346      455F4849 
 6346      44535F50 
 6346      524F544F 
 6346      434F4C5F 
 6347              	.LASF22:
 6348 3dc9 4359424C 		.ascii	"CYBLE_EVT_STACK_BUSY_STATUS\000"
 6348      455F4556 
 6348      545F5354 
 6348      41434B5F 
 6348      42555359 
 6349              	.LASF433:
 6350 3de5 4359424C 		.ascii	"CYBLE_EVT_IPSC_ERROR_RESPONSE\000"
 6350      455F4556 
 6350      545F4950 
 6350      53435F45 
 6350      52524F52 
 6351              	.LASF425:
 6352 3e03 4359424C 		.ascii	"CYBLE_EVT_HTSC_WRITE_DESCR_RESPONSE\000"
 6352      455F4556 
 6352      545F4854 
 6352      53435F57 
 6352      52495445 
 6353              	.LASF36:
 6354 3e27 4359424C 		.ascii	"CYBLE_EVT_GAP_KEYINFO_EXCHNGE_CMPLT\000"
 6354      455F4556 
 6354      545F4741 
 6354      505F4B45 
 6354      59494E46 
 6355              	.LASF522:
 6356 3e4b 4359424C 		.ascii	"CYBLE_EVT_WPTSC_WRITE_DESCR_RESPONSE\000"
 6356      455F4556 
 6356      545F5750 
 6356      5453435F 
 6356      57524954 
 6357              	.LASF73:
 6358 3e70 4359424C 		.ascii	"CYBLE_EVT_L2CAP_CONN_PARAM_UPDATE_REQ\000"
 6358      455F4556 
 6358      545F4C32 
 6358      4341505F 
 6358      434F4E4E 
 6359              	.LASF317:
 6360 3e96 4359424C 		.ascii	"CYBLE_EVT_CGMSS_NOTIFICATION_DISABLED\000"
 6360      455F4556 
 6360      545F4347 
 6360      4D53535F 
 6360      4E4F5449 
 6361              	.LASF212:
 6362 3ebc 4359424C 		.ascii	"CYBLE_HIDS_REPORT_END\000"
 6362      455F4849 
 6362      44535F52 
 6362      45504F52 
 6362      545F454E 
 6363              	.LASF355:
 6364 3ed2 4359424C 		.ascii	"CYBLE_EVT_CTSC_NOTIFICATION\000"
 6364      455F4556 
 6364      545F4354 
ARM GAS  C:\Users\Intern\AppData\Local\Temp\ccVSLPFx.s 			page 163


 6364      53435F4E 
 6364      4F544946 
 6365              	.LASF552:
 6366 3eee 67617474 		.ascii	"gattErr\000"
 6366      45727200 
 6367              	.LASF245:
 6368 3ef6 4359424C 		.ascii	"CYBLE_EVT_GATTC_INCL_DISCOVERY_FAILED\000"
 6368      455F4556 
 6368      545F4741 
 6368      5454435F 
 6368      494E434C 
 6369              	.LASF127:
 6370 3f1c 4359424C 		.ascii	"CYBLE_GATT_ERR_WRITE_NOT_PERMITTED\000"
 6370      455F4741 
 6370      54545F45 
 6370      52525F57 
 6370      52495445 
 6371              	.LASF3:
 6372 3f3f 73686F72 		.ascii	"short unsigned int\000"
 6372      7420756E 
 6372      7369676E 
 6372      65642069 
 6372      6E7400
 6373              	.LASF139:
 6374 3f52 4359424C 		.ascii	"CYBLE_GATT_ERR_INSUFFICIENT_ENCRYPTION\000"
 6374      455F4741 
 6374      54545F45 
 6374      52525F49 
 6374      4E535546 
 6375              	.LASF229:
 6376 3f79 7265706F 		.ascii	"reportMapHandle\000"
 6376      72744D61 
 6376      7048616E 
 6376      646C6500 
 6377              	.LASF448:
 6378 3f89 4359424C 		.ascii	"CYBLE_EVT_LNSC_READ_DESCR_RESPONSE\000"
 6378      455F4556 
 6378      545F4C4E 
 6378      53435F52 
 6378      4541445F 
 6379              	.LASF533:
 6380 3fac 4359424C 		.ascii	"CYBLE_STATE_CONNECTED\000"
 6380      455F5354 
 6380      4154455F 
 6380      434F4E4E 
 6380      45435445 
 6381              	.LASF168:
 6382 3fc2 61637475 		.ascii	"actualLen\000"
 6382      616C4C65 
 6382      6E00
 6383              	.LASF221:
 6384 3fcc 63636364 		.ascii	"cccdHandle\000"
 6384      48616E64 
 6384      6C6500
 6385              	.LASF272:
 6386 3fd7 4359424C 		.ascii	"CYBLE_EVT_ANCSS_WRITE_CHAR\000"
 6386      455F4556 
ARM GAS  C:\Users\Intern\AppData\Local\Temp\ccVSLPFx.s 			page 164


 6386      545F414E 
 6386      4353535F 
 6386      57524954 
 6387              	.LASF254:
 6388 3ff2 4359424C 		.ascii	"CYBLE_EVT_GATTC_DISC_SKIPPED_SERVICE\000"
 6388      455F4556 
 6388      545F4741 
 6388      5454435F 
 6388      44495343 
 6389              	.LASF380:
 6390 4017 4359424C 		.ascii	"CYBLE_EVT_GLSC_INDICATION\000"
 6390      455F4556 
 6390      545F474C 
 6390      53435F49 
 6390      4E444943 
 6391              	.LASF331:
 6392 4031 4359424C 		.ascii	"CYBLE_EVT_CPSS_BROADCAST_DISABLED\000"
 6392      455F4556 
 6392      545F4350 
 6392      53535F42 
 6392      524F4144 
 6393              	.LASF166:
 6394 4053 61747449 		.ascii	"attId\000"
 6394      6400
 6395              	.LASF91:
 6396 4059 4359424C 		.ascii	"CYBLE_ERROR_INVALID_OPERATION\000"
 6396      455F4552 
 6396      524F525F 
 6396      494E5641 
 6396      4C49445F 
 6397              	.LASF21:
 6398 4077 4359424C 		.ascii	"CYBLE_EVT_HCI_STATUS\000"
 6398      455F4556 
 6398      545F4843 
 6398      495F5354 
 6398      41545553 
 6399              	.LASF50:
 6400 408c 4359424C 		.ascii	"CYBLE_EVT_GATT_DISCONNECT_IND\000"
 6400      455F4556 
 6400      545F4741 
 6400      54545F44 
 6400      4953434F 
 6401              	.LASF240:
 6402 40aa 4359424C 		.ascii	"CYBLE_KEY_EXCHANGE_INFO_REQUEST_REPLY\000"
 6402      455F4B45 
 6402      595F4558 
 6402      4348414E 
 6402      47455F49 
 6403              	.LASF83:
 6404 40d0 4359424C 		.ascii	"CYBLE_EVT_L2CAP_CBFC_DATA_WRITE_IND\000"
 6404      455F4556 
 6404      545F4C32 
 6404      4341505F 
 6404      43424643 
 6405              	.LASF238:
 6406 40f4 4359424C 		.ascii	"CYBLE_PASSKEY_ENTRY_REQUEST_REPLY\000"
 6406      455F5041 
ARM GAS  C:\Users\Intern\AppData\Local\Temp\ccVSLPFx.s 			page 165


 6406      53534B45 
 6406      595F454E 
 6406      5452595F 
 6407              	.LASF298:
 6408 4116 4359424C 		.ascii	"CYBLE_EVT_BCSC_WRITE_DESCR_RESPONSE\000"
 6408      455F4556 
 6408      545F4243 
 6408      53435F57 
 6408      52495445 
 6409              	.LASF527:
 6410 413a 4359424C 		.ascii	"CYBLE_EVT_WSSC_READ_CHAR_RESPONSE\000"
 6410      455F4556 
 6410      545F5753 
 6410      53435F52 
 6410      4541445F 
 6411              	.LASF213:
 6412 415c 4359424C 		.ascii	"CYBLE_HIDS_CHAR_COUNT\000"
 6412      455F4849 
 6412      44535F43 
 6412      4841525F 
 6412      434F554E 
 6413              	.LASF72:
 6414 4172 4359424C 		.ascii	"CYBLE_EVT_GATTC_LONG_PROCEDURE_END\000"
 6414      455F4556 
 6414      545F4741 
 6414      5454435F 
 6414      4C4F4E47 
 6415              	.LASF281:
 6416 4195 4359424C 		.ascii	"CYBLE_EVT_ANSC_NOTIFICATION\000"
 6416      455F4556 
 6416      545F414E 
 6416      53435F4E 
 6416      4F544946 
 6417              	.LASF32:
 6418 41b1 4359424C 		.ascii	"CYBLE_EVT_GAP_DEVICE_DISCONNECTED\000"
 6418      455F4556 
 6418      545F4741 
 6418      505F4445 
 6418      56494345 
 6419              	.LASF388:
 6420 41d3 4359424C 		.ascii	"CYBLE_EVT_HIDSS_BOOT_MODE_ENTER\000"
 6420      455F4556 
 6420      545F4849 
 6420      4453535F 
 6420      424F4F54 
 6421              	.LASF68:
 6422 41f3 4359424C 		.ascii	"CYBLE_EVT_GATTS_HANDLE_VALUE_CNF\000"
 6422      455F4556 
 6422      545F4741 
 6422      5454535F 
 6422      48414E44 
 6423              	.LASF429:
 6424 4214 4359424C 		.ascii	"CYBLE_EVT_IPSC_READ_MULTIPLE_CHAR_RESPONSE\000"
 6424      455F4556 
 6424      545F4950 
 6424      53435F52 
 6424      4541445F 
ARM GAS  C:\Users\Intern\AppData\Local\Temp\ccVSLPFx.s 			page 166


 6425              	.LASF350:
 6426 423f 4359424C 		.ascii	"CYBLE_EVT_CSCSC_READ_DESCR_RESPONSE\000"
 6426      455F4556 
 6426      545F4353 
 6426      4353435F 
 6426      52454144 
 6427              	.LASF10:
 6428 4263 75696E74 		.ascii	"uint16\000"
 6428      313600
 6429              	.LASF274:
 6430 426a 4359424C 		.ascii	"CYBLE_EVT_ANCSC_WRITE_CHAR_RESPONSE\000"
 6430      455F4556 
 6430      545F414E 
 6430      4353435F 
 6430      57524954 
 6431              	.LASF99:
 6432 428e 4359424C 		.ascii	"CYBLE_ERROR_TX_POWER_READ\000"
 6432      455F4552 
 6432      524F525F 
 6432      54585F50 
 6432      4F574552 
 6433              	.LASF471:
 6434 42a8 4359424C 		.ascii	"CYBLE_EVT_RSCSS_NOTIFICATION_ENABLED\000"
 6434      455F4556 
 6434      545F5253 
 6434      4353535F 
 6434      4E4F5449 
 6435              	.LASF279:
 6436 42cd 4359424C 		.ascii	"CYBLE_EVT_ANSS_NOTIFICATION_DISABLED\000"
 6436      455F4556 
 6436      545F414E 
 6436      53535F4E 
 6436      4F544946 
 6437              	.LASF421:
 6438 42f2 4359424C 		.ascii	"CYBLE_EVT_HTSC_INDICATION\000"
 6438      455F4556 
 6438      545F4854 
 6438      53435F49 
 6438      4E444943 
 6439              	.LASF386:
 6440 430c 4359424C 		.ascii	"CYBLE_EVT_HIDSS_NOTIFICATION_ENABLED\000"
 6440      455F4556 
 6440      545F4849 
 6440      4453535F 
 6440      4E4F5449 
 6441              	.LASF418:
 6442 4331 4359424C 		.ascii	"CYBLE_EVT_HTSS_INDICATION_CONFIRMED\000"
 6442      455F4556 
 6442      545F4854 
 6442      53535F49 
 6442      4E444943 
 6443              	.LASF219:
 6444 4355 4359424C 		.ascii	"CYBLE_HIDS_DESCR_T\000"
 6444      455F4849 
 6444      44535F44 
 6444      45534352 
 6444      5F5400
ARM GAS  C:\Users\Intern\AppData\Local\Temp\ccVSLPFx.s 			page 167


 6445              	.LASF257:
 6446 4368 4359424C 		.ascii	"CYBLE_EVT_AIOSS_NOTIFICATION_DISABLED\000"
 6446      455F4556 
 6446      545F4149 
 6446      4F53535F 
 6446      4E4F5449 
 6447              	.LASF515:
 6448 438e 4359424C 		.ascii	"CYBLE_EVT_WPTSS_INDICATION_CONFIRMED\000"
 6448      455F4556 
 6448      545F5750 
 6448      5453535F 
 6448      494E4449 
 6449              	.LASF408:
 6450 43b3 4359424C 		.ascii	"CYBLE_EVT_HRSS_NOTIFICATION_DISABLED\000"
 6450      455F4556 
 6450      545F4852 
 6450      53535F4E 
 6450      4F544946 
 6451              		.ident	"GCC: (GNU Tools for ARM Embedded Processors) 5.4.1 20160609 (release) [ARM/embedded-5-bran
