ARM GAS  C:\Users\Intern\AppData\Local\Temp\ccZcKJ7T.s 			page 1


   1              		.syntax unified
   2              		.cpu cortex-m0
   3              		.fpu softvfp
   4              		.eabi_attribute 20, 1
   5              		.eabi_attribute 21, 1
   6              		.eabi_attribute 23, 3
   7              		.eabi_attribute 24, 1
   8              		.eabi_attribute 25, 1
   9              		.eabi_attribute 26, 1
  10              		.eabi_attribute 30, 1
  11              		.eabi_attribute 34, 0
  12              		.eabi_attribute 18, 4
  13              		.thumb
  14              		.syntax unified
  15              		.file	"cyfitter_cfg.c"
  16              		.text
  17              	.Ltext0:
  18              		.cfi_sections	.debug_frame
  19              		.section	.text.CyClockStartupError,"ax",%progbits
  20              		.align	2
  21              		.code	16
  22              		.thumb_func
  23              		.type	CyClockStartupError, %function
  24              	CyClockStartupError:
  25              	.LFB5:
  26              		.file 1 "Generated_Source\\PSoC4\\cyfitter_cfg.c"
   1:Generated_Source\PSoC4/cyfitter_cfg.c **** 
   2:Generated_Source\PSoC4/cyfitter_cfg.c **** /*******************************************************************************
   3:Generated_Source\PSoC4/cyfitter_cfg.c **** * File Name: cyfitter_cfg.c
   4:Generated_Source\PSoC4/cyfitter_cfg.c **** * 
   5:Generated_Source\PSoC4/cyfitter_cfg.c **** * PSoC Creator  4.2
   6:Generated_Source\PSoC4/cyfitter_cfg.c **** *
   7:Generated_Source\PSoC4/cyfitter_cfg.c **** * Description:
   8:Generated_Source\PSoC4/cyfitter_cfg.c **** * This file contains device initialization code.
   9:Generated_Source\PSoC4/cyfitter_cfg.c **** * Except for the user defined sections in CyClockStartupError(), this file should not be modified.
  10:Generated_Source\PSoC4/cyfitter_cfg.c **** * This file is automatically generated by PSoC Creator.
  11:Generated_Source\PSoC4/cyfitter_cfg.c **** *
  12:Generated_Source\PSoC4/cyfitter_cfg.c **** ********************************************************************************
  13:Generated_Source\PSoC4/cyfitter_cfg.c **** * Copyright (c) 2007-2018 Cypress Semiconductor.  All rights reserved.
  14:Generated_Source\PSoC4/cyfitter_cfg.c **** * You may use this file only in accordance with the license, terms, conditions, 
  15:Generated_Source\PSoC4/cyfitter_cfg.c **** * disclaimers, and limitations in the end user license agreement accompanying 
  16:Generated_Source\PSoC4/cyfitter_cfg.c **** * the software package with which this file was provided.
  17:Generated_Source\PSoC4/cyfitter_cfg.c **** ********************************************************************************/
  18:Generated_Source\PSoC4/cyfitter_cfg.c **** 
  19:Generated_Source\PSoC4/cyfitter_cfg.c **** #include <string.h>
  20:Generated_Source\PSoC4/cyfitter_cfg.c **** #include "cytypes.h"
  21:Generated_Source\PSoC4/cyfitter_cfg.c **** #include "cydevice_trm.h"
  22:Generated_Source\PSoC4/cyfitter_cfg.c **** #include "cyfitter.h"
  23:Generated_Source\PSoC4/cyfitter_cfg.c **** #include "CyLib.h"
  24:Generated_Source\PSoC4/cyfitter_cfg.c **** #include "CyLFClk.h"
  25:Generated_Source\PSoC4/cyfitter_cfg.c **** #include "cyfitter_cfg.h"
  26:Generated_Source\PSoC4/cyfitter_cfg.c **** #include "cyapicallbacks.h"
  27:Generated_Source\PSoC4/cyfitter_cfg.c **** 
  28:Generated_Source\PSoC4/cyfitter_cfg.c **** #define CY_NEED_CYCLOCKSTARTUPERROR 1
  29:Generated_Source\PSoC4/cyfitter_cfg.c **** 
  30:Generated_Source\PSoC4/cyfitter_cfg.c **** 
  31:Generated_Source\PSoC4/cyfitter_cfg.c **** #if defined(__GNUC__) || defined(__ARMCC_VERSION)
ARM GAS  C:\Users\Intern\AppData\Local\Temp\ccZcKJ7T.s 			page 2


  32:Generated_Source\PSoC4/cyfitter_cfg.c ****     #define CYPACKED 
  33:Generated_Source\PSoC4/cyfitter_cfg.c ****     #define CYPACKED_ATTR __attribute__ ((packed))
  34:Generated_Source\PSoC4/cyfitter_cfg.c ****     #define CYALIGNED __attribute__ ((aligned))
  35:Generated_Source\PSoC4/cyfitter_cfg.c ****     #define CY_CFG_UNUSED __attribute__ ((unused))
  36:Generated_Source\PSoC4/cyfitter_cfg.c ****     #ifndef CY_CFG_SECTION
  37:Generated_Source\PSoC4/cyfitter_cfg.c ****         #define CY_CFG_SECTION __attribute__ ((section(".psocinit")))
  38:Generated_Source\PSoC4/cyfitter_cfg.c ****     #endif
  39:Generated_Source\PSoC4/cyfitter_cfg.c ****     
  40:Generated_Source\PSoC4/cyfitter_cfg.c ****     #if defined(__ARMCC_VERSION)
  41:Generated_Source\PSoC4/cyfitter_cfg.c ****         #define CY_CFG_MEMORY_BARRIER() __memory_changed()
  42:Generated_Source\PSoC4/cyfitter_cfg.c ****     #else
  43:Generated_Source\PSoC4/cyfitter_cfg.c ****         #define CY_CFG_MEMORY_BARRIER() __sync_synchronize()
  44:Generated_Source\PSoC4/cyfitter_cfg.c ****     #endif
  45:Generated_Source\PSoC4/cyfitter_cfg.c ****     
  46:Generated_Source\PSoC4/cyfitter_cfg.c **** #elif defined(__ICCARM__)
  47:Generated_Source\PSoC4/cyfitter_cfg.c ****     #include <intrinsics.h>
  48:Generated_Source\PSoC4/cyfitter_cfg.c **** 
  49:Generated_Source\PSoC4/cyfitter_cfg.c ****     #define CYPACKED __packed
  50:Generated_Source\PSoC4/cyfitter_cfg.c ****     #define CYPACKED_ATTR 
  51:Generated_Source\PSoC4/cyfitter_cfg.c ****     #define CYALIGNED _Pragma("data_alignment=4")
  52:Generated_Source\PSoC4/cyfitter_cfg.c ****     #define CY_CFG_UNUSED _Pragma("diag_suppress=Pe177")
  53:Generated_Source\PSoC4/cyfitter_cfg.c ****     #define CY_CFG_SECTION _Pragma("location=\".psocinit\"")
  54:Generated_Source\PSoC4/cyfitter_cfg.c ****     
  55:Generated_Source\PSoC4/cyfitter_cfg.c ****     #define CY_CFG_MEMORY_BARRIER() __DMB()
  56:Generated_Source\PSoC4/cyfitter_cfg.c ****     
  57:Generated_Source\PSoC4/cyfitter_cfg.c **** #else
  58:Generated_Source\PSoC4/cyfitter_cfg.c ****     #error Unsupported toolchain
  59:Generated_Source\PSoC4/cyfitter_cfg.c **** #endif
  60:Generated_Source\PSoC4/cyfitter_cfg.c **** 
  61:Generated_Source\PSoC4/cyfitter_cfg.c **** #ifndef CYCODE
  62:Generated_Source\PSoC4/cyfitter_cfg.c ****     #define CYCODE
  63:Generated_Source\PSoC4/cyfitter_cfg.c **** #endif
  64:Generated_Source\PSoC4/cyfitter_cfg.c **** #ifndef CYDATA
  65:Generated_Source\PSoC4/cyfitter_cfg.c ****     #define CYDATA
  66:Generated_Source\PSoC4/cyfitter_cfg.c **** #endif
  67:Generated_Source\PSoC4/cyfitter_cfg.c **** #ifndef CYFAR
  68:Generated_Source\PSoC4/cyfitter_cfg.c ****     #define CYFAR
  69:Generated_Source\PSoC4/cyfitter_cfg.c **** #endif
  70:Generated_Source\PSoC4/cyfitter_cfg.c **** #ifndef CYXDATA
  71:Generated_Source\PSoC4/cyfitter_cfg.c ****     #define CYXDATA
  72:Generated_Source\PSoC4/cyfitter_cfg.c **** #endif
  73:Generated_Source\PSoC4/cyfitter_cfg.c **** 
  74:Generated_Source\PSoC4/cyfitter_cfg.c **** 
  75:Generated_Source\PSoC4/cyfitter_cfg.c **** CY_CFG_UNUSED
  76:Generated_Source\PSoC4/cyfitter_cfg.c **** static void CYMEMZERO(void *s, size_t n);
  77:Generated_Source\PSoC4/cyfitter_cfg.c **** CY_CFG_UNUSED
  78:Generated_Source\PSoC4/cyfitter_cfg.c **** static void CYMEMZERO(void *s, size_t n)
  79:Generated_Source\PSoC4/cyfitter_cfg.c **** {
  80:Generated_Source\PSoC4/cyfitter_cfg.c **** 	(void)memset(s, 0, n);
  81:Generated_Source\PSoC4/cyfitter_cfg.c **** }
  82:Generated_Source\PSoC4/cyfitter_cfg.c **** CY_CFG_UNUSED
  83:Generated_Source\PSoC4/cyfitter_cfg.c **** static void CYCONFIGCPY(void *dest, const void *src, size_t n);
  84:Generated_Source\PSoC4/cyfitter_cfg.c **** CY_CFG_UNUSED
  85:Generated_Source\PSoC4/cyfitter_cfg.c **** static void CYCONFIGCPY(void *dest, const void *src, size_t n)
  86:Generated_Source\PSoC4/cyfitter_cfg.c **** {
  87:Generated_Source\PSoC4/cyfitter_cfg.c **** 	(void)memcpy(dest, src, n);
  88:Generated_Source\PSoC4/cyfitter_cfg.c **** }
ARM GAS  C:\Users\Intern\AppData\Local\Temp\ccZcKJ7T.s 			page 3


  89:Generated_Source\PSoC4/cyfitter_cfg.c **** CY_CFG_UNUSED
  90:Generated_Source\PSoC4/cyfitter_cfg.c **** static void CYCONFIGCPYCODE(void *dest, const void *src, size_t n);
  91:Generated_Source\PSoC4/cyfitter_cfg.c **** CY_CFG_UNUSED
  92:Generated_Source\PSoC4/cyfitter_cfg.c **** static void CYCONFIGCPYCODE(void *dest, const void *src, size_t n)
  93:Generated_Source\PSoC4/cyfitter_cfg.c **** {
  94:Generated_Source\PSoC4/cyfitter_cfg.c **** 	(void)memcpy(dest, src, n);
  95:Generated_Source\PSoC4/cyfitter_cfg.c **** }
  96:Generated_Source\PSoC4/cyfitter_cfg.c **** 
  97:Generated_Source\PSoC4/cyfitter_cfg.c **** 
  98:Generated_Source\PSoC4/cyfitter_cfg.c **** 
  99:Generated_Source\PSoC4/cyfitter_cfg.c **** 
 100:Generated_Source\PSoC4/cyfitter_cfg.c **** /* Clock startup error codes                                                   */
 101:Generated_Source\PSoC4/cyfitter_cfg.c **** #define CYCLOCKSTART_NO_ERROR    0u
 102:Generated_Source\PSoC4/cyfitter_cfg.c **** #define CYCLOCKSTART_XTAL_ERROR  1u
 103:Generated_Source\PSoC4/cyfitter_cfg.c **** #define CYCLOCKSTART_32KHZ_ERROR 2u
 104:Generated_Source\PSoC4/cyfitter_cfg.c **** #define CYCLOCKSTART_PLL_ERROR   3u
 105:Generated_Source\PSoC4/cyfitter_cfg.c **** #define CYCLOCKSTART_FLL_ERROR   4u
 106:Generated_Source\PSoC4/cyfitter_cfg.c **** #define CYCLOCKSTART_WCO_ERROR   5u
 107:Generated_Source\PSoC4/cyfitter_cfg.c **** 
 108:Generated_Source\PSoC4/cyfitter_cfg.c **** 
 109:Generated_Source\PSoC4/cyfitter_cfg.c **** #ifdef CY_NEED_CYCLOCKSTARTUPERROR
 110:Generated_Source\PSoC4/cyfitter_cfg.c **** /*******************************************************************************
 111:Generated_Source\PSoC4/cyfitter_cfg.c **** * Function Name: CyClockStartupError
 112:Generated_Source\PSoC4/cyfitter_cfg.c **** ********************************************************************************
 113:Generated_Source\PSoC4/cyfitter_cfg.c **** * Summary:
 114:Generated_Source\PSoC4/cyfitter_cfg.c **** *  If an error is encountered during clock configuration (crystal startup error,
 115:Generated_Source\PSoC4/cyfitter_cfg.c **** *  PLL lock error, etc.), the system will end up here.  Unless reimplemented by
 116:Generated_Source\PSoC4/cyfitter_cfg.c **** *  the customer, this function will stop in an infinite loop.
 117:Generated_Source\PSoC4/cyfitter_cfg.c **** *
 118:Generated_Source\PSoC4/cyfitter_cfg.c **** * Parameters:
 119:Generated_Source\PSoC4/cyfitter_cfg.c **** *   void
 120:Generated_Source\PSoC4/cyfitter_cfg.c **** *
 121:Generated_Source\PSoC4/cyfitter_cfg.c **** * Return:
 122:Generated_Source\PSoC4/cyfitter_cfg.c **** *   void
 123:Generated_Source\PSoC4/cyfitter_cfg.c **** *
 124:Generated_Source\PSoC4/cyfitter_cfg.c **** *******************************************************************************/
 125:Generated_Source\PSoC4/cyfitter_cfg.c **** CY_CFG_UNUSED
 126:Generated_Source\PSoC4/cyfitter_cfg.c **** static void CyClockStartupError(uint8 errorCode);
 127:Generated_Source\PSoC4/cyfitter_cfg.c **** CY_CFG_UNUSED
 128:Generated_Source\PSoC4/cyfitter_cfg.c **** static void CyClockStartupError(uint8 errorCode)
 129:Generated_Source\PSoC4/cyfitter_cfg.c **** {
  27              		.loc 1 129 0
  28              		.cfi_startproc
  29              		@ Volatile: function does not return.
  30              		@ args = 0, pretend = 0, frame = 0
  31              		@ frame_needed = 0, uses_anonymous_args = 0
  32              		@ link register save eliminated.
  33              	.LVL0:
  34              	.L2:
  35 0000 FEE7     		b	.L2
  36              		.cfi_endproc
  37              	.LFE5:
  38              		.size	CyClockStartupError, .-CyClockStartupError
  39 0002 C046     		.section	.text.AnalogSetDefault,"ax",%progbits
  40              		.align	2
  41              		.code	16
  42              		.thumb_func
ARM GAS  C:\Users\Intern\AppData\Local\Temp\ccZcKJ7T.s 			page 4


  43              		.type	AnalogSetDefault, %function
  44              	AnalogSetDefault:
  45              	.LFB7:
 130:Generated_Source\PSoC4/cyfitter_cfg.c ****     /* To remove the compiler warning if errorCode not used.                */
 131:Generated_Source\PSoC4/cyfitter_cfg.c ****     errorCode = errorCode;
 132:Generated_Source\PSoC4/cyfitter_cfg.c **** 
 133:Generated_Source\PSoC4/cyfitter_cfg.c ****     /* If we have a clock startup error (bad MHz crystal, PLL lock, etc.),  */
 134:Generated_Source\PSoC4/cyfitter_cfg.c ****     /* we will end up here to allow the customer to implement something to  */
 135:Generated_Source\PSoC4/cyfitter_cfg.c ****     /* deal with the clock condition.                                       */
 136:Generated_Source\PSoC4/cyfitter_cfg.c **** 
 137:Generated_Source\PSoC4/cyfitter_cfg.c **** #ifdef CY_CFG_CLOCK_STARTUP_ERROR_CALLBACK
 138:Generated_Source\PSoC4/cyfitter_cfg.c ****     CY_CFG_Clock_Startup_ErrorCallback();
 139:Generated_Source\PSoC4/cyfitter_cfg.c **** #else
 140:Generated_Source\PSoC4/cyfitter_cfg.c ****     /*  If not using CY_CFG_CLOCK_STARTUP_ERROR_CALLBACK, place your clock startup code here. */
 141:Generated_Source\PSoC4/cyfitter_cfg.c ****     /* `#START CyClockStartupError` */
 142:Generated_Source\PSoC4/cyfitter_cfg.c **** 
 143:Generated_Source\PSoC4/cyfitter_cfg.c **** 
 144:Generated_Source\PSoC4/cyfitter_cfg.c **** 
 145:Generated_Source\PSoC4/cyfitter_cfg.c ****     /* `#END` */
 146:Generated_Source\PSoC4/cyfitter_cfg.c **** 
 147:Generated_Source\PSoC4/cyfitter_cfg.c ****     while(1) {}
 148:Generated_Source\PSoC4/cyfitter_cfg.c **** #endif /* CY_CFG_CLOCK_STARTUP_ERROR_CALLBACK */
 149:Generated_Source\PSoC4/cyfitter_cfg.c **** }
 150:Generated_Source\PSoC4/cyfitter_cfg.c **** #endif
 151:Generated_Source\PSoC4/cyfitter_cfg.c **** 
 152:Generated_Source\PSoC4/cyfitter_cfg.c **** 
 153:Generated_Source\PSoC4/cyfitter_cfg.c **** 
 154:Generated_Source\PSoC4/cyfitter_cfg.c **** /*******************************************************************************
 155:Generated_Source\PSoC4/cyfitter_cfg.c **** * Function Name: ClockSetup
 156:Generated_Source\PSoC4/cyfitter_cfg.c **** ********************************************************************************
 157:Generated_Source\PSoC4/cyfitter_cfg.c **** *
 158:Generated_Source\PSoC4/cyfitter_cfg.c **** * Summary:
 159:Generated_Source\PSoC4/cyfitter_cfg.c **** *   Performs the initialization of all of the clocks in the device based on the
 160:Generated_Source\PSoC4/cyfitter_cfg.c **** *   settings in the Clock tab of the DWR.  This includes enabling the requested
 161:Generated_Source\PSoC4/cyfitter_cfg.c **** *   clocks and setting the necessary dividers to produce the desired frequency. 
 162:Generated_Source\PSoC4/cyfitter_cfg.c **** *
 163:Generated_Source\PSoC4/cyfitter_cfg.c **** * Parameters:
 164:Generated_Source\PSoC4/cyfitter_cfg.c **** *   void
 165:Generated_Source\PSoC4/cyfitter_cfg.c **** *
 166:Generated_Source\PSoC4/cyfitter_cfg.c **** * Return:
 167:Generated_Source\PSoC4/cyfitter_cfg.c **** *   void
 168:Generated_Source\PSoC4/cyfitter_cfg.c **** *
 169:Generated_Source\PSoC4/cyfitter_cfg.c **** *******************************************************************************/
 170:Generated_Source\PSoC4/cyfitter_cfg.c **** static void ClockSetup(void);
 171:Generated_Source\PSoC4/cyfitter_cfg.c **** CY_CFG_SECTION
 172:Generated_Source\PSoC4/cyfitter_cfg.c **** static void ClockSetup(void)
 173:Generated_Source\PSoC4/cyfitter_cfg.c **** {
 174:Generated_Source\PSoC4/cyfitter_cfg.c **** 	uint8 ecoStatus;
 175:Generated_Source\PSoC4/cyfitter_cfg.c **** 
 176:Generated_Source\PSoC4/cyfitter_cfg.c **** 	/* Set Flash Cycles based on max possible frequency in case a glitch occurs during ClockSetup(). *
 177:Generated_Source\PSoC4/cyfitter_cfg.c **** 	CY_SET_REG32((void CYXDATA *)(CYREG_CPUSS_FLASH_CTL), (0x0012u));
 178:Generated_Source\PSoC4/cyfitter_cfg.c **** 	/* Setup and trim IMO based on desired frequency. */
 179:Generated_Source\PSoC4/cyfitter_cfg.c **** 	CySysClkWriteImoFreq(48u);
 180:Generated_Source\PSoC4/cyfitter_cfg.c **** 	/* CYDEV_CLK_ILO_CONFIG Starting address: CYDEV_CLK_ILO_CONFIG */
 181:Generated_Source\PSoC4/cyfitter_cfg.c **** 	CY_SET_REG32((void *)(CYREG_CLK_ILO_CONFIG), 0x80000006u);
 182:Generated_Source\PSoC4/cyfitter_cfg.c **** 
 183:Generated_Source\PSoC4/cyfitter_cfg.c **** 
ARM GAS  C:\Users\Intern\AppData\Local\Temp\ccZcKJ7T.s 			page 5


 184:Generated_Source\PSoC4/cyfitter_cfg.c **** 	/* Enable fast start mode for XO */
 185:Generated_Source\PSoC4/cyfitter_cfg.c **** 	CY_SET_REG32((void*)CYREG_BLE_BLERD_BB_XO, CY_GET_REG32((void*)CYREG_BLE_BLERD_BB_XO) | (uint32)0x
 186:Generated_Source\PSoC4/cyfitter_cfg.c **** 	CY_SET_REG32((void *)(CYREG_BLE_BLERD_BB_XO_CAPTRIM), 0x00003E2Du);
 187:Generated_Source\PSoC4/cyfitter_cfg.c **** 	/*Set XTAL(ECO) divider*/
 188:Generated_Source\PSoC4/cyfitter_cfg.c **** 	CY_SET_REG32((void *)(CYREG_BLE_BLESS_XTAL_CLK_DIV_CONFIG), 0x00000000u);
 189:Generated_Source\PSoC4/cyfitter_cfg.c **** 	/* Disable Crystal Stable Interrupt before enabling ECO */
 190:Generated_Source\PSoC4/cyfitter_cfg.c **** 	CY_SET_REG32((void*)CYREG_BLE_BLESS_LL_DSM_CTRL, CY_GET_REG32((void*)CYREG_BLE_BLESS_LL_DSM_CTRL) 
 191:Generated_Source\PSoC4/cyfitter_cfg.c **** 	/* Start the ECO and check status since it is needed for HFCLK */
 192:Generated_Source\PSoC4/cyfitter_cfg.c **** 	ecoStatus = CySysClkEcoStart(2000u);
 193:Generated_Source\PSoC4/cyfitter_cfg.c **** 	if (ecoStatus != CYRET_SUCCESS)
 194:Generated_Source\PSoC4/cyfitter_cfg.c **** 	{
 195:Generated_Source\PSoC4/cyfitter_cfg.c **** 		CyClockStartupError(CYCLOCKSTART_XTAL_ERROR);
 196:Generated_Source\PSoC4/cyfitter_cfg.c **** 	}
 197:Generated_Source\PSoC4/cyfitter_cfg.c **** 	CyDelayUs(1500u); /* Wait to stabilize */
 198:Generated_Source\PSoC4/cyfitter_cfg.c **** 
 199:Generated_Source\PSoC4/cyfitter_cfg.c **** 	/* Setup phase aligned clocks */
 200:Generated_Source\PSoC4/cyfitter_cfg.c **** 
 201:Generated_Source\PSoC4/cyfitter_cfg.c **** 	/* CYDEV_CLK_SELECT Starting address: CYDEV_CLK_SELECT */
 202:Generated_Source\PSoC4/cyfitter_cfg.c **** 	CY_SET_REG32((void *)(CYREG_CLK_SELECT), 0x00000092u);
 203:Generated_Source\PSoC4/cyfitter_cfg.c **** 
 204:Generated_Source\PSoC4/cyfitter_cfg.c **** 	/* CYDEV_CLK_IMO_CONFIG Starting address: CYDEV_CLK_IMO_CONFIG */
 205:Generated_Source\PSoC4/cyfitter_cfg.c **** 	CY_SET_REG32((void *)(CYREG_CLK_IMO_CONFIG), 0x00000000u);
 206:Generated_Source\PSoC4/cyfitter_cfg.c **** 
 207:Generated_Source\PSoC4/cyfitter_cfg.c **** 	(void)CyIntSetVector(8u, &CySysWdtIsr);
 208:Generated_Source\PSoC4/cyfitter_cfg.c **** 	CyIntEnable(8u);
 209:Generated_Source\PSoC4/cyfitter_cfg.c **** 	CY_SET_REG32((void *)(CYREG_WDT_CONFIG), 0x00000000u);
 210:Generated_Source\PSoC4/cyfitter_cfg.c **** 	/* Set Flash Cycles based on newly configured 24.00MHz HFCLK. */
 211:Generated_Source\PSoC4/cyfitter_cfg.c **** 	CY_SET_REG32((void CYXDATA *)(CYREG_CPUSS_FLASH_CTL), (0x0011u));
 212:Generated_Source\PSoC4/cyfitter_cfg.c **** }
 213:Generated_Source\PSoC4/cyfitter_cfg.c **** 
 214:Generated_Source\PSoC4/cyfitter_cfg.c **** 
 215:Generated_Source\PSoC4/cyfitter_cfg.c **** /* Analog API Functions */
 216:Generated_Source\PSoC4/cyfitter_cfg.c **** 
 217:Generated_Source\PSoC4/cyfitter_cfg.c **** 
 218:Generated_Source\PSoC4/cyfitter_cfg.c **** /*******************************************************************************
 219:Generated_Source\PSoC4/cyfitter_cfg.c **** * Function Name: AnalogSetDefault
 220:Generated_Source\PSoC4/cyfitter_cfg.c **** ********************************************************************************
 221:Generated_Source\PSoC4/cyfitter_cfg.c **** *
 222:Generated_Source\PSoC4/cyfitter_cfg.c **** * Summary:
 223:Generated_Source\PSoC4/cyfitter_cfg.c **** *  Sets up the analog portions of the chip to default values based on chip
 224:Generated_Source\PSoC4/cyfitter_cfg.c **** *  configuration options from the project.
 225:Generated_Source\PSoC4/cyfitter_cfg.c **** *
 226:Generated_Source\PSoC4/cyfitter_cfg.c **** * Parameters:
 227:Generated_Source\PSoC4/cyfitter_cfg.c **** *  void
 228:Generated_Source\PSoC4/cyfitter_cfg.c **** *
 229:Generated_Source\PSoC4/cyfitter_cfg.c **** * Return:
 230:Generated_Source\PSoC4/cyfitter_cfg.c **** *  void
 231:Generated_Source\PSoC4/cyfitter_cfg.c **** *
 232:Generated_Source\PSoC4/cyfitter_cfg.c **** *******************************************************************************/
 233:Generated_Source\PSoC4/cyfitter_cfg.c **** static void AnalogSetDefault(void);
 234:Generated_Source\PSoC4/cyfitter_cfg.c **** static void AnalogSetDefault(void)
 235:Generated_Source\PSoC4/cyfitter_cfg.c **** {
  46              		.loc 1 235 0
  47              		.cfi_startproc
  48              		@ args = 0, pretend = 0, frame = 0
  49              		@ frame_needed = 0, uses_anonymous_args = 0
  50              		@ link register save eliminated.
ARM GAS  C:\Users\Intern\AppData\Local\Temp\ccZcKJ7T.s 			page 6


 236:Generated_Source\PSoC4/cyfitter_cfg.c **** 	CY_SET_XTND_REG32((void CYFAR *)CYREG_CTBM0_DFT_CTRL, 0x00000003u);
  51              		.loc 1 236 0
  52 0000 0323     		movs	r3, #3
  53 0002 044A     		ldr	r2, .L4
  54 0004 1360     		str	r3, [r2]
 237:Generated_Source\PSoC4/cyfitter_cfg.c **** 	CY_SET_XTND_REG32((void CYFAR *)CYREG_CTBM1_DFT_CTRL, 0x00000003u);
  55              		.loc 1 237 0
  56 0006 044A     		ldr	r2, .L4+4
  57 0008 1360     		str	r3, [r2]
 238:Generated_Source\PSoC4/cyfitter_cfg.c **** 	CY_SET_XTND_REG32((void CYFAR *)CYREG_PASS_DSAB_DSAB_CTRL, 0x00000000u);
  58              		.loc 1 238 0
  59 000a 0022     		movs	r2, #0
  60 000c 034B     		ldr	r3, .L4+8
  61 000e 1A60     		str	r2, [r3]
 239:Generated_Source\PSoC4/cyfitter_cfg.c **** }
  62              		.loc 1 239 0
  63              		@ sp needed
  64 0010 7047     		bx	lr
  65              	.L5:
  66 0012 C046     		.align	2
  67              	.L4:
  68 0014 30003040 		.word	1076887600
  69 0018 30003140 		.word	1076953136
  70 001c 000E3F40 		.word	1077874176
  71              		.cfi_endproc
  72              	.LFE7:
  73              		.size	AnalogSetDefault, .-AnalogSetDefault
  74              		.section	.text.CYMEMZERO,"ax",%progbits
  75              		.align	2
  76              		.code	16
  77              		.thumb_func
  78              		.type	CYMEMZERO, %function
  79              	CYMEMZERO:
  80              	.LFB2:
  79:Generated_Source\PSoC4/cyfitter_cfg.c **** 	(void)memset(s, 0, n);
  81              		.loc 1 79 0
  82              		.cfi_startproc
  83              		@ args = 0, pretend = 0, frame = 0
  84              		@ frame_needed = 0, uses_anonymous_args = 0
  85              	.LVL1:
  86 0000 10B5     		push	{r4, lr}
  87              		.cfi_def_cfa_offset 8
  88              		.cfi_offset 4, -8
  89              		.cfi_offset 14, -4
  90 0002 0A00     		movs	r2, r1
  80:Generated_Source\PSoC4/cyfitter_cfg.c **** }
  91              		.loc 1 80 0
  92 0004 0021     		movs	r1, #0
  93              	.LVL2:
  94 0006 FFF7FEFF 		bl	memset
  95              	.LVL3:
  81:Generated_Source\PSoC4/cyfitter_cfg.c **** CY_CFG_UNUSED
  96              		.loc 1 81 0
  97              		@ sp needed
  98 000a 10BD     		pop	{r4, pc}
  99              		.cfi_endproc
 100              	.LFE2:
ARM GAS  C:\Users\Intern\AppData\Local\Temp\ccZcKJ7T.s 			page 7


 101              		.size	CYMEMZERO, .-CYMEMZERO
 102              		.section	.psocinit,"ax",%progbits
 103              		.align	2
 104              		.code	16
 105              		.thumb_func
 106              		.type	ClockSetup, %function
 107              	ClockSetup:
 108              	.LFB6:
 173:Generated_Source\PSoC4/cyfitter_cfg.c **** 	uint8 ecoStatus;
 109              		.loc 1 173 0
 110              		.cfi_startproc
 111              		@ args = 0, pretend = 0, frame = 0
 112              		@ frame_needed = 0, uses_anonymous_args = 0
 113 0000 10B5     		push	{r4, lr}
 114              		.cfi_def_cfa_offset 8
 115              		.cfi_offset 4, -8
 116              		.cfi_offset 14, -4
 177:Generated_Source\PSoC4/cyfitter_cfg.c **** 	/* Setup and trim IMO based on desired frequency. */
 117              		.loc 1 177 0
 118 0002 1222     		movs	r2, #18
 119 0004 1B4B     		ldr	r3, .L9
 120 0006 1A60     		str	r2, [r3]
 179:Generated_Source\PSoC4/cyfitter_cfg.c **** 	/* CYDEV_CLK_ILO_CONFIG Starting address: CYDEV_CLK_ILO_CONFIG */
 121              		.loc 1 179 0
 122 0008 3020     		movs	r0, #48
 123 000a FFF7FEFF 		bl	CySysClkWriteImoFreq
 124              	.LVL4:
 181:Generated_Source\PSoC4/cyfitter_cfg.c **** 
 125              		.loc 1 181 0
 126 000e 1A4A     		ldr	r2, .L9+4
 127 0010 1A4B     		ldr	r3, .L9+8
 128 0012 1A60     		str	r2, [r3]
 185:Generated_Source\PSoC4/cyfitter_cfg.c **** 	CY_SET_REG32((void *)(CYREG_BLE_BLERD_BB_XO_CAPTRIM), 0x00003E2Du);
 129              		.loc 1 185 0
 130 0014 1A4A     		ldr	r2, .L9+12
 131 0016 1168     		ldr	r1, [r2]
 132 0018 0223     		movs	r3, #2
 133 001a 0B43     		orrs	r3, r1
 134 001c 1360     		str	r3, [r2]
 186:Generated_Source\PSoC4/cyfitter_cfg.c **** 	/*Set XTAL(ECO) divider*/
 135              		.loc 1 186 0
 136 001e 194A     		ldr	r2, .L9+16
 137 0020 194B     		ldr	r3, .L9+20
 138 0022 1A60     		str	r2, [r3]
 188:Generated_Source\PSoC4/cyfitter_cfg.c **** 	/* Disable Crystal Stable Interrupt before enabling ECO */
 139              		.loc 1 188 0
 140 0024 0022     		movs	r2, #0
 141 0026 194B     		ldr	r3, .L9+24
 142 0028 1A60     		str	r2, [r3]
 190:Generated_Source\PSoC4/cyfitter_cfg.c **** 	/* Start the ECO and check status since it is needed for HFCLK */
 143              		.loc 1 190 0
 144 002a 194A     		ldr	r2, .L9+28
 145 002c 1368     		ldr	r3, [r2]
 146 002e 0821     		movs	r1, #8
 147 0030 8B43     		bics	r3, r1
 148 0032 1360     		str	r3, [r2]
 192:Generated_Source\PSoC4/cyfitter_cfg.c **** 	if (ecoStatus != CYRET_SUCCESS)
ARM GAS  C:\Users\Intern\AppData\Local\Temp\ccZcKJ7T.s 			page 8


 149              		.loc 1 192 0
 150 0034 FA20     		movs	r0, #250
 151 0036 C000     		lsls	r0, r0, #3
 152 0038 FFF7FEFF 		bl	CySysClkEcoStart
 153              	.LVL5:
 154 003c C0B2     		uxtb	r0, r0
 155              	.LVL6:
 193:Generated_Source\PSoC4/cyfitter_cfg.c **** 	{
 156              		.loc 1 193 0
 157 003e 0028     		cmp	r0, #0
 158 0040 02D0     		beq	.L8
 195:Generated_Source\PSoC4/cyfitter_cfg.c **** 	}
 159              		.loc 1 195 0
 160 0042 0120     		movs	r0, #1
 161              	.LVL7:
 162 0044 FFF7FEFF 		bl	CyClockStartupError
 163              	.LVL8:
 164              	.L8:
 197:Generated_Source\PSoC4/cyfitter_cfg.c **** 
 165              		.loc 1 197 0
 166 0048 1248     		ldr	r0, .L9+32
 167              	.LVL9:
 168 004a FFF7FEFF 		bl	CyDelayUs
 169              	.LVL10:
 202:Generated_Source\PSoC4/cyfitter_cfg.c **** 
 170              		.loc 1 202 0
 171 004e 9222     		movs	r2, #146
 172 0050 114B     		ldr	r3, .L9+36
 173 0052 1A60     		str	r2, [r3]
 205:Generated_Source\PSoC4/cyfitter_cfg.c **** 
 174              		.loc 1 205 0
 175 0054 0024     		movs	r4, #0
 176 0056 114B     		ldr	r3, .L9+40
 177 0058 1C60     		str	r4, [r3]
 207:Generated_Source\PSoC4/cyfitter_cfg.c **** 	CyIntEnable(8u);
 178              		.loc 1 207 0
 179 005a 1149     		ldr	r1, .L9+44
 180 005c 0820     		movs	r0, #8
 181 005e FFF7FEFF 		bl	CyIntSetVector
 182              	.LVL11:
 208:Generated_Source\PSoC4/cyfitter_cfg.c **** 	CY_SET_REG32((void *)(CYREG_WDT_CONFIG), 0x00000000u);
 183              		.loc 1 208 0
 184 0062 0820     		movs	r0, #8
 185 0064 FFF7FEFF 		bl	CyIntEnable
 186              	.LVL12:
 209:Generated_Source\PSoC4/cyfitter_cfg.c **** 	/* Set Flash Cycles based on newly configured 24.00MHz HFCLK. */
 187              		.loc 1 209 0
 188 0068 0E4B     		ldr	r3, .L9+48
 189 006a 1C60     		str	r4, [r3]
 211:Generated_Source\PSoC4/cyfitter_cfg.c **** }
 190              		.loc 1 211 0
 191 006c 1122     		movs	r2, #17
 192 006e 014B     		ldr	r3, .L9
 193 0070 1A60     		str	r2, [r3]
 212:Generated_Source\PSoC4/cyfitter_cfg.c **** 
 194              		.loc 1 212 0
 195              		@ sp needed
ARM GAS  C:\Users\Intern\AppData\Local\Temp\ccZcKJ7T.s 			page 9


 196 0072 10BD     		pop	{r4, pc}
 197              	.L10:
 198              		.align	2
 199              	.L9:
 200 0074 30001040 		.word	1074790448
 201 0078 06000080 		.word	-2147483642
 202 007c 04010B40 		.word	1074462980
 203 0080 78002E40 		.word	1076756600
 204 0084 2D3E0000 		.word	15917
 205 0088 7C002E40 		.word	1076756604
 206 008c 64F02E40 		.word	1076818020
 207 0090 6CF02E40 		.word	1076818028
 208 0094 DC050000 		.word	1500
 209 0098 00010B40 		.word	1074462976
 210 009c 08010B40 		.word	1074462984
 211 00a0 00000000 		.word	CySysWdtIsr
 212 00a4 0C020B40 		.word	1074463244
 213              		.cfi_endproc
 214              	.LFE6:
 215              		.size	ClockSetup, .-ClockSetup
 216              		.align	2
 217              		.global	cyfitter_cfg
 218              		.code	16
 219              		.thumb_func
 220              		.type	cyfitter_cfg, %function
 221              	cyfitter_cfg:
 222              	.LFB8:
 240:Generated_Source\PSoC4/cyfitter_cfg.c **** 
 241:Generated_Source\PSoC4/cyfitter_cfg.c **** 
 242:Generated_Source\PSoC4/cyfitter_cfg.c **** 
 243:Generated_Source\PSoC4/cyfitter_cfg.c **** 
 244:Generated_Source\PSoC4/cyfitter_cfg.c **** /*******************************************************************************
 245:Generated_Source\PSoC4/cyfitter_cfg.c **** * Function Name: cyfitter_cfg
 246:Generated_Source\PSoC4/cyfitter_cfg.c **** ********************************************************************************
 247:Generated_Source\PSoC4/cyfitter_cfg.c **** * Summary:
 248:Generated_Source\PSoC4/cyfitter_cfg.c **** *  This function is called by the start-up code for the selected device. It
 249:Generated_Source\PSoC4/cyfitter_cfg.c **** *  performs all of the necessary device configuration based on the design
 250:Generated_Source\PSoC4/cyfitter_cfg.c **** *  settings.  This includes settings from the Design Wide Resources (DWR) such
 251:Generated_Source\PSoC4/cyfitter_cfg.c **** *  as Clocks and Pins as well as any component configuration that is necessary.
 252:Generated_Source\PSoC4/cyfitter_cfg.c **** *
 253:Generated_Source\PSoC4/cyfitter_cfg.c **** * Parameters:
 254:Generated_Source\PSoC4/cyfitter_cfg.c **** *   void
 255:Generated_Source\PSoC4/cyfitter_cfg.c **** *
 256:Generated_Source\PSoC4/cyfitter_cfg.c **** * Return:
 257:Generated_Source\PSoC4/cyfitter_cfg.c **** *   void
 258:Generated_Source\PSoC4/cyfitter_cfg.c **** *
 259:Generated_Source\PSoC4/cyfitter_cfg.c **** *******************************************************************************/
 260:Generated_Source\PSoC4/cyfitter_cfg.c **** CY_CFG_SECTION
 261:Generated_Source\PSoC4/cyfitter_cfg.c **** void cyfitter_cfg(void)
 262:Generated_Source\PSoC4/cyfitter_cfg.c **** {
 223              		.loc 1 262 0
 224              		.cfi_startproc
 225              		@ args = 0, pretend = 0, frame = 0
 226              		@ frame_needed = 0, uses_anonymous_args = 0
 227 00a8 10B5     		push	{r4, lr}
 228              		.cfi_def_cfa_offset 8
 229              		.cfi_offset 4, -8
ARM GAS  C:\Users\Intern\AppData\Local\Temp\ccZcKJ7T.s 			page 10


 230              		.cfi_offset 14, -4
 263:Generated_Source\PSoC4/cyfitter_cfg.c **** 	/* Disable interrupts by default. Let user enable if/when they want. */
 264:Generated_Source\PSoC4/cyfitter_cfg.c **** 	CyGlobalIntDisable;
 231              		.loc 1 264 0
 232              		.syntax divided
 233              	@ 264 "Generated_Source\PSoC4\cyfitter_cfg.c" 1
 234 00aa 72B6     		CPSID   i
 235              	@ 0 "" 2
 265:Generated_Source\PSoC4/cyfitter_cfg.c **** 
 266:Generated_Source\PSoC4/cyfitter_cfg.c **** 	CY_SET_REG32((void *)(CYREG_BLE_BLESS_LL_DSM_CTRL), 0x00000000u);
 236              		.loc 1 266 0
 237              		.thumb
 238              		.syntax unified
 239 00ac 0022     		movs	r2, #0
 240 00ae 164B     		ldr	r3, .L14
 241 00b0 1A60     		str	r2, [r3]
 242              	.LVL13:
 243              	.LBB2:
 267:Generated_Source\PSoC4/cyfitter_cfg.c **** 
 268:Generated_Source\PSoC4/cyfitter_cfg.c **** 	{
 269:Generated_Source\PSoC4/cyfitter_cfg.c **** 
 270:Generated_Source\PSoC4/cyfitter_cfg.c **** 		CYPACKED typedef struct {
 271:Generated_Source\PSoC4/cyfitter_cfg.c **** 			void CYFAR *address;
 272:Generated_Source\PSoC4/cyfitter_cfg.c **** 			uint16 size;
 273:Generated_Source\PSoC4/cyfitter_cfg.c **** 		} CYPACKED_ATTR cfg_memset_t;
 274:Generated_Source\PSoC4/cyfitter_cfg.c **** 
 275:Generated_Source\PSoC4/cyfitter_cfg.c **** 		static const cfg_memset_t CYCODE cfg_memset_list[] = {
 276:Generated_Source\PSoC4/cyfitter_cfg.c **** 			/* address, size */
 277:Generated_Source\PSoC4/cyfitter_cfg.c **** 			{(void CYFAR *)(CYDEV_UDB_P0_U0_BASE), 1024u},
 278:Generated_Source\PSoC4/cyfitter_cfg.c **** 			{(void CYFAR *)(CYDEV_UDB_DSI0_BASE), 1024u},
 279:Generated_Source\PSoC4/cyfitter_cfg.c **** 		};
 280:Generated_Source\PSoC4/cyfitter_cfg.c **** 
 281:Generated_Source\PSoC4/cyfitter_cfg.c **** 		uint8 CYDATA i;
 282:Generated_Source\PSoC4/cyfitter_cfg.c **** 
 283:Generated_Source\PSoC4/cyfitter_cfg.c **** 		/* Zero out critical memory blocks before beginning configuration */
 284:Generated_Source\PSoC4/cyfitter_cfg.c **** 		for (i = 0u; i < (sizeof(cfg_memset_list)/sizeof(cfg_memset_list[0])); i++)
 244              		.loc 1 284 0
 245 00b2 0024     		movs	r4, #0
 246 00b4 0FE0     		b	.L12
 247              	.LVL14:
 248              	.L13:
 249              	.LBB3:
 285:Generated_Source\PSoC4/cyfitter_cfg.c **** 		{
 286:Generated_Source\PSoC4/cyfitter_cfg.c **** 			const cfg_memset_t CYCODE * CYDATA ms = &cfg_memset_list[i];
 287:Generated_Source\PSoC4/cyfitter_cfg.c **** 			CYMEMZERO(ms->address, (size_t)(uint32)(ms->size));
 250              		.loc 1 287 0 discriminator 3
 251 00b6 1548     		ldr	r0, .L14+4
 252 00b8 6200     		lsls	r2, r4, #1
 253 00ba 1319     		adds	r3, r2, r4
 254 00bc 5900     		lsls	r1, r3, #1
 255 00be 0B00     		movs	r3, r1
 256 00c0 4118     		adds	r1, r0, r1
 257 00c2 8988     		ldrh	r1, [r1, #4]
 258 00c4 1A5A     		ldrh	r2, [r3, r0]
 259 00c6 C318     		adds	r3, r0, r3
 260 00c8 5888     		ldrh	r0, [r3, #2]
 261 00ca 0004     		lsls	r0, r0, #16
ARM GAS  C:\Users\Intern\AppData\Local\Temp\ccZcKJ7T.s 			page 11


 262 00cc 1043     		orrs	r0, r2
 263 00ce FFF7FEFF 		bl	CYMEMZERO
 264              	.LVL15:
 265              	.LBE3:
 284:Generated_Source\PSoC4/cyfitter_cfg.c **** 		{
 266              		.loc 1 284 0 discriminator 3
 267 00d2 0134     		adds	r4, r4, #1
 268              	.LVL16:
 269 00d4 E4B2     		uxtb	r4, r4
 270              	.LVL17:
 271              	.L12:
 284:Generated_Source\PSoC4/cyfitter_cfg.c **** 		{
 272              		.loc 1 284 0 is_stmt 0 discriminator 1
 273 00d6 012C     		cmp	r4, #1
 274 00d8 EDD9     		bls	.L13
 288:Generated_Source\PSoC4/cyfitter_cfg.c **** 		}
 289:Generated_Source\PSoC4/cyfitter_cfg.c **** 
 290:Generated_Source\PSoC4/cyfitter_cfg.c **** 		/* HSIOM Starting address: CYDEV_HSIOM_BASE */
 291:Generated_Source\PSoC4/cyfitter_cfg.c **** 		CY_SET_REG32((void *)(CYDEV_HSIOM_BASE), 0xEE000000u);
 275              		.loc 1 291 0 is_stmt 1
 276 00da EE22     		movs	r2, #238
 277 00dc 1206     		lsls	r2, r2, #24
 278 00de 0C4B     		ldr	r3, .L14+8
 279 00e0 1A60     		str	r2, [r3]
 292:Generated_Source\PSoC4/cyfitter_cfg.c **** 
 293:Generated_Source\PSoC4/cyfitter_cfg.c **** 		/* UDB_PA_0 Starting address: CYDEV_UDB_PA0_BASE */
 294:Generated_Source\PSoC4/cyfitter_cfg.c **** 		CY_SET_REG32((void *)(CYDEV_UDB_PA0_BASE), 0x00990000u);
 280              		.loc 1 294 0
 281 00e2 9922     		movs	r2, #153
 282 00e4 1204     		lsls	r2, r2, #16
 283 00e6 0B4B     		ldr	r3, .L14+12
 284 00e8 1A60     		str	r2, [r3]
 295:Generated_Source\PSoC4/cyfitter_cfg.c **** 
 296:Generated_Source\PSoC4/cyfitter_cfg.c **** 		/* Enable digital routing */
 297:Generated_Source\PSoC4/cyfitter_cfg.c **** 		CY_SET_XTND_REG8((void *)CYREG_UDB_UDBIF_BANK_CTL, (uint8)(CY_GET_XTND_REG8((void *)CYREG_UDB_UDB
 285              		.loc 1 297 0
 286 00ea 0B4A     		ldr	r2, .L14+16
 287 00ec 1178     		ldrb	r1, [r2]
 288 00ee 0623     		movs	r3, #6
 289 00f0 0B43     		orrs	r3, r1
 290 00f2 DBB2     		uxtb	r3, r3
 291 00f4 1370     		strb	r3, [r2]
 292              	.LBE2:
 298:Generated_Source\PSoC4/cyfitter_cfg.c **** 	}
 299:Generated_Source\PSoC4/cyfitter_cfg.c **** 
 300:Generated_Source\PSoC4/cyfitter_cfg.c **** 	/* Perform second pass device configuration. These items must be configured in specific order afte
 301:Generated_Source\PSoC4/cyfitter_cfg.c **** 	/* IOPINS0_0 Starting address: CYDEV_GPIO_PRT0_BASE */
 302:Generated_Source\PSoC4/cyfitter_cfg.c **** 	CY_SET_REG32((void *)(CYREG_GPIO_PRT0_PC), 0x00D80000u);
 293              		.loc 1 302 0
 294 00f6 D822     		movs	r2, #216
 295 00f8 1204     		lsls	r2, r2, #16
 296 00fa 084B     		ldr	r3, .L14+20
 297 00fc 1A60     		str	r2, [r3]
 303:Generated_Source\PSoC4/cyfitter_cfg.c **** 
 304:Generated_Source\PSoC4/cyfitter_cfg.c **** 
 305:Generated_Source\PSoC4/cyfitter_cfg.c **** 	/* Setup clocks based on selections from Clock DWR */
 306:Generated_Source\PSoC4/cyfitter_cfg.c **** 	ClockSetup();
ARM GAS  C:\Users\Intern\AppData\Local\Temp\ccZcKJ7T.s 			page 12


 298              		.loc 1 306 0
 299 00fe FFF77FFF 		bl	ClockSetup
 300              	.LVL18:
 307:Generated_Source\PSoC4/cyfitter_cfg.c **** 
 308:Generated_Source\PSoC4/cyfitter_cfg.c **** 	/* Perform basic analog initialization to defaults */
 309:Generated_Source\PSoC4/cyfitter_cfg.c **** 	AnalogSetDefault();
 301              		.loc 1 309 0
 302 0102 FFF7FEFF 		bl	AnalogSetDefault
 303              	.LVL19:
 310:Generated_Source\PSoC4/cyfitter_cfg.c **** 
 311:Generated_Source\PSoC4/cyfitter_cfg.c **** }
 304              		.loc 1 311 0
 305              		@ sp needed
 306              	.LVL20:
 307 0106 10BD     		pop	{r4, pc}
 308              	.L15:
 309              		.align	2
 310              	.L14:
 311 0108 6CF02E40 		.word	1076818028
 312 010c 00000000 		.word	.LANCHOR0
 313 0110 00000240 		.word	1073872896
 314 0114 00500F40 		.word	1074745344
 315 0118 00700F40 		.word	1074753536
 316 011c 08000440 		.word	1074003976
 317              		.cfi_endproc
 318              	.LFE8:
 319              		.size	cyfitter_cfg, .-cyfitter_cfg
 320              		.section	.rodata
 321              		.align	2
 322              		.set	.LANCHOR0,. + 0
 323              		.type	cfg_memset_list.4891, %object
 324              		.size	cfg_memset_list.4891, 12
 325              	cfg_memset_list.4891:
 326 0000 00300F40 		.word	1074737152
 327 0004 0004     		.short	1024
 328 0006 00400F40 		.4byte	1074741248
 329 000a 0004     		.short	1024
 330              		.text
 331              	.Letext0:
 332              		.file 2 "c:\\program files (x86)\\cypress\\psoc creator\\4.2\\psoc creator\\import\\gnu\\arm\\5.4.
 333              		.file 3 "Generated_Source\\PSoC4\\cytypes.h"
 334              		.file 4 "Generated_Source\\PSoC4\\CyLib.h"